(lp0
ccopy_reg
_reconstructor
p1
(cBio.Entrez.Parser
DictionaryElement
p2
c__builtin__
dict
p3
(dp4
VCount
p5
g1
(cBio.Entrez.Parser
StringElement
p6
c__builtin__
str
p7
S'14'
p8
tp9
Rp10
(dp11
S'tag'
p12
g5
sbsVRetMax
p13
g1
(g6
g7
S'14'
p14
tp15
Rp16
(dp17
g12
g13
sbsVIdList
p18
g1
(cBio.Entrez.Parser
ListElement
p19
c__builtin__
list
p20
(lp21
g1
(g6
g7
S'166092441'
p22
tp23
Rp24
(dp25
g12
VId
p26
sbag1
(g6
g7
S'166092439'
p27
tp28
Rp29
(dp30
g12
g26
sbag1
(g6
g7
S'166092437'
p31
tp32
Rp33
(dp34
g12
g26
sbag1
(g6
g7
S'166092435'
p35
tp36
Rp37
(dp38
g12
g26
sbag1
(g6
g7
S'166092433'
p39
tp40
Rp41
(dp42
g12
g26
sbag1
(g6
g7
S'166092427'
p43
tp44
Rp45
(dp46
g12
g26
sbag1
(g6
g7
S'166092425'
p47
tp48
Rp49
(dp50
g12
g26
sbag1
(g6
g7
S'166092423'
p51
tp52
Rp53
(dp54
g12
g26
sbag1
(g6
g7
S'166092407'
p55
tp56
Rp57
(dp58
g12
g26
sbag1
(g6
g7
S'166092405'
p59
tp60
Rp61
(dp62
g12
g26
sbag1
(g6
g7
S'332168016'
p63
tp64
Rp65
(dp66
g12
g26
sbag1
(g6
g7
S'394339721'
p67
tp68
Rp69
(dp70
g12
g26
sbag1
(g6
g7
S'394339719'
p71
tp72
Rp73
(dp74
g12
g26
sbag1
(g6
g7
S'394339717'
p75
tp76
Rp77
(dp78
g12
g26
sbatp79
Rp80
(dp81
g12
g18
sbsVQueryTranslation
p82
g1
(g6
g7
S'"Nemipteridae"[Organism] AND RAG1[title]'
p83
tp84
Rp85
(dp86
g12
g82
sbsVTranslationStack
p87
g1
(g19
g20
(lp88
g1
(g2
g3
(dp89
g5
g1
(g6
g7
S'952'
p90
tp91
Rp92
(dp93
g12
g5
sbsVField
p94
g1
(g6
g7
S'Organism'
p95
tp96
Rp97
(dp98
g12
g94
sbsVTerm
p99
g1
(g6
g7
S'"Nemipteridae"[Organism]'
p100
tp101
Rp102
(dp103
g12
g99
sbsVExplode
p104
g1
(g6
g7
S'Y'
p105
tp106
Rp107
(dp108
g12
g104
sbstp109
Rp110
(dp111
g12
VTermSet
p112
sbag1
(g2
g3
(dp113
g5
g1
(g6
g7
S'31715'
p114
tp115
Rp116
(dp117
g12
g5
sbsg94
g1
(g6
g7
S'title'
p118
tp119
Rp120
(dp121
g12
g94
sbsg99
g1
(g6
g7
S'RAG1[title]'
p122
tp123
Rp124
(dp125
g12
g99
sbsg104
g1
(g6
g7
S'N'
p126
tp127
Rp128
(dp129
g12
g104
sbstp130
Rp131
(dp132
g12
g112
sbag1
(g6
g7
S'AND'
p133
tp134
Rp135
(dp136
g12
VOP
p137
sbatp138
Rp139
(dp140
g12
g87
sbsVRetStart
p141
g1
(g6
g7
S'0'
p142
tp143
Rp144
(dp145
g12
g141
sbsVTranslationSet
p146
g1
(g19
g20
(lp147
g1
(g2
g3
(dp148
VTo
p149
g1
(g6
g7
S'"Nemipteridae"[Organism]'
p150
tp151
Rp152
(dp153
g12
g149
sbsVFrom
p154
g1
(g6
g7
S'Nemipteridae[organism]'
p155
tp156
Rp157
(dp158
g12
g154
sbstp159
Rp160
(dp161
g12
VTranslation
p162
sbatp163
Rp164
(dp165
g12
g146
sbstp166
Rp167
(dp168
g12
VeSearchResult
p169
sba.