(lp0
ccopy_reg
_reconstructor
p1
(cBio.Entrez.Parser
DictionaryElement
p2
c__builtin__
dict
p3
(dp4
VCount
p5
g1
(cBio.Entrez.Parser
StringElement
p6
c__builtin__
str
p7
S'203'
p8
tp9
Rp10
(dp11
S'tag'
p12
g5
sbsVRetMax
p13
g1
(g6
g7
S'203'
p14
tp15
Rp16
(dp17
g12
g13
sbsVIdList
p18
g1
(cBio.Entrez.Parser
ListElement
p19
c__builtin__
list
p20
(lp21
g1
(g6
g7
S'952947143'
p22
tp23
Rp24
(dp25
g12
VId
p26
sbag1
(g6
g7
S'952947141'
p27
tp28
Rp29
(dp30
g12
g26
sbag1
(g6
g7
S'952947139'
p31
tp32
Rp33
(dp34
g12
g26
sbag1
(g6
g7
S'952947137'
p35
tp36
Rp37
(dp38
g12
g26
sbag1
(g6
g7
S'1101493220'
p39
tp40
Rp41
(dp42
g12
g26
sbag1
(g6
g7
S'1101493218'
p43
tp44
Rp45
(dp46
g12
g26
sbag1
(g6
g7
S'1101493216'
p47
tp48
Rp49
(dp50
g12
g26
sbag1
(g6
g7
S'1101493214'
p51
tp52
Rp53
(dp54
g12
g26
sbag1
(g6
g7
S'1101493212'
p55
tp56
Rp57
(dp58
g12
g26
sbag1
(g6
g7
S'1101493210'
p59
tp60
Rp61
(dp62
g12
g26
sbag1
(g6
g7
S'1101493208'
p63
tp64
Rp65
(dp66
g12
g26
sbag1
(g6
g7
S'1101493206'
p67
tp68
Rp69
(dp70
g12
g26
sbag1
(g6
g7
S'1101493204'
p71
tp72
Rp73
(dp74
g12
g26
sbag1
(g6
g7
S'1101493202'
p75
tp76
Rp77
(dp78
g12
g26
sbag1
(g6
g7
S'1101493200'
p79
tp80
Rp81
(dp82
g12
g26
sbag1
(g6
g7
S'1101493198'
p83
tp84
Rp85
(dp86
g12
g26
sbag1
(g6
g7
S'1101493196'
p87
tp88
Rp89
(dp90
g12
g26
sbag1
(g6
g7
S'1101493194'
p91
tp92
Rp93
(dp94
g12
g26
sbag1
(g6
g7
S'1101493192'
p95
tp96
Rp97
(dp98
g12
g26
sbag1
(g6
g7
S'1101493190'
p99
tp100
Rp101
(dp102
g12
g26
sbag1
(g6
g7
S'1101493188'
p103
tp104
Rp105
(dp106
g12
g26
sbag1
(g6
g7
S'1101493186'
p107
tp108
Rp109
(dp110
g12
g26
sbag1
(g6
g7
S'1101493184'
p111
tp112
Rp113
(dp114
g12
g26
sbag1
(g6
g7
S'1101493182'
p115
tp116
Rp117
(dp118
g12
g26
sbag1
(g6
g7
S'1101493180'
p119
tp120
Rp121
(dp122
g12
g26
sbag1
(g6
g7
S'1101493178'
p123
tp124
Rp125
(dp126
g12
g26
sbag1
(g6
g7
S'1101493176'
p127
tp128
Rp129
(dp130
g12
g26
sbag1
(g6
g7
S'1101493174'
p131
tp132
Rp133
(dp134
g12
g26
sbag1
(g6
g7
S'1101493172'
p135
tp136
Rp137
(dp138
g12
g26
sbag1
(g6
g7
S'1101493170'
p139
tp140
Rp141
(dp142
g12
g26
sbag1
(g6
g7
S'1101493168'
p143
tp144
Rp145
(dp146
g12
g26
sbag1
(g6
g7
S'1101493166'
p147
tp148
Rp149
(dp150
g12
g26
sbag1
(g6
g7
S'1101011485'
p151
tp152
Rp153
(dp154
g12
g26
sbag1
(g6
g7
S'1101011137'
p155
tp156
Rp157
(dp158
g12
g26
sbag1
(g6
g7
S'1101011135'
p159
tp160
Rp161
(dp162
g12
g26
sbag1
(g6
g7
S'1101011133'
p163
tp164
Rp165
(dp166
g12
g26
sbag1
(g6
g7
S'1101011131'
p167
tp168
Rp169
(dp170
g12
g26
sbag1
(g6
g7
S'1101011129'
p171
tp172
Rp173
(dp174
g12
g26
sbag1
(g6
g7
S'1101011127'
p175
tp176
Rp177
(dp178
g12
g26
sbag1
(g6
g7
S'1101011125'
p179
tp180
Rp181
(dp182
g12
g26
sbag1
(g6
g7
S'1101011123'
p183
tp184
Rp185
(dp186
g12
g26
sbag1
(g6
g7
S'195592507'
p187
tp188
Rp189
(dp190
g12
g26
sbag1
(g6
g7
S'195592505'
p191
tp192
Rp193
(dp194
g12
g26
sbag1
(g6
g7
S'194738618'
p195
tp196
Rp197
(dp198
g12
g26
sbag1
(g6
g7
S'194738617'
p199
tp200
Rp201
(dp202
g12
g26
sbag1
(g6
g7
S'339518395'
p203
tp204
Rp205
(dp206
g12
g26
sbag1
(g6
g7
S'329762879'
p207
tp208
Rp209
(dp210
g12
g26
sbag1
(g6
g7
S'328487340'
p211
tp212
Rp213
(dp214
g12
g26
sbag1
(g6
g7
S'328487338'
p215
tp216
Rp217
(dp218
g12
g26
sbag1
(g6
g7
S'328487336'
p219
tp220
Rp221
(dp222
g12
g26
sbag1
(g6
g7
S'328486392'
p223
tp224
Rp225
(dp226
g12
g26
sbag1
(g6
g7
S'322402525'
p227
tp228
Rp229
(dp230
g12
g26
sbag1
(g6
g7
S'322402477'
p231
tp232
Rp233
(dp234
g12
g26
sbag1
(g6
g7
S'312841759'
p235
tp236
Rp237
(dp238
g12
g26
sbag1
(g6
g7
S'309321185'
p239
tp240
Rp241
(dp242
g12
g26
sbag1
(g6
g7
S'309321183'
p243
tp244
Rp245
(dp246
g12
g26
sbag1
(g6
g7
S'309321181'
p247
tp248
Rp249
(dp250
g12
g26
sbag1
(g6
g7
S'309321179'
p251
tp252
Rp253
(dp254
g12
g26
sbag1
(g6
g7
S'309321177'
p255
tp256
Rp257
(dp258
g12
g26
sbag1
(g6
g7
S'309321175'
p259
tp260
Rp261
(dp262
g12
g26
sbag1
(g6
g7
S'309321095'
p263
tp264
Rp265
(dp266
g12
g26
sbag1
(g6
g7
S'309321093'
p267
tp268
Rp269
(dp270
g12
g26
sbag1
(g6
g7
S'309321091'
p271
tp272
Rp273
(dp274
g12
g26
sbag1
(g6
g7
S'309321089'
p275
tp276
Rp277
(dp278
g12
g26
sbag1
(g6
g7
S'296746929'
p279
tp280
Rp281
(dp282
g12
g26
sbag1
(g6
g7
S'227936543'
p283
tp284
Rp285
(dp286
g12
g26
sbag1
(g6
g7
S'227936541'
p287
tp288
Rp289
(dp290
g12
g26
sbag1
(g6
g7
S'227936539'
p291
tp292
Rp293
(dp294
g12
g26
sbag1
(g6
g7
S'227936537'
p295
tp296
Rp297
(dp298
g12
g26
sbag1
(g6
g7
S'227936535'
p299
tp300
Rp301
(dp302
g12
g26
sbag1
(g6
g7
S'227936533'
p303
tp304
Rp305
(dp306
g12
g26
sbag1
(g6
g7
S'227936531'
p307
tp308
Rp309
(dp310
g12
g26
sbag1
(g6
g7
S'227936529'
p311
tp312
Rp313
(dp314
g12
g26
sbag1
(g6
g7
S'227936527'
p315
tp316
Rp317
(dp318
g12
g26
sbag1
(g6
g7
S'227936525'
p319
tp320
Rp321
(dp322
g12
g26
sbag1
(g6
g7
S'227936523'
p323
tp324
Rp325
(dp326
g12
g26
sbag1
(g6
g7
S'227936521'
p327
tp328
Rp329
(dp330
g12
g26
sbag1
(g6
g7
S'227936519'
p331
tp332
Rp333
(dp334
g12
g26
sbag1
(g6
g7
S'227936517'
p335
tp336
Rp337
(dp338
g12
g26
sbag1
(g6
g7
S'227936515'
p339
tp340
Rp341
(dp342
g12
g26
sbag1
(g6
g7
S'227936513'
p343
tp344
Rp345
(dp346
g12
g26
sbag1
(g6
g7
S'954001175'
p347
tp348
Rp349
(dp350
g12
g26
sbag1
(g6
g7
S'1002677606'
p351
tp352
Rp353
(dp354
g12
g26
sbag1
(g6
g7
S'1002677403'
p355
tp356
Rp357
(dp358
g12
g26
sbag1
(g6
g7
S'926820815'
p359
tp360
Rp361
(dp362
g12
g26
sbag1
(g6
g7
S'926820368'
p363
tp364
Rp365
(dp366
g12
g26
sbag1
(g6
g7
S'825000985'
p367
tp368
Rp369
(dp370
g12
g26
sbag1
(g6
g7
S'825000981'
p371
tp372
Rp373
(dp374
g12
g26
sbag1
(g6
g7
S'825000977'
p375
tp376
Rp377
(dp378
g12
g26
sbag1
(g6
g7
S'825000973'
p379
tp380
Rp381
(dp382
g12
g26
sbag1
(g6
g7
S'959478774'
p383
tp384
Rp385
(dp386
g12
g26
sbag1
(g6
g7
S'816377383'
p387
tp388
Rp389
(dp390
g12
g26
sbag1
(g6
g7
S'816377293'
p391
tp392
Rp393
(dp394
g12
g26
sbag1
(g6
g7
S'816377213'
p395
tp396
Rp397
(dp398
g12
g26
sbag1
(g6
g7
S'816377051'
p399
tp400
Rp401
(dp402
g12
g26
sbag1
(g6
g7
S'816376873'
p403
tp404
Rp405
(dp406
g12
g26
sbag1
(g6
g7
S'816376673'
p407
tp408
Rp409
(dp410
g12
g26
sbag1
(g6
g7
S'816376601'
p411
tp412
Rp413
(dp414
g12
g26
sbag1
(g6
g7
S'816376499'
p415
tp416
Rp417
(dp418
g12
g26
sbag1
(g6
g7
S'816376389'
p419
tp420
Rp421
(dp422
g12
g26
sbag1
(g6
g7
S'816376151'
p423
tp424
Rp425
(dp426
g12
g26
sbag1
(g6
g7
S'816375857'
p427
tp428
Rp429
(dp430
g12
g26
sbag1
(g6
g7
S'816375527'
p431
tp432
Rp433
(dp434
g12
g26
sbag1
(g6
g7
S'816375521'
p435
tp436
Rp437
(dp438
g12
g26
sbag1
(g6
g7
S'816375503'
p439
tp440
Rp441
(dp442
g12
g26
sbag1
(g6
g7
S'816375463'
p443
tp444
Rp445
(dp446
g12
g26
sbag1
(g6
g7
S'802084961'
p447
tp448
Rp449
(dp450
g12
g26
sbag1
(g6
g7
S'802084959'
p451
tp452
Rp453
(dp454
g12
g26
sbag1
(g6
g7
S'802084957'
p455
tp456
Rp457
(dp458
g12
g26
sbag1
(g6
g7
S'802084955'
p459
tp460
Rp461
(dp462
g12
g26
sbag1
(g6
g7
S'802084953'
p463
tp464
Rp465
(dp466
g12
g26
sbag1
(g6
g7
S'802084951'
p467
tp468
Rp469
(dp470
g12
g26
sbag1
(g6
g7
S'802084949'
p471
tp472
Rp473
(dp474
g12
g26
sbag1
(g6
g7
S'802084947'
p475
tp476
Rp477
(dp478
g12
g26
sbag1
(g6
g7
S'802084945'
p479
tp480
Rp481
(dp482
g12
g26
sbag1
(g6
g7
S'802084943'
p483
tp484
Rp485
(dp486
g12
g26
sbag1
(g6
g7
S'802084941'
p487
tp488
Rp489
(dp490
g12
g26
sbag1
(g6
g7
S'802084939'
p491
tp492
Rp493
(dp494
g12
g26
sbag1
(g6
g7
S'802084937'
p495
tp496
Rp497
(dp498
g12
g26
sbag1
(g6
g7
S'802084935'
p499
tp500
Rp501
(dp502
g12
g26
sbag1
(g6
g7
S'752295121'
p503
tp504
Rp505
(dp506
g12
g26
sbag1
(g6
g7
S'752295119'
p507
tp508
Rp509
(dp510
g12
g26
sbag1
(g6
g7
S'752295117'
p511
tp512
Rp513
(dp514
g12
g26
sbag1
(g6
g7
S'752295115'
p515
tp516
Rp517
(dp518
g12
g26
sbag1
(g6
g7
S'752295113'
p519
tp520
Rp521
(dp522
g12
g26
sbag1
(g6
g7
S'752295111'
p523
tp524
Rp525
(dp526
g12
g26
sbag1
(g6
g7
S'752295109'
p527
tp528
Rp529
(dp530
g12
g26
sbag1
(g6
g7
S'752295107'
p531
tp532
Rp533
(dp534
g12
g26
sbag1
(g6
g7
S'752295105'
p535
tp536
Rp537
(dp538
g12
g26
sbag1
(g6
g7
S'752295103'
p539
tp540
Rp541
(dp542
g12
g26
sbag1
(g6
g7
S'752295101'
p543
tp544
Rp545
(dp546
g12
g26
sbag1
(g6
g7
S'752295099'
p547
tp548
Rp549
(dp550
g12
g26
sbag1
(g6
g7
S'752295097'
p551
tp552
Rp553
(dp554
g12
g26
sbag1
(g6
g7
S'752295095'
p555
tp556
Rp557
(dp558
g12
g26
sbag1
(g6
g7
S'752295093'
p559
tp560
Rp561
(dp562
g12
g26
sbag1
(g6
g7
S'752295091'
p563
tp564
Rp565
(dp566
g12
g26
sbag1
(g6
g7
S'752295089'
p567
tp568
Rp569
(dp570
g12
g26
sbag1
(g6
g7
S'752295087'
p571
tp572
Rp573
(dp574
g12
g26
sbag1
(g6
g7
S'752295085'
p575
tp576
Rp577
(dp578
g12
g26
sbag1
(g6
g7
S'752295083'
p579
tp580
Rp581
(dp582
g12
g26
sbag1
(g6
g7
S'755322512'
p583
tp584
Rp585
(dp586
g12
g26
sbag1
(g6
g7
S'755322510'
p587
tp588
Rp589
(dp590
g12
g26
sbag1
(g6
g7
S'657306618'
p591
tp592
Rp593
(dp594
g12
g26
sbag1
(g6
g7
S'684055270'
p595
tp596
Rp597
(dp598
g12
g26
sbag1
(g6
g7
S'807197898'
p599
tp600
Rp601
(dp602
g12
g26
sbag1
(g6
g7
S'807197893'
p603
tp604
Rp605
(dp606
g12
g26
sbag1
(g6
g7
S'807197892'
p607
tp608
Rp609
(dp610
g12
g26
sbag1
(g6
g7
S'628820488'
p611
tp612
Rp613
(dp614
g12
g26
sbag1
(g6
g7
S'628820452'
p615
tp616
Rp617
(dp618
g12
g26
sbag1
(g6
g7
S'628820450'
p619
tp620
Rp621
(dp622
g12
g26
sbag1
(g6
g7
S'628819226'
p623
tp624
Rp625
(dp626
g12
g26
sbag1
(g6
g7
S'573464340'
p627
tp628
Rp629
(dp630
g12
g26
sbag1
(g6
g7
S'573464338'
p631
tp632
Rp633
(dp634
g12
g26
sbag1
(g6
g7
S'554792185'
p635
tp636
Rp637
(dp638
g12
g26
sbag1
(g6
g7
S'554792183'
p639
tp640
Rp641
(dp642
g12
g26
sbag1
(g6
g7
S'554792181'
p643
tp644
Rp645
(dp646
g12
g26
sbag1
(g6
g7
S'557955586'
p647
tp648
Rp649
(dp650
g12
g26
sbag1
(g6
g7
S'557955540'
p651
tp652
Rp653
(dp654
g12
g26
sbag1
(g6
g7
S'557955538'
p655
tp656
Rp657
(dp658
g12
g26
sbag1
(g6
g7
S'531992222'
p659
tp660
Rp661
(dp662
g12
g26
sbag1
(g6
g7
S'531992193'
p663
tp664
Rp665
(dp666
g12
g26
sbag1
(g6
g7
S'525317065'
p667
tp668
Rp669
(dp670
g12
g26
sbag1
(g6
g7
S'525317059'
p671
tp672
Rp673
(dp674
g12
g26
sbag1
(g6
g7
S'584296777'
p675
tp676
Rp677
(dp678
g12
g26
sbag1
(g6
g7
S'584296775'
p679
tp680
Rp681
(dp682
g12
g26
sbag1
(g6
g7
S'563425652'
p683
tp684
Rp685
(dp686
g12
g26
sbag1
(g6
g7
S'541129145'
p687
tp688
Rp689
(dp690
g12
g26
sbag1
(g6
g7
S'541129143'
p691
tp692
Rp693
(dp694
g12
g26
sbag1
(g6
g7
S'541129141'
p695
tp696
Rp697
(dp698
g12
g26
sbag1
(g6
g7
S'417353620'
p699
tp700
Rp701
(dp702
g12
g26
sbag1
(g6
g7
S'375586694'
p703
tp704
Rp705
(dp706
g12
g26
sbag1
(g6
g7
S'375586691'
p707
tp708
Rp709
(dp710
g12
g26
sbag1
(g6
g7
S'375586688'
p711
tp712
Rp713
(dp714
g12
g26
sbag1
(g6
g7
S'375586685'
p715
tp716
Rp717
(dp718
g12
g26
sbag1
(g6
g7
S'375586682'
p719
tp720
Rp721
(dp722
g12
g26
sbag1
(g6
g7
S'375586679'
p723
tp724
Rp725
(dp726
g12
g26
sbag1
(g6
g7
S'375586676'
p727
tp728
Rp729
(dp730
g12
g26
sbag1
(g6
g7
S'375586673'
p731
tp732
Rp733
(dp734
g12
g26
sbag1
(g6
g7
S'375586670'
p735
tp736
Rp737
(dp738
g12
g26
sbag1
(g6
g7
S'375586667'
p739
tp740
Rp741
(dp742
g12
g26
sbag1
(g6
g7
S'375586664'
p743
tp744
Rp745
(dp746
g12
g26
sbag1
(g6
g7
S'375586661'
p747
tp748
Rp749
(dp750
g12
g26
sbag1
(g6
g7
S'375586658'
p751
tp752
Rp753
(dp754
g12
g26
sbag1
(g6
g7
S'375586655'
p755
tp756
Rp757
(dp758
g12
g26
sbag1
(g6
g7
S'375586058'
p759
tp760
Rp761
(dp762
g12
g26
sbag1
(g6
g7
S'379067362'
p763
tp764
Rp765
(dp766
g12
g26
sbag1
(g6
g7
S'379067360'
p767
tp768
Rp769
(dp770
g12
g26
sbag1
(g6
g7
S'379067358'
p771
tp772
Rp773
(dp774
g12
g26
sbag1
(g6
g7
S'148374117'
p775
tp776
Rp777
(dp778
g12
g26
sbag1
(g6
g7
S'148374115'
p779
tp780
Rp781
(dp782
g12
g26
sbag1
(g6
g7
S'148374037'
p783
tp784
Rp785
(dp786
g12
g26
sbag1
(g6
g7
S'148374035'
p787
tp788
Rp789
(dp790
g12
g26
sbag1
(g6
g7
S'148374033'
p791
tp792
Rp793
(dp794
g12
g26
sbag1
(g6
g7
S'227935111'
p795
tp796
Rp797
(dp798
g12
g26
sbag1
(g6
g7
S'148508921'
p799
tp800
Rp801
(dp802
g12
g26
sbag1
(g6
g7
S'148508919'
p803
tp804
Rp805
(dp806
g12
g26
sbag1
(g6
g7
S'148508917'
p807
tp808
Rp809
(dp810
g12
g26
sbag1
(g6
g7
S'148508915'
p811
tp812
Rp813
(dp814
g12
g26
sbag1
(g6
g7
S'148508913'
p815
tp816
Rp817
(dp818
g12
g26
sbag1
(g6
g7
S'148508911'
p819
tp820
Rp821
(dp822
g12
g26
sbag1
(g6
g7
S'148508909'
p823
tp824
Rp825
(dp826
g12
g26
sbag1
(g6
g7
S'148508907'
p827
tp828
Rp829
(dp830
g12
g26
sbag1
(g6
g7
S'148508905'
p831
tp832
Rp833
(dp834
g12
g26
sbatp835
Rp836
(dp837
g12
g18
sbsVQueryTranslation
p838
g1
(g6
g7
S'"Nemipteridae"[Organism] AND COI[title]'
p839
tp840
Rp841
(dp842
g12
g838
sbsVTranslationStack
p843
g1
(g19
g20
(lp844
g1
(g2
g3
(dp845
g5
g1
(g6
g7
S'952'
p846
tp847
Rp848
(dp849
g12
g5
sbsVField
p850
g1
(g6
g7
S'Organism'
p851
tp852
Rp853
(dp854
g12
g850
sbsVTerm
p855
g1
(g6
g7
S'"Nemipteridae"[Organism]'
p856
tp857
Rp858
(dp859
g12
g855
sbsVExplode
p860
g1
(g6
g7
S'Y'
p861
tp862
Rp863
(dp864
g12
g860
sbstp865
Rp866
(dp867
g12
VTermSet
p868
sbag1
(g2
g3
(dp869
g5
g1
(g6
g7
S'2167342'
p870
tp871
Rp872
(dp873
g12
g5
sbsg850
g1
(g6
g7
S'title'
p874
tp875
Rp876
(dp877
g12
g850
sbsg855
g1
(g6
g7
S'COI[title]'
p878
tp879
Rp880
(dp881
g12
g855
sbsg860
g1
(g6
g7
S'N'
p882
tp883
Rp884
(dp885
g12
g860
sbstp886
Rp887
(dp888
g12
g868
sbag1
(g6
g7
S'AND'
p889
tp890
Rp891
(dp892
g12
VOP
p893
sbatp894
Rp895
(dp896
g12
g843
sbsVRetStart
p897
g1
(g6
g7
S'0'
p898
tp899
Rp900
(dp901
g12
g897
sbsVTranslationSet
p902
g1
(g19
g20
(lp903
g1
(g2
g3
(dp904
VTo
p905
g1
(g6
g7
S'"Nemipteridae"[Organism]'
p906
tp907
Rp908
(dp909
g12
g905
sbsVFrom
p910
g1
(g6
g7
S'Nemipteridae[organism]'
p911
tp912
Rp913
(dp914
g12
g910
sbstp915
Rp916
(dp917
g12
VTranslation
p918
sbatp919
Rp920
(dp921
g12
g902
sbstp922
Rp923
(dp924
g12
VeSearchResult
p925
sba.