(lp0
ccopy_reg
_reconstructor
p1
(cBio.Entrez.Parser
DictionaryElement
p2
c__builtin__
dict
p3
(dp4
VCount
p5
g1
(cBio.Entrez.Parser
StringElement
p6
c__builtin__
str
p7
S'104'
p8
tp9
Rp10
(dp11
S'tag'
p12
g5
sbsVRetMax
p13
g1
(g6
g7
S'104'
p14
tp15
Rp16
(dp17
g12
g13
sbsVIdList
p18
g1
(cBio.Entrez.Parser
ListElement
p19
c__builtin__
list
p20
(lp21
g1
(g6
g7
S'339518287'
p22
tp23
Rp24
(dp25
g12
VId
p26
sbag1
(g6
g7
S'261349141'
p27
tp28
Rp29
(dp30
g12
g26
sbag1
(g6
g7
S'261349139'
p31
tp32
Rp33
(dp34
g12
g26
sbag1
(g6
g7
S'261349137'
p35
tp36
Rp37
(dp38
g12
g26
sbag1
(g6
g7
S'261349135'
p39
tp40
Rp41
(dp42
g12
g26
sbag1
(g6
g7
S'261349133'
p43
tp44
Rp45
(dp46
g12
g26
sbag1
(g6
g7
S'261349131'
p47
tp48
Rp49
(dp50
g12
g26
sbag1
(g6
g7
S'261349129'
p51
tp52
Rp53
(dp54
g12
g26
sbag1
(g6
g7
S'261349127'
p55
tp56
Rp57
(dp58
g12
g26
sbag1
(g6
g7
S'261349125'
p59
tp60
Rp61
(dp62
g12
g26
sbag1
(g6
g7
S'261349123'
p63
tp64
Rp65
(dp66
g12
g26
sbag1
(g6
g7
S'261349121'
p67
tp68
Rp69
(dp70
g12
g26
sbag1
(g6
g7
S'261349119'
p71
tp72
Rp73
(dp74
g12
g26
sbag1
(g6
g7
S'261349117'
p75
tp76
Rp77
(dp78
g12
g26
sbag1
(g6
g7
S'261349115'
p79
tp80
Rp81
(dp82
g12
g26
sbag1
(g6
g7
S'261349113'
p83
tp84
Rp85
(dp86
g12
g26
sbag1
(g6
g7
S'261349111'
p87
tp88
Rp89
(dp90
g12
g26
sbag1
(g6
g7
S'261349109'
p91
tp92
Rp93
(dp94
g12
g26
sbag1
(g6
g7
S'261349107'
p95
tp96
Rp97
(dp98
g12
g26
sbag1
(g6
g7
S'261349105'
p99
tp100
Rp101
(dp102
g12
g26
sbag1
(g6
g7
S'261349103'
p103
tp104
Rp105
(dp106
g12
g26
sbag1
(g6
g7
S'261349101'
p107
tp108
Rp109
(dp110
g12
g26
sbag1
(g6
g7
S'261349099'
p111
tp112
Rp113
(dp114
g12
g26
sbag1
(g6
g7
S'261349097'
p115
tp116
Rp117
(dp118
g12
g26
sbag1
(g6
g7
S'261349095'
p119
tp120
Rp121
(dp122
g12
g26
sbag1
(g6
g7
S'261349093'
p123
tp124
Rp125
(dp126
g12
g26
sbag1
(g6
g7
S'261349091'
p127
tp128
Rp129
(dp130
g12
g26
sbag1
(g6
g7
S'261349089'
p131
tp132
Rp133
(dp134
g12
g26
sbag1
(g6
g7
S'261349087'
p135
tp136
Rp137
(dp138
g12
g26
sbag1
(g6
g7
S'261349085'
p139
tp140
Rp141
(dp142
g12
g26
sbag1
(g6
g7
S'261349083'
p143
tp144
Rp145
(dp146
g12
g26
sbag1
(g6
g7
S'261349081'
p147
tp148
Rp149
(dp150
g12
g26
sbag1
(g6
g7
S'261349079'
p151
tp152
Rp153
(dp154
g12
g26
sbag1
(g6
g7
S'261349077'
p155
tp156
Rp157
(dp158
g12
g26
sbag1
(g6
g7
S'261349075'
p159
tp160
Rp161
(dp162
g12
g26
sbag1
(g6
g7
S'261349073'
p163
tp164
Rp165
(dp166
g12
g26
sbag1
(g6
g7
S'261349071'
p167
tp168
Rp169
(dp170
g12
g26
sbag1
(g6
g7
S'261349069'
p171
tp172
Rp173
(dp174
g12
g26
sbag1
(g6
g7
S'261349067'
p175
tp176
Rp177
(dp178
g12
g26
sbag1
(g6
g7
S'261349065'
p179
tp180
Rp181
(dp182
g12
g26
sbag1
(g6
g7
S'261349063'
p183
tp184
Rp185
(dp186
g12
g26
sbag1
(g6
g7
S'261349061'
p187
tp188
Rp189
(dp190
g12
g26
sbag1
(g6
g7
S'261349059'
p191
tp192
Rp193
(dp194
g12
g26
sbag1
(g6
g7
S'261349057'
p195
tp196
Rp197
(dp198
g12
g26
sbag1
(g6
g7
S'261349055'
p199
tp200
Rp201
(dp202
g12
g26
sbag1
(g6
g7
S'261349053'
p203
tp204
Rp205
(dp206
g12
g26
sbag1
(g6
g7
S'261349051'
p207
tp208
Rp209
(dp210
g12
g26
sbag1
(g6
g7
S'261349049'
p211
tp212
Rp213
(dp214
g12
g26
sbag1
(g6
g7
S'261349047'
p215
tp216
Rp217
(dp218
g12
g26
sbag1
(g6
g7
S'261349045'
p219
tp220
Rp221
(dp222
g12
g26
sbag1
(g6
g7
S'261349043'
p223
tp224
Rp225
(dp226
g12
g26
sbag1
(g6
g7
S'261349041'
p227
tp228
Rp229
(dp230
g12
g26
sbag1
(g6
g7
S'261349039'
p231
tp232
Rp233
(dp234
g12
g26
sbag1
(g6
g7
S'261349037'
p235
tp236
Rp237
(dp238
g12
g26
sbag1
(g6
g7
S'261349035'
p239
tp240
Rp241
(dp242
g12
g26
sbag1
(g6
g7
S'261349033'
p243
tp244
Rp245
(dp246
g12
g26
sbag1
(g6
g7
S'261349031'
p247
tp248
Rp249
(dp250
g12
g26
sbag1
(g6
g7
S'261349029'
p251
tp252
Rp253
(dp254
g12
g26
sbag1
(g6
g7
S'261349027'
p255
tp256
Rp257
(dp258
g12
g26
sbag1
(g6
g7
S'261349025'
p259
tp260
Rp261
(dp262
g12
g26
sbag1
(g6
g7
S'261349023'
p263
tp264
Rp265
(dp266
g12
g26
sbag1
(g6
g7
S'261349021'
p267
tp268
Rp269
(dp270
g12
g26
sbag1
(g6
g7
S'261349019'
p271
tp272
Rp273
(dp274
g12
g26
sbag1
(g6
g7
S'261349017'
p275
tp276
Rp277
(dp278
g12
g26
sbag1
(g6
g7
S'261349015'
p279
tp280
Rp281
(dp282
g12
g26
sbag1
(g6
g7
S'261349013'
p283
tp284
Rp285
(dp286
g12
g26
sbag1
(g6
g7
S'261349011'
p287
tp288
Rp289
(dp290
g12
g26
sbag1
(g6
g7
S'261349009'
p291
tp292
Rp293
(dp294
g12
g26
sbag1
(g6
g7
S'261349007'
p295
tp296
Rp297
(dp298
g12
g26
sbag1
(g6
g7
S'261349005'
p299
tp300
Rp301
(dp302
g12
g26
sbag1
(g6
g7
S'261349003'
p303
tp304
Rp305
(dp306
g12
g26
sbag1
(g6
g7
S'261349001'
p307
tp308
Rp309
(dp310
g12
g26
sbag1
(g6
g7
S'261348999'
p311
tp312
Rp313
(dp314
g12
g26
sbag1
(g6
g7
S'261348997'
p315
tp316
Rp317
(dp318
g12
g26
sbag1
(g6
g7
S'261348995'
p319
tp320
Rp321
(dp322
g12
g26
sbag1
(g6
g7
S'261348993'
p323
tp324
Rp325
(dp326
g12
g26
sbag1
(g6
g7
S'261348991'
p327
tp328
Rp329
(dp330
g12
g26
sbag1
(g6
g7
S'13183290'
p331
tp332
Rp333
(dp334
g12
g26
sbag1
(g6
g7
S'13183288'
p335
tp336
Rp337
(dp338
g12
g26
sbag1
(g6
g7
S'959479010'
p339
tp340
Rp341
(dp342
g12
g26
sbag1
(g6
g7
S'189503679'
p343
tp344
Rp345
(dp346
g12
g26
sbag1
(g6
g7
S'189503678'
p347
tp348
Rp349
(dp350
g12
g26
sbag1
(g6
g7
S'189503677'
p351
tp352
Rp353
(dp354
g12
g26
sbag1
(g6
g7
S'189503676'
p355
tp356
Rp357
(dp358
g12
g26
sbag1
(g6
g7
S'189503675'
p359
tp360
Rp361
(dp362
g12
g26
sbag1
(g6
g7
S'189503674'
p363
tp364
Rp365
(dp366
g12
g26
sbag1
(g6
g7
S'189503673'
p367
tp368
Rp369
(dp370
g12
g26
sbag1
(g6
g7
S'189503672'
p371
tp372
Rp373
(dp374
g12
g26
sbag1
(g6
g7
S'189503671'
p375
tp376
Rp377
(dp378
g12
g26
sbag1
(g6
g7
S'189503670'
p379
tp380
Rp381
(dp382
g12
g26
sbag1
(g6
g7
S'189503669'
p383
tp384
Rp385
(dp386
g12
g26
sbag1
(g6
g7
S'189503668'
p387
tp388
Rp389
(dp390
g12
g26
sbag1
(g6
g7
S'189503667'
p391
tp392
Rp393
(dp394
g12
g26
sbag1
(g6
g7
S'189503666'
p395
tp396
Rp397
(dp398
g12
g26
sbag1
(g6
g7
S'189503665'
p399
tp400
Rp401
(dp402
g12
g26
sbag1
(g6
g7
S'189503664'
p403
tp404
Rp405
(dp406
g12
g26
sbag1
(g6
g7
S'189503663'
p407
tp408
Rp409
(dp410
g12
g26
sbag1
(g6
g7
S'189503662'
p411
tp412
Rp413
(dp414
g12
g26
sbag1
(g6
g7
S'189503661'
p415
tp416
Rp417
(dp418
g12
g26
sbag1
(g6
g7
S'189503660'
p419
tp420
Rp421
(dp422
g12
g26
sbag1
(g6
g7
S'189503659'
p423
tp424
Rp425
(dp426
g12
g26
sbag1
(g6
g7
S'110238713'
p427
tp428
Rp429
(dp430
g12
g26
sbag1
(g6
g7
S'163930039'
p431
tp432
Rp433
(dp434
g12
g26
sbag1
(g6
g7
S'163930033'
p435
tp436
Rp437
(dp438
g12
g26
sbatp439
Rp440
(dp441
g12
g18
sbsVQueryTranslation
p442
g1
(g6
g7
S'"Nemipteridae"[Organism] AND CytB[title]'
p443
tp444
Rp445
(dp446
g12
g442
sbsVTranslationStack
p447
g1
(g19
g20
(lp448
g1
(g2
g3
(dp449
g5
g1
(g6
g7
S'952'
p450
tp451
Rp452
(dp453
g12
g5
sbsVField
p454
g1
(g6
g7
S'Organism'
p455
tp456
Rp457
(dp458
g12
g454
sbsVTerm
p459
g1
(g6
g7
S'"Nemipteridae"[Organism]'
p460
tp461
Rp462
(dp463
g12
g459
sbsVExplode
p464
g1
(g6
g7
S'Y'
p465
tp466
Rp467
(dp468
g12
g464
sbstp469
Rp470
(dp471
g12
VTermSet
p472
sbag1
(g2
g3
(dp473
g5
g1
(g6
g7
S'320203'
p474
tp475
Rp476
(dp477
g12
g5
sbsg454
g1
(g6
g7
S'title'
p478
tp479
Rp480
(dp481
g12
g454
sbsg459
g1
(g6
g7
S'CytB[title]'
p482
tp483
Rp484
(dp485
g12
g459
sbsg464
g1
(g6
g7
S'N'
p486
tp487
Rp488
(dp489
g12
g464
sbstp490
Rp491
(dp492
g12
g472
sbag1
(g6
g7
S'AND'
p493
tp494
Rp495
(dp496
g12
VOP
p497
sbatp498
Rp499
(dp500
g12
g447
sbsVRetStart
p501
g1
(g6
g7
S'0'
p502
tp503
Rp504
(dp505
g12
g501
sbsVTranslationSet
p506
g1
(g19
g20
(lp507
g1
(g2
g3
(dp508
VTo
p509
g1
(g6
g7
S'"Nemipteridae"[Organism]'
p510
tp511
Rp512
(dp513
g12
g509
sbsVFrom
p514
g1
(g6
g7
S'Nemipteridae[organism]'
p515
tp516
Rp517
(dp518
g12
g514
sbstp519
Rp520
(dp521
g12
VTranslation
p522
sbatp523
Rp524
(dp525
g12
g506
sbstp526
Rp527
(dp528
g12
VeSearchResult
p529
sba.