(lp0
ccopy_reg
_reconstructor
p1
(cBio.Entrez.Parser
DictionaryElement
p2
c__builtin__
dict
p3
(dp4
VCount
p5
g1
(cBio.Entrez.Parser
StringElement
p6
c__builtin__
str
p7
S'31'
p8
tp9
Rp10
(dp11
S'tag'
p12
g5
sbsVRetMax
p13
g1
(g6
g7
S'31'
p14
tp15
Rp16
(dp17
g12
g13
sbsVIdList
p18
g1
(cBio.Entrez.Parser
ListElement
p19
c__builtin__
list
p20
(lp21
g1
(g6
g7
S'992321741'
p22
tp23
Rp24
(dp25
g12
VId
p26
sbag1
(g6
g7
S'992321740'
p27
tp28
Rp29
(dp30
g12
g26
sbag1
(g6
g7
S'444292724'
p31
tp32
Rp33
(dp34
g12
g26
sbag1
(g6
g7
S'698175408'
p35
tp36
Rp37
(dp38
g12
g26
sbag1
(g6
g7
S'659835082'
p39
tp40
Rp41
(dp42
g12
g26
sbag1
(g6
g7
S'659835081'
p43
tp44
Rp45
(dp46
g12
g26
sbag1
(g6
g7
S'659835080'
p47
tp48
Rp49
(dp50
g12
g26
sbag1
(g6
g7
S'659835079'
p51
tp52
Rp53
(dp54
g12
g26
sbag1
(g6
g7
S'659835078'
p55
tp56
Rp57
(dp58
g12
g26
sbag1
(g6
g7
S'659835077'
p59
tp60
Rp61
(dp62
g12
g26
sbag1
(g6
g7
S'659835076'
p63
tp64
Rp65
(dp66
g12
g26
sbag1
(g6
g7
S'659835075'
p67
tp68
Rp69
(dp70
g12
g26
sbag1
(g6
g7
S'659835074'
p71
tp72
Rp73
(dp74
g12
g26
sbag1
(g6
g7
S'659835073'
p75
tp76
Rp77
(dp78
g12
g26
sbag1
(g6
g7
S'109158957'
p79
tp80
Rp81
(dp82
g12
g26
sbag1
(g6
g7
S'109158622'
p83
tp84
Rp85
(dp86
g12
g26
sbag1
(g6
g7
S'375005923'
p87
tp88
Rp89
(dp90
g12
g26
sbag1
(g6
g7
S'375005922'
p91
tp92
Rp93
(dp94
g12
g26
sbag1
(g6
g7
S'375005921'
p95
tp96
Rp97
(dp98
g12
g26
sbag1
(g6
g7
S'375005920'
p99
tp100
Rp101
(dp102
g12
g26
sbag1
(g6
g7
S'375005919'
p103
tp104
Rp105
(dp106
g12
g26
sbag1
(g6
g7
S'375005918'
p107
tp108
Rp109
(dp110
g12
g26
sbag1
(g6
g7
S'375005917'
p111
tp112
Rp113
(dp114
g12
g26
sbag1
(g6
g7
S'375005916'
p115
tp116
Rp117
(dp118
g12
g26
sbag1
(g6
g7
S'375005915'
p119
tp120
Rp121
(dp122
g12
g26
sbag1
(g6
g7
S'375005914'
p123
tp124
Rp125
(dp126
g12
g26
sbag1
(g6
g7
S'375005913'
p127
tp128
Rp129
(dp130
g12
g26
sbag1
(g6
g7
S'375005912'
p131
tp132
Rp133
(dp134
g12
g26
sbag1
(g6
g7
S'375005911'
p135
tp136
Rp137
(dp138
g12
g26
sbag1
(g6
g7
S'19850122'
p139
tp140
Rp141
(dp142
g12
g26
sbag1
(g6
g7
S'19850121'
p143
tp144
Rp145
(dp146
g12
g26
sbatp147
Rp148
(dp149
g12
g18
sbsVQueryTranslation
p150
g1
(g6
g7
S'"Nemipteridae"[Organism] AND 16S[title]'
p151
tp152
Rp153
(dp154
g12
g150
sbsVTranslationStack
p155
g1
(g19
g20
(lp156
g1
(g2
g3
(dp157
g5
g1
(g6
g7
S'952'
p158
tp159
Rp160
(dp161
g12
g5
sbsVField
p162
g1
(g6
g7
S'Organism'
p163
tp164
Rp165
(dp166
g12
g162
sbsVTerm
p167
g1
(g6
g7
S'"Nemipteridae"[Organism]'
p168
tp169
Rp170
(dp171
g12
g167
sbsVExplode
p172
g1
(g6
g7
S'Y'
p173
tp174
Rp175
(dp176
g12
g172
sbstp177
Rp178
(dp179
g12
VTermSet
p180
sbag1
(g2
g3
(dp181
g5
g1
(g6
g7
S'7139828'
p182
tp183
Rp184
(dp185
g12
g5
sbsg162
g1
(g6
g7
S'title'
p186
tp187
Rp188
(dp189
g12
g162
sbsg167
g1
(g6
g7
S'16S[title]'
p190
tp191
Rp192
(dp193
g12
g167
sbsg172
g1
(g6
g7
S'N'
p194
tp195
Rp196
(dp197
g12
g172
sbstp198
Rp199
(dp200
g12
g180
sbag1
(g6
g7
S'AND'
p201
tp202
Rp203
(dp204
g12
VOP
p205
sbatp206
Rp207
(dp208
g12
g155
sbsVRetStart
p209
g1
(g6
g7
S'0'
p210
tp211
Rp212
(dp213
g12
g209
sbsVTranslationSet
p214
g1
(g19
g20
(lp215
g1
(g2
g3
(dp216
VTo
p217
g1
(g6
g7
S'"Nemipteridae"[Organism]'
p218
tp219
Rp220
(dp221
g12
g217
sbsVFrom
p222
g1
(g6
g7
S'Nemipteridae[organism]'
p223
tp224
Rp225
(dp226
g12
g222
sbstp227
Rp228
(dp229
g12
VTranslation
p230
sbatp231
Rp232
(dp233
g12
g214
sbstp234
Rp235
(dp236
g12
VeSearchResult
p237
sba.