(lp0
ccopy_reg
_reconstructor
p1
(cBio.Entrez.Parser
DictionaryElement
p2
c__builtin__
dict
p3
(dp4
VCount
p5
g1
(cBio.Entrez.Parser
StringElement
p6
c__builtin__
str
p7
S'18'
p8
tp9
Rp10
(dp11
S'tag'
p12
g5
sbsVRetMax
p13
g1
(g6
g7
S'18'
p14
tp15
Rp16
(dp17
g12
g13
sbsVIdList
p18
g1
(cBio.Entrez.Parser
ListElement
p19
c__builtin__
list
p20
(lp21
g1
(g6
g7
S'166092379'
p22
tp23
Rp24
(dp25
g12
VId
p26
sbag1
(g6
g7
S'166092377'
p27
tp28
Rp29
(dp30
g12
g26
sbag1
(g6
g7
S'339431551'
p31
tp32
Rp33
(dp34
g12
g26
sbag1
(g6
g7
S'985563684'
p35
tp36
Rp37
(dp38
g12
g26
sbag1
(g6
g7
S'906357697'
p39
tp40
Rp41
(dp42
g12
g26
sbag1
(g6
g7
S'557955462'
p43
tp44
Rp45
(dp46
g12
g26
sbag1
(g6
g7
S'482706364'
p47
tp48
Rp49
(dp50
g12
g26
sbag1
(g6
g7
S'481048749'
p51
tp52
Rp53
(dp54
g12
g26
sbag1
(g6
g7
S'469609703'
p55
tp56
Rp57
(dp58
g12
g26
sbag1
(g6
g7
S'469609473'
p59
tp60
Rp61
(dp62
g12
g26
sbag1
(g6
g7
S'469609217'
p63
tp64
Rp65
(dp66
g12
g26
sbag1
(g6
g7
S'469608947'
p67
tp68
Rp69
(dp70
g12
g26
sbag1
(g6
g7
S'381279168'
p71
tp72
Rp73
(dp74
g12
g26
sbag1
(g6
g7
S'381279166'
p75
tp76
Rp77
(dp78
g12
g26
sbag1
(g6
g7
S'375585653'
p79
tp80
Rp81
(dp82
g12
g26
sbag1
(g6
g7
S'375585650'
p83
tp84
Rp85
(dp86
g12
g26
sbag1
(g6
g7
S'375585647'
p87
tp88
Rp89
(dp90
g12
g26
sbag1
(g6
g7
S'165974211'
p91
tp92
Rp93
(dp94
g12
g26
sbatp95
Rp96
(dp97
g12
g18
sbsVQueryTranslation
p98
g1
(g6
g7
S'Gnathodentex aureolineatus[PORG]'
p99
tp100
Rp101
(dp102
g12
g98
sbsVTranslationStack
p103
g1
(g19
g20
(lp104
g1
(g2
g3
(dp105
g5
g1
(g6
g7
S'18'
p106
tp107
Rp108
(dp109
g12
g5
sbsVField
p110
g1
(g6
g7
S'PORG'
p111
tp112
Rp113
(dp114
g12
g110
sbsVTerm
p115
g1
(g6
g7
S'Gnathodentex aureolineatus[PORG]'
p116
tp117
Rp118
(dp119
g12
g115
sbsVExplode
p120
g1
(g6
g7
S'Y'
p121
tp122
Rp123
(dp124
g12
g120
sbstp125
Rp126
(dp127
g12
VTermSet
p128
sbag1
(g6
g7
S'GROUP'
p129
tp130
Rp131
(dp132
g12
VOP
p133
sbatp134
Rp135
(dp136
g12
g103
sbsVRetStart
p137
g1
(g6
g7
S'0'
p138
tp139
Rp140
(dp141
g12
g137
sbsVTranslationSet
p142
g1
(g19
g20
(lp143
tp144
Rp145
(dp146
g12
g142
sbstp147
Rp148
(dp149
g12
VeSearchResult
p150
sbag1
(g2
g3
(dp151
VCount
p152
g1
(g6
g7
S'1'
p153
tp154
Rp155
(dp156
g12
g152
sbsVRetMax
p157
g1
(g6
g7
g153
tp158
Rp159
(dp160
g12
g157
sbsVIdList
p161
g1
(g19
g20
(lp162
g1
(g6
g7
S'148373933'
p163
tp164
Rp165
(dp166
g12
VId
p167
sbatp168
Rp169
(dp170
g12
g161
sbsVQueryTranslation
p171
g1
(g6
g7
S'Gymnocranius audleyi[PORG]'
p172
tp173
Rp174
(dp175
g12
g171
sbsVTranslationStack
p176
g1
(g19
g20
(lp177
g1
(g2
g3
(dp178
g152
g1
(g6
g7
g153
tp179
Rp180
(dp181
g12
g152
sbsVField
p182
g1
(g6
g7
S'PORG'
p183
tp184
Rp185
(dp186
g12
g182
sbsVTerm
p187
g1
(g6
g7
S'Gymnocranius audleyi[PORG]'
p188
tp189
Rp190
(dp191
g12
g187
sbsVExplode
p192
g1
(g6
g7
g121
tp193
Rp194
(dp195
g12
g192
sbstp196
Rp197
(dp198
g12
VTermSet
p199
sbag1
(g6
g7
S'GROUP'
p200
tp201
Rp202
(dp203
g12
VOP
p204
sbatp205
Rp206
(dp207
g12
g176
sbsVRetStart
p208
g1
(g6
g7
g138
tp209
Rp210
(dp211
g12
g208
sbsVTranslationSet
p212
g1
(g19
g20
(lp213
tp214
Rp215
(dp216
g12
g212
sbstp217
Rp218
(dp219
g12
VeSearchResult
p220
sbag1
(g2
g3
(dp221
VCount
p222
g1
(g6
g7
S'7'
p223
tp224
Rp225
(dp226
g12
g222
sbsVRetMax
p227
g1
(g6
g7
g223
tp228
Rp229
(dp230
g12
g227
sbsVIdList
p231
g1
(g19
g20
(lp232
g1
(g6
g7
S'21388800'
p233
tp234
Rp235
(dp236
g12
VId
p237
sbag1
(g6
g7
S'166092381'
p238
tp239
Rp240
(dp241
g12
g237
sbag1
(g6
g7
S'339431561'
p242
tp243
Rp244
(dp245
g12
g237
sbag1
(g6
g7
S'985565738'
p246
tp247
Rp248
(dp249
g12
g237
sbag1
(g6
g7
S'557955466'
p250
tp251
Rp252
(dp253
g12
g237
sbag1
(g6
g7
S'531992161'
p254
tp255
Rp256
(dp257
g12
g237
sbag1
(g6
g7
S'148373935'
p258
tp259
Rp260
(dp261
g12
g237
sbatp262
Rp263
(dp264
g12
g231
sbsVQueryTranslation
p265
g1
(g6
g7
S'Gymnocranius elongatus[PORG]'
p266
tp267
Rp268
(dp269
g12
g265
sbsVTranslationStack
p270
g1
(g19
g20
(lp271
g1
(g2
g3
(dp272
g222
g1
(g6
g7
g223
tp273
Rp274
(dp275
g12
g222
sbsVField
p276
g1
(g6
g7
S'PORG'
p277
tp278
Rp279
(dp280
g12
g276
sbsVTerm
p281
g1
(g6
g7
S'Gymnocranius elongatus[PORG]'
p282
tp283
Rp284
(dp285
g12
g281
sbsVExplode
p286
g1
(g6
g7
g121
tp287
Rp288
(dp289
g12
g286
sbstp290
Rp291
(dp292
g12
VTermSet
p293
sbag1
(g6
g7
S'GROUP'
p294
tp295
Rp296
(dp297
g12
VOP
p298
sbatp299
Rp300
(dp301
g12
g270
sbsVRetStart
p302
g1
(g6
g7
g138
tp303
Rp304
(dp305
g12
g302
sbsVTranslationSet
p306
g1
(g19
g20
(lp307
tp308
Rp309
(dp310
g12
g306
sbstp311
Rp312
(dp313
g12
VeSearchResult
p314
sbag1
(g2
g3
(dp315
VCount
p316
g1
(g6
g7
g153
tp317
Rp318
(dp319
g12
g316
sbsVRetMax
p320
g1
(g6
g7
g153
tp321
Rp322
(dp323
g12
g320
sbsVIdList
p324
g1
(g19
g20
(lp325
g1
(g6
g7
S'906357365'
p326
tp327
Rp328
(dp329
g12
VId
p330
sbatp331
Rp332
(dp333
g12
g324
sbsVQueryTranslation
p334
g1
(g6
g7
S'Gymnocranius euanus[PORG]'
p335
tp336
Rp337
(dp338
g12
g334
sbsVTranslationStack
p339
g1
(g19
g20
(lp340
g1
(g2
g3
(dp341
g316
g1
(g6
g7
g153
tp342
Rp343
(dp344
g12
g316
sbsVField
p345
g1
(g6
g7
S'PORG'
p346
tp347
Rp348
(dp349
g12
g345
sbsVTerm
p350
g1
(g6
g7
S'Gymnocranius euanus[PORG]'
p351
tp352
Rp353
(dp354
g12
g350
sbsVExplode
p355
g1
(g6
g7
g121
tp356
Rp357
(dp358
g12
g355
sbstp359
Rp360
(dp361
g12
VTermSet
p362
sbag1
(g6
g7
S'GROUP'
p363
tp364
Rp365
(dp366
g12
VOP
p367
sbatp368
Rp369
(dp370
g12
g339
sbsVRetStart
p371
g1
(g6
g7
g138
tp372
Rp373
(dp374
g12
g371
sbsVTranslationSet
p375
g1
(g19
g20
(lp376
tp377
Rp378
(dp379
g12
g375
sbstp380
Rp381
(dp382
g12
VeSearchResult
p383
sbag1
(g2
g3
(dp384
VCount
p385
g1
(g6
g7
g138
tp386
Rp387
(dp388
g12
g385
sbsVRetMax
p389
g1
(g6
g7
g138
tp390
Rp391
(dp392
g12
g389
sbsVIdList
p393
g1
(g19
g20
(lp394
tp395
Rp396
(dp397
g12
g393
sbsVRetStart
p398
g1
(g6
g7
g138
tp399
Rp400
(dp401
g12
g398
sbsVErrorList
p402
g1
(cBio.Entrez.Parser
StructureElement
p403
g3
(dp404
VFieldNotFound
p405
(lp406
sVPhraseNotFound
p407
(lp408
g1
(g6
g7
S'Gymnocranius frenatus[PORG]'
p409
tp410
Rp411
(dp412
g12
VPhraseNotFound
p413
sbastp414
Rp415
(dp416
g12
g402
sS'listkeys'
p417
(lp418
g407
ag405
asbsVTranslationSet
p419
g1
(g19
g20
(lp420
tp421
Rp422
(dp423
g12
g419
sbsVWarningList
p424
g1
(g403
g3
(dp425
VOutputMessage
p426
(lp427
g1
(g6
g7
S'No items found.'
p428
tp429
Rp430
(dp431
g12
VOutputMessage
p432
sbasVPhraseIgnored
p433
(lp434
sVQuotedPhraseNotFound
p435
(lp436
stp437
Rp438
(dp439
g12
g424
sg417
(lp440
g433
ag435
ag426
asbsVQueryTranslation
p441
g1
(g6
g7
S'(Gymnocranius frenatus[PORG])'
p442
tp443
Rp444
(dp445
g12
g441
sbstp446
Rp447
(dp448
g12
VeSearchResult
p449
sbag1
(g2
g3
(dp450
VCount
p451
g1
(g6
g7
S'13'
p452
tp453
Rp454
(dp455
g12
g451
sbsVRetMax
p456
g1
(g6
g7
S'13'
p457
tp458
Rp459
(dp460
g12
g456
sbsVIdList
p461
g1
(g19
g20
(lp462
g1
(g6
g7
S'21388830'
p463
tp464
Rp465
(dp466
g12
VId
p467
sbag1
(g6
g7
S'328485576'
p468
tp469
Rp470
(dp471
g12
g467
sbag1
(g6
g7
S'985565741'
p472
tp473
Rp474
(dp475
g12
g467
sbag1
(g6
g7
S'906357363'
p476
tp477
Rp478
(dp479
g12
g467
sbag1
(g6
g7
S'554791999'
p480
tp481
Rp482
(dp483
g12
g467
sbag1
(g6
g7
S'482711746'
p484
tp485
Rp486
(dp487
g12
g467
sbag1
(g6
g7
S'482709831'
p488
tp489
Rp490
(dp491
g12
g467
sbag1
(g6
g7
S'482708637'
p492
tp493
Rp494
(dp495
g12
g467
sbag1
(g6
g7
S'482705318'
p496
tp497
Rp498
(dp499
g12
g467
sbag1
(g6
g7
S'482703966'
p500
tp501
Rp502
(dp503
g12
g467
sbag1
(g6
g7
S'482715175'
p504
tp505
Rp506
(dp507
g12
g467
sbag1
(g6
g7
S'482712279'
p508
tp509
Rp510
(dp511
g12
g467
sbag1
(g6
g7
S'148373937'
p512
tp513
Rp514
(dp515
g12
g467
sbatp516
Rp517
(dp518
g12
g461
sbsVQueryTranslation
p519
g1
(g6
g7
S'Gymnocranius grandoculis[PORG]'
p520
tp521
Rp522
(dp523
g12
g519
sbsVTranslationStack
p524
g1
(g19
g20
(lp525
g1
(g2
g3
(dp526
g451
g1
(g6
g7
S'13'
p527
tp528
Rp529
(dp530
g12
g451
sbsVField
p531
g1
(g6
g7
S'PORG'
p532
tp533
Rp534
(dp535
g12
g531
sbsVTerm
p536
g1
(g6
g7
S'Gymnocranius grandoculis[PORG]'
p537
tp538
Rp539
(dp540
g12
g536
sbsVExplode
p541
g1
(g6
g7
g121
tp542
Rp543
(dp544
g12
g541
sbstp545
Rp546
(dp547
g12
VTermSet
p548
sbag1
(g6
g7
S'GROUP'
p549
tp550
Rp551
(dp552
g12
VOP
p553
sbatp554
Rp555
(dp556
g12
g524
sbsVRetStart
p557
g1
(g6
g7
g138
tp558
Rp559
(dp560
g12
g557
sbsVTranslationSet
p561
g1
(g19
g20
(lp562
tp563
Rp564
(dp565
g12
g561
sbstp566
Rp567
(dp568
g12
VeSearchResult
p569
sbag1
(g2
g3
(dp570
VCount
p571
g1
(g6
g7
S'10'
p572
tp573
Rp574
(dp575
g12
g571
sbsVRetMax
p576
g1
(g6
g7
S'10'
p577
tp578
Rp579
(dp580
g12
g576
sbsVIdList
p581
g1
(g19
g20
(lp582
g1
(g6
g7
S'21388798'
p583
tp584
Rp585
(dp586
g12
VId
p587
sbag1
(g6
g7
S'328485590'
p588
tp589
Rp590
(dp591
g12
g587
sbag1
(g6
g7
S'328485588'
p592
tp593
Rp594
(dp595
g12
g587
sbag1
(g6
g7
S'328485586'
p596
tp597
Rp598
(dp599
g12
g587
sbag1
(g6
g7
S'328485584'
p600
tp601
Rp602
(dp603
g12
g587
sbag1
(g6
g7
S'328485582'
p604
tp605
Rp606
(dp607
g12
g587
sbag1
(g6
g7
S'328485580'
p608
tp609
Rp610
(dp611
g12
g587
sbag1
(g6
g7
S'328485578'
p612
tp613
Rp614
(dp615
g12
g587
sbag1
(g6
g7
S'752502885'
p616
tp617
Rp618
(dp619
g12
g587
sbag1
(g6
g7
S'387600434'
p620
tp621
Rp622
(dp623
g12
g587
sbatp624
Rp625
(dp626
g12
g581
sbsVQueryTranslation
p627
g1
(g6
g7
S'Gymnocranius griseus[PORG]'
p628
tp629
Rp630
(dp631
g12
g627
sbsVTranslationStack
p632
g1
(g19
g20
(lp633
g1
(g2
g3
(dp634
g571
g1
(g6
g7
S'10'
p635
tp636
Rp637
(dp638
g12
g571
sbsVField
p639
g1
(g6
g7
S'PORG'
p640
tp641
Rp642
(dp643
g12
g639
sbsVTerm
p644
g1
(g6
g7
S'Gymnocranius griseus[PORG]'
p645
tp646
Rp647
(dp648
g12
g644
sbsVExplode
p649
g1
(g6
g7
g121
tp650
Rp651
(dp652
g12
g649
sbstp653
Rp654
(dp655
g12
VTermSet
p656
sbag1
(g6
g7
S'GROUP'
p657
tp658
Rp659
(dp660
g12
VOP
p661
sbatp662
Rp663
(dp664
g12
g632
sbsVRetStart
p665
g1
(g6
g7
g138
tp666
Rp667
(dp668
g12
g665
sbsVTranslationSet
p669
g1
(g19
g20
(lp670
tp671
Rp672
(dp673
g12
g669
sbstp674
Rp675
(dp676
g12
VeSearchResult
p677
sbag1
(g2
g3
(dp678
VCount
p679
g1
(g6
g7
g153
tp680
Rp681
(dp682
g12
g679
sbsVRetMax
p683
g1
(g6
g7
g153
tp684
Rp685
(dp686
g12
g683
sbsVIdList
p687
g1
(g19
g20
(lp688
g1
(g6
g7
S'554792001'
p689
tp690
Rp691
(dp692
g12
VId
p693
sbatp694
Rp695
(dp696
g12
g687
sbsVQueryTranslation
p697
g1
(g6
g7
S'Gymnocranius microdon[PORG]'
p698
tp699
Rp700
(dp701
g12
g697
sbsVTranslationStack
p702
g1
(g19
g20
(lp703
g1
(g2
g3
(dp704
g679
g1
(g6
g7
g153
tp705
Rp706
(dp707
g12
g679
sbsVField
p708
g1
(g6
g7
S'PORG'
p709
tp710
Rp711
(dp712
g12
g708
sbsVTerm
p713
g1
(g6
g7
S'Gymnocranius microdon[PORG]'
p714
tp715
Rp716
(dp717
g12
g713
sbsVExplode
p718
g1
(g6
g7
g121
tp719
Rp720
(dp721
g12
g718
sbstp722
Rp723
(dp724
g12
VTermSet
p725
sbag1
(g6
g7
S'GROUP'
p726
tp727
Rp728
(dp729
g12
VOP
p730
sbatp731
Rp732
(dp733
g12
g702
sbsVRetStart
p734
g1
(g6
g7
g138
tp735
Rp736
(dp737
g12
g734
sbsVTranslationSet
p738
g1
(g19
g20
(lp739
tp740
Rp741
(dp742
g12
g738
sbstp743
Rp744
(dp745
g12
VeSearchResult
p746
sbag1
(g2
g3
(dp747
VCount
p748
g1
(g6
g7
g223
tp749
Rp750
(dp751
g12
g748
sbsVRetMax
p752
g1
(g6
g7
g223
tp753
Rp754
(dp755
g12
g752
sbsVIdList
p756
g1
(g19
g20
(lp757
g1
(g6
g7
S'1042761315'
p758
tp759
Rp760
(dp761
g12
VId
p762
sbag1
(g6
g7
S'1042761313'
p763
tp764
Rp765
(dp766
g12
g762
sbag1
(g6
g7
S'1042761311'
p767
tp768
Rp769
(dp770
g12
g762
sbag1
(g6
g7
S'1042761309'
p771
tp772
Rp773
(dp774
g12
g762
sbag1
(g6
g7
S'1042761307'
p775
tp776
Rp777
(dp778
g12
g762
sbag1
(g6
g7
S'1042761305'
p779
tp780
Rp781
(dp782
g12
g762
sbag1
(g6
g7
S'1042761303'
p783
tp784
Rp785
(dp786
g12
g762
sbatp787
Rp788
(dp789
g12
g756
sbsVQueryTranslation
p790
g1
(g6
g7
S'Gymnocranius oblongus[PORG]'
p791
tp792
Rp793
(dp794
g12
g790
sbsVTranslationStack
p795
g1
(g19
g20
(lp796
g1
(g2
g3
(dp797
g748
g1
(g6
g7
g223
tp798
Rp799
(dp800
g12
g748
sbsVField
p801
g1
(g6
g7
S'PORG'
p802
tp803
Rp804
(dp805
g12
g801
sbsVTerm
p806
g1
(g6
g7
S'Gymnocranius oblongus[PORG]'
p807
tp808
Rp809
(dp810
g12
g806
sbsVExplode
p811
g1
(g6
g7
g121
tp812
Rp813
(dp814
g12
g811
sbstp815
Rp816
(dp817
g12
VTermSet
p818
sbag1
(g6
g7
S'GROUP'
p819
tp820
Rp821
(dp822
g12
VOP
p823
sbatp824
Rp825
(dp826
g12
g795
sbsVRetStart
p827
g1
(g6
g7
g138
tp828
Rp829
(dp830
g12
g827
sbsVTranslationSet
p831
g1
(g19
g20
(lp832
tp833
Rp834
(dp835
g12
g831
sbstp836
Rp837
(dp838
g12
VeSearchResult
p839
sbag1
(g2
g3
(dp840
VCount
p841
g1
(g6
g7
g153
tp842
Rp843
(dp844
g12
g841
sbsVRetMax
p845
g1
(g6
g7
g153
tp846
Rp847
(dp848
g12
g845
sbsVIdList
p849
g1
(g19
g20
(lp850
g1
(g6
g7
S'1043216842'
p851
tp852
Rp853
(dp854
g12
VId
p855
sbatp856
Rp857
(dp858
g12
g849
sbsVQueryTranslation
p859
g1
(g6
g7
S'Gymnocranius satoi[PORG]'
p860
tp861
Rp862
(dp863
g12
g859
sbsVTranslationStack
p864
g1
(g19
g20
(lp865
g1
(g2
g3
(dp866
g841
g1
(g6
g7
g153
tp867
Rp868
(dp869
g12
g841
sbsVField
p870
g1
(g6
g7
S'PORG'
p871
tp872
Rp873
(dp874
g12
g870
sbsVTerm
p875
g1
(g6
g7
S'Gymnocranius satoi[PORG]'
p876
tp877
Rp878
(dp879
g12
g875
sbsVExplode
p880
g1
(g6
g7
g121
tp881
Rp882
(dp883
g12
g880
sbstp884
Rp885
(dp886
g12
VTermSet
p887
sbag1
(g6
g7
S'GROUP'
p888
tp889
Rp890
(dp891
g12
VOP
p892
sbatp893
Rp894
(dp895
g12
g864
sbsVRetStart
p896
g1
(g6
g7
g138
tp897
Rp898
(dp899
g12
g896
sbsVTranslationSet
p900
g1
(g19
g20
(lp901
tp902
Rp903
(dp904
g12
g900
sbstp905
Rp906
(dp907
g12
VeSearchResult
p908
sbag1
(g2
g3
(dp909
VCount
p910
g1
(g6
g7
g138
tp911
Rp912
(dp913
g12
g910
sbsVRetMax
p914
g1
(g6
g7
g138
tp915
Rp916
(dp917
g12
g914
sbsVIdList
p918
g1
(g19
g20
(lp919
tp920
Rp921
(dp922
g12
g918
sbsVRetStart
p923
g1
(g6
g7
g138
tp924
Rp925
(dp926
g12
g923
sbsVErrorList
p927
g1
(g403
g3
(dp928
VFieldNotFound
p929
(lp930
sVPhraseNotFound
p931
(lp932
g1
(g6
g7
S'Gymnocranius superciliosus[PORG]'
p933
tp934
Rp935
(dp936
g12
VPhraseNotFound
p937
sbastp938
Rp939
(dp940
g12
g927
sg417
(lp941
g931
ag929
asbsVTranslationSet
p942
g1
(g19
g20
(lp943
tp944
Rp945
(dp946
g12
g942
sbsVWarningList
p947
g1
(g403
g3
(dp948
VOutputMessage
p949
(lp950
g1
(g6
g7
S'No items found.'
p951
tp952
Rp953
(dp954
g12
VOutputMessage
p955
sbasVPhraseIgnored
p956
(lp957
sVQuotedPhraseNotFound
p958
(lp959
stp960
Rp961
(dp962
g12
g947
sg417
(lp963
g956
ag958
ag949
asbsVQueryTranslation
p964
g1
(g6
g7
S'(Gymnocranius superciliosus[PORG])'
p965
tp966
Rp967
(dp968
g12
g964
sbstp969
Rp970
(dp971
g12
VeSearchResult
p972
sbag1
(g2
g3
(dp973
VCount
p974
g1
(g6
g7
g153
tp975
Rp976
(dp977
g12
g974
sbsVRetMax
p978
g1
(g6
g7
g153
tp979
Rp980
(dp981
g12
g978
sbsVIdList
p982
g1
(g19
g20
(lp983
g1
(g6
g7
S'1018242440'
p984
tp985
Rp986
(dp987
g12
VId
p988
sbatp989
Rp990
(dp991
g12
g982
sbsVQueryTranslation
p992
g1
(g6
g7
S'Lethrinus amboinensis[PORG]'
p993
tp994
Rp995
(dp996
g12
g992
sbsVTranslationStack
p997
g1
(g19
g20
(lp998
g1
(g2
g3
(dp999
g974
g1
(g6
g7
g153
tp1000
Rp1001
(dp1002
g12
g974
sbsVField
p1003
g1
(g6
g7
S'PORG'
p1004
tp1005
Rp1006
(dp1007
g12
g1003
sbsVTerm
p1008
g1
(g6
g7
S'Lethrinus amboinensis[PORG]'
p1009
tp1010
Rp1011
(dp1012
g12
g1008
sbsVExplode
p1013
g1
(g6
g7
g121
tp1014
Rp1015
(dp1016
g12
g1013
sbstp1017
Rp1018
(dp1019
g12
VTermSet
p1020
sbag1
(g6
g7
S'GROUP'
p1021
tp1022
Rp1023
(dp1024
g12
VOP
p1025
sbatp1026
Rp1027
(dp1028
g12
g997
sbsVRetStart
p1029
g1
(g6
g7
g138
tp1030
Rp1031
(dp1032
g12
g1029
sbsVTranslationSet
p1033
g1
(g19
g20
(lp1034
tp1035
Rp1036
(dp1037
g12
g1033
sbstp1038
Rp1039
(dp1040
g12
VeSearchResult
p1041
sbag1
(g2
g3
(dp1042
VCount
p1043
g1
(g6
g7
S'18'
p1044
tp1045
Rp1046
(dp1047
g12
g1043
sbsVRetMax
p1048
g1
(g6
g7
S'18'
p1049
tp1050
Rp1051
(dp1052
g12
g1048
sbsVIdList
p1053
g1
(g19
g20
(lp1054
g1
(g6
g7
S'21388790'
p1055
tp1056
Rp1057
(dp1058
g12
VId
p1059
sbag1
(g6
g7
S'166092387'
p1060
tp1061
Rp1062
(dp1063
g12
g1059
sbag1
(g6
g7
S'1043662342'
p1064
tp1065
Rp1066
(dp1067
g12
g1059
sbag1
(g6
g7
S'985565743'
p1068
tp1069
Rp1070
(dp1071
g12
g1059
sbag1
(g6
g7
S'816376645'
p1072
tp1073
Rp1074
(dp1075
g12
g1059
sbag1
(g6
g7
S'816375981'
p1076
tp1077
Rp1078
(dp1079
g12
g1059
sbag1
(g6
g7
S'816375671'
p1080
tp1081
Rp1082
(dp1083
g12
g1059
sbag1
(g6
g7
S'557955476'
p1084
tp1085
Rp1086
(dp1087
g12
g1059
sbag1
(g6
g7
S'525317025'
p1088
tp1089
Rp1090
(dp1091
g12
g1059
sbag1
(g6
g7
S'482714211'
p1092
tp1093
Rp1094
(dp1095
g12
g1059
sbag1
(g6
g7
S'482710652'
p1096
tp1097
Rp1098
(dp1099
g12
g1059
sbag1
(g6
g7
S'482709715'
p1100
tp1101
Rp1102
(dp1103
g12
g1059
sbag1
(g6
g7
S'482705322'
p1104
tp1105
Rp1106
(dp1107
g12
g1059
sbag1
(g6
g7
S'482703778'
p1108
tp1109
Rp1110
(dp1111
g12
g1059
sbag1
(g6
g7
S'482715612'
p1112
tp1113
Rp1114
(dp1115
g12
g1059
sbag1
(g6
g7
S'482713476'
p1116
tp1117
Rp1118
(dp1119
g12
g1059
sbag1
(g6
g7
S'482712359'
p1120
tp1121
Rp1122
(dp1123
g12
g1059
sbag1
(g6
g7
S'148373975'
p1124
tp1125
Rp1126
(dp1127
g12
g1059
sbatp1128
Rp1129
(dp1130
g12
g1053
sbsVQueryTranslation
p1131
g1
(g6
g7
S'Lethrinus atkinsoni[PORG]'
p1132
tp1133
Rp1134
(dp1135
g12
g1131
sbsVTranslationStack
p1136
g1
(g19
g20
(lp1137
g1
(g2
g3
(dp1138
g1043
g1
(g6
g7
S'18'
p1139
tp1140
Rp1141
(dp1142
g12
g1043
sbsVField
p1143
g1
(g6
g7
S'PORG'
p1144
tp1145
Rp1146
(dp1147
g12
g1143
sbsVTerm
p1148
g1
(g6
g7
S'Lethrinus atkinsoni[PORG]'
p1149
tp1150
Rp1151
(dp1152
g12
g1148
sbsVExplode
p1153
g1
(g6
g7
g121
tp1154
Rp1155
(dp1156
g12
g1153
sbstp1157
Rp1158
(dp1159
g12
VTermSet
p1160
sbag1
(g6
g7
S'GROUP'
p1161
tp1162
Rp1163
(dp1164
g12
VOP
p1165
sbatp1166
Rp1167
(dp1168
g12
g1136
sbsVRetStart
p1169
g1
(g6
g7
g138
tp1170
Rp1171
(dp1172
g12
g1169
sbsVTranslationSet
p1173
g1
(g19
g20
(lp1174
tp1175
Rp1176
(dp1177
g12
g1173
sbstp1178
Rp1179
(dp1180
g12
VeSearchResult
p1181
sbag1
(g2
g3
(dp1182
VCount
p1183
g1
(g6
g7
S'2'
p1184
tp1185
Rp1186
(dp1187
g12
g1183
sbsVRetMax
p1188
g1
(g6
g7
g1184
tp1189
Rp1190
(dp1191
g12
g1188
sbsVIdList
p1192
g1
(g19
g20
(lp1193
g1
(g6
g7
S'21388808'
p1194
tp1195
Rp1196
(dp1197
g12
VId
p1198
sbag1
(g6
g7
S'166092389'
p1199
tp1200
Rp1201
(dp1202
g12
g1198
sbatp1203
Rp1204
(dp1205
g12
g1192
sbsVQueryTranslation
p1206
g1
(g6
g7
S'Lethrinus atlanticus[PORG]'
p1207
tp1208
Rp1209
(dp1210
g12
g1206
sbsVTranslationStack
p1211
g1
(g19
g20
(lp1212
g1
(g2
g3
(dp1213
g1183
g1
(g6
g7
g1184
tp1214
Rp1215
(dp1216
g12
g1183
sbsVField
p1217
g1
(g6
g7
S'PORG'
p1218
tp1219
Rp1220
(dp1221
g12
g1217
sbsVTerm
p1222
g1
(g6
g7
S'Lethrinus atlanticus[PORG]'
p1223
tp1224
Rp1225
(dp1226
g12
g1222
sbsVExplode
p1227
g1
(g6
g7
g121
tp1228
Rp1229
(dp1230
g12
g1227
sbstp1231
Rp1232
(dp1233
g12
VTermSet
p1234
sbag1
(g6
g7
S'GROUP'
p1235
tp1236
Rp1237
(dp1238
g12
VOP
p1239
sbatp1240
Rp1241
(dp1242
g12
g1211
sbsVRetStart
p1243
g1
(g6
g7
g138
tp1244
Rp1245
(dp1246
g12
g1243
sbsVTranslationSet
p1247
g1
(g19
g20
(lp1248
tp1249
Rp1250
(dp1251
g12
g1247
sbstp1252
Rp1253
(dp1254
g12
VeSearchResult
p1255
sbag1
(g2
g3
(dp1256
VCount
p1257
g1
(g6
g7
g153
tp1258
Rp1259
(dp1260
g12
g1257
sbsVRetMax
p1261
g1
(g6
g7
g153
tp1262
Rp1263
(dp1264
g12
g1261
sbsVIdList
p1265
g1
(g19
g20
(lp1266
g1
(g6
g7
S'21388816'
p1267
tp1268
Rp1269
(dp1270
g12
VId
p1271
sbatp1272
Rp1273
(dp1274
g12
g1265
sbsVQueryTranslation
p1275
g1
(g6
g7
S'Lethrinus borbonicus[PORG]'
p1276
tp1277
Rp1278
(dp1279
g12
g1275
sbsVTranslationStack
p1280
g1
(g19
g20
(lp1281
g1
(g2
g3
(dp1282
g1257
g1
(g6
g7
g153
tp1283
Rp1284
(dp1285
g12
g1257
sbsVField
p1286
g1
(g6
g7
S'PORG'
p1287
tp1288
Rp1289
(dp1290
g12
g1286
sbsVTerm
p1291
g1
(g6
g7
S'Lethrinus borbonicus[PORG]'
p1292
tp1293
Rp1294
(dp1295
g12
g1291
sbsVExplode
p1296
g1
(g6
g7
g121
tp1297
Rp1298
(dp1299
g12
g1296
sbstp1300
Rp1301
(dp1302
g12
VTermSet
p1303
sbag1
(g6
g7
S'GROUP'
p1304
tp1305
Rp1306
(dp1307
g12
VOP
p1308
sbatp1309
Rp1310
(dp1311
g12
g1280
sbsVRetStart
p1312
g1
(g6
g7
g138
tp1313
Rp1314
(dp1315
g12
g1312
sbsVTranslationSet
p1316
g1
(g19
g20
(lp1317
tp1318
Rp1319
(dp1320
g12
g1316
sbstp1321
Rp1322
(dp1323
g12
VeSearchResult
p1324
sbag1
(g2
g3
(dp1325
VCount
p1326
g1
(g6
g7
g1184
tp1327
Rp1328
(dp1329
g12
g1326
sbsVRetMax
p1330
g1
(g6
g7
g1184
tp1331
Rp1332
(dp1333
g12
g1330
sbsVIdList
p1334
g1
(g19
g20
(lp1335
g1
(g6
g7
S'161777698'
p1336
tp1337
Rp1338
(dp1339
g12
VId
p1340
sbag1
(g6
g7
S'161777696'
p1341
tp1342
Rp1343
(dp1344
g12
g1340
sbatp1345
Rp1346
(dp1347
g12
g1334
sbsVQueryTranslation
p1348
g1
(g6
g7
S'Lethrinus conchyliatus[PORG]'
p1349
tp1350
Rp1351
(dp1352
g12
g1348
sbsVTranslationStack
p1353
g1
(g19
g20
(lp1354
g1
(g2
g3
(dp1355
g1326
g1
(g6
g7
g1184
tp1356
Rp1357
(dp1358
g12
g1326
sbsVField
p1359
g1
(g6
g7
S'PORG'
p1360
tp1361
Rp1362
(dp1363
g12
g1359
sbsVTerm
p1364
g1
(g6
g7
S'Lethrinus conchyliatus[PORG]'
p1365
tp1366
Rp1367
(dp1368
g12
g1364
sbsVExplode
p1369
g1
(g6
g7
g121
tp1370
Rp1371
(dp1372
g12
g1369
sbstp1373
Rp1374
(dp1375
g12
VTermSet
p1376
sbag1
(g6
g7
S'GROUP'
p1377
tp1378
Rp1379
(dp1380
g12
VOP
p1381
sbatp1382
Rp1383
(dp1384
g12
g1353
sbsVRetStart
p1385
g1
(g6
g7
g138
tp1386
Rp1387
(dp1388
g12
g1385
sbsVTranslationSet
p1389
g1
(g19
g20
(lp1390
tp1391
Rp1392
(dp1393
g12
g1389
sbstp1394
Rp1395
(dp1396
g12
VeSearchResult
p1397
sbag1
(g2
g3
(dp1398
VCount
p1399
g1
(g6
g7
S'9'
p1400
tp1401
Rp1402
(dp1403
g12
g1399
sbsVRetMax
p1404
g1
(g6
g7
g1400
tp1405
Rp1406
(dp1407
g12
g1404
sbsVIdList
p1408
g1
(g19
g20
(lp1409
g1
(g6
g7
S'328485946'
p1410
tp1411
Rp1412
(dp1413
g12
VId
p1414
sbag1
(g6
g7
S'328485944'
p1415
tp1416
Rp1417
(dp1418
g12
g1414
sbag1
(g6
g7
S'328485942'
p1419
tp1420
Rp1421
(dp1422
g12
g1414
sbag1
(g6
g7
S'328485940'
p1423
tp1424
Rp1425
(dp1426
g12
g1414
sbag1
(g6
g7
S'328485938'
p1427
tp1428
Rp1429
(dp1430
g12
g1414
sbag1
(g6
g7
S'328485936'
p1431
tp1432
Rp1433
(dp1434
g12
g1414
sbag1
(g6
g7
S'755322440'
p1435
tp1436
Rp1437
(dp1438
g12
g1414
sbag1
(g6
g7
S'755322438'
p1439
tp1440
Rp1441
(dp1442
g12
g1414
sbag1
(g6
g7
S'657306600'
p1443
tp1444
Rp1445
(dp1446
g12
g1414
sbatp1447
Rp1448
(dp1449
g12
g1408
sbsVQueryTranslation
p1450
g1
(g6
g7
S'Lethrinus crocineus[PORG]'
p1451
tp1452
Rp1453
(dp1454
g12
g1450
sbsVTranslationStack
p1455
g1
(g19
g20
(lp1456
g1
(g2
g3
(dp1457
g1399
g1
(g6
g7
g1400
tp1458
Rp1459
(dp1460
g12
g1399
sbsVField
p1461
g1
(g6
g7
S'PORG'
p1462
tp1463
Rp1464
(dp1465
g12
g1461
sbsVTerm
p1466
g1
(g6
g7
S'Lethrinus crocineus[PORG]'
p1467
tp1468
Rp1469
(dp1470
g12
g1466
sbsVExplode
p1471
g1
(g6
g7
g121
tp1472
Rp1473
(dp1474
g12
g1471
sbstp1475
Rp1476
(dp1477
g12
VTermSet
p1478
sbag1
(g6
g7
S'GROUP'
p1479
tp1480
Rp1481
(dp1482
g12
VOP
p1483
sbatp1484
Rp1485
(dp1486
g12
g1455
sbsVRetStart
p1487
g1
(g6
g7
g138
tp1488
Rp1489
(dp1490
g12
g1487
sbsVTranslationSet
p1491
g1
(g19
g20
(lp1492
tp1493
Rp1494
(dp1495
g12
g1491
sbstp1496
Rp1497
(dp1498
g12
VeSearchResult
p1499
sbag1
(g2
g3
(dp1500
VCount
p1501
g1
(g6
g7
g138
tp1502
Rp1503
(dp1504
g12
g1501
sbsVRetMax
p1505
g1
(g6
g7
g138
tp1506
Rp1507
(dp1508
g12
g1505
sbsVIdList
p1509
g1
(g19
g20
(lp1510
tp1511
Rp1512
(dp1513
g12
g1509
sbsVRetStart
p1514
g1
(g6
g7
g138
tp1515
Rp1516
(dp1517
g12
g1514
sbsVErrorList
p1518
g1
(g403
g3
(dp1519
VFieldNotFound
p1520
(lp1521
sVPhraseNotFound
p1522
(lp1523
g1
(g6
g7
S'Lethrinus enigmaticus[PORG]'
p1524
tp1525
Rp1526
(dp1527
g12
VPhraseNotFound
p1528
sbastp1529
Rp1530
(dp1531
g12
g1518
sg417
(lp1532
g1522
ag1520
asbsVTranslationSet
p1533
g1
(g19
g20
(lp1534
tp1535
Rp1536
(dp1537
g12
g1533
sbsVWarningList
p1538
g1
(g403
g3
(dp1539
VOutputMessage
p1540
(lp1541
g1
(g6
g7
S'No items found.'
p1542
tp1543
Rp1544
(dp1545
g12
VOutputMessage
p1546
sbasVPhraseIgnored
p1547
(lp1548
sVQuotedPhraseNotFound
p1549
(lp1550
stp1551
Rp1552
(dp1553
g12
g1538
sg417
(lp1554
g1547
ag1549
ag1540
asbsVQueryTranslation
p1555
g1
(g6
g7
S'(Lethrinus enigmaticus[PORG])'
p1556
tp1557
Rp1558
(dp1559
g12
g1555
sbstp1560
Rp1561
(dp1562
g12
VeSearchResult
p1563
sbag1
(g2
g3
(dp1564
VCount
p1565
g1
(g6
g7
S'11'
p1566
tp1567
Rp1568
(dp1569
g12
g1565
sbsVRetMax
p1570
g1
(g6
g7
S'11'
p1571
tp1572
Rp1573
(dp1574
g12
g1570
sbsVIdList
p1575
g1
(g19
g20
(lp1576
g1
(g6
g7
S'21388794'
p1577
tp1578
Rp1579
(dp1580
g12
VId
p1581
sbag1
(g6
g7
S'584296102'
p1582
tp1583
Rp1584
(dp1585
g12
g1581
sbag1
(g6
g7
S'394799685'
p1586
tp1587
Rp1588
(dp1589
g12
g1581
sbag1
(g6
g7
S'394767638'
p1590
tp1591
Rp1592
(dp1593
g12
g1581
sbag1
(g6
g7
S'394339703'
p1594
tp1595
Rp1596
(dp1597
g12
g1581
sbag1
(g6
g7
S'394339174'
p1598
tp1599
Rp1600
(dp1601
g12
g1581
sbag1
(g6
g7
S'394338701'
p1602
tp1603
Rp1604
(dp1605
g12
g1581
sbag1
(g6
g7
S'394338392'
p1606
tp1607
Rp1608
(dp1609
g12
g1581
sbag1
(g6
g7
S'394338063'
p1610
tp1611
Rp1612
(dp1613
g12
g1581
sbag1
(g6
g7
S'394337717'
p1614
tp1615
Rp1616
(dp1617
g12
g1581
sbag1
(g6
g7
S'394337356'
p1618
tp1619
Rp1620
(dp1621
g12
g1581
sbatp1622
Rp1623
(dp1624
g12
g1575
sbsVQueryTranslation
p1625
g1
(g6
g7
S'Lethrinus erythracanthus[PORG]'
p1626
tp1627
Rp1628
(dp1629
g12
g1625
sbsVTranslationStack
p1630
g1
(g19
g20
(lp1631
g1
(g2
g3
(dp1632
g1565
g1
(g6
g7
S'11'
p1633
tp1634
Rp1635
(dp1636
g12
g1565
sbsVField
p1637
g1
(g6
g7
S'PORG'
p1638
tp1639
Rp1640
(dp1641
g12
g1637
sbsVTerm
p1642
g1
(g6
g7
S'Lethrinus erythracanthus[PORG]'
p1643
tp1644
Rp1645
(dp1646
g12
g1642
sbsVExplode
p1647
g1
(g6
g7
g121
tp1648
Rp1649
(dp1650
g12
g1647
sbstp1651
Rp1652
(dp1653
g12
VTermSet
p1654
sbag1
(g6
g7
S'GROUP'
p1655
tp1656
Rp1657
(dp1658
g12
VOP
p1659
sbatp1660
Rp1661
(dp1662
g12
g1630
sbsVRetStart
p1663
g1
(g6
g7
g138
tp1664
Rp1665
(dp1666
g12
g1663
sbsVTranslationSet
p1667
g1
(g19
g20
(lp1668
tp1669
Rp1670
(dp1671
g12
g1667
sbstp1672
Rp1673
(dp1674
g12
VeSearchResult
p1675
sbag1
(g2
g3
(dp1676
VCount
p1677
g1
(g6
g7
S'3'
p1678
tp1679
Rp1680
(dp1681
g12
g1677
sbsVRetMax
p1682
g1
(g6
g7
g1678
tp1683
Rp1684
(dp1685
g12
g1682
sbsVIdList
p1686
g1
(g19
g20
(lp1687
g1
(g6
g7
S'21388828'
p1688
tp1689
Rp1690
(dp1691
g12
VId
p1692
sbag1
(g6
g7
S'531996573'
p1693
tp1694
Rp1695
(dp1696
g12
g1692
sbag1
(g6
g7
S'531994677'
p1697
tp1698
Rp1699
(dp1700
g12
g1692
sbatp1701
Rp1702
(dp1703
g12
g1686
sbsVQueryTranslation
p1704
g1
(g6
g7
S'Lethrinus erythropterus[PORG]'
p1705
tp1706
Rp1707
(dp1708
g12
g1704
sbsVTranslationStack
p1709
g1
(g19
g20
(lp1710
g1
(g2
g3
(dp1711
g1677
g1
(g6
g7
g1678
tp1712
Rp1713
(dp1714
g12
g1677
sbsVField
p1715
g1
(g6
g7
S'PORG'
p1716
tp1717
Rp1718
(dp1719
g12
g1715
sbsVTerm
p1720
g1
(g6
g7
S'Lethrinus erythropterus[PORG]'
p1721
tp1722
Rp1723
(dp1724
g12
g1720
sbsVExplode
p1725
g1
(g6
g7
g121
tp1726
Rp1727
(dp1728
g12
g1725
sbstp1729
Rp1730
(dp1731
g12
VTermSet
p1732
sbag1
(g6
g7
S'GROUP'
p1733
tp1734
Rp1735
(dp1736
g12
VOP
p1737
sbatp1738
Rp1739
(dp1740
g12
g1709
sbsVRetStart
p1741
g1
(g6
g7
g138
tp1742
Rp1743
(dp1744
g12
g1741
sbsVTranslationSet
p1745
g1
(g19
g20
(lp1746
tp1747
Rp1748
(dp1749
g12
g1745
sbstp1750
Rp1751
(dp1752
g12
VeSearchResult
p1753
sbag1
(g2
g3
(dp1754
VCount
p1755
g1
(g6
g7
S'4'
p1756
tp1757
Rp1758
(dp1759
g12
g1755
sbsVRetMax
p1760
g1
(g6
g7
g1756
tp1761
Rp1762
(dp1763
g12
g1760
sbsVIdList
p1764
g1
(g19
g20
(lp1765
g1
(g6
g7
S'21388824'
p1766
tp1767
Rp1768
(dp1769
g12
VId
p1770
sbag1
(g6
g7
S'1043662343'
p1771
tp1772
Rp1773
(dp1774
g12
g1770
sbag1
(g6
g7
S'906357731'
p1775
tp1776
Rp1777
(dp1778
g12
g1770
sbag1
(g6
g7
S'752502886'
p1779
tp1780
Rp1781
(dp1782
g12
g1770
sbatp1783
Rp1784
(dp1785
g12
g1764
sbsVQueryTranslation
p1786
g1
(g6
g7
S'Lethrinus genivittatus[PORG]'
p1787
tp1788
Rp1789
(dp1790
g12
g1786
sbsVTranslationStack
p1791
g1
(g19
g20
(lp1792
g1
(g2
g3
(dp1793
g1755
g1
(g6
g7
g1756
tp1794
Rp1795
(dp1796
g12
g1755
sbsVField
p1797
g1
(g6
g7
S'PORG'
p1798
tp1799
Rp1800
(dp1801
g12
g1797
sbsVTerm
p1802
g1
(g6
g7
S'Lethrinus genivittatus[PORG]'
p1803
tp1804
Rp1805
(dp1806
g12
g1802
sbsVExplode
p1807
g1
(g6
g7
g121
tp1808
Rp1809
(dp1810
g12
g1807
sbstp1811
Rp1812
(dp1813
g12
VTermSet
p1814
sbag1
(g6
g7
S'GROUP'
p1815
tp1816
Rp1817
(dp1818
g12
VOP
p1819
sbatp1820
Rp1821
(dp1822
g12
g1791
sbsVRetStart
p1823
g1
(g6
g7
g138
tp1824
Rp1825
(dp1826
g12
g1823
sbsVTranslationSet
p1827
g1
(g19
g20
(lp1828
tp1829
Rp1830
(dp1831
g12
g1827
sbstp1832
Rp1833
(dp1834
g12
VeSearchResult
p1835
sbag1
(g2
g3
(dp1836
VCount
p1837
g1
(g6
g7
S'12'
p1838
tp1839
Rp1840
(dp1841
g12
g1837
sbsVRetMax
p1842
g1
(g6
g7
S'12'
p1843
tp1844
Rp1845
(dp1846
g12
g1842
sbsVIdList
p1847
g1
(g19
g20
(lp1848
g1
(g6
g7
S'166092391'
p1849
tp1850
Rp1851
(dp1852
g12
VId
p1853
sbag1
(g6
g7
S'227936441'
p1854
tp1855
Rp1856
(dp1857
g12
g1853
sbag1
(g6
g7
S'227936439'
p1858
tp1859
Rp1860
(dp1861
g12
g1853
sbag1
(g6
g7
S'227936437'
p1862
tp1863
Rp1864
(dp1865
g12
g1853
sbag1
(g6
g7
S'227936435'
p1866
tp1867
Rp1868
(dp1869
g12
g1853
sbag1
(g6
g7
S'227936433'
p1870
tp1871
Rp1872
(dp1873
g12
g1853
sbag1
(g6
g7
S'227936431'
p1874
tp1875
Rp1876
(dp1877
g12
g1853
sbag1
(g6
g7
S'227936429'
p1878
tp1879
Rp1880
(dp1881
g12
g1853
sbag1
(g6
g7
S'227936427'
p1882
tp1883
Rp1884
(dp1885
g12
g1853
sbag1
(g6
g7
S'906357349'
p1886
tp1887
Rp1888
(dp1889
g12
g1853
sbag1
(g6
g7
S'375006085'
p1890
tp1891
Rp1892
(dp1893
g12
g1853
sbag1
(g6
g7
S'375005953'
p1894
tp1895
Rp1896
(dp1897
g12
g1853
sbatp1898
Rp1899
(dp1900
g12
g1847
sbsVQueryTranslation
p1901
g1
(g6
g7
S'Lethrinus haematopterus[PORG]'
p1902
tp1903
Rp1904
(dp1905
g12
g1901
sbsVTranslationStack
p1906
g1
(g19
g20
(lp1907
g1
(g2
g3
(dp1908
g1837
g1
(g6
g7
S'12'
p1909
tp1910
Rp1911
(dp1912
g12
g1837
sbsVField
p1913
g1
(g6
g7
S'PORG'
p1914
tp1915
Rp1916
(dp1917
g12
g1913
sbsVTerm
p1918
g1
(g6
g7
S'Lethrinus haematopterus[PORG]'
p1919
tp1920
Rp1921
(dp1922
g12
g1918
sbsVExplode
p1923
g1
(g6
g7
g121
tp1924
Rp1925
(dp1926
g12
g1923
sbstp1927
Rp1928
(dp1929
g12
VTermSet
p1930
sbag1
(g6
g7
S'GROUP'
p1931
tp1932
Rp1933
(dp1934
g12
VOP
p1935
sbatp1936
Rp1937
(dp1938
g12
g1906
sbsVRetStart
p1939
g1
(g6
g7
g138
tp1940
Rp1941
(dp1942
g12
g1939
sbsVTranslationSet
p1943
g1
(g19
g20
(lp1944
tp1945
Rp1946
(dp1947
g12
g1943
sbstp1948
Rp1949
(dp1950
g12
VeSearchResult
p1951
sbag1
(g2
g3
(dp1952
VCount
p1953
g1
(g6
g7
S'42'
p1954
tp1955
Rp1956
(dp1957
g12
g1953
sbsVRetMax
p1958
g1
(g6
g7
S'20'
p1959
tp1960
Rp1961
(dp1962
g12
g1958
sbsVIdList
p1963
g1
(g19
g20
(lp1964
g1
(g6
g7
S'21388796'
p1965
tp1966
Rp1967
(dp1968
g12
VId
p1969
sbag1
(g6
g7
S'166092393'
p1970
tp1971
Rp1972
(dp1973
g12
g1969
sbag1
(g6
g7
S'339431624'
p1974
tp1975
Rp1976
(dp1977
g12
g1969
sbag1
(g6
g7
S'312841737'
p1978
tp1979
Rp1980
(dp1981
g12
g1969
sbag1
(g6
g7
S'992321744'
p1982
tp1983
Rp1984
(dp1985
g12
g1969
sbag1
(g6
g7
S'816375785'
p1986
tp1987
Rp1988
(dp1989
g12
g1969
sbag1
(g6
g7
S'813484975'
p1990
tp1991
Rp1992
(dp1993
g12
g1969
sbag1
(g6
g7
S'813484973'
p1994
tp1995
Rp1996
(dp1997
g12
g1969
sbag1
(g6
g7
S'813484971'
p1998
tp1999
Rp2000
(dp2001
g12
g1969
sbag1
(g6
g7
S'813484969'
p2002
tp2003
Rp2004
(dp2005
g12
g1969
sbag1
(g6
g7
S'444292718'
p2006
tp2007
Rp2008
(dp2009
g12
g1969
sbag1
(g6
g7
S'554792047'
p2010
tp2011
Rp2012
(dp2013
g12
g1969
sbag1
(g6
g7
S'554792045'
p2014
tp2015
Rp2016
(dp2017
g12
g1969
sbag1
(g6
g7
S'444294872'
p2018
tp2019
Rp2020
(dp2021
g12
g1969
sbag1
(g6
g7
S'444294552'
p2022
tp2023
Rp2024
(dp2025
g12
g1969
sbag1
(g6
g7
S'444294222'
p2026
tp2027
Rp2028
(dp2029
g12
g1969
sbag1
(g6
g7
S'444293932'
p2030
tp2031
Rp2032
(dp2033
g12
g1969
sbag1
(g6
g7
S'444293628'
p2034
tp2035
Rp2036
(dp2037
g12
g1969
sbag1
(g6
g7
S'444293470'
p2038
tp2039
Rp2040
(dp2041
g12
g1969
sbag1
(g6
g7
S'444293142'
p2042
tp2043
Rp2044
(dp2045
g12
g1969
sbatp2046
Rp2047
(dp2048
g12
g1963
sbsVQueryTranslation
p2049
g1
(g6
g7
S'Lethrinus harak[PORG]'
p2050
tp2051
Rp2052
(dp2053
g12
g2049
sbsVTranslationStack
p2054
g1
(g19
g20
(lp2055
g1
(g2
g3
(dp2056
g1953
g1
(g6
g7
S'42'
p2057
tp2058
Rp2059
(dp2060
g12
g1953
sbsVField
p2061
g1
(g6
g7
S'PORG'
p2062
tp2063
Rp2064
(dp2065
g12
g2061
sbsVTerm
p2066
g1
(g6
g7
S'Lethrinus harak[PORG]'
p2067
tp2068
Rp2069
(dp2070
g12
g2066
sbsVExplode
p2071
g1
(g6
g7
g121
tp2072
Rp2073
(dp2074
g12
g2071
sbstp2075
Rp2076
(dp2077
g12
VTermSet
p2078
sbag1
(g6
g7
S'GROUP'
p2079
tp2080
Rp2081
(dp2082
g12
VOP
p2083
sbatp2084
Rp2085
(dp2086
g12
g2054
sbsVRetStart
p2087
g1
(g6
g7
g138
tp2088
Rp2089
(dp2090
g12
g2087
sbsVTranslationSet
p2091
g1
(g19
g20
(lp2092
tp2093
Rp2094
(dp2095
g12
g2091
sbstp2096
Rp2097
(dp2098
g12
VeSearchResult
p2099
sbag1
(g2
g3
(dp2100
VCount
p2101
g1
(g6
g7
S'18'
p2102
tp2103
Rp2104
(dp2105
g12
g2101
sbsVRetMax
p2106
g1
(g6
g7
S'18'
p2107
tp2108
Rp2109
(dp2110
g12
g2106
sbsVIdList
p2111
g1
(g19
g20
(lp2112
g1
(g6
g7
S'1059843875'
p2113
tp2114
Rp2115
(dp2116
g12
VId
p2117
sbag1
(g6
g7
S'1059843874'
p2118
tp2119
Rp2120
(dp2121
g12
g2117
sbag1
(g6
g7
S'1059843873'
p2122
tp2123
Rp2124
(dp2125
g12
g2117
sbag1
(g6
g7
S'1059843872'
p2126
tp2127
Rp2128
(dp2129
g12
g2117
sbag1
(g6
g7
S'1059843871'
p2130
tp2131
Rp2132
(dp2133
g12
g2117
sbag1
(g6
g7
S'1059843870'
p2134
tp2135
Rp2136
(dp2137
g12
g2117
sbag1
(g6
g7
S'1059843869'
p2138
tp2139
Rp2140
(dp2141
g12
g2117
sbag1
(g6
g7
S'1059843868'
p2142
tp2143
Rp2144
(dp2145
g12
g2117
sbag1
(g6
g7
S'1059843867'
p2146
tp2147
Rp2148
(dp2149
g12
g2117
sbag1
(g6
g7
S'1059843866'
p2150
tp2151
Rp2152
(dp2153
g12
g2117
sbag1
(g6
g7
S'1059843865'
p2154
tp2155
Rp2156
(dp2157
g12
g2117
sbag1
(g6
g7
S'1059843864'
p2158
tp2159
Rp2160
(dp2161
g12
g2117
sbag1
(g6
g7
S'1059843863'
p2162
tp2163
Rp2164
(dp2165
g12
g2117
sbag1
(g6
g7
S'21388782'
p2166
tp2167
Rp2168
(dp2169
g12
g2117
sbag1
(g6
g7
S'1037242200'
p2170
tp2171
Rp2172
(dp2173
g12
g2117
sbag1
(g6
g7
S'1033838316'
p2174
tp2175
Rp2176
(dp2177
g12
g2117
sbag1
(g6
g7
S'148373977'
p2178
tp2179
Rp2180
(dp2181
g12
g2117
sbag1
(g6
g7
S'211997068'
p2182
tp2183
Rp2184
(dp2185
g12
g2117
sbatp2186
Rp2187
(dp2188
g12
g2111
sbsVQueryTranslation
p2189
g1
(g6
g7
S'Lethrinus laticaudis[PORG]'
p2190
tp2191
Rp2192
(dp2193
g12
g2189
sbsVTranslationStack
p2194
g1
(g19
g20
(lp2195
g1
(g2
g3
(dp2196
g2101
g1
(g6
g7
S'18'
p2197
tp2198
Rp2199
(dp2200
g12
g2101
sbsVField
p2201
g1
(g6
g7
S'PORG'
p2202
tp2203
Rp2204
(dp2205
g12
g2201
sbsVTerm
p2206
g1
(g6
g7
S'Lethrinus laticaudis[PORG]'
p2207
tp2208
Rp2209
(dp2210
g12
g2206
sbsVExplode
p2211
g1
(g6
g7
g121
tp2212
Rp2213
(dp2214
g12
g2211
sbstp2215
Rp2216
(dp2217
g12
VTermSet
p2218
sbag1
(g6
g7
S'GROUP'
p2219
tp2220
Rp2221
(dp2222
g12
VOP
p2223
sbatp2224
Rp2225
(dp2226
g12
g2194
sbsVRetStart
p2227
g1
(g6
g7
g138
tp2228
Rp2229
(dp2230
g12
g2227
sbsVTranslationSet
p2231
g1
(g19
g20
(lp2232
tp2233
Rp2234
(dp2235
g12
g2231
sbstp2236
Rp2237
(dp2238
g12
VeSearchResult
p2239
sbag1
(g2
g3
(dp2240
VCount
p2241
g1
(g6
g7
S'39'
p2242
tp2243
Rp2244
(dp2245
g12
g2241
sbsVRetMax
p2246
g1
(g6
g7
S'20'
p2247
tp2248
Rp2249
(dp2250
g12
g2246
sbsVIdList
p2251
g1
(g19
g20
(lp2252
g1
(g6
g7
S'202078845'
p2253
tp2254
Rp2255
(dp2256
g12
VId
p2257
sbag1
(g6
g7
S'202078843'
p2258
tp2259
Rp2260
(dp2261
g12
g2257
sbag1
(g6
g7
S'202078841'
p2262
tp2263
Rp2264
(dp2265
g12
g2257
sbag1
(g6
g7
S'21388814'
p2266
tp2267
Rp2268
(dp2269
g12
g2257
sbag1
(g6
g7
S'166092395'
p2270
tp2271
Rp2272
(dp2273
g12
g2257
sbag1
(g6
g7
S'328485948'
p2274
tp2275
Rp2276
(dp2277
g12
g2257
sbag1
(g6
g7
S'309321051'
p2278
tp2279
Rp2280
(dp2281
g12
g2257
sbag1
(g6
g7
S'309321049'
p2282
tp2283
Rp2284
(dp2285
g12
g2257
sbag1
(g6
g7
S'309321047'
p2286
tp2287
Rp2288
(dp2289
g12
g2257
sbag1
(g6
g7
S'227936451'
p2290
tp2291
Rp2292
(dp2293
g12
g2257
sbag1
(g6
g7
S'227936449'
p2294
tp2295
Rp2296
(dp2297
g12
g2257
sbag1
(g6
g7
S'227936447'
p2298
tp2299
Rp2300
(dp2301
g12
g2257
sbag1
(g6
g7
S'227936445'
p2302
tp2303
Rp2304
(dp2305
g12
g2257
sbag1
(g6
g7
S'227936443'
p2306
tp2307
Rp2308
(dp2309
g12
g2257
sbag1
(g6
g7
S'151975441'
p2310
tp2311
Rp2312
(dp2313
g12
g2257
sbag1
(g6
g7
S'151975439'
p2314
tp2315
Rp2316
(dp2317
g12
g2257
sbag1
(g6
g7
S'1043662337'
p2318
tp2319
Rp2320
(dp2321
g12
g2257
sbag1
(g6
g7
S'992321743'
p2322
tp2323
Rp2324
(dp2325
g12
g2257
sbag1
(g6
g7
S'985565739'
p2326
tp2327
Rp2328
(dp2329
g12
g2257
sbag1
(g6
g7
S'941487639'
p2330
tp2331
Rp2332
(dp2333
g12
g2257
sbatp2334
Rp2335
(dp2336
g12
g2251
sbsVQueryTranslation
p2337
g1
(g6
g7
S'Lethrinus lentjan[PORG]'
p2338
tp2339
Rp2340
(dp2341
g12
g2337
sbsVTranslationStack
p2342
g1
(g19
g20
(lp2343
g1
(g2
g3
(dp2344
g2241
g1
(g6
g7
S'39'
p2345
tp2346
Rp2347
(dp2348
g12
g2241
sbsVField
p2349
g1
(g6
g7
S'PORG'
p2350
tp2351
Rp2352
(dp2353
g12
g2349
sbsVTerm
p2354
g1
(g6
g7
S'Lethrinus lentjan[PORG]'
p2355
tp2356
Rp2357
(dp2358
g12
g2354
sbsVExplode
p2359
g1
(g6
g7
g121
tp2360
Rp2361
(dp2362
g12
g2359
sbstp2363
Rp2364
(dp2365
g12
VTermSet
p2366
sbag1
(g6
g7
S'GROUP'
p2367
tp2368
Rp2369
(dp2370
g12
VOP
p2371
sbatp2372
Rp2373
(dp2374
g12
g2342
sbsVRetStart
p2375
g1
(g6
g7
g138
tp2376
Rp2377
(dp2378
g12
g2375
sbsVTranslationSet
p2379
g1
(g19
g20
(lp2380
tp2381
Rp2382
(dp2383
g12
g2379
sbstp2384
Rp2385
(dp2386
g12
VeSearchResult
p2387
sbag1
(g2
g3
(dp2388
VCount
p2389
g1
(g6
g7
S'11'
p2390
tp2391
Rp2392
(dp2393
g12
g2389
sbsVRetMax
p2394
g1
(g6
g7
S'11'
p2395
tp2396
Rp2397
(dp2398
g12
g2394
sbsVIdList
p2399
g1
(g19
g20
(lp2400
g1
(g6
g7
S'339431626'
p2401
tp2402
Rp2403
(dp2404
g12
VId
p2405
sbag1
(g6
g7
S'328485954'
p2406
tp2407
Rp2408
(dp2409
g12
g2405
sbag1
(g6
g7
S'328485952'
p2410
tp2411
Rp2412
(dp2413
g12
g2405
sbag1
(g6
g7
S'328485950'
p2414
tp2415
Rp2416
(dp2417
g12
g2405
sbag1
(g6
g7
S'148373981'
p2418
tp2419
Rp2420
(dp2421
g12
g2405
sbag1
(g6
g7
S'992321746'
p2422
tp2423
Rp2424
(dp2425
g12
g2405
sbag1
(g6
g7
S'755322446'
p2426
tp2427
Rp2428
(dp2429
g12
g2405
sbag1
(g6
g7
S'755322444'
p2430
tp2431
Rp2432
(dp2433
g12
g2405
sbag1
(g6
g7
S'657306598'
p2434
tp2435
Rp2436
(dp2437
g12
g2405
sbag1
(g6
g7
S'375585914'
p2438
tp2439
Rp2440
(dp2441
g12
g2405
sbag1
(g6
g7
S'375585911'
p2442
tp2443
Rp2444
(dp2445
g12
g2405
sbatp2446
Rp2447
(dp2448
g12
g2399
sbsVQueryTranslation
p2449
g1
(g6
g7
S'Lethrinus mahsena[PORG]'
p2450
tp2451
Rp2452
(dp2453
g12
g2449
sbsVTranslationStack
p2454
g1
(g19
g20
(lp2455
g1
(g2
g3
(dp2456
g2389
g1
(g6
g7
S'11'
p2457
tp2458
Rp2459
(dp2460
g12
g2389
sbsVField
p2461
g1
(g6
g7
S'PORG'
p2462
tp2463
Rp2464
(dp2465
g12
g2461
sbsVTerm
p2466
g1
(g6
g7
S'Lethrinus mahsena[PORG]'
p2467
tp2468
Rp2469
(dp2470
g12
g2466
sbsVExplode
p2471
g1
(g6
g7
g121
tp2472
Rp2473
(dp2474
g12
g2471
sbstp2475
Rp2476
(dp2477
g12
VTermSet
p2478
sbag1
(g6
g7
S'GROUP'
p2479
tp2480
Rp2481
(dp2482
g12
VOP
p2483
sbatp2484
Rp2485
(dp2486
g12
g2454
sbsVRetStart
p2487
g1
(g6
g7
g138
tp2488
Rp2489
(dp2490
g12
g2487
sbsVTranslationSet
p2491
g1
(g19
g20
(lp2492
tp2493
Rp2494
(dp2495
g12
g2491
sbstp2496
Rp2497
(dp2498
g12
VeSearchResult
p2499
sbag1
(g2
g3
(dp2500
VCount
p2501
g1
(g6
g7
S'11'
p2502
tp2503
Rp2504
(dp2505
g12
g2501
sbsVRetMax
p2506
g1
(g6
g7
S'11'
p2507
tp2508
Rp2509
(dp2510
g12
g2506
sbsVIdList
p2511
g1
(g19
g20
(lp2512
g1
(g6
g7
S'21388810'
p2513
tp2514
Rp2515
(dp2516
g12
VId
p2517
sbag1
(g6
g7
S'992321745'
p2518
tp2519
Rp2520
(dp2521
g12
g2517
sbag1
(g6
g7
S'985565742'
p2522
tp2523
Rp2524
(dp2525
g12
g2517
sbag1
(g6
g7
S'755322452'
p2526
tp2527
Rp2528
(dp2529
g12
g2517
sbag1
(g6
g7
S'755322450'
p2530
tp2531
Rp2532
(dp2533
g12
g2517
sbag1
(g6
g7
S'755322448'
p2534
tp2535
Rp2536
(dp2537
g12
g2517
sbag1
(g6
g7
S'657306592'
p2538
tp2539
Rp2540
(dp2541
g12
g2517
sbag1
(g6
g7
S'906357367'
p2542
tp2543
Rp2544
(dp2545
g12
g2517
sbag1
(g6
g7
S'584296106'
p2546
tp2547
Rp2548
(dp2549
g12
g2517
sbag1
(g6
g7
S'563678518'
p2550
tp2551
Rp2552
(dp2553
g12
g2517
sbag1
(g6
g7
S'563678516'
p2554
tp2555
Rp2556
(dp2557
g12
g2517
sbatp2558
Rp2559
(dp2560
g12
g2511
sbsVQueryTranslation
p2561
g1
(g6
g7
S'Lethrinus microdon[PORG]'
p2562
tp2563
Rp2564
(dp2565
g12
g2561
sbsVTranslationStack
p2566
g1
(g19
g20
(lp2567
g1
(g2
g3
(dp2568
g2501
g1
(g6
g7
S'11'
p2569
tp2570
Rp2571
(dp2572
g12
g2501
sbsVField
p2573
g1
(g6
g7
S'PORG'
p2574
tp2575
Rp2576
(dp2577
g12
g2573
sbsVTerm
p2578
g1
(g6
g7
S'Lethrinus microdon[PORG]'
p2579
tp2580
Rp2581
(dp2582
g12
g2578
sbsVExplode
p2583
g1
(g6
g7
g121
tp2584
Rp2585
(dp2586
g12
g2583
sbstp2587
Rp2588
(dp2589
g12
VTermSet
p2590
sbag1
(g6
g7
S'GROUP'
p2591
tp2592
Rp2593
(dp2594
g12
VOP
p2595
sbatp2596
Rp2597
(dp2598
g12
g2566
sbsVRetStart
p2599
g1
(g6
g7
g138
tp2600
Rp2601
(dp2602
g12
g2599
sbsVTranslationSet
p2603
g1
(g19
g20
(lp2604
tp2605
Rp2606
(dp2607
g12
g2603
sbstp2608
Rp2609
(dp2610
g12
VeSearchResult
p2611
sbag1
(g2
g3
(dp2612
VCount
p2613
g1
(g6
g7
S'102'
p2614
tp2615
Rp2616
(dp2617
g12
g2613
sbsVRetMax
p2618
g1
(g6
g7
S'20'
p2619
tp2620
Rp2621
(dp2622
g12
g2618
sbsVIdList
p2623
g1
(g19
g20
(lp2624
g1
(g6
g7
S'21388812'
p2625
tp2626
Rp2627
(dp2628
g12
VId
p2629
sbag1
(g6
g7
S'161777694'
p2630
tp2631
Rp2632
(dp2633
g12
g2629
sbag1
(g6
g7
S'161777692'
p2634
tp2635
Rp2636
(dp2637
g12
g2629
sbag1
(g6
g7
S'161777690'
p2638
tp2639
Rp2640
(dp2641
g12
g2629
sbag1
(g6
g7
S'985565740'
p2642
tp2643
Rp2644
(dp2645
g12
g2629
sbag1
(g6
g7
S'148373983'
p2646
tp2647
Rp2648
(dp2649
g12
g2629
sbag1
(g6
g7
S'211997125'
p2650
tp2651
Rp2652
(dp2653
g12
g2629
sbag1
(g6
g7
S'211997124'
p2654
tp2655
Rp2656
(dp2657
g12
g2629
sbag1
(g6
g7
S'211997123'
p2658
tp2659
Rp2660
(dp2661
g12
g2629
sbag1
(g6
g7
S'211997122'
p2662
tp2663
Rp2664
(dp2665
g12
g2629
sbag1
(g6
g7
S'211997121'
p2666
tp2667
Rp2668
(dp2669
g12
g2629
sbag1
(g6
g7
S'211997120'
p2670
tp2671
Rp2672
(dp2673
g12
g2629
sbag1
(g6
g7
S'211997119'
p2674
tp2675
Rp2676
(dp2677
g12
g2629
sbag1
(g6
g7
S'211997118'
p2678
tp2679
Rp2680
(dp2681
g12
g2629
sbag1
(g6
g7
S'211997117'
p2682
tp2683
Rp2684
(dp2685
g12
g2629
sbag1
(g6
g7
S'211997116'
p2686
tp2687
Rp2688
(dp2689
g12
g2629
sbag1
(g6
g7
S'211997115'
p2690
tp2691
Rp2692
(dp2693
g12
g2629
sbag1
(g6
g7
S'211997114'
p2694
tp2695
Rp2696
(dp2697
g12
g2629
sbag1
(g6
g7
S'211997113'
p2698
tp2699
Rp2700
(dp2701
g12
g2629
sbag1
(g6
g7
S'211997112'
p2702
tp2703
Rp2704
(dp2705
g12
g2629
sbatp2706
Rp2707
(dp2708
g12
g2623
sbsVQueryTranslation
p2709
g1
(g6
g7
S'Lethrinus miniatus[PORG]'
p2710
tp2711
Rp2712
(dp2713
g12
g2709
sbsVTranslationStack
p2714
g1
(g19
g20
(lp2715
g1
(g2
g3
(dp2716
g2613
g1
(g6
g7
S'102'
p2717
tp2718
Rp2719
(dp2720
g12
g2613
sbsVField
p2721
g1
(g6
g7
S'PORG'
p2722
tp2723
Rp2724
(dp2725
g12
g2721
sbsVTerm
p2726
g1
(g6
g7
S'Lethrinus miniatus[PORG]'
p2727
tp2728
Rp2729
(dp2730
g12
g2726
sbsVExplode
p2731
g1
(g6
g7
g121
tp2732
Rp2733
(dp2734
g12
g2731
sbstp2735
Rp2736
(dp2737
g12
VTermSet
p2738
sbag1
(g6
g7
S'GROUP'
p2739
tp2740
Rp2741
(dp2742
g12
VOP
p2743
sbatp2744
Rp2745
(dp2746
g12
g2714
sbsVRetStart
p2747
g1
(g6
g7
g138
tp2748
Rp2749
(dp2750
g12
g2747
sbsVTranslationSet
p2751
g1
(g19
g20
(lp2752
tp2753
Rp2754
(dp2755
g12
g2751
sbstp2756
Rp2757
(dp2758
g12
VeSearchResult
p2759
sbag1
(g2
g3
(dp2760
VCount
p2761
g1
(g6
g7
S'131'
p2762
tp2763
Rp2764
(dp2765
g12
g2761
sbsVRetMax
p2766
g1
(g6
g7
S'20'
p2767
tp2768
Rp2769
(dp2770
g12
g2766
sbsVIdList
p2771
g1
(g19
g20
(lp2772
g1
(g6
g7
S'202078873'
p2773
tp2774
Rp2775
(dp2776
g12
VId
p2777
sbag1
(g6
g7
S'202078871'
p2778
tp2779
Rp2780
(dp2781
g12
g2777
sbag1
(g6
g7
S'202078869'
p2782
tp2783
Rp2784
(dp2785
g12
g2777
sbag1
(g6
g7
S'202078867'
p2786
tp2787
Rp2788
(dp2789
g12
g2777
sbag1
(g6
g7
S'202078865'
p2790
tp2791
Rp2792
(dp2793
g12
g2777
sbag1
(g6
g7
S'202078863'
p2794
tp2795
Rp2796
(dp2797
g12
g2777
sbag1
(g6
g7
S'202078861'
p2798
tp2799
Rp2800
(dp2801
g12
g2777
sbag1
(g6
g7
S'202078859'
p2802
tp2803
Rp2804
(dp2805
g12
g2777
sbag1
(g6
g7
S'202078857'
p2806
tp2807
Rp2808
(dp2809
g12
g2777
sbag1
(g6
g7
S'202078855'
p2810
tp2811
Rp2812
(dp2813
g12
g2777
sbag1
(g6
g7
S'202078853'
p2814
tp2815
Rp2816
(dp2817
g12
g2777
sbag1
(g6
g7
S'202078851'
p2818
tp2819
Rp2820
(dp2821
g12
g2777
sbag1
(g6
g7
S'202078849'
p2822
tp2823
Rp2824
(dp2825
g12
g2777
sbag1
(g6
g7
S'202078847'
p2826
tp2827
Rp2828
(dp2829
g12
g2777
sbag1
(g6
g7
S'21388818'
p2830
tp2831
Rp2832
(dp2833
g12
g2777
sbag1
(g6
g7
S'339431628'
p2834
tp2835
Rp2836
(dp2837
g12
g2777
sbag1
(g6
g7
S'328485958'
p2838
tp2839
Rp2840
(dp2841
g12
g2777
sbag1
(g6
g7
S'328485956'
p2842
tp2843
Rp2844
(dp2845
g12
g2777
sbag1
(g6
g7
S'312841769'
p2846
tp2847
Rp2848
(dp2849
g12
g2777
sbag1
(g6
g7
S'309321057'
p2850
tp2851
Rp2852
(dp2853
g12
g2777
sbatp2854
Rp2855
(dp2856
g12
g2771
sbsVQueryTranslation
p2857
g1
(g6
g7
S'Lethrinus nebulosus[PORG]'
p2858
tp2859
Rp2860
(dp2861
g12
g2857
sbsVTranslationStack
p2862
g1
(g19
g20
(lp2863
g1
(g2
g3
(dp2864
g2761
g1
(g6
g7
S'131'
p2865
tp2866
Rp2867
(dp2868
g12
g2761
sbsVField
p2869
g1
(g6
g7
S'PORG'
p2870
tp2871
Rp2872
(dp2873
g12
g2869
sbsVTerm
p2874
g1
(g6
g7
S'Lethrinus nebulosus[PORG]'
p2875
tp2876
Rp2877
(dp2878
g12
g2874
sbsVExplode
p2879
g1
(g6
g7
g121
tp2880
Rp2881
(dp2882
g12
g2879
sbstp2883
Rp2884
(dp2885
g12
VTermSet
p2886
sbag1
(g6
g7
S'GROUP'
p2887
tp2888
Rp2889
(dp2890
g12
VOP
p2891
sbatp2892
Rp2893
(dp2894
g12
g2862
sbsVRetStart
p2895
g1
(g6
g7
g138
tp2896
Rp2897
(dp2898
g12
g2895
sbsVTranslationSet
p2899
g1
(g19
g20
(lp2900
tp2901
Rp2902
(dp2903
g12
g2899
sbstp2904
Rp2905
(dp2906
g12
VeSearchResult
p2907
sbag1
(g2
g3
(dp2908
VCount
p2909
g1
(g6
g7
S'23'
p2910
tp2911
Rp2912
(dp2913
g12
g2909
sbsVRetMax
p2914
g1
(g6
g7
S'20'
p2915
tp2916
Rp2917
(dp2918
g12
g2914
sbsVIdList
p2919
g1
(g19
g20
(lp2920
g1
(g6
g7
S'21388822'
p2921
tp2922
Rp2923
(dp2924
g12
VId
p2925
sbag1
(g6
g7
S'166092385'
p2926
tp2927
Rp2928
(dp2929
g12
g2925
sbag1
(g6
g7
S'985565736'
p2930
tp2931
Rp2932
(dp2933
g12
g2925
sbag1
(g6
g7
S'816376707'
p2934
tp2935
Rp2936
(dp2937
g12
g2925
sbag1
(g6
g7
S'816376531'
p2938
tp2939
Rp2940
(dp2941
g12
g2925
sbag1
(g6
g7
S'816376317'
p2942
tp2943
Rp2944
(dp2945
g12
g2925
sbag1
(g6
g7
S'816376009'
p2946
tp2947
Rp2948
(dp2949
g12
g2925
sbag1
(g6
g7
S'816375393'
p2950
tp2951
Rp2952
(dp2953
g12
g2925
sbag1
(g6
g7
S'748584748'
p2954
tp2955
Rp2956
(dp2957
g12
g2925
sbag1
(g6
g7
S'482714207'
p2958
tp2959
Rp2960
(dp2961
g12
g2925
sbag1
(g6
g7
S'482712925'
p2962
tp2963
Rp2964
(dp2965
g12
g2925
sbag1
(g6
g7
S'482711750'
p2966
tp2967
Rp2968
(dp2969
g12
g2925
sbag1
(g6
g7
S'482710886'
p2970
tp2971
Rp2972
(dp2973
g12
g2925
sbag1
(g6
g7
S'482708661'
p2974
tp2975
Rp2976
(dp2977
g12
g2925
sbag1
(g6
g7
S'482705320'
p2978
tp2979
Rp2980
(dp2981
g12
g2925
sbag1
(g6
g7
S'482703780'
p2982
tp2983
Rp2984
(dp2985
g12
g2925
sbag1
(g6
g7
S'482715550'
p2986
tp2987
Rp2988
(dp2989
g12
g2925
sbag1
(g6
g7
S'482713480'
p2990
tp2991
Rp2992
(dp2993
g12
g2925
sbag1
(g6
g7
S'482712361'
p2994
tp2995
Rp2996
(dp2997
g12
g2925
sbag1
(g6
g7
S'482707501'
p2998
tp2999
Rp3000
(dp3001
g12
g2925
sbatp3002
Rp3003
(dp3004
g12
g2919
sbsVQueryTranslation
p3005
g1
(g6
g7
S'Lethrinus obsoletus[PORG]'
p3006
tp3007
Rp3008
(dp3009
g12
g3005
sbsVTranslationStack
p3010
g1
(g19
g20
(lp3011
g1
(g2
g3
(dp3012
g2909
g1
(g6
g7
S'23'
p3013
tp3014
Rp3015
(dp3016
g12
g2909
sbsVField
p3017
g1
(g6
g7
S'PORG'
p3018
tp3019
Rp3020
(dp3021
g12
g3017
sbsVTerm
p3022
g1
(g6
g7
S'Lethrinus obsoletus[PORG]'
p3023
tp3024
Rp3025
(dp3026
g12
g3022
sbsVExplode
p3027
g1
(g6
g7
g121
tp3028
Rp3029
(dp3030
g12
g3027
sbstp3031
Rp3032
(dp3033
g12
VTermSet
p3034
sbag1
(g6
g7
S'GROUP'
p3035
tp3036
Rp3037
(dp3038
g12
VOP
p3039
sbatp3040
Rp3041
(dp3042
g12
g3010
sbsVRetStart
p3043
g1
(g6
g7
g138
tp3044
Rp3045
(dp3046
g12
g3043
sbsVTranslationSet
p3047
g1
(g19
g20
(lp3048
tp3049
Rp3050
(dp3051
g12
g3047
sbstp3052
Rp3053
(dp3054
g12
VeSearchResult
p3055
sbag1
(g2
g3
(dp3056
VCount
p3057
g1
(g6
g7
S'63'
p3058
tp3059
Rp3060
(dp3061
g12
g3057
sbsVRetMax
p3062
g1
(g6
g7
S'20'
p3063
tp3064
Rp3065
(dp3066
g12
g3062
sbsVIdList
p3067
g1
(g19
g20
(lp3068
g1
(g6
g7
S'202078887'
p3069
tp3070
Rp3071
(dp3072
g12
VId
p3073
sbag1
(g6
g7
S'202078885'
p3074
tp3075
Rp3076
(dp3077
g12
g3073
sbag1
(g6
g7
S'202078883'
p3078
tp3079
Rp3080
(dp3081
g12
g3073
sbag1
(g6
g7
S'202078881'
p3082
tp3083
Rp3084
(dp3085
g12
g3073
sbag1
(g6
g7
S'202078879'
p3086
tp3087
Rp3088
(dp3089
g12
g3073
sbag1
(g6
g7
S'202078877'
p3090
tp3091
Rp3092
(dp3093
g12
g3073
sbag1
(g6
g7
S'202078875'
p3094
tp3095
Rp3096
(dp3097
g12
g3073
sbag1
(g6
g7
S'21388784'
p3098
tp3099
Rp3100
(dp3101
g12
g3073
sbag1
(g6
g7
S'166092397'
p3102
tp3103
Rp3104
(dp3105
g12
g3073
sbag1
(g6
g7
S'328485960'
p3106
tp3107
Rp3108
(dp3109
g12
g3073
sbag1
(g6
g7
S'906357368'
p3110
tp3111
Rp3112
(dp3113
g12
g3073
sbag1
(g6
g7
S'666877750'
p3114
tp3115
Rp3116
(dp3117
g12
g3073
sbag1
(g6
g7
S'557955478'
p3118
tp3119
Rp3120
(dp3121
g12
g3073
sbag1
(g6
g7
S'531992171'
p3122
tp3123
Rp3124
(dp3125
g12
g3073
sbag1
(g6
g7
S'563678514'
p3126
tp3127
Rp3128
(dp3129
g12
g3073
sbag1
(g6
g7
S'563678512'
p3130
tp3131
Rp3132
(dp3133
g12
g3073
sbag1
(g6
g7
S'563678510'
p3134
tp3135
Rp3136
(dp3137
g12
g3073
sbag1
(g6
g7
S'563678508'
p3138
tp3139
Rp3140
(dp3141
g12
g3073
sbag1
(g6
g7
S'563678506'
p3142
tp3143
Rp3144
(dp3145
g12
g3073
sbag1
(g6
g7
S'563678504'
p3146
tp3147
Rp3148
(dp3149
g12
g3073
sbatp3150
Rp3151
(dp3152
g12
g3067
sbsVQueryTranslation
p3153
g1
(g6
g7
S'Lethrinus olivaceus[PORG]'
p3154
tp3155
Rp3156
(dp3157
g12
g3153
sbsVTranslationStack
p3158
g1
(g19
g20
(lp3159
g1
(g2
g3
(dp3160
g3057
g1
(g6
g7
S'63'
p3161
tp3162
Rp3163
(dp3164
g12
g3057
sbsVField
p3165
g1
(g6
g7
S'PORG'
p3166
tp3167
Rp3168
(dp3169
g12
g3165
sbsVTerm
p3170
g1
(g6
g7
S'Lethrinus olivaceus[PORG]'
p3171
tp3172
Rp3173
(dp3174
g12
g3170
sbsVExplode
p3175
g1
(g6
g7
g121
tp3176
Rp3177
(dp3178
g12
g3175
sbstp3179
Rp3180
(dp3181
g12
VTermSet
p3182
sbag1
(g6
g7
S'GROUP'
p3183
tp3184
Rp3185
(dp3186
g12
VOP
p3187
sbatp3188
Rp3189
(dp3190
g12
g3158
sbsVRetStart
p3191
g1
(g6
g7
g138
tp3192
Rp3193
(dp3194
g12
g3191
sbsVTranslationSet
p3195
g1
(g19
g20
(lp3196
tp3197
Rp3198
(dp3199
g12
g3195
sbstp3200
Rp3201
(dp3202
g12
VeSearchResult
p3203
sbag1
(g2
g3
(dp3204
VCount
p3205
g1
(g6
g7
S'20'
p3206
tp3207
Rp3208
(dp3209
g12
g3205
sbsVRetMax
p3210
g1
(g6
g7
S'20'
p3211
tp3212
Rp3213
(dp3214
g12
g3210
sbsVIdList
p3215
g1
(g19
g20
(lp3216
g1
(g6
g7
S'21388788'
p3217
tp3218
Rp3219
(dp3220
g12
VId
p3221
sbag1
(g6
g7
S'339518385'
p3222
tp3223
Rp3224
(dp3225
g12
g3221
sbag1
(g6
g7
S'339518277'
p3226
tp3227
Rp3228
(dp3229
g12
g3221
sbag1
(g6
g7
S'339518155'
p3230
tp3231
Rp3232
(dp3233
g12
g3221
sbag1
(g6
g7
S'339518023'
p3234
tp3235
Rp3236
(dp3237
g12
g3221
sbag1
(g6
g7
S'332168006'
p3238
tp3239
Rp3240
(dp3241
g12
g3221
sbag1
(g6
g7
S'148373987'
p3242
tp3243
Rp3244
(dp3245
g12
g3221
sbag1
(g6
g7
S'1043662338'
p3246
tp3247
Rp3248
(dp3249
g12
g3221
sbag1
(g6
g7
S'13183284'
p3250
tp3251
Rp3252
(dp3253
g12
g3221
sbag1
(g6
g7
S'985565248'
p3254
tp3255
Rp3256
(dp3257
g12
g3221
sbag1
(g6
g7
S'755322462'
p3258
tp3259
Rp3260
(dp3261
g12
g3221
sbag1
(g6
g7
S'755322460'
p3262
tp3263
Rp3264
(dp3265
g12
g3221
sbag1
(g6
g7
S'755322458'
p3266
tp3267
Rp3268
(dp3269
g12
g3221
sbag1
(g6
g7
S'657306590'
p3270
tp3271
Rp3272
(dp3273
g12
g3221
sbag1
(g6
g7
S'628820422'
p3274
tp3275
Rp3276
(dp3277
g12
g3221
sbag1
(g6
g7
S'628820420'
p3278
tp3279
Rp3280
(dp3281
g12
g3221
sbag1
(g6
g7
S'628819202'
p3282
tp3283
Rp3284
(dp3285
g12
g3221
sbag1
(g6
g7
S'573464245'
p3286
tp3287
Rp3288
(dp3289
g12
g3221
sbag1
(g6
g7
S'531992173'
p3290
tp3291
Rp3292
(dp3293
g12
g3221
sbag1
(g6
g7
S'19850119'
p3294
tp3295
Rp3296
(dp3297
g12
g3221
sbatp3298
Rp3299
(dp3300
g12
g3215
sbsVQueryTranslation
p3301
g1
(g6
g7
S'Lethrinus ornatus[PORG]'
p3302
tp3303
Rp3304
(dp3305
g12
g3301
sbsVTranslationStack
p3306
g1
(g19
g20
(lp3307
g1
(g2
g3
(dp3308
g3205
g1
(g6
g7
S'20'
p3309
tp3310
Rp3311
(dp3312
g12
g3205
sbsVField
p3313
g1
(g6
g7
S'PORG'
p3314
tp3315
Rp3316
(dp3317
g12
g3313
sbsVTerm
p3318
g1
(g6
g7
S'Lethrinus ornatus[PORG]'
p3319
tp3320
Rp3321
(dp3322
g12
g3318
sbsVExplode
p3323
g1
(g6
g7
g121
tp3324
Rp3325
(dp3326
g12
g3323
sbstp3327
Rp3328
(dp3329
g12
VTermSet
p3330
sbag1
(g6
g7
S'GROUP'
p3331
tp3332
Rp3333
(dp3334
g12
VOP
p3335
sbatp3336
Rp3337
(dp3338
g12
g3306
sbsVRetStart
p3339
g1
(g6
g7
g138
tp3340
Rp3341
(dp3342
g12
g3339
sbsVTranslationSet
p3343
g1
(g19
g20
(lp3344
tp3345
Rp3346
(dp3347
g12
g3343
sbstp3348
Rp3349
(dp3350
g12
VeSearchResult
p3351
sbag1
(g2
g3
(dp3352
VCount
p3353
g1
(g6
g7
g1756
tp3354
Rp3355
(dp3356
g12
g3353
sbsVRetMax
p3357
g1
(g6
g7
g1756
tp3358
Rp3359
(dp3360
g12
g3357
sbsVIdList
p3361
g1
(g19
g20
(lp3362
g1
(g6
g7
S'148373989'
p3363
tp3364
Rp3365
(dp3366
g12
VId
p3367
sbag1
(g6
g7
S'1018242441'
p3368
tp3369
Rp3370
(dp3371
g12
g3367
sbag1
(g6
g7
S'816376809'
p3372
tp3373
Rp3374
(dp3375
g12
g3367
sbag1
(g6
g7
S'816375715'
p3376
tp3377
Rp3378
(dp3379
g12
g3367
sbatp3380
Rp3381
(dp3382
g12
g3361
sbsVQueryTranslation
p3383
g1
(g6
g7
S'Lethrinus ravus[PORG]'
p3384
tp3385
Rp3386
(dp3387
g12
g3383
sbsVTranslationStack
p3388
g1
(g19
g20
(lp3389
g1
(g2
g3
(dp3390
g3353
g1
(g6
g7
g1756
tp3391
Rp3392
(dp3393
g12
g3353
sbsVField
p3394
g1
(g6
g7
S'PORG'
p3395
tp3396
Rp3397
(dp3398
g12
g3394
sbsVTerm
p3399
g1
(g6
g7
S'Lethrinus ravus[PORG]'
p3400
tp3401
Rp3402
(dp3403
g12
g3399
sbsVExplode
p3404
g1
(g6
g7
g121
tp3405
Rp3406
(dp3407
g12
g3404
sbstp3408
Rp3409
(dp3410
g12
VTermSet
p3411
sbag1
(g6
g7
S'GROUP'
p3412
tp3413
Rp3414
(dp3415
g12
VOP
p3416
sbatp3417
Rp3418
(dp3419
g12
g3388
sbsVRetStart
p3420
g1
(g6
g7
g138
tp3421
Rp3422
(dp3423
g12
g3420
sbsVTranslationSet
p3424
g1
(g19
g20
(lp3425
tp3426
Rp3427
(dp3428
g12
g3424
sbstp3429
Rp3430
(dp3431
g12
VeSearchResult
p3432
sbag1
(g2
g3
(dp3433
VCount
p3434
g1
(g6
g7
g153
tp3435
Rp3436
(dp3437
g12
g3434
sbsVRetMax
p3438
g1
(g6
g7
g153
tp3439
Rp3440
(dp3441
g12
g3438
sbsVIdList
p3442
g1
(g19
g20
(lp3443
g1
(g6
g7
S'21388786'
p3444
tp3445
Rp3446
(dp3447
g12
VId
p3448
sbatp3449
Rp3450
(dp3451
g12
g3442
sbsVQueryTranslation
p3452
g1
(g6
g7
S'Lethrinus reticulatus[PORG]'
p3453
tp3454
Rp3455
(dp3456
g12
g3452
sbsVTranslationStack
p3457
g1
(g19
g20
(lp3458
g1
(g2
g3
(dp3459
g3434
g1
(g6
g7
g153
tp3460
Rp3461
(dp3462
g12
g3434
sbsVField
p3463
g1
(g6
g7
S'PORG'
p3464
tp3465
Rp3466
(dp3467
g12
g3463
sbsVTerm
p3468
g1
(g6
g7
S'Lethrinus reticulatus[PORG]'
p3469
tp3470
Rp3471
(dp3472
g12
g3468
sbsVExplode
p3473
g1
(g6
g7
g121
tp3474
Rp3475
(dp3476
g12
g3473
sbstp3477
Rp3478
(dp3479
g12
VTermSet
p3480
sbag1
(g6
g7
S'GROUP'
p3481
tp3482
Rp3483
(dp3484
g12
VOP
p3485
sbatp3486
Rp3487
(dp3488
g12
g3457
sbsVRetStart
p3489
g1
(g6
g7
g138
tp3490
Rp3491
(dp3492
g12
g3489
sbsVTranslationSet
p3493
g1
(g19
g20
(lp3494
tp3495
Rp3496
(dp3497
g12
g3493
sbstp3498
Rp3499
(dp3500
g12
VeSearchResult
p3501
sbag1
(g2
g3
(dp3502
VCount
p3503
g1
(g6
g7
S'12'
p3504
tp3505
Rp3506
(dp3507
g12
g3503
sbsVRetMax
p3508
g1
(g6
g7
S'12'
p3509
tp3510
Rp3511
(dp3512
g12
g3508
sbsVIdList
p3513
g1
(g19
g20
(lp3514
g1
(g6
g7
S'21388806'
p3515
tp3516
Rp3517
(dp3518
g12
VId
p3519
sbag1
(g6
g7
S'328485966'
p3520
tp3521
Rp3522
(dp3523
g12
g3519
sbag1
(g6
g7
S'328485964'
p3524
tp3525
Rp3526
(dp3527
g12
g3519
sbag1
(g6
g7
S'328485962'
p3528
tp3529
Rp3530
(dp3531
g12
g3519
sbag1
(g6
g7
S'296836930'
p3532
tp3533
Rp3534
(dp3535
g12
g3519
sbag1
(g6
g7
S'1043662339'
p3536
tp3537
Rp3538
(dp3539
g12
g3519
sbag1
(g6
g7
S'116607999'
p3540
tp3541
Rp3542
(dp3543
g12
g3519
sbag1
(g6
g7
S'116607997'
p3544
tp3545
Rp3546
(dp3547
g12
g3519
sbag1
(g6
g7
S'13183286'
p3548
tp3549
Rp3550
(dp3551
g12
g3519
sbag1
(g6
g7
S'752502888'
p3552
tp3553
Rp3554
(dp3555
g12
g3519
sbag1
(g6
g7
S'116607811'
p3556
tp3557
Rp3558
(dp3559
g12
g3519
sbag1
(g6
g7
S'19850120'
p3560
tp3561
Rp3562
(dp3563
g12
g3519
sbatp3564
Rp3565
(dp3566
g12
g3513
sbsVQueryTranslation
p3567
g1
(g6
g7
S'Lethrinus rubrioperculatus[PORG]'
p3568
tp3569
Rp3570
(dp3571
g12
g3567
sbsVTranslationStack
p3572
g1
(g19
g20
(lp3573
g1
(g2
g3
(dp3574
g3503
g1
(g6
g7
S'12'
p3575
tp3576
Rp3577
(dp3578
g12
g3503
sbsVField
p3579
g1
(g6
g7
S'PORG'
p3580
tp3581
Rp3582
(dp3583
g12
g3579
sbsVTerm
p3584
g1
(g6
g7
S'Lethrinus rubrioperculatus[PORG]'
p3585
tp3586
Rp3587
(dp3588
g12
g3584
sbsVExplode
p3589
g1
(g6
g7
g121
tp3590
Rp3591
(dp3592
g12
g3589
sbstp3593
Rp3594
(dp3595
g12
VTermSet
p3596
sbag1
(g6
g7
S'GROUP'
p3597
tp3598
Rp3599
(dp3600
g12
VOP
p3601
sbatp3602
Rp3603
(dp3604
g12
g3572
sbsVRetStart
p3605
g1
(g6
g7
g138
tp3606
Rp3607
(dp3608
g12
g3605
sbsVTranslationSet
p3609
g1
(g19
g20
(lp3610
tp3611
Rp3612
(dp3613
g12
g3609
sbstp3614
Rp3615
(dp3616
g12
VeSearchResult
p3617
sbag1
(g2
g3
(dp3618
VCount
p3619
g1
(g6
g7
S'6'
p3620
tp3621
Rp3622
(dp3623
g12
g3619
sbsVRetMax
p3624
g1
(g6
g7
g3620
tp3625
Rp3626
(dp3627
g12
g3624
sbsVIdList
p3628
g1
(g19
g20
(lp3629
g1
(g6
g7
S'21388832'
p3630
tp3631
Rp3632
(dp3633
g12
VId
p3634
sbag1
(g6
g7
S'339431630'
p3635
tp3636
Rp3637
(dp3638
g12
g3634
sbag1
(g6
g7
S'816375695'
p3639
tp3640
Rp3641
(dp3642
g12
g3634
sbag1
(g6
g7
S'816375541'
p3643
tp3644
Rp3645
(dp3646
g12
g3634
sbag1
(g6
g7
S'906357553'
p3647
tp3648
Rp3649
(dp3650
g12
g3634
sbag1
(g6
g7
S'531992175'
p3651
tp3652
Rp3653
(dp3654
g12
g3634
sbatp3655
Rp3656
(dp3657
g12
g3628
sbsVQueryTranslation
p3658
g1
(g6
g7
S'Lethrinus semicinctus[PORG]'
p3659
tp3660
Rp3661
(dp3662
g12
g3658
sbsVTranslationStack
p3663
g1
(g19
g20
(lp3664
g1
(g2
g3
(dp3665
g3619
g1
(g6
g7
g3620
tp3666
Rp3667
(dp3668
g12
g3619
sbsVField
p3669
g1
(g6
g7
S'PORG'
p3670
tp3671
Rp3672
(dp3673
g12
g3669
sbsVTerm
p3674
g1
(g6
g7
S'Lethrinus semicinctus[PORG]'
p3675
tp3676
Rp3677
(dp3678
g12
g3674
sbsVExplode
p3679
g1
(g6
g7
g121
tp3680
Rp3681
(dp3682
g12
g3679
sbstp3683
Rp3684
(dp3685
g12
VTermSet
p3686
sbag1
(g6
g7
S'GROUP'
p3687
tp3688
Rp3689
(dp3690
g12
VOP
p3691
sbatp3692
Rp3693
(dp3694
g12
g3663
sbsVRetStart
p3695
g1
(g6
g7
g138
tp3696
Rp3697
(dp3698
g12
g3695
sbsVTranslationSet
p3699
g1
(g19
g20
(lp3700
tp3701
Rp3702
(dp3703
g12
g3699
sbstp3704
Rp3705
(dp3706
g12
VeSearchResult
p3707
sbag1
(g2
g3
(dp3708
VCount
p3709
g1
(g6
g7
g153
tp3710
Rp3711
(dp3712
g12
g3709
sbsVRetMax
p3713
g1
(g6
g7
g153
tp3714
Rp3715
(dp3716
g12
g3713
sbsVIdList
p3717
g1
(g19
g20
(lp3718
g1
(g6
g7
S'1043662341'
p3719
tp3720
Rp3721
(dp3722
g12
VId
p3723
sbatp3724
Rp3725
(dp3726
g12
g3717
sbsVQueryTranslation
p3727
g1
(g6
g7
S'Lethrinus variegatus[PORG]'
p3728
tp3729
Rp3730
(dp3731
g12
g3727
sbsVTranslationStack
p3732
g1
(g19
g20
(lp3733
g1
(g2
g3
(dp3734
g3709
g1
(g6
g7
g153
tp3735
Rp3736
(dp3737
g12
g3709
sbsVField
p3738
g1
(g6
g7
S'PORG'
p3739
tp3740
Rp3741
(dp3742
g12
g3738
sbsVTerm
p3743
g1
(g6
g7
S'Lethrinus variegatus[PORG]'
p3744
tp3745
Rp3746
(dp3747
g12
g3743
sbsVExplode
p3748
g1
(g6
g7
g121
tp3749
Rp3750
(dp3751
g12
g3748
sbstp3752
Rp3753
(dp3754
g12
VTermSet
p3755
sbag1
(g6
g7
S'GROUP'
p3756
tp3757
Rp3758
(dp3759
g12
VOP
p3760
sbatp3761
Rp3762
(dp3763
g12
g3732
sbsVRetStart
p3764
g1
(g6
g7
g138
tp3765
Rp3766
(dp3767
g12
g3764
sbsVTranslationSet
p3768
g1
(g19
g20
(lp3769
tp3770
Rp3771
(dp3772
g12
g3768
sbstp3773
Rp3774
(dp3775
g12
VeSearchResult
p3776
sbag1
(g2
g3
(dp3777
VCount
p3778
g1
(g6
g7
g1678
tp3779
Rp3780
(dp3781
g12
g3778
sbsVRetMax
p3782
g1
(g6
g7
g1678
tp3783
Rp3784
(dp3785
g12
g3782
sbsVIdList
p3786
g1
(g19
g20
(lp3787
g1
(g6
g7
S'166092399'
p3788
tp3789
Rp3790
(dp3791
g12
VId
p3792
sbag1
(g6
g7
S'816377215'
p3793
tp3794
Rp3795
(dp3796
g12
g3792
sbag1
(g6
g7
S'666877752'
p3797
tp3798
Rp3799
(dp3800
g12
g3792
sbatp3801
Rp3802
(dp3803
g12
g3786
sbsVQueryTranslation
p3804
g1
(g6
g7
S'Lethrinus xanthochilus[PORG]'
p3805
tp3806
Rp3807
(dp3808
g12
g3804
sbsVTranslationStack
p3809
g1
(g19
g20
(lp3810
g1
(g2
g3
(dp3811
g3778
g1
(g6
g7
g1678
tp3812
Rp3813
(dp3814
g12
g3778
sbsVField
p3815
g1
(g6
g7
S'PORG'
p3816
tp3817
Rp3818
(dp3819
g12
g3815
sbsVTerm
p3820
g1
(g6
g7
S'Lethrinus xanthochilus[PORG]'
p3821
tp3822
Rp3823
(dp3824
g12
g3820
sbsVExplode
p3825
g1
(g6
g7
g121
tp3826
Rp3827
(dp3828
g12
g3825
sbstp3829
Rp3830
(dp3831
g12
VTermSet
p3832
sbag1
(g6
g7
S'GROUP'
p3833
tp3834
Rp3835
(dp3836
g12
VOP
p3837
sbatp3838
Rp3839
(dp3840
g12
g3809
sbsVRetStart
p3841
g1
(g6
g7
g138
tp3842
Rp3843
(dp3844
g12
g3841
sbsVTranslationSet
p3845
g1
(g19
g20
(lp3846
tp3847
Rp3848
(dp3849
g12
g3845
sbstp3850
Rp3851
(dp3852
g12
VeSearchResult
p3853
sbag1
(g2
g3
(dp3854
VCount
p3855
g1
(g6
g7
S'31'
p3856
tp3857
Rp3858
(dp3859
g12
g3855
sbsVRetMax
p3860
g1
(g6
g7
S'20'
p3861
tp3862
Rp3863
(dp3864
g12
g3860
sbsVIdList
p3865
g1
(g19
g20
(lp3866
g1
(g6
g7
S'166092403'
p3867
tp3868
Rp3869
(dp3870
g12
VId
p3871
sbag1
(g6
g7
S'339431650'
p3872
tp3873
Rp3874
(dp3875
g12
g3871
sbag1
(g6
g7
S'296747031'
p3876
tp3877
Rp3878
(dp3879
g12
g3871
sbag1
(g6
g7
S'985565737'
p3880
tp3881
Rp3882
(dp3883
g12
g3871
sbag1
(g6
g7
S'808040966'
p3884
tp3885
Rp3886
(dp3887
g12
g3871
sbag1
(g6
g7
S'808040759'
p3888
tp3889
Rp3890
(dp3891
g12
g3871
sbag1
(g6
g7
S'808040555'
p3892
tp3893
Rp3894
(dp3895
g12
g3871
sbag1
(g6
g7
S'808040356'
p3896
tp3897
Rp3898
(dp3899
g12
g3871
sbag1
(g6
g7
S'554792089'
p3900
tp3901
Rp3902
(dp3903
g12
g3871
sbag1
(g6
g7
S'482514163'
p3904
tp3905
Rp3906
(dp3907
g12
g3871
sbag1
(g6
g7
S'481048745'
p3908
tp3909
Rp3910
(dp3911
g12
g3871
sbag1
(g6
g7
S'469609469'
p3912
tp3913
Rp3914
(dp3915
g12
g3871
sbag1
(g6
g7
S'469609213'
p3916
tp3917
Rp3918
(dp3919
g12
g3871
sbag1
(g6
g7
S'469608945'
p3920
tp3921
Rp3922
(dp3923
g12
g3871
sbag1
(g6
g7
S'394799687'
p3924
tp3925
Rp3926
(dp3927
g12
g3871
sbag1
(g6
g7
S'394767640'
p3928
tp3929
Rp3930
(dp3931
g12
g3871
sbag1
(g6
g7
S'394339705'
p3932
tp3933
Rp3934
(dp3935
g12
g3871
sbag1
(g6
g7
S'394339373'
p3936
tp3937
Rp3938
(dp3939
g12
g3871
sbag1
(g6
g7
S'394339176'
p3940
tp3941
Rp3942
(dp3943
g12
g3871
sbag1
(g6
g7
S'394338703'
p3944
tp3945
Rp3946
(dp3947
g12
g3871
sbatp3948
Rp3949
(dp3950
g12
g3865
sbsVQueryTranslation
p3951
g1
(g6
g7
S'Monotaxis grandoculis[PORG]'
p3952
tp3953
Rp3954
(dp3955
g12
g3951
sbsVTranslationStack
p3956
g1
(g19
g20
(lp3957
g1
(g2
g3
(dp3958
g3855
g1
(g6
g7
S'31'
p3959
tp3960
Rp3961
(dp3962
g12
g3855
sbsVField
p3963
g1
(g6
g7
S'PORG'
p3964
tp3965
Rp3966
(dp3967
g12
g3963
sbsVTerm
p3968
g1
(g6
g7
S'Monotaxis grandoculis[PORG]'
p3969
tp3970
Rp3971
(dp3972
g12
g3968
sbsVExplode
p3973
g1
(g6
g7
g121
tp3974
Rp3975
(dp3976
g12
g3973
sbstp3977
Rp3978
(dp3979
g12
VTermSet
p3980
sbag1
(g6
g7
S'GROUP'
p3981
tp3982
Rp3983
(dp3984
g12
VOP
p3985
sbatp3986
Rp3987
(dp3988
g12
g3956
sbsVRetStart
p3989
g1
(g6
g7
g138
tp3990
Rp3991
(dp3992
g12
g3989
sbsVTranslationSet
p3993
g1
(g19
g20
(lp3994
tp3995
Rp3996
(dp3997
g12
g3993
sbstp3998
Rp3999
(dp4000
g12
VeSearchResult
p4001
sba.