(lp0
ccopy_reg
_reconstructor
p1
(cBio.Entrez.Parser
DictionaryElement
p2
c__builtin__
dict
p3
(dp4
VCount
p5
g1
(cBio.Entrez.Parser
StringElement
p6
c__builtin__
str
p7
S'671'
p8
tp9
Rp10
(dp11
S'tag'
p12
g5
sbsVRetMax
p13
g1
(g6
g7
S'20'
p14
tp15
Rp16
(dp17
g12
g13
sbsVIdList
p18
g1
(cBio.Entrez.Parser
ListElement
p19
c__builtin__
list
p20
(lp21
g1
(g6
g7
S'1073625574'
p22
tp23
Rp24
(dp25
g12
VId
p26
sbag1
(g6
g7
S'1015633181'
p27
tp28
Rp29
(dp30
g12
g26
sbag1
(g6
g7
S'1015633179'
p31
tp32
Rp33
(dp34
g12
g26
sbag1
(g6
g7
S'1015633177'
p35
tp36
Rp37
(dp38
g12
g26
sbag1
(g6
g7
S'1015633175'
p39
tp40
Rp41
(dp42
g12
g26
sbag1
(g6
g7
S'1015633173'
p43
tp44
Rp45
(dp46
g12
g26
sbag1
(g6
g7
S'1015633171'
p47
tp48
Rp49
(dp50
g12
g26
sbag1
(g6
g7
S'1015633169'
p51
tp52
Rp53
(dp54
g12
g26
sbag1
(g6
g7
S'1015633167'
p55
tp56
Rp57
(dp58
g12
g26
sbag1
(g6
g7
S'1015633165'
p59
tp60
Rp61
(dp62
g12
g26
sbag1
(g6
g7
S'1015633163'
p63
tp64
Rp65
(dp66
g12
g26
sbag1
(g6
g7
S'1061064150'
p67
tp68
Rp69
(dp70
g12
g26
sbag1
(g6
g7
S'1061064148'
p71
tp72
Rp73
(dp74
g12
g26
sbag1
(g6
g7
S'1061064146'
p75
tp76
Rp77
(dp78
g12
g26
sbag1
(g6
g7
S'1061064144'
p79
tp80
Rp81
(dp82
g12
g26
sbag1
(g6
g7
S'1061064142'
p83
tp84
Rp85
(dp86
g12
g26
sbag1
(g6
g7
S'1061064140'
p87
tp88
Rp89
(dp90
g12
g26
sbag1
(g6
g7
S'1061064138'
p91
tp92
Rp93
(dp94
g12
g26
sbag1
(g6
g7
S'1061064136'
p95
tp96
Rp97
(dp98
g12
g26
sbag1
(g6
g7
S'1061064134'
p99
tp100
Rp101
(dp102
g12
g26
sbatp103
Rp104
(dp105
g12
g18
sbsVQueryTranslation
p106
g1
(g6
g7
S'"Lutjanidae"[Organism] AND CytB[gene]'
p107
tp108
Rp109
(dp110
g12
g106
sbsVTranslationStack
p111
g1
(g19
g20
(lp112
g1
(g2
g3
(dp113
g5
g1
(g6
g7
S'6175'
p114
tp115
Rp116
(dp117
g12
g5
sbsVField
p118
g1
(g6
g7
S'Organism'
p119
tp120
Rp121
(dp122
g12
g118
sbsVTerm
p123
g1
(g6
g7
S'"Lutjanidae"[Organism]'
p124
tp125
Rp126
(dp127
g12
g123
sbsVExplode
p128
g1
(g6
g7
S'Y'
p129
tp130
Rp131
(dp132
g12
g128
sbstp133
Rp134
(dp135
g12
VTermSet
p136
sbag1
(g2
g3
(dp137
g5
g1
(g6
g7
S'372983'
p138
tp139
Rp140
(dp141
g12
g5
sbsg118
g1
(g6
g7
S'gene'
p142
tp143
Rp144
(dp145
g12
g118
sbsg123
g1
(g6
g7
S'CytB[gene]'
p146
tp147
Rp148
(dp149
g12
g123
sbsg128
g1
(g6
g7
S'N'
p150
tp151
Rp152
(dp153
g12
g128
sbstp154
Rp155
(dp156
g12
g136
sbag1
(g6
g7
S'AND'
p157
tp158
Rp159
(dp160
g12
VOP
p161
sbatp162
Rp163
(dp164
g12
g111
sbsVRetStart
p165
g1
(g6
g7
S'0'
p166
tp167
Rp168
(dp169
g12
g165
sbsVTranslationSet
p170
g1
(g19
g20
(lp171
g1
(g2
g3
(dp172
VTo
p173
g1
(g6
g7
S'"Lutjanidae"[Organism]'
p174
tp175
Rp176
(dp177
g12
g173
sbsVFrom
p178
g1
(g6
g7
S'Lutjanidae[organism]'
p179
tp180
Rp181
(dp182
g12
g178
sbstp183
Rp184
(dp185
g12
VTranslation
p186
sbatp187
Rp188
(dp189
g12
g170
sbstp190
Rp191
(dp192
g12
VeSearchResult
p193
sba.