(lp0
ccopy_reg
_reconstructor
p1
(cBio.Entrez.Parser
DictionaryElement
p2
c__builtin__
dict
p3
(dp4
VCount
p5
g1
(cBio.Entrez.Parser
StringElement
p6
c__builtin__
str
p7
S'2'
p8
tp9
Rp10
(dp11
S'tag'
p12
g5
sbsVRetMax
p13
g1
(g6
g7
g8
tp14
Rp15
(dp16
g12
g13
sbsVIdList
p17
g1
(cBio.Entrez.Parser
ListElement
p18
c__builtin__
list
p19
(lp20
g1
(g6
g7
S'166092361'
p21
tp22
Rp23
(dp24
g12
VId
p25
sbag1
(g6
g7
S'959479093'
p26
tp27
Rp28
(dp29
g12
g25
sbatp30
Rp31
(dp32
g12
g17
sbsVTranslationStack
p33
g1
(g18
g19
(lp34
g1
(g2
g3
(dp35
g5
g1
(g6
g7
S'34'
p36
tp37
Rp38
(dp39
g12
g5
sbsVField
p40
g1
(g6
g7
S'Organism'
p41
tp42
Rp43
(dp44
g12
g40
sbsVTerm
p45
g1
(g6
g7
S'"Argyrops spinifer"[Organism]'
p46
tp47
Rp48
(dp49
g12
g45
sbsVExplode
p50
g1
(g6
g7
S'Y'
p51
tp52
Rp53
(dp54
g12
g50
sbstp55
Rp56
(dp57
g12
VTermSet
p58
sbag1
(g2
g3
(dp59
g5
g1
(g6
g7
S'44965'
p60
tp61
Rp62
(dp63
g12
g5
sbsg40
g1
(g6
g7
S'All Fields'
p64
tp65
Rp66
(dp67
g12
g40
sbsg45
g1
(g6
g7
S'rag1[All Fields]'
p68
tp69
Rp70
(dp71
g12
g45
sbsg50
g1
(g6
g7
S'N'
p72
tp73
Rp74
(dp75
g12
g50
sbstp76
Rp77
(dp78
g12
g58
sbag1
(g6
g7
S'AND'
p79
tp80
Rp81
(dp82
g12
VOP
p83
sbatp84
Rp85
(dp86
g12
g33
sbsVErrorList
p87
g1
(cBio.Entrez.Parser
StructureElement
p88
g3
(dp89
VFieldNotFound
p90
(lp91
g1
(g6
g7
S'definition'
p92
tp93
Rp94
(dp95
g12
VFieldNotFound
p96
sbasVPhraseNotFound
p97
(lp98
stp99
Rp100
(dp101
g12
g87
sS'listkeys'
p102
(lp103
g97
ag90
asbsVTranslationSet
p104
g1
(g18
g19
(lp105
g1
(g2
g3
(dp106
VTo
p107
g1
(g6
g7
S'"Argyrops spinifer"[Organism]'
p108
tp109
Rp110
(dp111
g12
g107
sbsVFrom
p112
g1
(g6
g7
S'Argyrops spinifer[organism]'
p113
tp114
Rp115
(dp116
g12
g112
sbstp117
Rp118
(dp119
g12
VTranslation
p120
sbatp121
Rp122
(dp123
g12
g104
sbsVRetStart
p124
g1
(g6
g7
S'0'
p125
tp126
Rp127
(dp128
g12
g124
sbsVQueryTranslation
p129
g1
(g6
g7
S'"Argyrops spinifer"[Organism] AND rag1[All Fields]'
p130
tp131
Rp132
(dp133
g12
g129
sbstp134
Rp135
(dp136
g12
VeSearchResult
p137
sbag1
(g2
g3
(dp138
VCount
p139
g1
(g6
g7
g8
tp140
Rp141
(dp142
g12
g139
sbsVRetMax
p143
g1
(g6
g7
g8
tp144
Rp145
(dp146
g12
g143
sbsVIdList
p147
g1
(g18
g19
(lp148
g1
(g6
g7
S'166092363'
p149
tp150
Rp151
(dp152
g12
VId
p153
sbag1
(g6
g7
S'959479103'
p154
tp155
Rp156
(dp157
g12
g153
sbatp158
Rp159
(dp160
g12
g147
sbsVTranslationStack
p161
g1
(g18
g19
(lp162
g1
(g2
g3
(dp163
g139
g1
(g6
g7
S'157'
p164
tp165
Rp166
(dp167
g12
g139
sbsVField
p168
g1
(g6
g7
S'Organism'
p169
tp170
Rp171
(dp172
g12
g168
sbsVTerm
p173
g1
(g6
g7
S'"Boops boops"[Organism]'
p174
tp175
Rp176
(dp177
g12
g173
sbsVExplode
p178
g1
(g6
g7
g51
tp179
Rp180
(dp181
g12
g178
sbstp182
Rp183
(dp184
g12
VTermSet
p185
sbag1
(g2
g3
(dp186
g139
g1
(g6
g7
S'44965'
p187
tp188
Rp189
(dp190
g12
g139
sbsg168
g1
(g6
g7
S'All Fields'
p191
tp192
Rp193
(dp194
g12
g168
sbsg173
g1
(g6
g7
S'rag1[All Fields]'
p195
tp196
Rp197
(dp198
g12
g173
sbsg178
g1
(g6
g7
g72
tp199
Rp200
(dp201
g12
g178
sbstp202
Rp203
(dp204
g12
g185
sbag1
(g6
g7
S'AND'
p205
tp206
Rp207
(dp208
g12
VOP
p209
sbatp210
Rp211
(dp212
g12
g161
sbsVErrorList
p213
g1
(g88
g3
(dp214
VFieldNotFound
p215
(lp216
g1
(g6
g7
S'definition'
p217
tp218
Rp219
(dp220
g12
VFieldNotFound
p221
sbasVPhraseNotFound
p222
(lp223
stp224
Rp225
(dp226
g12
g213
sg102
(lp227
g222
ag215
asbsVTranslationSet
p228
g1
(g18
g19
(lp229
g1
(g2
g3
(dp230
VTo
p231
g1
(g6
g7
S'"Boops boops"[Organism]'
p232
tp233
Rp234
(dp235
g12
g231
sbsVFrom
p236
g1
(g6
g7
S'Boops boops[organism]'
p237
tp238
Rp239
(dp240
g12
g236
sbstp241
Rp242
(dp243
g12
VTranslation
p244
sbatp245
Rp246
(dp247
g12
g228
sbsVRetStart
p248
g1
(g6
g7
g125
tp249
Rp250
(dp251
g12
g248
sbsVQueryTranslation
p252
g1
(g6
g7
S'"Boops boops"[Organism] AND rag1[All Fields]'
p253
tp254
Rp255
(dp256
g12
g252
sbstp257
Rp258
(dp259
g12
VeSearchResult
p260
sbag1
(g2
g3
(dp261
VCount
p262
g1
(g6
g7
g8
tp263
Rp264
(dp265
g12
g262
sbsVRetMax
p266
g1
(g6
g7
g8
tp267
Rp268
(dp269
g12
g266
sbsVIdList
p270
g1
(g18
g19
(lp271
g1
(g6
g7
S'166092365'
p272
tp273
Rp274
(dp275
g12
VId
p276
sbag1
(g6
g7
S'959479101'
p277
tp278
Rp279
(dp280
g12
g276
sbatp281
Rp282
(dp283
g12
g270
sbsVTranslationStack
p284
g1
(g18
g19
(lp285
g1
(g2
g3
(dp286
g262
g1
(g6
g7
S'10'
p287
tp288
Rp289
(dp290
g12
g262
sbsVField
p291
g1
(g6
g7
S'Organism'
p292
tp293
Rp294
(dp295
g12
g291
sbsVTerm
p296
g1
(g6
g7
S'"Boopsoidea inornata"[Organism]'
p297
tp298
Rp299
(dp300
g12
g296
sbsVExplode
p301
g1
(g6
g7
g51
tp302
Rp303
(dp304
g12
g301
sbstp305
Rp306
(dp307
g12
VTermSet
p308
sbag1
(g2
g3
(dp309
g262
g1
(g6
g7
S'44965'
p310
tp311
Rp312
(dp313
g12
g262
sbsg291
g1
(g6
g7
S'All Fields'
p314
tp315
Rp316
(dp317
g12
g291
sbsg296
g1
(g6
g7
S'rag1[All Fields]'
p318
tp319
Rp320
(dp321
g12
g296
sbsg301
g1
(g6
g7
g72
tp322
Rp323
(dp324
g12
g301
sbstp325
Rp326
(dp327
g12
g308
sbag1
(g6
g7
S'AND'
p328
tp329
Rp330
(dp331
g12
VOP
p332
sbatp333
Rp334
(dp335
g12
g284
sbsVErrorList
p336
g1
(g88
g3
(dp337
VFieldNotFound
p338
(lp339
g1
(g6
g7
S'definition'
p340
tp341
Rp342
(dp343
g12
VFieldNotFound
p344
sbasVPhraseNotFound
p345
(lp346
stp347
Rp348
(dp349
g12
g336
sg102
(lp350
g345
ag338
asbsVTranslationSet
p351
g1
(g18
g19
(lp352
g1
(g2
g3
(dp353
VTo
p354
g1
(g6
g7
S'"Boopsoidea inornata"[Organism]'
p355
tp356
Rp357
(dp358
g12
g354
sbsVFrom
p359
g1
(g6
g7
S'Boopsoidea inornata[organism]'
p360
tp361
Rp362
(dp363
g12
g359
sbstp364
Rp365
(dp366
g12
VTranslation
p367
sbatp368
Rp369
(dp370
g12
g351
sbsVRetStart
p371
g1
(g6
g7
g125
tp372
Rp373
(dp374
g12
g371
sbsVQueryTranslation
p375
g1
(g6
g7
S'"Boopsoidea inornata"[Organism] AND rag1[All Fields]'
p376
tp377
Rp378
(dp379
g12
g375
sbstp380
Rp381
(dp382
g12
VeSearchResult
p383
sbag1
(g2
g3
(dp384
VCount
p385
g1
(g6
g7
g8
tp386
Rp387
(dp388
g12
g385
sbsVRetMax
p389
g1
(g6
g7
g8
tp390
Rp391
(dp392
g12
g389
sbsVIdList
p393
g1
(g18
g19
(lp394
g1
(g6
g7
S'166092367'
p395
tp396
Rp397
(dp398
g12
VId
p399
sbag1
(g6
g7
S'531995941'
p400
tp401
Rp402
(dp403
g12
g399
sbatp404
Rp405
(dp406
g12
g393
sbsVTranslationStack
p407
g1
(g18
g19
(lp408
g1
(g2
g3
(dp409
g385
g1
(g6
g7
S'20'
p410
tp411
Rp412
(dp413
g12
g385
sbsVField
p414
g1
(g6
g7
S'Organism'
p415
tp416
Rp417
(dp418
g12
g414
sbsVTerm
p419
g1
(g6
g7
S'"Calamus calamus"[Organism]'
p420
tp421
Rp422
(dp423
g12
g419
sbsVExplode
p424
g1
(g6
g7
g51
tp425
Rp426
(dp427
g12
g424
sbstp428
Rp429
(dp430
g12
VTermSet
p431
sbag1
(g2
g3
(dp432
g385
g1
(g6
g7
S'44965'
p433
tp434
Rp435
(dp436
g12
g385
sbsg414
g1
(g6
g7
S'All Fields'
p437
tp438
Rp439
(dp440
g12
g414
sbsg419
g1
(g6
g7
S'rag1[All Fields]'
p441
tp442
Rp443
(dp444
g12
g419
sbsg424
g1
(g6
g7
g72
tp445
Rp446
(dp447
g12
g424
sbstp448
Rp449
(dp450
g12
g431
sbag1
(g6
g7
S'AND'
p451
tp452
Rp453
(dp454
g12
VOP
p455
sbatp456
Rp457
(dp458
g12
g407
sbsVErrorList
p459
g1
(g88
g3
(dp460
VFieldNotFound
p461
(lp462
g1
(g6
g7
S'definition'
p463
tp464
Rp465
(dp466
g12
VFieldNotFound
p467
sbasVPhraseNotFound
p468
(lp469
stp470
Rp471
(dp472
g12
g459
sg102
(lp473
g468
ag461
asbsVTranslationSet
p474
g1
(g18
g19
(lp475
g1
(g2
g3
(dp476
VTo
p477
g1
(g6
g7
S'"Calamus calamus"[Organism]'
p478
tp479
Rp480
(dp481
g12
g477
sbsVFrom
p482
g1
(g6
g7
S'Calamus calamus[organism]'
p483
tp484
Rp485
(dp486
g12
g482
sbstp487
Rp488
(dp489
g12
VTranslation
p490
sbatp491
Rp492
(dp493
g12
g474
sbsVRetStart
p494
g1
(g6
g7
g125
tp495
Rp496
(dp497
g12
g494
sbsVQueryTranslation
p498
g1
(g6
g7
S'"Calamus calamus"[Organism] AND rag1[All Fields]'
p499
tp500
Rp501
(dp502
g12
g498
sbstp503
Rp504
(dp505
g12
VeSearchResult
p506
sbag1
(g2
g3
(dp507
VCount
p508
g1
(g6
g7
g8
tp509
Rp510
(dp511
g12
g508
sbsVRetMax
p512
g1
(g6
g7
g8
tp513
Rp514
(dp515
g12
g512
sbsVIdList
p516
g1
(g18
g19
(lp517
g1
(g6
g7
S'166092369'
p518
tp519
Rp520
(dp521
g12
VId
p522
sbag1
(g6
g7
S'959479033'
p523
tp524
Rp525
(dp526
g12
g522
sbatp527
Rp528
(dp529
g12
g516
sbsVTranslationStack
p530
g1
(g18
g19
(lp531
g1
(g2
g3
(dp532
g508
g1
(g6
g7
S'15'
p533
tp534
Rp535
(dp536
g12
g508
sbsVField
p537
g1
(g6
g7
S'Organism'
p538
tp539
Rp540
(dp541
g12
g537
sbsVTerm
p542
g1
(g6
g7
S'"Centracanthus cirrus"[Organism]'
p543
tp544
Rp545
(dp546
g12
g542
sbsVExplode
p547
g1
(g6
g7
g51
tp548
Rp549
(dp550
g12
g547
sbstp551
Rp552
(dp553
g12
VTermSet
p554
sbag1
(g2
g3
(dp555
g508
g1
(g6
g7
S'44965'
p556
tp557
Rp558
(dp559
g12
g508
sbsg537
g1
(g6
g7
S'All Fields'
p560
tp561
Rp562
(dp563
g12
g537
sbsg542
g1
(g6
g7
S'rag1[All Fields]'
p564
tp565
Rp566
(dp567
g12
g542
sbsg547
g1
(g6
g7
g72
tp568
Rp569
(dp570
g12
g547
sbstp571
Rp572
(dp573
g12
g554
sbag1
(g6
g7
S'AND'
p574
tp575
Rp576
(dp577
g12
VOP
p578
sbatp579
Rp580
(dp581
g12
g530
sbsVErrorList
p582
g1
(g88
g3
(dp583
VFieldNotFound
p584
(lp585
g1
(g6
g7
S'definition'
p586
tp587
Rp588
(dp589
g12
VFieldNotFound
p590
sbasVPhraseNotFound
p591
(lp592
stp593
Rp594
(dp595
g12
g582
sg102
(lp596
g591
ag584
asbsVTranslationSet
p597
g1
(g18
g19
(lp598
g1
(g2
g3
(dp599
VTo
p600
g1
(g6
g7
S'"Centracanthus cirrus"[Organism]'
p601
tp602
Rp603
(dp604
g12
g600
sbsVFrom
p605
g1
(g6
g7
S'Centracanthus cirrus[organism]'
p606
tp607
Rp608
(dp609
g12
g605
sbstp610
Rp611
(dp612
g12
VTranslation
p613
sbatp614
Rp615
(dp616
g12
g597
sbsVRetStart
p617
g1
(g6
g7
g125
tp618
Rp619
(dp620
g12
g617
sbsVQueryTranslation
p621
g1
(g6
g7
S'"Centracanthus cirrus"[Organism] AND rag1[All Fields]'
p622
tp623
Rp624
(dp625
g12
g621
sbstp626
Rp627
(dp628
g12
VeSearchResult
p629
sbag1
(g2
g3
(dp630
VCount
p631
g1
(g6
g7
g8
tp632
Rp633
(dp634
g12
g631
sbsVRetMax
p635
g1
(g6
g7
g8
tp636
Rp637
(dp638
g12
g635
sbsVIdList
p639
g1
(g18
g19
(lp640
g1
(g6
g7
S'166092371'
p641
tp642
Rp643
(dp644
g12
VId
p645
sbag1
(g6
g7
S'959479035'
p646
tp647
Rp648
(dp649
g12
g645
sbatp650
Rp651
(dp652
g12
g639
sbsVTranslationStack
p653
g1
(g18
g19
(lp654
g1
(g2
g3
(dp655
g631
g1
(g6
g7
S'27'
p656
tp657
Rp658
(dp659
g12
g631
sbsVField
p660
g1
(g6
g7
S'Organism'
p661
tp662
Rp663
(dp664
g12
g660
sbsVTerm
p665
g1
(g6
g7
S'"Cheimerius nufar"[Organism]'
p666
tp667
Rp668
(dp669
g12
g665
sbsVExplode
p670
g1
(g6
g7
g51
tp671
Rp672
(dp673
g12
g670
sbstp674
Rp675
(dp676
g12
VTermSet
p677
sbag1
(g2
g3
(dp678
g631
g1
(g6
g7
S'44965'
p679
tp680
Rp681
(dp682
g12
g631
sbsg660
g1
(g6
g7
S'All Fields'
p683
tp684
Rp685
(dp686
g12
g660
sbsg665
g1
(g6
g7
S'rag1[All Fields]'
p687
tp688
Rp689
(dp690
g12
g665
sbsg670
g1
(g6
g7
g72
tp691
Rp692
(dp693
g12
g670
sbstp694
Rp695
(dp696
g12
g677
sbag1
(g6
g7
S'AND'
p697
tp698
Rp699
(dp700
g12
VOP
p701
sbatp702
Rp703
(dp704
g12
g653
sbsVErrorList
p705
g1
(g88
g3
(dp706
VFieldNotFound
p707
(lp708
g1
(g6
g7
S'definition'
p709
tp710
Rp711
(dp712
g12
VFieldNotFound
p713
sbasVPhraseNotFound
p714
(lp715
stp716
Rp717
(dp718
g12
g705
sg102
(lp719
g714
ag707
asbsVTranslationSet
p720
g1
(g18
g19
(lp721
g1
(g2
g3
(dp722
VTo
p723
g1
(g6
g7
S'"Cheimerius nufar"[Organism]'
p724
tp725
Rp726
(dp727
g12
g723
sbsVFrom
p728
g1
(g6
g7
S'Cheimerius nufar[organism]'
p729
tp730
Rp731
(dp732
g12
g728
sbstp733
Rp734
(dp735
g12
VTranslation
p736
sbatp737
Rp738
(dp739
g12
g720
sbsVRetStart
p740
g1
(g6
g7
g125
tp741
Rp742
(dp743
g12
g740
sbsVQueryTranslation
p744
g1
(g6
g7
S'"Cheimerius nufar"[Organism] AND rag1[All Fields]'
p745
tp746
Rp747
(dp748
g12
g744
sbstp749
Rp750
(dp751
g12
VeSearchResult
p752
sbag1
(g2
g3
(dp753
VCount
p754
g1
(g6
g7
S'1'
p755
tp756
Rp757
(dp758
g12
g754
sbsVRetMax
p759
g1
(g6
g7
g755
tp760
Rp761
(dp762
g12
g759
sbsVIdList
p763
g1
(g18
g19
(lp764
g1
(g6
g7
S'166092373'
p765
tp766
Rp767
(dp768
g12
VId
p769
sbatp770
Rp771
(dp772
g12
g763
sbsVTranslationStack
p773
g1
(g18
g19
(lp774
g1
(g2
g3
(dp775
g754
g1
(g6
g7
S'21'
p776
tp777
Rp778
(dp779
g12
g754
sbsVField
p780
g1
(g6
g7
S'Organism'
p781
tp782
Rp783
(dp784
g12
g780
sbsVTerm
p785
g1
(g6
g7
S'"Chrysoblephus anglicus"[Organism]'
p786
tp787
Rp788
(dp789
g12
g785
sbsVExplode
p790
g1
(g6
g7
g51
tp791
Rp792
(dp793
g12
g790
sbstp794
Rp795
(dp796
g12
VTermSet
p797
sbag1
(g2
g3
(dp798
g754
g1
(g6
g7
S'44965'
p799
tp800
Rp801
(dp802
g12
g754
sbsg780
g1
(g6
g7
S'All Fields'
p803
tp804
Rp805
(dp806
g12
g780
sbsg785
g1
(g6
g7
S'rag1[All Fields]'
p807
tp808
Rp809
(dp810
g12
g785
sbsg790
g1
(g6
g7
g72
tp811
Rp812
(dp813
g12
g790
sbstp814
Rp815
(dp816
g12
g797
sbag1
(g6
g7
S'AND'
p817
tp818
Rp819
(dp820
g12
VOP
p821
sbatp822
Rp823
(dp824
g12
g773
sbsVErrorList
p825
g1
(g88
g3
(dp826
VFieldNotFound
p827
(lp828
g1
(g6
g7
S'definition'
p829
tp830
Rp831
(dp832
g12
VFieldNotFound
p833
sbasVPhraseNotFound
p834
(lp835
stp836
Rp837
(dp838
g12
g825
sg102
(lp839
g834
ag827
asbsVTranslationSet
p840
g1
(g18
g19
(lp841
g1
(g2
g3
(dp842
VTo
p843
g1
(g6
g7
S'"Chrysoblephus anglicus"[Organism]'
p844
tp845
Rp846
(dp847
g12
g843
sbsVFrom
p848
g1
(g6
g7
S'Chrysoblephus anglicus[organism]'
p849
tp850
Rp851
(dp852
g12
g848
sbstp853
Rp854
(dp855
g12
VTranslation
p856
sbatp857
Rp858
(dp859
g12
g840
sbsVRetStart
p860
g1
(g6
g7
g125
tp861
Rp862
(dp863
g12
g860
sbsVQueryTranslation
p864
g1
(g6
g7
S'"Chrysoblephus anglicus"[Organism] AND rag1[All Fields]'
p865
tp866
Rp867
(dp868
g12
g864
sbstp869
Rp870
(dp871
g12
VeSearchResult
p872
sbag1
(g2
g3
(dp873
VCount
p874
g1
(g6
g7
g755
tp875
Rp876
(dp877
g12
g874
sbsVRetMax
p878
g1
(g6
g7
g755
tp879
Rp880
(dp881
g12
g878
sbsVIdList
p882
g1
(g18
g19
(lp883
g1
(g6
g7
S'959479041'
p884
tp885
Rp886
(dp887
g12
VId
p888
sbatp889
Rp890
(dp891
g12
g882
sbsVTranslationStack
p892
g1
(g18
g19
(lp893
g1
(g2
g3
(dp894
g874
g1
(g6
g7
S'185'
p895
tp896
Rp897
(dp898
g12
g874
sbsVField
p899
g1
(g6
g7
S'Organism'
p900
tp901
Rp902
(dp903
g12
g899
sbsVTerm
p904
g1
(g6
g7
S'"Chrysoblephus laticeps"[Organism]'
p905
tp906
Rp907
(dp908
g12
g904
sbsVExplode
p909
g1
(g6
g7
g51
tp910
Rp911
(dp912
g12
g909
sbstp913
Rp914
(dp915
g12
VTermSet
p916
sbag1
(g2
g3
(dp917
g874
g1
(g6
g7
S'44965'
p918
tp919
Rp920
(dp921
g12
g874
sbsg899
g1
(g6
g7
S'All Fields'
p922
tp923
Rp924
(dp925
g12
g899
sbsg904
g1
(g6
g7
S'rag1[All Fields]'
p926
tp927
Rp928
(dp929
g12
g904
sbsg909
g1
(g6
g7
g72
tp930
Rp931
(dp932
g12
g909
sbstp933
Rp934
(dp935
g12
g916
sbag1
(g6
g7
S'AND'
p936
tp937
Rp938
(dp939
g12
VOP
p940
sbatp941
Rp942
(dp943
g12
g892
sbsVErrorList
p944
g1
(g88
g3
(dp945
VFieldNotFound
p946
(lp947
g1
(g6
g7
S'definition'
p948
tp949
Rp950
(dp951
g12
VFieldNotFound
p952
sbasVPhraseNotFound
p953
(lp954
stp955
Rp956
(dp957
g12
g944
sg102
(lp958
g953
ag946
asbsVTranslationSet
p959
g1
(g18
g19
(lp960
g1
(g2
g3
(dp961
VTo
p962
g1
(g6
g7
S'"Chrysoblephus laticeps"[Organism]'
p963
tp964
Rp965
(dp966
g12
g962
sbsVFrom
p967
g1
(g6
g7
S'Chrysoblephus laticeps[organism]'
p968
tp969
Rp970
(dp971
g12
g967
sbstp972
Rp973
(dp974
g12
VTranslation
p975
sbatp976
Rp977
(dp978
g12
g959
sbsVRetStart
p979
g1
(g6
g7
g125
tp980
Rp981
(dp982
g12
g979
sbsVQueryTranslation
p983
g1
(g6
g7
S'"Chrysoblephus laticeps"[Organism] AND rag1[All Fields]'
p984
tp985
Rp986
(dp987
g12
g983
sbstp988
Rp989
(dp990
g12
VeSearchResult
p991
sbag1
(g2
g3
(dp992
VCount
p993
g1
(g6
g7
g755
tp994
Rp995
(dp996
g12
g993
sbsVRetMax
p997
g1
(g6
g7
g755
tp998
Rp999
(dp1000
g12
g997
sbsVIdList
p1001
g1
(g18
g19
(lp1002
g1
(g6
g7
S'959479043'
p1003
tp1004
Rp1005
(dp1006
g12
VId
p1007
sbatp1008
Rp1009
(dp1010
g12
g1001
sbsVTranslationStack
p1011
g1
(g18
g19
(lp1012
g1
(g2
g3
(dp1013
g993
g1
(g6
g7
S'15'
p1014
tp1015
Rp1016
(dp1017
g12
g993
sbsVField
p1018
g1
(g6
g7
S'Organism'
p1019
tp1020
Rp1021
(dp1022
g12
g1018
sbsVTerm
p1023
g1
(g6
g7
S'"Crenidens crenidens"[Organism]'
p1024
tp1025
Rp1026
(dp1027
g12
g1023
sbsVExplode
p1028
g1
(g6
g7
g51
tp1029
Rp1030
(dp1031
g12
g1028
sbstp1032
Rp1033
(dp1034
g12
VTermSet
p1035
sbag1
(g2
g3
(dp1036
g993
g1
(g6
g7
S'44965'
p1037
tp1038
Rp1039
(dp1040
g12
g993
sbsg1018
g1
(g6
g7
S'All Fields'
p1041
tp1042
Rp1043
(dp1044
g12
g1018
sbsg1023
g1
(g6
g7
S'rag1[All Fields]'
p1045
tp1046
Rp1047
(dp1048
g12
g1023
sbsg1028
g1
(g6
g7
g72
tp1049
Rp1050
(dp1051
g12
g1028
sbstp1052
Rp1053
(dp1054
g12
g1035
sbag1
(g6
g7
S'AND'
p1055
tp1056
Rp1057
(dp1058
g12
VOP
p1059
sbatp1060
Rp1061
(dp1062
g12
g1011
sbsVErrorList
p1063
g1
(g88
g3
(dp1064
VFieldNotFound
p1065
(lp1066
g1
(g6
g7
S'definition'
p1067
tp1068
Rp1069
(dp1070
g12
VFieldNotFound
p1071
sbasVPhraseNotFound
p1072
(lp1073
stp1074
Rp1075
(dp1076
g12
g1063
sg102
(lp1077
g1072
ag1065
asbsVTranslationSet
p1078
g1
(g18
g19
(lp1079
g1
(g2
g3
(dp1080
VTo
p1081
g1
(g6
g7
S'"Crenidens crenidens"[Organism]'
p1082
tp1083
Rp1084
(dp1085
g12
g1081
sbsVFrom
p1086
g1
(g6
g7
S'Crenidens crenidens[organism]'
p1087
tp1088
Rp1089
(dp1090
g12
g1086
sbstp1091
Rp1092
(dp1093
g12
VTranslation
p1094
sbatp1095
Rp1096
(dp1097
g12
g1078
sbsVRetStart
p1098
g1
(g6
g7
g125
tp1099
Rp1100
(dp1101
g12
g1098
sbsVQueryTranslation
p1102
g1
(g6
g7
S'"Crenidens crenidens"[Organism] AND rag1[All Fields]'
p1103
tp1104
Rp1105
(dp1106
g12
g1102
sbstp1107
Rp1108
(dp1109
g12
VeSearchResult
p1110
sbag1
(g2
g3
(dp1111
VCount
p1112
g1
(g6
g7
g755
tp1113
Rp1114
(dp1115
g12
g1112
sbsVRetMax
p1116
g1
(g6
g7
g755
tp1117
Rp1118
(dp1119
g12
g1116
sbsVIdList
p1120
g1
(g18
g19
(lp1121
g1
(g6
g7
S'959479045'
p1122
tp1123
Rp1124
(dp1125
g12
VId
p1126
sbatp1127
Rp1128
(dp1129
g12
g1120
sbsVTranslationStack
p1130
g1
(g18
g19
(lp1131
g1
(g2
g3
(dp1132
g1112
g1
(g6
g7
S'126'
p1133
tp1134
Rp1135
(dp1136
g12
g1112
sbsVField
p1137
g1
(g6
g7
S'Organism'
p1138
tp1139
Rp1140
(dp1141
g12
g1137
sbsVTerm
p1142
g1
(g6
g7
S'"Dentex dentex"[Organism]'
p1143
tp1144
Rp1145
(dp1146
g12
g1142
sbsVExplode
p1147
g1
(g6
g7
g51
tp1148
Rp1149
(dp1150
g12
g1147
sbstp1151
Rp1152
(dp1153
g12
VTermSet
p1154
sbag1
(g2
g3
(dp1155
g1112
g1
(g6
g7
S'44965'
p1156
tp1157
Rp1158
(dp1159
g12
g1112
sbsg1137
g1
(g6
g7
S'All Fields'
p1160
tp1161
Rp1162
(dp1163
g12
g1137
sbsg1142
g1
(g6
g7
S'rag1[All Fields]'
p1164
tp1165
Rp1166
(dp1167
g12
g1142
sbsg1147
g1
(g6
g7
g72
tp1168
Rp1169
(dp1170
g12
g1147
sbstp1171
Rp1172
(dp1173
g12
g1154
sbag1
(g6
g7
S'AND'
p1174
tp1175
Rp1176
(dp1177
g12
VOP
p1178
sbatp1179
Rp1180
(dp1181
g12
g1130
sbsVErrorList
p1182
g1
(g88
g3
(dp1183
VFieldNotFound
p1184
(lp1185
g1
(g6
g7
S'definition'
p1186
tp1187
Rp1188
(dp1189
g12
VFieldNotFound
p1190
sbasVPhraseNotFound
p1191
(lp1192
stp1193
Rp1194
(dp1195
g12
g1182
sg102
(lp1196
g1191
ag1184
asbsVTranslationSet
p1197
g1
(g18
g19
(lp1198
g1
(g2
g3
(dp1199
VTo
p1200
g1
(g6
g7
S'"Dentex dentex"[Organism]'
p1201
tp1202
Rp1203
(dp1204
g12
g1200
sbsVFrom
p1205
g1
(g6
g7
S'Dentex dentex[organism]'
p1206
tp1207
Rp1208
(dp1209
g12
g1205
sbstp1210
Rp1211
(dp1212
g12
VTranslation
p1213
sbatp1214
Rp1215
(dp1216
g12
g1197
sbsVRetStart
p1217
g1
(g6
g7
g125
tp1218
Rp1219
(dp1220
g12
g1217
sbsVQueryTranslation
p1221
g1
(g6
g7
S'"Dentex dentex"[Organism] AND rag1[All Fields]'
p1222
tp1223
Rp1224
(dp1225
g12
g1221
sbstp1226
Rp1227
(dp1228
g12
VeSearchResult
p1229
sbag1
(g2
g3
(dp1230
VCount
p1231
g1
(g6
g7
g755
tp1232
Rp1233
(dp1234
g12
g1231
sbsVRetMax
p1235
g1
(g6
g7
g755
tp1236
Rp1237
(dp1238
g12
g1235
sbsVIdList
p1239
g1
(g18
g19
(lp1240
g1
(g6
g7
S'959479049'
p1241
tp1242
Rp1243
(dp1244
g12
VId
p1245
sbatp1246
Rp1247
(dp1248
g12
g1239
sbsVTranslationStack
p1249
g1
(g18
g19
(lp1250
g1
(g2
g3
(dp1251
g1231
g1
(g6
g7
S'74'
p1252
tp1253
Rp1254
(dp1255
g12
g1231
sbsVField
p1256
g1
(g6
g7
S'Organism'
p1257
tp1258
Rp1259
(dp1260
g12
g1256
sbsVTerm
p1261
g1
(g6
g7
S'"Diplodus annularis"[Organism]'
p1262
tp1263
Rp1264
(dp1265
g12
g1261
sbsVExplode
p1266
g1
(g6
g7
g51
tp1267
Rp1268
(dp1269
g12
g1266
sbstp1270
Rp1271
(dp1272
g12
VTermSet
p1273
sbag1
(g2
g3
(dp1274
g1231
g1
(g6
g7
S'44965'
p1275
tp1276
Rp1277
(dp1278
g12
g1231
sbsg1256
g1
(g6
g7
S'All Fields'
p1279
tp1280
Rp1281
(dp1282
g12
g1256
sbsg1261
g1
(g6
g7
S'rag1[All Fields]'
p1283
tp1284
Rp1285
(dp1286
g12
g1261
sbsg1266
g1
(g6
g7
g72
tp1287
Rp1288
(dp1289
g12
g1266
sbstp1290
Rp1291
(dp1292
g12
g1273
sbag1
(g6
g7
S'AND'
p1293
tp1294
Rp1295
(dp1296
g12
VOP
p1297
sbatp1298
Rp1299
(dp1300
g12
g1249
sbsVErrorList
p1301
g1
(g88
g3
(dp1302
VFieldNotFound
p1303
(lp1304
g1
(g6
g7
S'definition'
p1305
tp1306
Rp1307
(dp1308
g12
VFieldNotFound
p1309
sbasVPhraseNotFound
p1310
(lp1311
stp1312
Rp1313
(dp1314
g12
g1301
sg102
(lp1315
g1310
ag1303
asbsVTranslationSet
p1316
g1
(g18
g19
(lp1317
g1
(g2
g3
(dp1318
VTo
p1319
g1
(g6
g7
S'"Diplodus annularis"[Organism]'
p1320
tp1321
Rp1322
(dp1323
g12
g1319
sbsVFrom
p1324
g1
(g6
g7
S'Diplodus annularis[organism]'
p1325
tp1326
Rp1327
(dp1328
g12
g1324
sbstp1329
Rp1330
(dp1331
g12
VTranslation
p1332
sbatp1333
Rp1334
(dp1335
g12
g1316
sbsVRetStart
p1336
g1
(g6
g7
g125
tp1337
Rp1338
(dp1339
g12
g1336
sbsVQueryTranslation
p1340
g1
(g6
g7
S'"Diplodus annularis"[Organism] AND rag1[All Fields]'
p1341
tp1342
Rp1343
(dp1344
g12
g1340
sbstp1345
Rp1346
(dp1347
g12
VeSearchResult
p1348
sbag1
(g2
g3
(dp1349
VCount
p1350
g1
(g6
g7
g8
tp1351
Rp1352
(dp1353
g12
g1350
sbsVRetMax
p1354
g1
(g6
g7
g8
tp1355
Rp1356
(dp1357
g12
g1354
sbsVIdList
p1358
g1
(g18
g19
(lp1359
g1
(g6
g7
S'166092375'
p1360
tp1361
Rp1362
(dp1363
g12
VId
p1364
sbag1
(g6
g7
S'959479053'
p1365
tp1366
Rp1367
(dp1368
g12
g1364
sbatp1369
Rp1370
(dp1371
g12
g1358
sbsVTranslationStack
p1372
g1
(g18
g19
(lp1373
g1
(g2
g3
(dp1374
g1350
g1
(g6
g7
S'9'
p1375
tp1376
Rp1377
(dp1378
g12
g1350
sbsVField
p1379
g1
(g6
g7
S'Organism'
p1380
tp1381
Rp1382
(dp1383
g12
g1379
sbsVTerm
p1384
g1
(g6
g7
S'"Diplodus bermudensis"[Organism]'
p1385
tp1386
Rp1387
(dp1388
g12
g1384
sbsVExplode
p1389
g1
(g6
g7
g51
tp1390
Rp1391
(dp1392
g12
g1389
sbstp1393
Rp1394
(dp1395
g12
VTermSet
p1396
sbag1
(g2
g3
(dp1397
g1350
g1
(g6
g7
S'44965'
p1398
tp1399
Rp1400
(dp1401
g12
g1350
sbsg1379
g1
(g6
g7
S'All Fields'
p1402
tp1403
Rp1404
(dp1405
g12
g1379
sbsg1384
g1
(g6
g7
S'rag1[All Fields]'
p1406
tp1407
Rp1408
(dp1409
g12
g1384
sbsg1389
g1
(g6
g7
g72
tp1410
Rp1411
(dp1412
g12
g1389
sbstp1413
Rp1414
(dp1415
g12
g1396
sbag1
(g6
g7
S'AND'
p1416
tp1417
Rp1418
(dp1419
g12
VOP
p1420
sbatp1421
Rp1422
(dp1423
g12
g1372
sbsVErrorList
p1424
g1
(g88
g3
(dp1425
VFieldNotFound
p1426
(lp1427
g1
(g6
g7
S'definition'
p1428
tp1429
Rp1430
(dp1431
g12
VFieldNotFound
p1432
sbasVPhraseNotFound
p1433
(lp1434
stp1435
Rp1436
(dp1437
g12
g1424
sg102
(lp1438
g1433
ag1426
asbsVTranslationSet
p1439
g1
(g18
g19
(lp1440
g1
(g2
g3
(dp1441
VTo
p1442
g1
(g6
g7
S'"Diplodus bermudensis"[Organism]'
p1443
tp1444
Rp1445
(dp1446
g12
g1442
sbsVFrom
p1447
g1
(g6
g7
S'Diplodus bermudensis[organism]'
p1448
tp1449
Rp1450
(dp1451
g12
g1447
sbstp1452
Rp1453
(dp1454
g12
VTranslation
p1455
sbatp1456
Rp1457
(dp1458
g12
g1439
sbsVRetStart
p1459
g1
(g6
g7
g125
tp1460
Rp1461
(dp1462
g12
g1459
sbsVQueryTranslation
p1463
g1
(g6
g7
S'"Diplodus bermudensis"[Organism] AND rag1[All Fields]'
p1464
tp1465
Rp1466
(dp1467
g12
g1463
sbstp1468
Rp1469
(dp1470
g12
VeSearchResult
p1471
sbag1
(g2
g3
(dp1472
VCount
p1473
g1
(g6
g7
g8
tp1474
Rp1475
(dp1476
g12
g1473
sbsVRetMax
p1477
g1
(g6
g7
g8
tp1478
Rp1479
(dp1480
g12
g1477
sbsVIdList
p1481
g1
(g18
g19
(lp1482
g1
(g6
g7
S'166092383'
p1483
tp1484
Rp1485
(dp1486
g12
VId
p1487
sbag1
(g6
g7
S'394339777'
p1488
tp1489
Rp1490
(dp1491
g12
g1487
sbatp1492
Rp1493
(dp1494
g12
g1481
sbsVTranslationStack
p1495
g1
(g18
g19
(lp1496
g1
(g2
g3
(dp1497
g1473
g1
(g6
g7
S'56'
p1498
tp1499
Rp1500
(dp1501
g12
g1473
sbsVField
p1502
g1
(g6
g7
S'Organism'
p1503
tp1504
Rp1505
(dp1506
g12
g1502
sbsVTerm
p1507
g1
(g6
g7
S'"Lagodon rhomboides"[Organism]'
p1508
tp1509
Rp1510
(dp1511
g12
g1507
sbsVExplode
p1512
g1
(g6
g7
g51
tp1513
Rp1514
(dp1515
g12
g1512
sbstp1516
Rp1517
(dp1518
g12
VTermSet
p1519
sbag1
(g2
g3
(dp1520
g1473
g1
(g6
g7
S'44965'
p1521
tp1522
Rp1523
(dp1524
g12
g1473
sbsg1502
g1
(g6
g7
S'All Fields'
p1525
tp1526
Rp1527
(dp1528
g12
g1502
sbsg1507
g1
(g6
g7
S'rag1[All Fields]'
p1529
tp1530
Rp1531
(dp1532
g12
g1507
sbsg1512
g1
(g6
g7
g72
tp1533
Rp1534
(dp1535
g12
g1512
sbstp1536
Rp1537
(dp1538
g12
g1519
sbag1
(g6
g7
S'AND'
p1539
tp1540
Rp1541
(dp1542
g12
VOP
p1543
sbatp1544
Rp1545
(dp1546
g12
g1495
sbsVErrorList
p1547
g1
(g88
g3
(dp1548
VFieldNotFound
p1549
(lp1550
g1
(g6
g7
S'definition'
p1551
tp1552
Rp1553
(dp1554
g12
VFieldNotFound
p1555
sbasVPhraseNotFound
p1556
(lp1557
stp1558
Rp1559
(dp1560
g12
g1547
sg102
(lp1561
g1556
ag1549
asbsVTranslationSet
p1562
g1
(g18
g19
(lp1563
g1
(g2
g3
(dp1564
VTo
p1565
g1
(g6
g7
S'"Lagodon rhomboides"[Organism]'
p1566
tp1567
Rp1568
(dp1569
g12
g1565
sbsVFrom
p1570
g1
(g6
g7
S'Lagodon rhomboides[organism]'
p1571
tp1572
Rp1573
(dp1574
g12
g1570
sbstp1575
Rp1576
(dp1577
g12
VTranslation
p1578
sbatp1579
Rp1580
(dp1581
g12
g1562
sbsVRetStart
p1582
g1
(g6
g7
g125
tp1583
Rp1584
(dp1585
g12
g1582
sbsVQueryTranslation
p1586
g1
(g6
g7
S'"Lagodon rhomboides"[Organism] AND rag1[All Fields]'
p1587
tp1588
Rp1589
(dp1590
g12
g1586
sbstp1591
Rp1592
(dp1593
g12
VeSearchResult
p1594
sbag1
(g2
g3
(dp1595
VCount
p1596
g1
(g6
g7
g8
tp1597
Rp1598
(dp1599
g12
g1596
sbsVRetMax
p1600
g1
(g6
g7
g8
tp1601
Rp1602
(dp1603
g12
g1600
sbsVIdList
p1604
g1
(g18
g19
(lp1605
g1
(g6
g7
S'166092401'
p1606
tp1607
Rp1608
(dp1609
g12
VId
p1610
sbag1
(g6
g7
S'959479063'
p1611
tp1612
Rp1613
(dp1614
g12
g1610
sbatp1615
Rp1616
(dp1617
g12
g1604
sbsVTranslationStack
p1618
g1
(g18
g19
(lp1619
g1
(g2
g3
(dp1620
g1596
g1
(g6
g7
S'1699'
p1621
tp1622
Rp1623
(dp1624
g12
g1596
sbsVField
p1625
g1
(g6
g7
S'Organism'
p1626
tp1627
Rp1628
(dp1629
g12
g1625
sbsVTerm
p1630
g1
(g6
g7
S'"Lithognathus mormyrus"[Organism]'
p1631
tp1632
Rp1633
(dp1634
g12
g1630
sbsVExplode
p1635
g1
(g6
g7
g51
tp1636
Rp1637
(dp1638
g12
g1635
sbstp1639
Rp1640
(dp1641
g12
VTermSet
p1642
sbag1
(g2
g3
(dp1643
g1596
g1
(g6
g7
S'44965'
p1644
tp1645
Rp1646
(dp1647
g12
g1596
sbsg1625
g1
(g6
g7
S'All Fields'
p1648
tp1649
Rp1650
(dp1651
g12
g1625
sbsg1630
g1
(g6
g7
S'rag1[All Fields]'
p1652
tp1653
Rp1654
(dp1655
g12
g1630
sbsg1635
g1
(g6
g7
g72
tp1656
Rp1657
(dp1658
g12
g1635
sbstp1659
Rp1660
(dp1661
g12
g1642
sbag1
(g6
g7
S'AND'
p1662
tp1663
Rp1664
(dp1665
g12
VOP
p1666
sbatp1667
Rp1668
(dp1669
g12
g1618
sbsVErrorList
p1670
g1
(g88
g3
(dp1671
VFieldNotFound
p1672
(lp1673
g1
(g6
g7
S'definition'
p1674
tp1675
Rp1676
(dp1677
g12
VFieldNotFound
p1678
sbasVPhraseNotFound
p1679
(lp1680
stp1681
Rp1682
(dp1683
g12
g1670
sg102
(lp1684
g1679
ag1672
asbsVTranslationSet
p1685
g1
(g18
g19
(lp1686
g1
(g2
g3
(dp1687
VTo
p1688
g1
(g6
g7
S'"Lithognathus mormyrus"[Organism]'
p1689
tp1690
Rp1691
(dp1692
g12
g1688
sbsVFrom
p1693
g1
(g6
g7
S'Lithognathus mormyrus[organism]'
p1694
tp1695
Rp1696
(dp1697
g12
g1693
sbstp1698
Rp1699
(dp1700
g12
VTranslation
p1701
sbatp1702
Rp1703
(dp1704
g12
g1685
sbsVRetStart
p1705
g1
(g6
g7
g125
tp1706
Rp1707
(dp1708
g12
g1705
sbsVQueryTranslation
p1709
g1
(g6
g7
S'"Lithognathus mormyrus"[Organism] AND rag1[All Fields]'
p1710
tp1711
Rp1712
(dp1713
g12
g1709
sbstp1714
Rp1715
(dp1716
g12
VeSearchResult
p1717
sbag1
(g2
g3
(dp1718
VCount
p1719
g1
(g6
g7
g8
tp1720
Rp1721
(dp1722
g12
g1719
sbsVRetMax
p1723
g1
(g6
g7
g8
tp1724
Rp1725
(dp1726
g12
g1723
sbsVIdList
p1727
g1
(g18
g19
(lp1728
g1
(g6
g7
S'166092409'
p1729
tp1730
Rp1731
(dp1732
g12
VId
p1733
sbag1
(g6
g7
S'959479065'
p1734
tp1735
Rp1736
(dp1737
g12
g1733
sbatp1738
Rp1739
(dp1740
g12
g1727
sbsVTranslationStack
p1741
g1
(g18
g19
(lp1742
g1
(g2
g3
(dp1743
g1719
g1
(g6
g7
S'95'
p1744
tp1745
Rp1746
(dp1747
g12
g1719
sbsVField
p1748
g1
(g6
g7
S'Organism'
p1749
tp1750
Rp1751
(dp1752
g12
g1748
sbsVTerm
p1753
g1
(g6
g7
S'"Oblada melanura"[Organism]'
p1754
tp1755
Rp1756
(dp1757
g12
g1753
sbsVExplode
p1758
g1
(g6
g7
g51
tp1759
Rp1760
(dp1761
g12
g1758
sbstp1762
Rp1763
(dp1764
g12
VTermSet
p1765
sbag1
(g2
g3
(dp1766
g1719
g1
(g6
g7
S'44965'
p1767
tp1768
Rp1769
(dp1770
g12
g1719
sbsg1748
g1
(g6
g7
S'All Fields'
p1771
tp1772
Rp1773
(dp1774
g12
g1748
sbsg1753
g1
(g6
g7
S'rag1[All Fields]'
p1775
tp1776
Rp1777
(dp1778
g12
g1753
sbsg1758
g1
(g6
g7
g72
tp1779
Rp1780
(dp1781
g12
g1758
sbstp1782
Rp1783
(dp1784
g12
g1765
sbag1
(g6
g7
S'AND'
p1785
tp1786
Rp1787
(dp1788
g12
VOP
p1789
sbatp1790
Rp1791
(dp1792
g12
g1741
sbsVErrorList
p1793
g1
(g88
g3
(dp1794
VFieldNotFound
p1795
(lp1796
g1
(g6
g7
S'definition'
p1797
tp1798
Rp1799
(dp1800
g12
VFieldNotFound
p1801
sbasVPhraseNotFound
p1802
(lp1803
stp1804
Rp1805
(dp1806
g12
g1793
sg102
(lp1807
g1802
ag1795
asbsVTranslationSet
p1808
g1
(g18
g19
(lp1809
g1
(g2
g3
(dp1810
VTo
p1811
g1
(g6
g7
S'"Oblada melanura"[Organism]'
p1812
tp1813
Rp1814
(dp1815
g12
g1811
sbsVFrom
p1816
g1
(g6
g7
S'Oblada melanura[organism]'
p1817
tp1818
Rp1819
(dp1820
g12
g1816
sbstp1821
Rp1822
(dp1823
g12
VTranslation
p1824
sbatp1825
Rp1826
(dp1827
g12
g1808
sbsVRetStart
p1828
g1
(g6
g7
g125
tp1829
Rp1830
(dp1831
g12
g1828
sbsVQueryTranslation
p1832
g1
(g6
g7
S'"Oblada melanura"[Organism] AND rag1[All Fields]'
p1833
tp1834
Rp1835
(dp1836
g12
g1832
sbstp1837
Rp1838
(dp1839
g12
VeSearchResult
p1840
sbag1
(g2
g3
(dp1841
VCount
p1842
g1
(g6
g7
g8
tp1843
Rp1844
(dp1845
g12
g1842
sbsVRetMax
p1846
g1
(g6
g7
g8
tp1847
Rp1848
(dp1849
g12
g1846
sbsVIdList
p1850
g1
(g18
g19
(lp1851
g1
(g6
g7
S'166092411'
p1852
tp1853
Rp1854
(dp1855
g12
VId
p1856
sbag1
(g6
g7
S'959479067'
p1857
tp1858
Rp1859
(dp1860
g12
g1856
sbatp1861
Rp1862
(dp1863
g12
g1850
sbsVTranslationStack
p1864
g1
(g18
g19
(lp1865
g1
(g2
g3
(dp1866
g1842
g1
(g6
g7
S'10'
p1867
tp1868
Rp1869
(dp1870
g12
g1842
sbsVField
p1871
g1
(g6
g7
S'Organism'
p1872
tp1873
Rp1874
(dp1875
g12
g1871
sbsVTerm
p1876
g1
(g6
g7
S'"Pachymetopon grande"[Organism]'
p1877
tp1878
Rp1879
(dp1880
g12
g1876
sbsVExplode
p1881
g1
(g6
g7
g51
tp1882
Rp1883
(dp1884
g12
g1881
sbstp1885
Rp1886
(dp1887
g12
VTermSet
p1888
sbag1
(g2
g3
(dp1889
g1842
g1
(g6
g7
S'44965'
p1890
tp1891
Rp1892
(dp1893
g12
g1842
sbsg1871
g1
(g6
g7
S'All Fields'
p1894
tp1895
Rp1896
(dp1897
g12
g1871
sbsg1876
g1
(g6
g7
S'rag1[All Fields]'
p1898
tp1899
Rp1900
(dp1901
g12
g1876
sbsg1881
g1
(g6
g7
g72
tp1902
Rp1903
(dp1904
g12
g1881
sbstp1905
Rp1906
(dp1907
g12
g1888
sbag1
(g6
g7
S'AND'
p1908
tp1909
Rp1910
(dp1911
g12
VOP
p1912
sbatp1913
Rp1914
(dp1915
g12
g1864
sbsVErrorList
p1916
g1
(g88
g3
(dp1917
VFieldNotFound
p1918
(lp1919
g1
(g6
g7
S'definition'
p1920
tp1921
Rp1922
(dp1923
g12
VFieldNotFound
p1924
sbasVPhraseNotFound
p1925
(lp1926
stp1927
Rp1928
(dp1929
g12
g1916
sg102
(lp1930
g1925
ag1918
asbsVTranslationSet
p1931
g1
(g18
g19
(lp1932
g1
(g2
g3
(dp1933
VTo
p1934
g1
(g6
g7
S'"Pachymetopon grande"[Organism]'
p1935
tp1936
Rp1937
(dp1938
g12
g1934
sbsVFrom
p1939
g1
(g6
g7
S'Pachymetopon grande[organism]'
p1940
tp1941
Rp1942
(dp1943
g12
g1939
sbstp1944
Rp1945
(dp1946
g12
VTranslation
p1947
sbatp1948
Rp1949
(dp1950
g12
g1931
sbsVRetStart
p1951
g1
(g6
g7
g125
tp1952
Rp1953
(dp1954
g12
g1951
sbsVQueryTranslation
p1955
g1
(g6
g7
S'"Pachymetopon grande"[Organism] AND rag1[All Fields]'
p1956
tp1957
Rp1958
(dp1959
g12
g1955
sbstp1960
Rp1961
(dp1962
g12
VeSearchResult
p1963
sbag1
(g2
g3
(dp1964
VCount
p1965
g1
(g6
g7
g8
tp1966
Rp1967
(dp1968
g12
g1965
sbsVRetMax
p1969
g1
(g6
g7
g8
tp1970
Rp1971
(dp1972
g12
g1969
sbsVIdList
p1973
g1
(g18
g19
(lp1974
g1
(g6
g7
S'166092417'
p1975
tp1976
Rp1977
(dp1978
g12
VId
p1979
sbag1
(g6
g7
S'959479069'
p1980
tp1981
Rp1982
(dp1983
g12
g1979
sbatp1984
Rp1985
(dp1986
g12
g1973
sbsVTranslationStack
p1987
g1
(g18
g19
(lp1988
g1
(g2
g3
(dp1989
g1965
g1
(g6
g7
S'282'
p1990
tp1991
Rp1992
(dp1993
g12
g1965
sbsVField
p1994
g1
(g6
g7
S'Organism'
p1995
tp1996
Rp1997
(dp1998
g12
g1994
sbsVTerm
p1999
g1
(g6
g7
S'"Pagellus erythrinus"[Organism]'
p2000
tp2001
Rp2002
(dp2003
g12
g1999
sbsVExplode
p2004
g1
(g6
g7
g51
tp2005
Rp2006
(dp2007
g12
g2004
sbstp2008
Rp2009
(dp2010
g12
VTermSet
p2011
sbag1
(g2
g3
(dp2012
g1965
g1
(g6
g7
S'44965'
p2013
tp2014
Rp2015
(dp2016
g12
g1965
sbsg1994
g1
(g6
g7
S'All Fields'
p2017
tp2018
Rp2019
(dp2020
g12
g1994
sbsg1999
g1
(g6
g7
S'rag1[All Fields]'
p2021
tp2022
Rp2023
(dp2024
g12
g1999
sbsg2004
g1
(g6
g7
g72
tp2025
Rp2026
(dp2027
g12
g2004
sbstp2028
Rp2029
(dp2030
g12
g2011
sbag1
(g6
g7
S'AND'
p2031
tp2032
Rp2033
(dp2034
g12
VOP
p2035
sbatp2036
Rp2037
(dp2038
g12
g1987
sbsVErrorList
p2039
g1
(g88
g3
(dp2040
VFieldNotFound
p2041
(lp2042
g1
(g6
g7
S'definition'
p2043
tp2044
Rp2045
(dp2046
g12
VFieldNotFound
p2047
sbasVPhraseNotFound
p2048
(lp2049
stp2050
Rp2051
(dp2052
g12
g2039
sg102
(lp2053
g2048
ag2041
asbsVTranslationSet
p2054
g1
(g18
g19
(lp2055
g1
(g2
g3
(dp2056
VTo
p2057
g1
(g6
g7
S'"Pagellus erythrinus"[Organism]'
p2058
tp2059
Rp2060
(dp2061
g12
g2057
sbsVFrom
p2062
g1
(g6
g7
S'Pagellus erythrinus[organism]'
p2063
tp2064
Rp2065
(dp2066
g12
g2062
sbstp2067
Rp2068
(dp2069
g12
VTranslation
p2070
sbatp2071
Rp2072
(dp2073
g12
g2054
sbsVRetStart
p2074
g1
(g6
g7
g125
tp2075
Rp2076
(dp2077
g12
g2074
sbsVQueryTranslation
p2078
g1
(g6
g7
S'"Pagellus erythrinus"[Organism] AND rag1[All Fields]'
p2079
tp2080
Rp2081
(dp2082
g12
g2078
sbstp2083
Rp2084
(dp2085
g12
VeSearchResult
p2086
sbag1
(g2
g3
(dp2087
VCount
p2088
g1
(g6
g7
g755
tp2089
Rp2090
(dp2091
g12
g2088
sbsVRetMax
p2092
g1
(g6
g7
g755
tp2093
Rp2094
(dp2095
g12
g2092
sbsVIdList
p2096
g1
(g18
g19
(lp2097
g1
(g6
g7
S'166092421'
p2098
tp2099
Rp2100
(dp2101
g12
VId
p2102
sbatp2103
Rp2104
(dp2105
g12
g2096
sbsVTranslationStack
p2106
g1
(g18
g19
(lp2107
g1
(g2
g3
(dp2108
g2088
g1
(g6
g7
g8
tp2109
Rp2110
(dp2111
g12
g2088
sbsVField
p2112
g1
(g6
g7
S'Organism'
p2113
tp2114
Rp2115
(dp2116
g12
g2112
sbsVTerm
p2117
g1
(g6
g7
S'"Pagrus africanus"[Organism]'
p2118
tp2119
Rp2120
(dp2121
g12
g2117
sbsVExplode
p2122
g1
(g6
g7
g51
tp2123
Rp2124
(dp2125
g12
g2122
sbstp2126
Rp2127
(dp2128
g12
VTermSet
p2129
sbag1
(g2
g3
(dp2130
g2088
g1
(g6
g7
S'44965'
p2131
tp2132
Rp2133
(dp2134
g12
g2088
sbsg2112
g1
(g6
g7
S'All Fields'
p2135
tp2136
Rp2137
(dp2138
g12
g2112
sbsg2117
g1
(g6
g7
S'rag1[All Fields]'
p2139
tp2140
Rp2141
(dp2142
g12
g2117
sbsg2122
g1
(g6
g7
g72
tp2143
Rp2144
(dp2145
g12
g2122
sbstp2146
Rp2147
(dp2148
g12
g2129
sbag1
(g6
g7
S'AND'
p2149
tp2150
Rp2151
(dp2152
g12
VOP
p2153
sbatp2154
Rp2155
(dp2156
g12
g2106
sbsVErrorList
p2157
g1
(g88
g3
(dp2158
VFieldNotFound
p2159
(lp2160
g1
(g6
g7
S'definition'
p2161
tp2162
Rp2163
(dp2164
g12
VFieldNotFound
p2165
sbasVPhraseNotFound
p2166
(lp2167
stp2168
Rp2169
(dp2170
g12
g2157
sg102
(lp2171
g2166
ag2159
asbsVTranslationSet
p2172
g1
(g18
g19
(lp2173
g1
(g2
g3
(dp2174
VTo
p2175
g1
(g6
g7
S'"Pagrus africanus"[Organism]'
p2176
tp2177
Rp2178
(dp2179
g12
g2175
sbsVFrom
p2180
g1
(g6
g7
S'Pagrus africanus[organism]'
p2181
tp2182
Rp2183
(dp2184
g12
g2180
sbstp2185
Rp2186
(dp2187
g12
VTranslation
p2188
sbatp2189
Rp2190
(dp2191
g12
g2172
sbsVRetStart
p2192
g1
(g6
g7
g125
tp2193
Rp2194
(dp2195
g12
g2192
sbsVQueryTranslation
p2196
g1
(g6
g7
S'"Pagrus africanus"[Organism] AND rag1[All Fields]'
p2197
tp2198
Rp2199
(dp2200
g12
g2196
sbstp2201
Rp2202
(dp2203
g12
VeSearchResult
p2204
sbag1
(g2
g3
(dp2205
VCount
p2206
g1
(g6
g7
g755
tp2207
Rp2208
(dp2209
g12
g2206
sbsVRetMax
p2210
g1
(g6
g7
g755
tp2211
Rp2212
(dp2213
g12
g2210
sbsVIdList
p2214
g1
(g18
g19
(lp2215
g1
(g6
g7
S'166092413'
p2216
tp2217
Rp2218
(dp2219
g12
VId
p2220
sbatp2221
Rp2222
(dp2223
g12
g2214
sbsVTranslationStack
p2224
g1
(g18
g19
(lp2225
g1
(g2
g3
(dp2226
g2206
g1
(g6
g7
S'95'
p2227
tp2228
Rp2229
(dp2230
g12
g2206
sbsVField
p2231
g1
(g6
g7
S'Organism'
p2232
tp2233
Rp2234
(dp2235
g12
g2231
sbsVTerm
p2236
g1
(g6
g7
S'"Pagrus auriga"[Organism]'
p2237
tp2238
Rp2239
(dp2240
g12
g2236
sbsVExplode
p2241
g1
(g6
g7
g51
tp2242
Rp2243
(dp2244
g12
g2241
sbstp2245
Rp2246
(dp2247
g12
VTermSet
p2248
sbag1
(g2
g3
(dp2249
g2206
g1
(g6
g7
S'44965'
p2250
tp2251
Rp2252
(dp2253
g12
g2206
sbsg2231
g1
(g6
g7
S'All Fields'
p2254
tp2255
Rp2256
(dp2257
g12
g2231
sbsg2236
g1
(g6
g7
S'rag1[All Fields]'
p2258
tp2259
Rp2260
(dp2261
g12
g2236
sbsg2241
g1
(g6
g7
g72
tp2262
Rp2263
(dp2264
g12
g2241
sbstp2265
Rp2266
(dp2267
g12
g2248
sbag1
(g6
g7
S'AND'
p2268
tp2269
Rp2270
(dp2271
g12
VOP
p2272
sbatp2273
Rp2274
(dp2275
g12
g2224
sbsVErrorList
p2276
g1
(g88
g3
(dp2277
VFieldNotFound
p2278
(lp2279
g1
(g6
g7
S'definition'
p2280
tp2281
Rp2282
(dp2283
g12
VFieldNotFound
p2284
sbasVPhraseNotFound
p2285
(lp2286
stp2287
Rp2288
(dp2289
g12
g2276
sg102
(lp2290
g2285
ag2278
asbsVTranslationSet
p2291
g1
(g18
g19
(lp2292
g1
(g2
g3
(dp2293
VTo
p2294
g1
(g6
g7
S'"Pagrus auriga"[Organism]'
p2295
tp2296
Rp2297
(dp2298
g12
g2294
sbsVFrom
p2299
g1
(g6
g7
S'Pagrus auriga[organism]'
p2300
tp2301
Rp2302
(dp2303
g12
g2299
sbstp2304
Rp2305
(dp2306
g12
VTranslation
p2307
sbatp2308
Rp2309
(dp2310
g12
g2291
sbsVRetStart
p2311
g1
(g6
g7
g125
tp2312
Rp2313
(dp2314
g12
g2311
sbsVQueryTranslation
p2315
g1
(g6
g7
S'"Pagrus auriga"[Organism] AND rag1[All Fields]'
p2316
tp2317
Rp2318
(dp2319
g12
g2315
sbstp2320
Rp2321
(dp2322
g12
VeSearchResult
p2323
sbag1
(g2
g3
(dp2324
VCount
p2325
g1
(g6
g7
g755
tp2326
Rp2327
(dp2328
g12
g2325
sbsVRetMax
p2329
g1
(g6
g7
g755
tp2330
Rp2331
(dp2332
g12
g2329
sbsVIdList
p2333
g1
(g18
g19
(lp2334
g1
(g6
g7
S'166092415'
p2335
tp2336
Rp2337
(dp2338
g12
VId
p2339
sbatp2340
Rp2341
(dp2342
g12
g2333
sbsVTranslationStack
p2343
g1
(g18
g19
(lp2344
g1
(g2
g3
(dp2345
g2325
g1
(g6
g7
S'33'
p2346
tp2347
Rp2348
(dp2349
g12
g2325
sbsVField
p2350
g1
(g6
g7
S'Organism'
p2351
tp2352
Rp2353
(dp2354
g12
g2350
sbsVTerm
p2355
g1
(g6
g7
S'"Pagrus caeruleostictus"[Organism]'
p2356
tp2357
Rp2358
(dp2359
g12
g2355
sbsVExplode
p2360
g1
(g6
g7
g51
tp2361
Rp2362
(dp2363
g12
g2360
sbstp2364
Rp2365
(dp2366
g12
VTermSet
p2367
sbag1
(g2
g3
(dp2368
g2325
g1
(g6
g7
S'44965'
p2369
tp2370
Rp2371
(dp2372
g12
g2325
sbsg2350
g1
(g6
g7
S'All Fields'
p2373
tp2374
Rp2375
(dp2376
g12
g2350
sbsg2355
g1
(g6
g7
S'rag1[All Fields]'
p2377
tp2378
Rp2379
(dp2380
g12
g2355
sbsg2360
g1
(g6
g7
g72
tp2381
Rp2382
(dp2383
g12
g2360
sbstp2384
Rp2385
(dp2386
g12
g2367
sbag1
(g6
g7
S'AND'
p2387
tp2388
Rp2389
(dp2390
g12
VOP
p2391
sbatp2392
Rp2393
(dp2394
g12
g2343
sbsVErrorList
p2395
g1
(g88
g3
(dp2396
VFieldNotFound
p2397
(lp2398
g1
(g6
g7
S'definition'
p2399
tp2400
Rp2401
(dp2402
g12
VFieldNotFound
p2403
sbasVPhraseNotFound
p2404
(lp2405
stp2406
Rp2407
(dp2408
g12
g2395
sg102
(lp2409
g2404
ag2397
asbsVTranslationSet
p2410
g1
(g18
g19
(lp2411
g1
(g2
g3
(dp2412
VTo
p2413
g1
(g6
g7
S'"Pagrus caeruleostictus"[Organism]'
p2414
tp2415
Rp2416
(dp2417
g12
g2413
sbsVFrom
p2418
g1
(g6
g7
S'Pagrus caeruleostictus[organism]'
p2419
tp2420
Rp2421
(dp2422
g12
g2418
sbstp2423
Rp2424
(dp2425
g12
VTranslation
p2426
sbatp2427
Rp2428
(dp2429
g12
g2410
sbsVRetStart
p2430
g1
(g6
g7
g125
tp2431
Rp2432
(dp2433
g12
g2430
sbsVQueryTranslation
p2434
g1
(g6
g7
S'"Pagrus caeruleostictus"[Organism] AND rag1[All Fields]'
p2435
tp2436
Rp2437
(dp2438
g12
g2434
sbstp2439
Rp2440
(dp2441
g12
VeSearchResult
p2442
sbag1
(g2
g3
(dp2443
VCount
p2444
g1
(g6
g7
S'3'
p2445
tp2446
Rp2447
(dp2448
g12
g2444
sbsVRetMax
p2449
g1
(g6
g7
g2445
tp2450
Rp2451
(dp2452
g12
g2449
sbsVIdList
p2453
g1
(g18
g19
(lp2454
g1
(g6
g7
S'166092419'
p2455
tp2456
Rp2457
(dp2458
g12
VId
p2459
sbag1
(g6
g7
S'164417782'
p2460
tp2461
Rp2462
(dp2463
g12
g2459
sbag1
(g6
g7
S'531996147'
p2464
tp2465
Rp2466
(dp2467
g12
g2459
sbatp2468
Rp2469
(dp2470
g12
g2453
sbsVTranslationStack
p2471
g1
(g18
g19
(lp2472
g1
(g2
g3
(dp2473
g2444
g1
(g6
g7
S'187'
p2474
tp2475
Rp2476
(dp2477
g12
g2444
sbsVField
p2478
g1
(g6
g7
S'Organism'
p2479
tp2480
Rp2481
(dp2482
g12
g2478
sbsVTerm
p2483
g1
(g6
g7
S'"Pagrus pagrus"[Organism]'
p2484
tp2485
Rp2486
(dp2487
g12
g2483
sbsVExplode
p2488
g1
(g6
g7
g51
tp2489
Rp2490
(dp2491
g12
g2488
sbstp2492
Rp2493
(dp2494
g12
VTermSet
p2495
sbag1
(g2
g3
(dp2496
g2444
g1
(g6
g7
S'44965'
p2497
tp2498
Rp2499
(dp2500
g12
g2444
sbsg2478
g1
(g6
g7
S'All Fields'
p2501
tp2502
Rp2503
(dp2504
g12
g2478
sbsg2483
g1
(g6
g7
S'rag1[All Fields]'
p2505
tp2506
Rp2507
(dp2508
g12
g2483
sbsg2488
g1
(g6
g7
g72
tp2509
Rp2510
(dp2511
g12
g2488
sbstp2512
Rp2513
(dp2514
g12
g2495
sbag1
(g6
g7
S'AND'
p2515
tp2516
Rp2517
(dp2518
g12
VOP
p2519
sbatp2520
Rp2521
(dp2522
g12
g2471
sbsVErrorList
p2523
g1
(g88
g3
(dp2524
VFieldNotFound
p2525
(lp2526
g1
(g6
g7
S'definition'
p2527
tp2528
Rp2529
(dp2530
g12
VFieldNotFound
p2531
sbasVPhraseNotFound
p2532
(lp2533
stp2534
Rp2535
(dp2536
g12
g2523
sg102
(lp2537
g2532
ag2525
asbsVTranslationSet
p2538
g1
(g18
g19
(lp2539
g1
(g2
g3
(dp2540
VTo
p2541
g1
(g6
g7
S'"Pagrus pagrus"[Organism]'
p2542
tp2543
Rp2544
(dp2545
g12
g2541
sbsVFrom
p2546
g1
(g6
g7
S'Pagrus pagrus[organism]'
p2547
tp2548
Rp2549
(dp2550
g12
g2546
sbstp2551
Rp2552
(dp2553
g12
VTranslation
p2554
sbatp2555
Rp2556
(dp2557
g12
g2538
sbsVRetStart
p2558
g1
(g6
g7
g125
tp2559
Rp2560
(dp2561
g12
g2558
sbsVQueryTranslation
p2562
g1
(g6
g7
S'"Pagrus pagrus"[Organism] AND rag1[All Fields]'
p2563
tp2564
Rp2565
(dp2566
g12
g2562
sbstp2567
Rp2568
(dp2569
g12
VeSearchResult
p2570
sbag1
(g2
g3
(dp2571
VCount
p2572
g1
(g6
g7
g755
tp2573
Rp2574
(dp2575
g12
g2572
sbsVRetMax
p2576
g1
(g6
g7
g755
tp2577
Rp2578
(dp2579
g12
g2576
sbsVIdList
p2580
g1
(g18
g19
(lp2581
g1
(g6
g7
S'959479075'
p2582
tp2583
Rp2584
(dp2585
g12
VId
p2586
sbatp2587
Rp2588
(dp2589
g12
g2580
sbsVTranslationStack
p2590
g1
(g18
g19
(lp2591
g1
(g2
g3
(dp2592
g2572
g1
(g6
g7
S'17'
p2593
tp2594
Rp2595
(dp2596
g12
g2572
sbsVField
p2597
g1
(g6
g7
S'Organism'
p2598
tp2599
Rp2600
(dp2601
g12
g2597
sbsVTerm
p2602
g1
(g6
g7
S'"Porcostoma dentata"[Organism]'
p2603
tp2604
Rp2605
(dp2606
g12
g2602
sbsVExplode
p2607
g1
(g6
g7
g51
tp2608
Rp2609
(dp2610
g12
g2607
sbstp2611
Rp2612
(dp2613
g12
VTermSet
p2614
sbag1
(g2
g3
(dp2615
g2572
g1
(g6
g7
S'44965'
p2616
tp2617
Rp2618
(dp2619
g12
g2572
sbsg2597
g1
(g6
g7
S'All Fields'
p2620
tp2621
Rp2622
(dp2623
g12
g2597
sbsg2602
g1
(g6
g7
S'rag1[All Fields]'
p2624
tp2625
Rp2626
(dp2627
g12
g2602
sbsg2607
g1
(g6
g7
g72
tp2628
Rp2629
(dp2630
g12
g2607
sbstp2631
Rp2632
(dp2633
g12
g2614
sbag1
(g6
g7
S'AND'
p2634
tp2635
Rp2636
(dp2637
g12
VOP
p2638
sbatp2639
Rp2640
(dp2641
g12
g2590
sbsVErrorList
p2642
g1
(g88
g3
(dp2643
VFieldNotFound
p2644
(lp2645
g1
(g6
g7
S'definition'
p2646
tp2647
Rp2648
(dp2649
g12
VFieldNotFound
p2650
sbasVPhraseNotFound
p2651
(lp2652
stp2653
Rp2654
(dp2655
g12
g2642
sg102
(lp2656
g2651
ag2644
asbsVTranslationSet
p2657
g1
(g18
g19
(lp2658
g1
(g2
g3
(dp2659
VTo
p2660
g1
(g6
g7
S'"Porcostoma dentata"[Organism]'
p2661
tp2662
Rp2663
(dp2664
g12
g2660
sbsVFrom
p2665
g1
(g6
g7
S'Porcostoma dentata[organism]'
p2666
tp2667
Rp2668
(dp2669
g12
g2665
sbstp2670
Rp2671
(dp2672
g12
VTranslation
p2673
sbatp2674
Rp2675
(dp2676
g12
g2657
sbsVRetStart
p2677
g1
(g6
g7
g125
tp2678
Rp2679
(dp2680
g12
g2677
sbsVQueryTranslation
p2681
g1
(g6
g7
S'"Porcostoma dentata"[Organism] AND rag1[All Fields]'
p2682
tp2683
Rp2684
(dp2685
g12
g2681
sbstp2686
Rp2687
(dp2688
g12
VeSearchResult
p2689
sbag1
(g2
g3
(dp2690
VCount
p2691
g1
(g6
g7
g755
tp2692
Rp2693
(dp2694
g12
g2691
sbsVRetMax
p2695
g1
(g6
g7
g755
tp2696
Rp2697
(dp2698
g12
g2695
sbsVIdList
p2699
g1
(g18
g19
(lp2700
g1
(g6
g7
S'166092429'
p2701
tp2702
Rp2703
(dp2704
g12
VId
p2705
sbatp2706
Rp2707
(dp2708
g12
g2699
sbsVTranslationStack
p2709
g1
(g18
g19
(lp2710
g1
(g2
g3
(dp2711
g2691
g1
(g6
g7
g1375
tp2712
Rp2713
(dp2714
g12
g2691
sbsVField
p2715
g1
(g6
g7
S'Organism'
p2716
tp2717
Rp2718
(dp2719
g12
g2715
sbsVTerm
p2720
g1
(g6
g7
S'"Rhabdosargus holubi"[Organism]'
p2721
tp2722
Rp2723
(dp2724
g12
g2720
sbsVExplode
p2725
g1
(g6
g7
g51
tp2726
Rp2727
(dp2728
g12
g2725
sbstp2729
Rp2730
(dp2731
g12
VTermSet
p2732
sbag1
(g2
g3
(dp2733
g2691
g1
(g6
g7
S'44965'
p2734
tp2735
Rp2736
(dp2737
g12
g2691
sbsg2715
g1
(g6
g7
S'All Fields'
p2738
tp2739
Rp2740
(dp2741
g12
g2715
sbsg2720
g1
(g6
g7
S'rag1[All Fields]'
p2742
tp2743
Rp2744
(dp2745
g12
g2720
sbsg2725
g1
(g6
g7
g72
tp2746
Rp2747
(dp2748
g12
g2725
sbstp2749
Rp2750
(dp2751
g12
g2732
sbag1
(g6
g7
S'AND'
p2752
tp2753
Rp2754
(dp2755
g12
VOP
p2756
sbatp2757
Rp2758
(dp2759
g12
g2709
sbsVErrorList
p2760
g1
(g88
g3
(dp2761
VFieldNotFound
p2762
(lp2763
g1
(g6
g7
S'definition'
p2764
tp2765
Rp2766
(dp2767
g12
VFieldNotFound
p2768
sbasVPhraseNotFound
p2769
(lp2770
stp2771
Rp2772
(dp2773
g12
g2760
sg102
(lp2774
g2769
ag2762
asbsVTranslationSet
p2775
g1
(g18
g19
(lp2776
g1
(g2
g3
(dp2777
VTo
p2778
g1
(g6
g7
S'"Rhabdosargus holubi"[Organism]'
p2779
tp2780
Rp2781
(dp2782
g12
g2778
sbsVFrom
p2783
g1
(g6
g7
S'Rhabdosargus holubi[organism]'
p2784
tp2785
Rp2786
(dp2787
g12
g2783
sbstp2788
Rp2789
(dp2790
g12
VTranslation
p2791
sbatp2792
Rp2793
(dp2794
g12
g2775
sbsVRetStart
p2795
g1
(g6
g7
g125
tp2796
Rp2797
(dp2798
g12
g2795
sbsVQueryTranslation
p2799
g1
(g6
g7
S'"Rhabdosargus holubi"[Organism] AND rag1[All Fields]'
p2800
tp2801
Rp2802
(dp2803
g12
g2799
sbstp2804
Rp2805
(dp2806
g12
VeSearchResult
p2807
sbag1
(g2
g3
(dp2808
VCount
p2809
g1
(g6
g7
g8
tp2810
Rp2811
(dp2812
g12
g2809
sbsVRetMax
p2813
g1
(g6
g7
g8
tp2814
Rp2815
(dp2816
g12
g2813
sbsVIdList
p2817
g1
(g18
g19
(lp2818
g1
(g6
g7
S'166092431'
p2819
tp2820
Rp2821
(dp2822
g12
VId
p2823
sbag1
(g6
g7
S'332168062'
p2824
tp2825
Rp2826
(dp2827
g12
g2823
sbatp2828
Rp2829
(dp2830
g12
g2817
sbsVTranslationStack
p2831
g1
(g18
g19
(lp2832
g1
(g2
g3
(dp2833
g2809
g1
(g6
g7
S'225'
p2834
tp2835
Rp2836
(dp2837
g12
g2809
sbsVField
p2838
g1
(g6
g7
S'Organism'
p2839
tp2840
Rp2841
(dp2842
g12
g2838
sbsVTerm
p2843
g1
(g6
g7
S'"Sarpa salpa"[Organism]'
p2844
tp2845
Rp2846
(dp2847
g12
g2843
sbsVExplode
p2848
g1
(g6
g7
g51
tp2849
Rp2850
(dp2851
g12
g2848
sbstp2852
Rp2853
(dp2854
g12
VTermSet
p2855
sbag1
(g2
g3
(dp2856
g2809
g1
(g6
g7
S'44965'
p2857
tp2858
Rp2859
(dp2860
g12
g2809
sbsg2838
g1
(g6
g7
S'All Fields'
p2861
tp2862
Rp2863
(dp2864
g12
g2838
sbsg2843
g1
(g6
g7
S'rag1[All Fields]'
p2865
tp2866
Rp2867
(dp2868
g12
g2843
sbsg2848
g1
(g6
g7
g72
tp2869
Rp2870
(dp2871
g12
g2848
sbstp2872
Rp2873
(dp2874
g12
g2855
sbag1
(g6
g7
S'AND'
p2875
tp2876
Rp2877
(dp2878
g12
VOP
p2879
sbatp2880
Rp2881
(dp2882
g12
g2831
sbsVErrorList
p2883
g1
(g88
g3
(dp2884
VFieldNotFound
p2885
(lp2886
g1
(g6
g7
S'definition'
p2887
tp2888
Rp2889
(dp2890
g12
VFieldNotFound
p2891
sbasVPhraseNotFound
p2892
(lp2893
stp2894
Rp2895
(dp2896
g12
g2883
sg102
(lp2897
g2892
ag2885
asbsVTranslationSet
p2898
g1
(g18
g19
(lp2899
g1
(g2
g3
(dp2900
VTo
p2901
g1
(g6
g7
S'"Sarpa salpa"[Organism]'
p2902
tp2903
Rp2904
(dp2905
g12
g2901
sbsVFrom
p2906
g1
(g6
g7
S'Sarpa salpa[organism]'
p2907
tp2908
Rp2909
(dp2910
g12
g2906
sbstp2911
Rp2912
(dp2913
g12
VTranslation
p2914
sbatp2915
Rp2916
(dp2917
g12
g2898
sbsVRetStart
p2918
g1
(g6
g7
g125
tp2919
Rp2920
(dp2921
g12
g2918
sbsVQueryTranslation
p2922
g1
(g6
g7
S'"Sarpa salpa"[Organism] AND rag1[All Fields]'
p2923
tp2924
Rp2925
(dp2926
g12
g2922
sbstp2927
Rp2928
(dp2929
g12
VeSearchResult
p2930
sbag1
(g2
g3
(dp2931
VCount
p2932
g1
(g6
g7
g755
tp2933
Rp2934
(dp2935
g12
g2932
sbsVRetMax
p2936
g1
(g6
g7
g755
tp2937
Rp2938
(dp2939
g12
g2936
sbsVIdList
p2940
g1
(g18
g19
(lp2941
g1
(g6
g7
S'959479077'
p2942
tp2943
Rp2944
(dp2945
g12
VId
p2946
sbatp2947
Rp2948
(dp2949
g12
g2940
sbsVTranslationStack
p2950
g1
(g18
g19
(lp2951
g1
(g2
g3
(dp2952
g2932
g1
(g6
g7
S'13'
p2953
tp2954
Rp2955
(dp2956
g12
g2932
sbsVField
p2957
g1
(g6
g7
S'Organism'
p2958
tp2959
Rp2960
(dp2961
g12
g2957
sbsVTerm
p2962
g1
(g6
g7
S'"Sparidentex hasta"[Organism]'
p2963
tp2964
Rp2965
(dp2966
g12
g2962
sbsVExplode
p2967
g1
(g6
g7
g51
tp2968
Rp2969
(dp2970
g12
g2967
sbstp2971
Rp2972
(dp2973
g12
VTermSet
p2974
sbag1
(g2
g3
(dp2975
g2932
g1
(g6
g7
S'44965'
p2976
tp2977
Rp2978
(dp2979
g12
g2932
sbsg2957
g1
(g6
g7
S'All Fields'
p2980
tp2981
Rp2982
(dp2983
g12
g2957
sbsg2962
g1
(g6
g7
S'rag1[All Fields]'
p2984
tp2985
Rp2986
(dp2987
g12
g2962
sbsg2967
g1
(g6
g7
g72
tp2988
Rp2989
(dp2990
g12
g2967
sbstp2991
Rp2992
(dp2993
g12
g2974
sbag1
(g6
g7
S'AND'
p2994
tp2995
Rp2996
(dp2997
g12
VOP
p2998
sbatp2999
Rp3000
(dp3001
g12
g2950
sbsVErrorList
p3002
g1
(g88
g3
(dp3003
VFieldNotFound
p3004
(lp3005
g1
(g6
g7
S'definition'
p3006
tp3007
Rp3008
(dp3009
g12
VFieldNotFound
p3010
sbasVPhraseNotFound
p3011
(lp3012
stp3013
Rp3014
(dp3015
g12
g3002
sg102
(lp3016
g3011
ag3004
asbsVTranslationSet
p3017
g1
(g18
g19
(lp3018
g1
(g2
g3
(dp3019
VTo
p3020
g1
(g6
g7
S'"Sparidentex hasta"[Organism]'
p3021
tp3022
Rp3023
(dp3024
g12
g3020
sbsVFrom
p3025
g1
(g6
g7
S'Sparidentex hasta[organism]'
p3026
tp3027
Rp3028
(dp3029
g12
g3025
sbstp3030
Rp3031
(dp3032
g12
VTranslation
p3033
sbatp3034
Rp3035
(dp3036
g12
g3017
sbsVRetStart
p3037
g1
(g6
g7
g125
tp3038
Rp3039
(dp3040
g12
g3037
sbsVQueryTranslation
p3041
g1
(g6
g7
S'"Sparidentex hasta"[Organism] AND rag1[All Fields]'
p3042
tp3043
Rp3044
(dp3045
g12
g3041
sbstp3046
Rp3047
(dp3048
g12
VeSearchResult
p3049
sbag1
(g2
g3
(dp3050
VCount
p3051
g1
(g6
g7
g8
tp3052
Rp3053
(dp3054
g12
g3051
sbsVRetMax
p3055
g1
(g6
g7
g8
tp3056
Rp3057
(dp3058
g12
g3055
sbsVIdList
p3059
g1
(g18
g19
(lp3060
g1
(g6
g7
S'140271060'
p3061
tp3062
Rp3063
(dp3064
g12
VId
p3065
sbag1
(g6
g7
S'959479079'
p3066
tp3067
Rp3068
(dp3069
g12
g3065
sbatp3070
Rp3071
(dp3072
g12
g3059
sbsVTranslationStack
p3073
g1
(g18
g19
(lp3074
g1
(g2
g3
(dp3075
g3051
g1
(g6
g7
S'2062'
p3076
tp3077
Rp3078
(dp3079
g12
g3051
sbsVField
p3080
g1
(g6
g7
S'Organism'
p3081
tp3082
Rp3083
(dp3084
g12
g3080
sbsVTerm
p3085
g1
(g6
g7
S'"Sparus aurata"[Organism]'
p3086
tp3087
Rp3088
(dp3089
g12
g3085
sbsVExplode
p3090
g1
(g6
g7
g51
tp3091
Rp3092
(dp3093
g12
g3090
sbstp3094
Rp3095
(dp3096
g12
VTermSet
p3097
sbag1
(g2
g3
(dp3098
g3051
g1
(g6
g7
S'44965'
p3099
tp3100
Rp3101
(dp3102
g12
g3051
sbsg3080
g1
(g6
g7
S'All Fields'
p3103
tp3104
Rp3105
(dp3106
g12
g3080
sbsg3085
g1
(g6
g7
S'rag1[All Fields]'
p3107
tp3108
Rp3109
(dp3110
g12
g3085
sbsg3090
g1
(g6
g7
g72
tp3111
Rp3112
(dp3113
g12
g3090
sbstp3114
Rp3115
(dp3116
g12
g3097
sbag1
(g6
g7
S'AND'
p3117
tp3118
Rp3119
(dp3120
g12
VOP
p3121
sbatp3122
Rp3123
(dp3124
g12
g3073
sbsVErrorList
p3125
g1
(g88
g3
(dp3126
VFieldNotFound
p3127
(lp3128
g1
(g6
g7
S'definition'
p3129
tp3130
Rp3131
(dp3132
g12
VFieldNotFound
p3133
sbasVPhraseNotFound
p3134
(lp3135
stp3136
Rp3137
(dp3138
g12
g3125
sg102
(lp3139
g3134
ag3127
asbsVTranslationSet
p3140
g1
(g18
g19
(lp3141
g1
(g2
g3
(dp3142
VTo
p3143
g1
(g6
g7
S'"Sparus aurata"[Organism]'
p3144
tp3145
Rp3146
(dp3147
g12
g3143
sbsVFrom
p3148
g1
(g6
g7
S'Sparus aurata[organism]'
p3149
tp3150
Rp3151
(dp3152
g12
g3148
sbstp3153
Rp3154
(dp3155
g12
VTranslation
p3156
sbatp3157
Rp3158
(dp3159
g12
g3140
sbsVRetStart
p3160
g1
(g6
g7
g125
tp3161
Rp3162
(dp3163
g12
g3160
sbsVQueryTranslation
p3164
g1
(g6
g7
S'"Sparus aurata"[Organism] AND rag1[All Fields]'
p3165
tp3166
Rp3167
(dp3168
g12
g3164
sbstp3169
Rp3170
(dp3171
g12
VeSearchResult
p3172
sbag1
(g2
g3
(dp3173
VCount
p3174
g1
(g6
g7
g8
tp3175
Rp3176
(dp3177
g12
g3174
sbsVRetMax
p3178
g1
(g6
g7
g8
tp3179
Rp3180
(dp3181
g12
g3178
sbsVIdList
p3182
g1
(g18
g19
(lp3183
g1
(g6
g7
S'166092443'
p3184
tp3185
Rp3186
(dp3187
g12
VId
p3188
sbag1
(g6
g7
S'959479081'
p3189
tp3190
Rp3191
(dp3192
g12
g3188
sbatp3193
Rp3194
(dp3195
g12
g3182
sbsVTranslationStack
p3196
g1
(g18
g19
(lp3197
g1
(g2
g3
(dp3198
g3174
g1
(g6
g7
S'11'
p3199
tp3200
Rp3201
(dp3202
g12
g3174
sbsVField
p3203
g1
(g6
g7
S'Organism'
p3204
tp3205
Rp3206
(dp3207
g12
g3203
sbsVTerm
p3208
g1
(g6
g7
S'"Spicara alta"[Organism]'
p3209
tp3210
Rp3211
(dp3212
g12
g3208
sbsVExplode
p3213
g1
(g6
g7
g51
tp3214
Rp3215
(dp3216
g12
g3213
sbstp3217
Rp3218
(dp3219
g12
VTermSet
p3220
sbag1
(g2
g3
(dp3221
g3174
g1
(g6
g7
S'44965'
p3222
tp3223
Rp3224
(dp3225
g12
g3174
sbsg3203
g1
(g6
g7
S'All Fields'
p3226
tp3227
Rp3228
(dp3229
g12
g3203
sbsg3208
g1
(g6
g7
S'rag1[All Fields]'
p3230
tp3231
Rp3232
(dp3233
g12
g3208
sbsg3213
g1
(g6
g7
g72
tp3234
Rp3235
(dp3236
g12
g3213
sbstp3237
Rp3238
(dp3239
g12
g3220
sbag1
(g6
g7
S'AND'
p3240
tp3241
Rp3242
(dp3243
g12
VOP
p3244
sbatp3245
Rp3246
(dp3247
g12
g3196
sbsVErrorList
p3248
g1
(g88
g3
(dp3249
VFieldNotFound
p3250
(lp3251
g1
(g6
g7
S'definition'
p3252
tp3253
Rp3254
(dp3255
g12
VFieldNotFound
p3256
sbasVPhraseNotFound
p3257
(lp3258
stp3259
Rp3260
(dp3261
g12
g3248
sg102
(lp3262
g3257
ag3250
asbsVTranslationSet
p3263
g1
(g18
g19
(lp3264
g1
(g2
g3
(dp3265
VTo
p3266
g1
(g6
g7
S'"Spicara alta"[Organism]'
p3267
tp3268
Rp3269
(dp3270
g12
g3266
sbsVFrom
p3271
g1
(g6
g7
S'Spicara alta[organism]'
p3272
tp3273
Rp3274
(dp3275
g12
g3271
sbstp3276
Rp3277
(dp3278
g12
VTranslation
p3279
sbatp3280
Rp3281
(dp3282
g12
g3263
sbsVRetStart
p3283
g1
(g6
g7
g125
tp3284
Rp3285
(dp3286
g12
g3283
sbsVQueryTranslation
p3287
g1
(g6
g7
S'"Spicara alta"[Organism] AND rag1[All Fields]'
p3288
tp3289
Rp3290
(dp3291
g12
g3287
sbstp3292
Rp3293
(dp3294
g12
VeSearchResult
p3295
sbag1
(g2
g3
(dp3296
VCount
p3297
g1
(g6
g7
g8
tp3298
Rp3299
(dp3300
g12
g3297
sbsVRetMax
p3301
g1
(g6
g7
g8
tp3302
Rp3303
(dp3304
g12
g3301
sbsVIdList
p3305
g1
(g18
g19
(lp3306
g1
(g6
g7
S'166092447'
p3307
tp3308
Rp3309
(dp3310
g12
VId
p3311
sbag1
(g6
g7
S'959479083'
p3312
tp3313
Rp3314
(dp3315
g12
g3311
sbatp3316
Rp3317
(dp3318
g12
g3305
sbsVTranslationStack
p3319
g1
(g18
g19
(lp3320
g1
(g2
g3
(dp3321
g3297
g1
(g6
g7
S'65'
p3322
tp3323
Rp3324
(dp3325
g12
g3297
sbsVField
p3326
g1
(g6
g7
S'Organism'
p3327
tp3328
Rp3329
(dp3330
g12
g3326
sbsVTerm
p3331
g1
(g6
g7
S'"Spicara maena"[Organism]'
p3332
tp3333
Rp3334
(dp3335
g12
g3331
sbsVExplode
p3336
g1
(g6
g7
g51
tp3337
Rp3338
(dp3339
g12
g3336
sbstp3340
Rp3341
(dp3342
g12
VTermSet
p3343
sbag1
(g2
g3
(dp3344
g3297
g1
(g6
g7
S'44965'
p3345
tp3346
Rp3347
(dp3348
g12
g3297
sbsg3326
g1
(g6
g7
S'All Fields'
p3349
tp3350
Rp3351
(dp3352
g12
g3326
sbsg3331
g1
(g6
g7
S'rag1[All Fields]'
p3353
tp3354
Rp3355
(dp3356
g12
g3331
sbsg3336
g1
(g6
g7
g72
tp3357
Rp3358
(dp3359
g12
g3336
sbstp3360
Rp3361
(dp3362
g12
g3343
sbag1
(g6
g7
S'AND'
p3363
tp3364
Rp3365
(dp3366
g12
VOP
p3367
sbatp3368
Rp3369
(dp3370
g12
g3319
sbsVErrorList
p3371
g1
(g88
g3
(dp3372
VFieldNotFound
p3373
(lp3374
g1
(g6
g7
S'definition'
p3375
tp3376
Rp3377
(dp3378
g12
VFieldNotFound
p3379
sbasVPhraseNotFound
p3380
(lp3381
stp3382
Rp3383
(dp3384
g12
g3371
sg102
(lp3385
g3380
ag3373
asbsVTranslationSet
p3386
g1
(g18
g19
(lp3387
g1
(g2
g3
(dp3388
VTo
p3389
g1
(g6
g7
S'"Spicara maena"[Organism]'
p3390
tp3391
Rp3392
(dp3393
g12
g3389
sbsVFrom
p3394
g1
(g6
g7
S'Spicara maena[organism]'
p3395
tp3396
Rp3397
(dp3398
g12
g3394
sbstp3399
Rp3400
(dp3401
g12
VTranslation
p3402
sbatp3403
Rp3404
(dp3405
g12
g3386
sbsVRetStart
p3406
g1
(g6
g7
g125
tp3407
Rp3408
(dp3409
g12
g3406
sbsVQueryTranslation
p3410
g1
(g6
g7
S'"Spicara maena"[Organism] AND rag1[All Fields]'
p3411
tp3412
Rp3413
(dp3414
g12
g3410
sbstp3415
Rp3416
(dp3417
g12
VeSearchResult
p3418
sbag1
(g2
g3
(dp3419
VCount
p3420
g1
(g6
g7
g755
tp3421
Rp3422
(dp3423
g12
g3420
sbsVRetMax
p3424
g1
(g6
g7
g755
tp3425
Rp3426
(dp3427
g12
g3424
sbsVIdList
p3428
g1
(g18
g19
(lp3429
g1
(g6
g7
S'959479085'
p3430
tp3431
Rp3432
(dp3433
g12
VId
p3434
sbatp3435
Rp3436
(dp3437
g12
g3428
sbsVTranslationStack
p3438
g1
(g18
g19
(lp3439
g1
(g2
g3
(dp3440
g3420
g1
(g6
g7
S'5'
p3441
tp3442
Rp3443
(dp3444
g12
g3420
sbsVField
p3445
g1
(g6
g7
S'Organism'
p3446
tp3447
Rp3448
(dp3449
g12
g3445
sbsVTerm
p3450
g1
(g6
g7
S'"Spicara nigricauda"[Organism]'
p3451
tp3452
Rp3453
(dp3454
g12
g3450
sbsVExplode
p3455
g1
(g6
g7
g51
tp3456
Rp3457
(dp3458
g12
g3455
sbstp3459
Rp3460
(dp3461
g12
VTermSet
p3462
sbag1
(g2
g3
(dp3463
g3420
g1
(g6
g7
S'44965'
p3464
tp3465
Rp3466
(dp3467
g12
g3420
sbsg3445
g1
(g6
g7
S'All Fields'
p3468
tp3469
Rp3470
(dp3471
g12
g3445
sbsg3450
g1
(g6
g7
S'rag1[All Fields]'
p3472
tp3473
Rp3474
(dp3475
g12
g3450
sbsg3455
g1
(g6
g7
g72
tp3476
Rp3477
(dp3478
g12
g3455
sbstp3479
Rp3480
(dp3481
g12
g3462
sbag1
(g6
g7
S'AND'
p3482
tp3483
Rp3484
(dp3485
g12
VOP
p3486
sbatp3487
Rp3488
(dp3489
g12
g3438
sbsVErrorList
p3490
g1
(g88
g3
(dp3491
VFieldNotFound
p3492
(lp3493
g1
(g6
g7
S'definition'
p3494
tp3495
Rp3496
(dp3497
g12
VFieldNotFound
p3498
sbasVPhraseNotFound
p3499
(lp3500
stp3501
Rp3502
(dp3503
g12
g3490
sg102
(lp3504
g3499
ag3492
asbsVTranslationSet
p3505
g1
(g18
g19
(lp3506
g1
(g2
g3
(dp3507
VTo
p3508
g1
(g6
g7
S'"Spicara nigricauda"[Organism]'
p3509
tp3510
Rp3511
(dp3512
g12
g3508
sbsVFrom
p3513
g1
(g6
g7
S'Spicara nigricauda[organism]'
p3514
tp3515
Rp3516
(dp3517
g12
g3513
sbstp3518
Rp3519
(dp3520
g12
VTranslation
p3521
sbatp3522
Rp3523
(dp3524
g12
g3505
sbsVRetStart
p3525
g1
(g6
g7
g125
tp3526
Rp3527
(dp3528
g12
g3525
sbsVQueryTranslation
p3529
g1
(g6
g7
S'"Spicara nigricauda"[Organism] AND rag1[All Fields]'
p3530
tp3531
Rp3532
(dp3533
g12
g3529
sbstp3534
Rp3535
(dp3536
g12
VeSearchResult
p3537
sbag1
(g2
g3
(dp3538
VCount
p3539
g1
(g6
g7
g755
tp3540
Rp3541
(dp3542
g12
g3539
sbsVRetMax
p3543
g1
(g6
g7
g755
tp3544
Rp3545
(dp3546
g12
g3543
sbsVIdList
p3547
g1
(g18
g19
(lp3548
g1
(g6
g7
S'959479087'
p3549
tp3550
Rp3551
(dp3552
g12
VId
p3553
sbatp3554
Rp3555
(dp3556
g12
g3547
sbsVTranslationStack
p3557
g1
(g18
g19
(lp3558
g1
(g2
g3
(dp3559
g3539
g1
(g6
g7
S'59'
p3560
tp3561
Rp3562
(dp3563
g12
g3539
sbsVField
p3564
g1
(g6
g7
S'Organism'
p3565
tp3566
Rp3567
(dp3568
g12
g3564
sbsVTerm
p3569
g1
(g6
g7
S'"Spicara smaris"[Organism]'
p3570
tp3571
Rp3572
(dp3573
g12
g3569
sbsVExplode
p3574
g1
(g6
g7
g51
tp3575
Rp3576
(dp3577
g12
g3574
sbstp3578
Rp3579
(dp3580
g12
VTermSet
p3581
sbag1
(g2
g3
(dp3582
g3539
g1
(g6
g7
S'44965'
p3583
tp3584
Rp3585
(dp3586
g12
g3539
sbsg3564
g1
(g6
g7
S'All Fields'
p3587
tp3588
Rp3589
(dp3590
g12
g3564
sbsg3569
g1
(g6
g7
S'rag1[All Fields]'
p3591
tp3592
Rp3593
(dp3594
g12
g3569
sbsg3574
g1
(g6
g7
g72
tp3595
Rp3596
(dp3597
g12
g3574
sbstp3598
Rp3599
(dp3600
g12
g3581
sbag1
(g6
g7
S'AND'
p3601
tp3602
Rp3603
(dp3604
g12
VOP
p3605
sbatp3606
Rp3607
(dp3608
g12
g3557
sbsVErrorList
p3609
g1
(g88
g3
(dp3610
VFieldNotFound
p3611
(lp3612
g1
(g6
g7
S'definition'
p3613
tp3614
Rp3615
(dp3616
g12
VFieldNotFound
p3617
sbasVPhraseNotFound
p3618
(lp3619
stp3620
Rp3621
(dp3622
g12
g3609
sg102
(lp3623
g3618
ag3611
asbsVTranslationSet
p3624
g1
(g18
g19
(lp3625
g1
(g2
g3
(dp3626
VTo
p3627
g1
(g6
g7
S'"Spicara smaris"[Organism]'
p3628
tp3629
Rp3630
(dp3631
g12
g3627
sbsVFrom
p3632
g1
(g6
g7
S'Spicara smaris[organism]'
p3633
tp3634
Rp3635
(dp3636
g12
g3632
sbstp3637
Rp3638
(dp3639
g12
VTranslation
p3640
sbatp3641
Rp3642
(dp3643
g12
g3624
sbsVRetStart
p3644
g1
(g6
g7
g125
tp3645
Rp3646
(dp3647
g12
g3644
sbsVQueryTranslation
p3648
g1
(g6
g7
S'"Spicara smaris"[Organism] AND rag1[All Fields]'
p3649
tp3650
Rp3651
(dp3652
g12
g3648
sbstp3653
Rp3654
(dp3655
g12
VeSearchResult
p3656
sbag1
(g2
g3
(dp3657
VCount
p3658
g1
(g6
g7
g8
tp3659
Rp3660
(dp3661
g12
g3658
sbsVRetMax
p3662
g1
(g6
g7
g8
tp3663
Rp3664
(dp3665
g12
g3662
sbsVIdList
p3666
g1
(g18
g19
(lp3667
g1
(g6
g7
S'166092449'
p3668
tp3669
Rp3670
(dp3671
g12
VId
p3672
sbag1
(g6
g7
S'394339779'
p3673
tp3674
Rp3675
(dp3676
g12
g3672
sbatp3677
Rp3678
(dp3679
g12
g3666
sbsVTranslationStack
p3680
g1
(g18
g19
(lp3681
g1
(g2
g3
(dp3682
g3658
g1
(g6
g7
S'44'
p3683
tp3684
Rp3685
(dp3686
g12
g3658
sbsVField
p3687
g1
(g6
g7
S'Organism'
p3688
tp3689
Rp3690
(dp3691
g12
g3687
sbsVTerm
p3692
g1
(g6
g7
S'"Stenotomus chrysops"[Organism]'
p3693
tp3694
Rp3695
(dp3696
g12
g3692
sbsVExplode
p3697
g1
(g6
g7
g51
tp3698
Rp3699
(dp3700
g12
g3697
sbstp3701
Rp3702
(dp3703
g12
VTermSet
p3704
sbag1
(g2
g3
(dp3705
g3658
g1
(g6
g7
S'44965'
p3706
tp3707
Rp3708
(dp3709
g12
g3658
sbsg3687
g1
(g6
g7
S'All Fields'
p3710
tp3711
Rp3712
(dp3713
g12
g3687
sbsg3692
g1
(g6
g7
S'rag1[All Fields]'
p3714
tp3715
Rp3716
(dp3717
g12
g3692
sbsg3697
g1
(g6
g7
g72
tp3718
Rp3719
(dp3720
g12
g3697
sbstp3721
Rp3722
(dp3723
g12
g3704
sbag1
(g6
g7
S'AND'
p3724
tp3725
Rp3726
(dp3727
g12
VOP
p3728
sbatp3729
Rp3730
(dp3731
g12
g3680
sbsVErrorList
p3732
g1
(g88
g3
(dp3733
VFieldNotFound
p3734
(lp3735
g1
(g6
g7
S'definition'
p3736
tp3737
Rp3738
(dp3739
g12
VFieldNotFound
p3740
sbasVPhraseNotFound
p3741
(lp3742
stp3743
Rp3744
(dp3745
g12
g3732
sg102
(lp3746
g3741
ag3734
asbsVTranslationSet
p3747
g1
(g18
g19
(lp3748
g1
(g2
g3
(dp3749
VTo
p3750
g1
(g6
g7
S'"Stenotomus chrysops"[Organism]'
p3751
tp3752
Rp3753
(dp3754
g12
g3750
sbsVFrom
p3755
g1
(g6
g7
S'Stenotomus chrysops[organism]'
p3756
tp3757
Rp3758
(dp3759
g12
g3755
sbstp3760
Rp3761
(dp3762
g12
VTranslation
p3763
sbatp3764
Rp3765
(dp3766
g12
g3747
sbsVRetStart
p3767
g1
(g6
g7
g125
tp3768
Rp3769
(dp3770
g12
g3767
sbsVQueryTranslation
p3771
g1
(g6
g7
S'"Stenotomus chrysops"[Organism] AND rag1[All Fields]'
p3772
tp3773
Rp3774
(dp3775
g12
g3771
sbstp3776
Rp3777
(dp3778
g12
VeSearchResult
p3779
sbag1
(g2
g3
(dp3780
VCount
p3781
g1
(g6
g7
g8
tp3782
Rp3783
(dp3784
g12
g3781
sbsVRetMax
p3785
g1
(g6
g7
g8
tp3786
Rp3787
(dp3788
g12
g3785
sbsVIdList
p3789
g1
(g18
g19
(lp3790
g1
(g6
g7
S'166092451'
p3791
tp3792
Rp3793
(dp3794
g12
VId
p3795
sbag1
(g6
g7
S'959479089'
p3796
tp3797
Rp3798
(dp3799
g12
g3795
sbatp3800
Rp3801
(dp3802
g12
g3789
sbsVTranslationStack
p3803
g1
(g18
g19
(lp3804
g1
(g2
g3
(dp3805
g3781
g1
(g6
g7
S'8'
p3806
tp3807
Rp3808
(dp3809
g12
g3781
sbsVField
p3810
g1
(g6
g7
S'Organism'
p3811
tp3812
Rp3813
(dp3814
g12
g3810
sbsVTerm
p3815
g1
(g6
g7
S'"Virididentex acromegalus"[Organism]'
p3816
tp3817
Rp3818
(dp3819
g12
g3815
sbsVExplode
p3820
g1
(g6
g7
g51
tp3821
Rp3822
(dp3823
g12
g3820
sbstp3824
Rp3825
(dp3826
g12
VTermSet
p3827
sbag1
(g2
g3
(dp3828
g3781
g1
(g6
g7
S'44965'
p3829
tp3830
Rp3831
(dp3832
g12
g3781
sbsg3810
g1
(g6
g7
S'All Fields'
p3833
tp3834
Rp3835
(dp3836
g12
g3810
sbsg3815
g1
(g6
g7
S'rag1[All Fields]'
p3837
tp3838
Rp3839
(dp3840
g12
g3815
sbsg3820
g1
(g6
g7
g72
tp3841
Rp3842
(dp3843
g12
g3820
sbstp3844
Rp3845
(dp3846
g12
g3827
sbag1
(g6
g7
S'AND'
p3847
tp3848
Rp3849
(dp3850
g12
VOP
p3851
sbatp3852
Rp3853
(dp3854
g12
g3803
sbsVErrorList
p3855
g1
(g88
g3
(dp3856
VFieldNotFound
p3857
(lp3858
g1
(g6
g7
S'definition'
p3859
tp3860
Rp3861
(dp3862
g12
VFieldNotFound
p3863
sbasVPhraseNotFound
p3864
(lp3865
stp3866
Rp3867
(dp3868
g12
g3855
sg102
(lp3869
g3864
ag3857
asbsVTranslationSet
p3870
g1
(g18
g19
(lp3871
g1
(g2
g3
(dp3872
VTo
p3873
g1
(g6
g7
S'"Virididentex acromegalus"[Organism]'
p3874
tp3875
Rp3876
(dp3877
g12
g3873
sbsVFrom
p3878
g1
(g6
g7
S'Virididentex acromegalus[organism]'
p3879
tp3880
Rp3881
(dp3882
g12
g3878
sbstp3883
Rp3884
(dp3885
g12
VTranslation
p3886
sbatp3887
Rp3888
(dp3889
g12
g3870
sbsVRetStart
p3890
g1
(g6
g7
g125
tp3891
Rp3892
(dp3893
g12
g3890
sbsVQueryTranslation
p3894
g1
(g6
g7
S'"Virididentex acromegalus"[Organism] AND rag1[All Fields]'
p3895
tp3896
Rp3897
(dp3898
g12
g3894
sbstp3899
Rp3900
(dp3901
g12
VeSearchResult
p3902
sba.