(lp0
ccopy_reg
_reconstructor
p1
(cBio.Entrez.Parser
DictionaryElement
p2
c__builtin__
dict
p3
(dp4
VCount
p5
g1
(cBio.Entrez.Parser
StringElement
p6
c__builtin__
str
p7
S'6'
p8
tp9
Rp10
(dp11
S'tag'
p12
g5
sbsVRetMax
p13
g1
(g6
g7
g8
tp14
Rp15
(dp16
g12
g13
sbsVIdList
p17
g1
(cBio.Entrez.Parser
ListElement
p18
c__builtin__
list
p19
(lp20
g1
(g6
g7
S'386872531'
p21
tp22
Rp23
(dp24
g12
VId
p25
sbag1
(g6
g7
S'386872525'
p26
tp27
Rp28
(dp29
g12
g25
sbag1
(g6
g7
S'386872519'
p30
tp31
Rp32
(dp33
g12
g25
sbag1
(g6
g7
S'386872513'
p34
tp35
Rp36
(dp37
g12
g25
sbag1
(g6
g7
S'386872507'
p38
tp39
Rp40
(dp41
g12
g25
sbag1
(g6
g7
S'386872502'
p42
tp43
Rp44
(dp45
g12
g25
sbatp46
Rp47
(dp48
g12
g17
sbsVTranslationStack
p49
g1
(g18
g19
(lp50
g1
(g2
g3
(dp51
g5
g1
(g6
g7
S'125'
p52
tp53
Rp54
(dp55
g12
g5
sbsVField
p56
g1
(g6
g7
S'Organism'
p57
tp58
Rp59
(dp60
g12
g56
sbsVTerm
p61
g1
(g6
g7
S'"Acanthopagrus berda"[Organism]'
p62
tp63
Rp64
(dp65
g12
g61
sbsVExplode
p66
g1
(g6
g7
S'Y'
p67
tp68
Rp69
(dp70
g12
g66
sbstp71
Rp72
(dp73
g12
VTermSet
p74
sbag1
(g2
g3
(dp75
g5
g1
(g6
g7
S'351582'
p76
tp77
Rp78
(dp79
g12
g5
sbsg56
g1
(g6
g7
S'All Fields'
p80
tp81
Rp82
(dp83
g12
g56
sbsg61
g1
(g6
g7
S'Rhodopsin[All Fields]'
p84
tp85
Rp86
(dp87
g12
g61
sbsg66
g1
(g6
g7
S'N'
p88
tp89
Rp90
(dp91
g12
g66
sbstp92
Rp93
(dp94
g12
g74
sbag1
(g6
g7
S'AND'
p95
tp96
Rp97
(dp98
g12
VOP
p99
sbatp100
Rp101
(dp102
g12
g49
sbsVErrorList
p103
g1
(cBio.Entrez.Parser
StructureElement
p104
g3
(dp105
VFieldNotFound
p106
(lp107
g1
(g6
g7
S'definition'
p108
tp109
Rp110
(dp111
g12
VFieldNotFound
p112
sbasVPhraseNotFound
p113
(lp114
stp115
Rp116
(dp117
g12
g103
sS'listkeys'
p118
(lp119
g113
ag106
asbsVTranslationSet
p120
g1
(g18
g19
(lp121
g1
(g2
g3
(dp122
VTo
p123
g1
(g6
g7
S'"Acanthopagrus berda"[Organism]'
p124
tp125
Rp126
(dp127
g12
g123
sbsVFrom
p128
g1
(g6
g7
S'Acanthopagrus berda[organism]'
p129
tp130
Rp131
(dp132
g12
g128
sbstp133
Rp134
(dp135
g12
VTranslation
p136
sbatp137
Rp138
(dp139
g12
g120
sbsVRetStart
p140
g1
(g6
g7
S'0'
p141
tp142
Rp143
(dp144
g12
g140
sbsVQueryTranslation
p145
g1
(g6
g7
S'"Acanthopagrus berda"[Organism] AND Rhodopsin[All Fields]'
p146
tp147
Rp148
(dp149
g12
g145
sbstp150
Rp151
(dp152
g12
VeSearchResult
p153
sbag1
(g2
g3
(dp154
VCount
p155
g1
(g6
g7
S'7'
p156
tp157
Rp158
(dp159
g12
g155
sbsVRetMax
p160
g1
(g6
g7
g156
tp161
Rp162
(dp163
g12
g160
sbsVIdList
p164
g1
(g18
g19
(lp165
g1
(g6
g7
S'85720065'
p166
tp167
Rp168
(dp169
g12
VId
p170
sbag1
(g6
g7
S'85720063'
p171
tp172
Rp173
(dp174
g12
g170
sbag1
(g6
g7
S'85720061'
p175
tp176
Rp177
(dp178
g12
g170
sbag1
(g6
g7
S'85720059'
p179
tp180
Rp181
(dp182
g12
g170
sbag1
(g6
g7
S'85720057'
p183
tp184
Rp185
(dp186
g12
g170
sbag1
(g6
g7
S'158929655'
p187
tp188
Rp189
(dp190
g12
g170
sbag1
(g6
g7
S'158929653'
p191
tp192
Rp193
(dp194
g12
g170
sbatp195
Rp196
(dp197
g12
g164
sbsVTranslationStack
p198
g1
(g18
g19
(lp199
g1
(g2
g3
(dp200
g155
g1
(g6
g7
S'32'
p201
tp202
Rp203
(dp204
g12
g155
sbsVField
p205
g1
(g6
g7
S'Organism'
p206
tp207
Rp208
(dp209
g12
g205
sbsVTerm
p210
g1
(g6
g7
S'"Acanthopagrus butcheri"[Organism]'
p211
tp212
Rp213
(dp214
g12
g210
sbsVExplode
p215
g1
(g6
g7
g67
tp216
Rp217
(dp218
g12
g215
sbstp219
Rp220
(dp221
g12
VTermSet
p222
sbag1
(g2
g3
(dp223
g155
g1
(g6
g7
S'351582'
p224
tp225
Rp226
(dp227
g12
g155
sbsg205
g1
(g6
g7
S'All Fields'
p228
tp229
Rp230
(dp231
g12
g205
sbsg210
g1
(g6
g7
S'Rhodopsin[All Fields]'
p232
tp233
Rp234
(dp235
g12
g210
sbsg215
g1
(g6
g7
g88
tp236
Rp237
(dp238
g12
g215
sbstp239
Rp240
(dp241
g12
g222
sbag1
(g6
g7
S'AND'
p242
tp243
Rp244
(dp245
g12
VOP
p246
sbatp247
Rp248
(dp249
g12
g198
sbsVErrorList
p250
g1
(g104
g3
(dp251
VFieldNotFound
p252
(lp253
g1
(g6
g7
S'definition'
p254
tp255
Rp256
(dp257
g12
VFieldNotFound
p258
sbasVPhraseNotFound
p259
(lp260
stp261
Rp262
(dp263
g12
g250
sg118
(lp264
g259
ag252
asbsVTranslationSet
p265
g1
(g18
g19
(lp266
g1
(g2
g3
(dp267
VTo
p268
g1
(g6
g7
S'"Acanthopagrus butcheri"[Organism]'
p269
tp270
Rp271
(dp272
g12
g268
sbsVFrom
p273
g1
(g6
g7
S'Acanthopagrus butcheri[organism]'
p274
tp275
Rp276
(dp277
g12
g273
sbstp278
Rp279
(dp280
g12
VTranslation
p281
sbatp282
Rp283
(dp284
g12
g265
sbsVRetStart
p285
g1
(g6
g7
g141
tp286
Rp287
(dp288
g12
g285
sbsVQueryTranslation
p289
g1
(g6
g7
S'"Acanthopagrus butcheri"[Organism] AND Rhodopsin[All Fields]'
p290
tp291
Rp292
(dp293
g12
g289
sbstp294
Rp295
(dp296
g12
VeSearchResult
p297
sbag1
(g2
g3
(dp298
VCount
p299
g1
(g6
g7
S'1'
p300
tp301
Rp302
(dp303
g12
g299
sbsVRetMax
p304
g1
(g6
g7
g300
tp305
Rp306
(dp307
g12
g304
sbsVIdList
p308
g1
(g18
g19
(lp309
g1
(g6
g7
S'372100178'
p310
tp311
Rp312
(dp313
g12
VId
p314
sbatp315
Rp316
(dp317
g12
g308
sbsVTranslationStack
p318
g1
(g18
g19
(lp319
g1
(g2
g3
(dp320
g299
g1
(g6
g7
S'326'
p321
tp322
Rp323
(dp324
g12
g299
sbsVField
p325
g1
(g6
g7
S'Organism'
p326
tp327
Rp328
(dp329
g12
g325
sbsVTerm
p330
g1
(g6
g7
S'"Acanthopagrus latus"[Organism]'
p331
tp332
Rp333
(dp334
g12
g330
sbsVExplode
p335
g1
(g6
g7
g67
tp336
Rp337
(dp338
g12
g335
sbstp339
Rp340
(dp341
g12
VTermSet
p342
sbag1
(g2
g3
(dp343
g299
g1
(g6
g7
S'351582'
p344
tp345
Rp346
(dp347
g12
g299
sbsg325
g1
(g6
g7
S'All Fields'
p348
tp349
Rp350
(dp351
g12
g325
sbsg330
g1
(g6
g7
S'Rhodopsin[All Fields]'
p352
tp353
Rp354
(dp355
g12
g330
sbsg335
g1
(g6
g7
g88
tp356
Rp357
(dp358
g12
g335
sbstp359
Rp360
(dp361
g12
g342
sbag1
(g6
g7
S'AND'
p362
tp363
Rp364
(dp365
g12
VOP
p366
sbatp367
Rp368
(dp369
g12
g318
sbsVErrorList
p370
g1
(g104
g3
(dp371
VFieldNotFound
p372
(lp373
g1
(g6
g7
S'definition'
p374
tp375
Rp376
(dp377
g12
VFieldNotFound
p378
sbasVPhraseNotFound
p379
(lp380
stp381
Rp382
(dp383
g12
g370
sg118
(lp384
g379
ag372
asbsVTranslationSet
p385
g1
(g18
g19
(lp386
g1
(g2
g3
(dp387
VTo
p388
g1
(g6
g7
S'"Acanthopagrus latus"[Organism]'
p389
tp390
Rp391
(dp392
g12
g388
sbsVFrom
p393
g1
(g6
g7
S'Acanthopagrus latus[organism]'
p394
tp395
Rp396
(dp397
g12
g393
sbstp398
Rp399
(dp400
g12
VTranslation
p401
sbatp402
Rp403
(dp404
g12
g385
sbsVRetStart
p405
g1
(g6
g7
g141
tp406
Rp407
(dp408
g12
g405
sbsVQueryTranslation
p409
g1
(g6
g7
S'"Acanthopagrus latus"[Organism] AND Rhodopsin[All Fields]'
p410
tp411
Rp412
(dp413
g12
g409
sbstp414
Rp415
(dp416
g12
VeSearchResult
p417
sbag1
(g2
g3
(dp418
VCount
p419
g1
(g6
g7
S'20'
p420
tp421
Rp422
(dp423
g12
g419
sbsVRetMax
p424
g1
(g6
g7
S'20'
p425
tp426
Rp427
(dp428
g12
g424
sbsVIdList
p429
g1
(g18
g19
(lp430
g1
(g6
g7
S'60499003'
p431
tp432
Rp433
(dp434
g12
VId
p435
sbag1
(g6
g7
S'56112302'
p436
tp437
Rp438
(dp439
g12
g435
sbag1
(g6
g7
S'47027998'
p440
tp441
Rp442
(dp443
g12
g435
sbag1
(g6
g7
S'46811258'
p444
tp445
Rp446
(dp447
g12
g435
sbag1
(g6
g7
S'959136188'
p448
tp449
Rp450
(dp451
g12
g435
sbag1
(g6
g7
S'404279125'
p452
tp453
Rp454
(dp455
g12
g435
sbag1
(g6
g7
S'386872533'
p456
tp457
Rp458
(dp459
g12
g435
sbag1
(g6
g7
S'386872527'
p460
tp461
Rp462
(dp463
g12
g435
sbag1
(g6
g7
S'386872521'
p464
tp465
Rp466
(dp467
g12
g435
sbag1
(g6
g7
S'386872515'
p468
tp469
Rp470
(dp471
g12
g435
sbag1
(g6
g7
S'386872509'
p472
tp473
Rp474
(dp475
g12
g435
sbag1
(g6
g7
S'386872504'
p476
tp477
Rp478
(dp479
g12
g435
sbag1
(g6
g7
S'56112300'
p480
tp481
Rp482
(dp483
g12
g435
sbag1
(g6
g7
S'56112298'
p484
tp485
Rp486
(dp487
g12
g435
sbag1
(g6
g7
S'156147323'
p488
tp489
Rp490
(dp491
g12
g435
sbag1
(g6
g7
S'156147321'
p492
tp493
Rp494
(dp495
g12
g435
sbag1
(g6
g7
S'35182651'
p496
tp497
Rp498
(dp499
g12
g435
sbag1
(g6
g7
S'35181695'
p500
tp501
Rp502
(dp503
g12
g435
sbag1
(g6
g7
S'164451508'
p504
tp505
Rp506
(dp507
g12
g435
sbag1
(g6
g7
S'156106748'
p508
tp509
Rp510
(dp511
g12
g435
sbatp512
Rp513
(dp514
g12
g429
sbsVTranslationStack
p515
g1
(g18
g19
(lp516
g1
(g2
g3
(dp517
g419
g1
(g6
g7
S'415'
p518
tp519
Rp520
(dp521
g12
g419
sbsVField
p522
g1
(g6
g7
S'Organism'
p523
tp524
Rp525
(dp526
g12
g522
sbsVTerm
p527
g1
(g6
g7
S'"Acanthopagrus schlegelii"[Organism]'
p528
tp529
Rp530
(dp531
g12
g527
sbsVExplode
p532
g1
(g6
g7
g67
tp533
Rp534
(dp535
g12
g532
sbstp536
Rp537
(dp538
g12
VTermSet
p539
sbag1
(g2
g3
(dp540
g419
g1
(g6
g7
S'351582'
p541
tp542
Rp543
(dp544
g12
g419
sbsg522
g1
(g6
g7
S'All Fields'
p545
tp546
Rp547
(dp548
g12
g522
sbsg527
g1
(g6
g7
S'Rhodopsin[All Fields]'
p549
tp550
Rp551
(dp552
g12
g527
sbsg532
g1
(g6
g7
g88
tp553
Rp554
(dp555
g12
g532
sbstp556
Rp557
(dp558
g12
g539
sbag1
(g6
g7
S'AND'
p559
tp560
Rp561
(dp562
g12
VOP
p563
sbatp564
Rp565
(dp566
g12
g515
sbsVErrorList
p567
g1
(g104
g3
(dp568
VFieldNotFound
p569
(lp570
g1
(g6
g7
S'definition'
p571
tp572
Rp573
(dp574
g12
VFieldNotFound
p575
sbasVPhraseNotFound
p576
(lp577
stp578
Rp579
(dp580
g12
g567
sg118
(lp581
g576
ag569
asbsVTranslationSet
p582
g1
(g18
g19
(lp583
g1
(g2
g3
(dp584
VTo
p585
g1
(g6
g7
S'"Acanthopagrus schlegelii"[Organism]'
p586
tp587
Rp588
(dp589
g12
g585
sbsVFrom
p590
g1
(g6
g7
S'Acanthopagrus schlegelii[organism]'
p591
tp592
Rp593
(dp594
g12
g590
sbstp595
Rp596
(dp597
g12
VTranslation
p598
sbatp599
Rp600
(dp601
g12
g582
sbsVRetStart
p602
g1
(g6
g7
g141
tp603
Rp604
(dp605
g12
g602
sbsVQueryTranslation
p606
g1
(g6
g7
S'"Acanthopagrus schlegelii"[Organism] AND Rhodopsin[All Fields]'
p607
tp608
Rp609
(dp610
g12
g606
sbstp611
Rp612
(dp613
g12
VeSearchResult
p614
sbag1
(g2
g3
(dp615
VCount
p616
g1
(g6
g7
S'12'
p617
tp618
Rp619
(dp620
g12
g616
sbsVRetMax
p621
g1
(g6
g7
S'12'
p622
tp623
Rp624
(dp625
g12
g621
sbsVIdList
p626
g1
(g18
g19
(lp627
g1
(g6
g7
S'159462253'
p628
tp629
Rp630
(dp631
g12
VId
p632
sbag1
(g6
g7
S'159462251'
p633
tp634
Rp635
(dp636
g12
g632
sbag1
(g6
g7
S'80524300'
p637
tp638
Rp639
(dp640
g12
g632
sbag1
(g6
g7
S'154745093'
p641
tp642
Rp643
(dp644
g12
g632
sbag1
(g6
g7
S'154745091'
p645
tp646
Rp647
(dp648
g12
g632
sbag1
(g6
g7
S'133923894'
p649
tp650
Rp651
(dp652
g12
g632
sbag1
(g6
g7
S'133923892'
p653
tp654
Rp655
(dp656
g12
g632
sbag1
(g6
g7
S'133923734'
p657
tp658
Rp659
(dp660
g12
g632
sbag1
(g6
g7
S'133923732'
p661
tp662
Rp663
(dp664
g12
g632
sbag1
(g6
g7
S'133923392'
p665
tp666
Rp667
(dp668
g12
g632
sbag1
(g6
g7
S'133923390'
p669
tp670
Rp671
(dp672
g12
g632
sbag1
(g6
g7
S'482514270'
p673
tp674
Rp675
(dp676
g12
g632
sbatp677
Rp678
(dp679
g12
g626
sbsVTranslationStack
p680
g1
(g18
g19
(lp681
g1
(g2
g3
(dp682
g616
g1
(g6
g7
S'157'
p683
tp684
Rp685
(dp686
g12
g616
sbsVField
p687
g1
(g6
g7
S'Organism'
p688
tp689
Rp690
(dp691
g12
g687
sbsVTerm
p692
g1
(g6
g7
S'"Boops boops"[Organism]'
p693
tp694
Rp695
(dp696
g12
g692
sbsVExplode
p697
g1
(g6
g7
g67
tp698
Rp699
(dp700
g12
g697
sbstp701
Rp702
(dp703
g12
VTermSet
p704
sbag1
(g2
g3
(dp705
g616
g1
(g6
g7
S'351582'
p706
tp707
Rp708
(dp709
g12
g616
sbsg687
g1
(g6
g7
S'All Fields'
p710
tp711
Rp712
(dp713
g12
g687
sbsg692
g1
(g6
g7
S'Rhodopsin[All Fields]'
p714
tp715
Rp716
(dp717
g12
g692
sbsg697
g1
(g6
g7
g88
tp718
Rp719
(dp720
g12
g697
sbstp721
Rp722
(dp723
g12
g704
sbag1
(g6
g7
S'AND'
p724
tp725
Rp726
(dp727
g12
VOP
p728
sbatp729
Rp730
(dp731
g12
g680
sbsVErrorList
p732
g1
(g104
g3
(dp733
VFieldNotFound
p734
(lp735
g1
(g6
g7
S'definition'
p736
tp737
Rp738
(dp739
g12
VFieldNotFound
p740
sbasVPhraseNotFound
p741
(lp742
stp743
Rp744
(dp745
g12
g732
sg118
(lp746
g741
ag734
asbsVTranslationSet
p747
g1
(g18
g19
(lp748
g1
(g2
g3
(dp749
VTo
p750
g1
(g6
g7
S'"Boops boops"[Organism]'
p751
tp752
Rp753
(dp754
g12
g750
sbsVFrom
p755
g1
(g6
g7
S'Boops boops[organism]'
p756
tp757
Rp758
(dp759
g12
g755
sbstp760
Rp761
(dp762
g12
VTranslation
p763
sbatp764
Rp765
(dp766
g12
g747
sbsVRetStart
p767
g1
(g6
g7
g141
tp768
Rp769
(dp770
g12
g767
sbsVQueryTranslation
p771
g1
(g6
g7
S'"Boops boops"[Organism] AND Rhodopsin[All Fields]'
p772
tp773
Rp774
(dp775
g12
g771
sbstp776
Rp777
(dp778
g12
VeSearchResult
p779
sbag1
(g2
g3
(dp780
VCount
p781
g1
(g6
g7
g300
tp782
Rp783
(dp784
g12
g781
sbsVRetMax
p785
g1
(g6
g7
g300
tp786
Rp787
(dp788
g12
g785
sbsVIdList
p789
g1
(g18
g19
(lp790
g1
(g6
g7
S'80524314'
p791
tp792
Rp793
(dp794
g12
VId
p795
sbatp796
Rp797
(dp798
g12
g789
sbsVTranslationStack
p799
g1
(g18
g19
(lp800
g1
(g2
g3
(dp801
g781
g1
(g6
g7
g156
tp802
Rp803
(dp804
g12
g781
sbsVField
p805
g1
(g6
g7
S'Organism'
p806
tp807
Rp808
(dp809
g12
g805
sbsVTerm
p810
g1
(g6
g7
S'"Dentex angolensis"[Organism]'
p811
tp812
Rp813
(dp814
g12
g810
sbsVExplode
p815
g1
(g6
g7
g67
tp816
Rp817
(dp818
g12
g815
sbstp819
Rp820
(dp821
g12
VTermSet
p822
sbag1
(g2
g3
(dp823
g781
g1
(g6
g7
S'351582'
p824
tp825
Rp826
(dp827
g12
g781
sbsg805
g1
(g6
g7
S'All Fields'
p828
tp829
Rp830
(dp831
g12
g805
sbsg810
g1
(g6
g7
S'Rhodopsin[All Fields]'
p832
tp833
Rp834
(dp835
g12
g810
sbsg815
g1
(g6
g7
g88
tp836
Rp837
(dp838
g12
g815
sbstp839
Rp840
(dp841
g12
g822
sbag1
(g6
g7
S'AND'
p842
tp843
Rp844
(dp845
g12
VOP
p846
sbatp847
Rp848
(dp849
g12
g799
sbsVErrorList
p850
g1
(g104
g3
(dp851
VFieldNotFound
p852
(lp853
g1
(g6
g7
S'definition'
p854
tp855
Rp856
(dp857
g12
VFieldNotFound
p858
sbasVPhraseNotFound
p859
(lp860
stp861
Rp862
(dp863
g12
g850
sg118
(lp864
g859
ag852
asbsVTranslationSet
p865
g1
(g18
g19
(lp866
g1
(g2
g3
(dp867
VTo
p868
g1
(g6
g7
S'"Dentex angolensis"[Organism]'
p869
tp870
Rp871
(dp872
g12
g868
sbsVFrom
p873
g1
(g6
g7
S'Dentex angolensis[organism]'
p874
tp875
Rp876
(dp877
g12
g873
sbstp878
Rp879
(dp880
g12
VTranslation
p881
sbatp882
Rp883
(dp884
g12
g865
sbsVRetStart
p885
g1
(g6
g7
g141
tp886
Rp887
(dp888
g12
g885
sbsVQueryTranslation
p889
g1
(g6
g7
S'"Dentex angolensis"[Organism] AND Rhodopsin[All Fields]'
p890
tp891
Rp892
(dp893
g12
g889
sbstp894
Rp895
(dp896
g12
VeSearchResult
p897
sbag1
(g2
g3
(dp898
VCount
p899
g1
(g6
g7
g300
tp900
Rp901
(dp902
g12
g899
sbsVRetMax
p903
g1
(g6
g7
g300
tp904
Rp905
(dp906
g12
g903
sbsVIdList
p907
g1
(g18
g19
(lp908
g1
(g6
g7
S'80524316'
p909
tp910
Rp911
(dp912
g12
VId
p913
sbatp914
Rp915
(dp916
g12
g907
sbsVTranslationStack
p917
g1
(g18
g19
(lp918
g1
(g2
g3
(dp919
g899
g1
(g6
g7
S'14'
p920
tp921
Rp922
(dp923
g12
g899
sbsVField
p924
g1
(g6
g7
S'Organism'
p925
tp926
Rp927
(dp928
g12
g924
sbsVTerm
p929
g1
(g6
g7
S'"Dentex canariensis"[Organism]'
p930
tp931
Rp932
(dp933
g12
g929
sbsVExplode
p934
g1
(g6
g7
g67
tp935
Rp936
(dp937
g12
g934
sbstp938
Rp939
(dp940
g12
VTermSet
p941
sbag1
(g2
g3
(dp942
g899
g1
(g6
g7
S'351582'
p943
tp944
Rp945
(dp946
g12
g899
sbsg924
g1
(g6
g7
S'All Fields'
p947
tp948
Rp949
(dp950
g12
g924
sbsg929
g1
(g6
g7
S'Rhodopsin[All Fields]'
p951
tp952
Rp953
(dp954
g12
g929
sbsg934
g1
(g6
g7
g88
tp955
Rp956
(dp957
g12
g934
sbstp958
Rp959
(dp960
g12
g941
sbag1
(g6
g7
S'AND'
p961
tp962
Rp963
(dp964
g12
VOP
p965
sbatp966
Rp967
(dp968
g12
g917
sbsVErrorList
p969
g1
(g104
g3
(dp970
VFieldNotFound
p971
(lp972
g1
(g6
g7
S'definition'
p973
tp974
Rp975
(dp976
g12
VFieldNotFound
p977
sbasVPhraseNotFound
p978
(lp979
stp980
Rp981
(dp982
g12
g969
sg118
(lp983
g978
ag971
asbsVTranslationSet
p984
g1
(g18
g19
(lp985
g1
(g2
g3
(dp986
VTo
p987
g1
(g6
g7
S'"Dentex canariensis"[Organism]'
p988
tp989
Rp990
(dp991
g12
g987
sbsVFrom
p992
g1
(g6
g7
S'Dentex canariensis[organism]'
p993
tp994
Rp995
(dp996
g12
g992
sbstp997
Rp998
(dp999
g12
VTranslation
p1000
sbatp1001
Rp1002
(dp1003
g12
g984
sbsVRetStart
p1004
g1
(g6
g7
g141
tp1005
Rp1006
(dp1007
g12
g1004
sbsVQueryTranslation
p1008
g1
(g6
g7
S'"Dentex canariensis"[Organism] AND Rhodopsin[All Fields]'
p1009
tp1010
Rp1011
(dp1012
g12
g1008
sbstp1013
Rp1014
(dp1015
g12
VeSearchResult
p1016
sbag1
(g2
g3
(dp1017
VCount
p1018
g1
(g6
g7
g8
tp1019
Rp1020
(dp1021
g12
g1018
sbsVRetMax
p1022
g1
(g6
g7
g8
tp1023
Rp1024
(dp1025
g12
g1022
sbsVIdList
p1026
g1
(g18
g19
(lp1027
g1
(g6
g7
S'129561499'
p1028
tp1029
Rp1030
(dp1031
g12
VId
p1032
sbag1
(g6
g7
S'129561497'
p1033
tp1034
Rp1035
(dp1036
g12
g1032
sbag1
(g6
g7
S'154745101'
p1037
tp1038
Rp1039
(dp1040
g12
g1032
sbag1
(g6
g7
S'154745099'
p1041
tp1042
Rp1043
(dp1044
g12
g1032
sbag1
(g6
g7
S'133923942'
p1045
tp1046
Rp1047
(dp1048
g12
g1032
sbag1
(g6
g7
S'133923940'
p1049
tp1050
Rp1051
(dp1052
g12
g1032
sbatp1053
Rp1054
(dp1055
g12
g1026
sbsVTranslationStack
p1056
g1
(g18
g19
(lp1057
g1
(g2
g3
(dp1058
g1018
g1
(g6
g7
S'126'
p1059
tp1060
Rp1061
(dp1062
g12
g1018
sbsVField
p1063
g1
(g6
g7
S'Organism'
p1064
tp1065
Rp1066
(dp1067
g12
g1063
sbsVTerm
p1068
g1
(g6
g7
S'"Dentex dentex"[Organism]'
p1069
tp1070
Rp1071
(dp1072
g12
g1068
sbsVExplode
p1073
g1
(g6
g7
g67
tp1074
Rp1075
(dp1076
g12
g1073
sbstp1077
Rp1078
(dp1079
g12
VTermSet
p1080
sbag1
(g2
g3
(dp1081
g1018
g1
(g6
g7
S'351582'
p1082
tp1083
Rp1084
(dp1085
g12
g1018
sbsg1063
g1
(g6
g7
S'All Fields'
p1086
tp1087
Rp1088
(dp1089
g12
g1063
sbsg1068
g1
(g6
g7
S'Rhodopsin[All Fields]'
p1090
tp1091
Rp1092
(dp1093
g12
g1068
sbsg1073
g1
(g6
g7
g88
tp1094
Rp1095
(dp1096
g12
g1073
sbstp1097
Rp1098
(dp1099
g12
g1080
sbag1
(g6
g7
S'AND'
p1100
tp1101
Rp1102
(dp1103
g12
VOP
p1104
sbatp1105
Rp1106
(dp1107
g12
g1056
sbsVErrorList
p1108
g1
(g104
g3
(dp1109
VFieldNotFound
p1110
(lp1111
g1
(g6
g7
S'definition'
p1112
tp1113
Rp1114
(dp1115
g12
VFieldNotFound
p1116
sbasVPhraseNotFound
p1117
(lp1118
stp1119
Rp1120
(dp1121
g12
g1108
sg118
(lp1122
g1117
ag1110
asbsVTranslationSet
p1123
g1
(g18
g19
(lp1124
g1
(g2
g3
(dp1125
VTo
p1126
g1
(g6
g7
S'"Dentex dentex"[Organism]'
p1127
tp1128
Rp1129
(dp1130
g12
g1126
sbsVFrom
p1131
g1
(g6
g7
S'Dentex dentex[organism]'
p1132
tp1133
Rp1134
(dp1135
g12
g1131
sbstp1136
Rp1137
(dp1138
g12
VTranslation
p1139
sbatp1140
Rp1141
(dp1142
g12
g1123
sbsVRetStart
p1143
g1
(g6
g7
g141
tp1144
Rp1145
(dp1146
g12
g1143
sbsVQueryTranslation
p1147
g1
(g6
g7
S'"Dentex dentex"[Organism] AND Rhodopsin[All Fields]'
p1148
tp1149
Rp1150
(dp1151
g12
g1147
sbstp1152
Rp1153
(dp1154
g12
VeSearchResult
p1155
sbag1
(g2
g3
(dp1156
VCount
p1157
g1
(g6
g7
S'3'
p1158
tp1159
Rp1160
(dp1161
g12
g1157
sbsVRetMax
p1162
g1
(g6
g7
g1158
tp1163
Rp1164
(dp1165
g12
g1162
sbsVIdList
p1166
g1
(g18
g19
(lp1167
g1
(g6
g7
S'80524318'
p1168
tp1169
Rp1170
(dp1171
g12
VId
p1172
sbag1
(g6
g7
S'133923874'
p1173
tp1174
Rp1175
(dp1176
g12
g1172
sbag1
(g6
g7
S'133923750'
p1177
tp1178
Rp1179
(dp1180
g12
g1172
sbatp1181
Rp1182
(dp1183
g12
g1166
sbsVTranslationStack
p1184
g1
(g18
g19
(lp1185
g1
(g2
g3
(dp1186
g1157
g1
(g6
g7
S'13'
p1187
tp1188
Rp1189
(dp1190
g12
g1157
sbsVField
p1191
g1
(g6
g7
S'Organism'
p1192
tp1193
Rp1194
(dp1195
g12
g1191
sbsVTerm
p1196
g1
(g6
g7
S'"Dentex gibbosus"[Organism]'
p1197
tp1198
Rp1199
(dp1200
g12
g1196
sbsVExplode
p1201
g1
(g6
g7
g67
tp1202
Rp1203
(dp1204
g12
g1201
sbstp1205
Rp1206
(dp1207
g12
VTermSet
p1208
sbag1
(g2
g3
(dp1209
g1157
g1
(g6
g7
S'351582'
p1210
tp1211
Rp1212
(dp1213
g12
g1157
sbsg1191
g1
(g6
g7
S'All Fields'
p1214
tp1215
Rp1216
(dp1217
g12
g1191
sbsg1196
g1
(g6
g7
S'Rhodopsin[All Fields]'
p1218
tp1219
Rp1220
(dp1221
g12
g1196
sbsg1201
g1
(g6
g7
g88
tp1222
Rp1223
(dp1224
g12
g1201
sbstp1225
Rp1226
(dp1227
g12
g1208
sbag1
(g6
g7
S'AND'
p1228
tp1229
Rp1230
(dp1231
g12
VOP
p1232
sbatp1233
Rp1234
(dp1235
g12
g1184
sbsVErrorList
p1236
g1
(g104
g3
(dp1237
VFieldNotFound
p1238
(lp1239
g1
(g6
g7
S'definition'
p1240
tp1241
Rp1242
(dp1243
g12
VFieldNotFound
p1244
sbasVPhraseNotFound
p1245
(lp1246
stp1247
Rp1248
(dp1249
g12
g1236
sg118
(lp1250
g1245
ag1238
asbsVTranslationSet
p1251
g1
(g18
g19
(lp1252
g1
(g2
g3
(dp1253
VTo
p1254
g1
(g6
g7
S'"Dentex gibbosus"[Organism]'
p1255
tp1256
Rp1257
(dp1258
g12
g1254
sbsVFrom
p1259
g1
(g6
g7
S'Dentex gibbosus[organism]'
p1260
tp1261
Rp1262
(dp1263
g12
g1259
sbstp1264
Rp1265
(dp1266
g12
VTranslation
p1267
sbatp1268
Rp1269
(dp1270
g12
g1251
sbsVRetStart
p1271
g1
(g6
g7
g141
tp1272
Rp1273
(dp1274
g12
g1271
sbsVQueryTranslation
p1275
g1
(g6
g7
S'"Dentex gibbosus"[Organism] AND Rhodopsin[All Fields]'
p1276
tp1277
Rp1278
(dp1279
g12
g1275
sbstp1280
Rp1281
(dp1282
g12
VeSearchResult
p1283
sbag1
(g2
g3
(dp1284
VCount
p1285
g1
(g6
g7
g1158
tp1286
Rp1287
(dp1288
g12
g1285
sbsVRetMax
p1289
g1
(g6
g7
g1158
tp1290
Rp1291
(dp1292
g12
g1289
sbsVIdList
p1293
g1
(g18
g19
(lp1294
g1
(g6
g7
S'134154788'
p1295
tp1296
Rp1297
(dp1298
g12
VId
p1299
sbag1
(g6
g7
S'134154786'
p1300
tp1301
Rp1302
(dp1303
g12
g1299
sbag1
(g6
g7
S'129561501'
p1304
tp1305
Rp1306
(dp1307
g12
g1299
sbatp1308
Rp1309
(dp1310
g12
g1293
sbsVTranslationStack
p1311
g1
(g18
g19
(lp1312
g1
(g2
g3
(dp1313
g1285
g1
(g6
g7
S'37'
p1314
tp1315
Rp1316
(dp1317
g12
g1285
sbsVField
p1318
g1
(g6
g7
S'Organism'
p1319
tp1320
Rp1321
(dp1322
g12
g1318
sbsVTerm
p1323
g1
(g6
g7
S'"Dentex macrophthalmus"[Organism]'
p1324
tp1325
Rp1326
(dp1327
g12
g1323
sbsVExplode
p1328
g1
(g6
g7
g67
tp1329
Rp1330
(dp1331
g12
g1328
sbstp1332
Rp1333
(dp1334
g12
VTermSet
p1335
sbag1
(g2
g3
(dp1336
g1285
g1
(g6
g7
S'351582'
p1337
tp1338
Rp1339
(dp1340
g12
g1285
sbsg1318
g1
(g6
g7
S'All Fields'
p1341
tp1342
Rp1343
(dp1344
g12
g1318
sbsg1323
g1
(g6
g7
S'Rhodopsin[All Fields]'
p1345
tp1346
Rp1347
(dp1348
g12
g1323
sbsg1328
g1
(g6
g7
g88
tp1349
Rp1350
(dp1351
g12
g1328
sbstp1352
Rp1353
(dp1354
g12
g1335
sbag1
(g6
g7
S'AND'
p1355
tp1356
Rp1357
(dp1358
g12
VOP
p1359
sbatp1360
Rp1361
(dp1362
g12
g1311
sbsVErrorList
p1363
g1
(g104
g3
(dp1364
VFieldNotFound
p1365
(lp1366
g1
(g6
g7
S'definition'
p1367
tp1368
Rp1369
(dp1370
g12
VFieldNotFound
p1371
sbasVPhraseNotFound
p1372
(lp1373
stp1374
Rp1375
(dp1376
g12
g1363
sg118
(lp1377
g1372
ag1365
asbsVTranslationSet
p1378
g1
(g18
g19
(lp1379
g1
(g2
g3
(dp1380
VTo
p1381
g1
(g6
g7
S'"Dentex macrophthalmus"[Organism]'
p1382
tp1383
Rp1384
(dp1385
g12
g1381
sbsVFrom
p1386
g1
(g6
g7
S'Dentex macrophthalmus[organism]'
p1387
tp1388
Rp1389
(dp1390
g12
g1386
sbstp1391
Rp1392
(dp1393
g12
VTranslation
p1394
sbatp1395
Rp1396
(dp1397
g12
g1378
sbsVRetStart
p1398
g1
(g6
g7
g141
tp1399
Rp1400
(dp1401
g12
g1398
sbsVQueryTranslation
p1402
g1
(g6
g7
S'"Dentex macrophthalmus"[Organism] AND Rhodopsin[All Fields]'
p1403
tp1404
Rp1405
(dp1406
g12
g1402
sbstp1407
Rp1408
(dp1409
g12
VeSearchResult
p1410
sbag1
(g2
g3
(dp1411
VCount
p1412
g1
(g6
g7
g300
tp1413
Rp1414
(dp1415
g12
g1412
sbsVRetMax
p1416
g1
(g6
g7
g300
tp1417
Rp1418
(dp1419
g12
g1416
sbsVIdList
p1420
g1
(g18
g19
(lp1421
g1
(g6
g7
S'80524320'
p1422
tp1423
Rp1424
(dp1425
g12
VId
p1426
sbatp1427
Rp1428
(dp1429
g12
g1420
sbsVTranslationStack
p1430
g1
(g18
g19
(lp1431
g1
(g2
g3
(dp1432
g1412
g1
(g6
g7
g8
tp1433
Rp1434
(dp1435
g12
g1412
sbsVField
p1436
g1
(g6
g7
S'Organism'
p1437
tp1438
Rp1439
(dp1440
g12
g1436
sbsVTerm
p1441
g1
(g6
g7
S'"Dentex maroccanus"[Organism]'
p1442
tp1443
Rp1444
(dp1445
g12
g1441
sbsVExplode
p1446
g1
(g6
g7
g67
tp1447
Rp1448
(dp1449
g12
g1446
sbstp1450
Rp1451
(dp1452
g12
VTermSet
p1453
sbag1
(g2
g3
(dp1454
g1412
g1
(g6
g7
S'351582'
p1455
tp1456
Rp1457
(dp1458
g12
g1412
sbsg1436
g1
(g6
g7
S'All Fields'
p1459
tp1460
Rp1461
(dp1462
g12
g1436
sbsg1441
g1
(g6
g7
S'Rhodopsin[All Fields]'
p1463
tp1464
Rp1465
(dp1466
g12
g1441
sbsg1446
g1
(g6
g7
g88
tp1467
Rp1468
(dp1469
g12
g1446
sbstp1470
Rp1471
(dp1472
g12
g1453
sbag1
(g6
g7
S'AND'
p1473
tp1474
Rp1475
(dp1476
g12
VOP
p1477
sbatp1478
Rp1479
(dp1480
g12
g1430
sbsVErrorList
p1481
g1
(g104
g3
(dp1482
VFieldNotFound
p1483
(lp1484
g1
(g6
g7
S'definition'
p1485
tp1486
Rp1487
(dp1488
g12
VFieldNotFound
p1489
sbasVPhraseNotFound
p1490
(lp1491
stp1492
Rp1493
(dp1494
g12
g1481
sg118
(lp1495
g1490
ag1483
asbsVTranslationSet
p1496
g1
(g18
g19
(lp1497
g1
(g2
g3
(dp1498
VTo
p1499
g1
(g6
g7
S'"Dentex maroccanus"[Organism]'
p1500
tp1501
Rp1502
(dp1503
g12
g1499
sbsVFrom
p1504
g1
(g6
g7
S'Dentex maroccanus[organism]'
p1505
tp1506
Rp1507
(dp1508
g12
g1504
sbstp1509
Rp1510
(dp1511
g12
VTranslation
p1512
sbatp1513
Rp1514
(dp1515
g12
g1496
sbsVRetStart
p1516
g1
(g6
g7
g141
tp1517
Rp1518
(dp1519
g12
g1516
sbsVQueryTranslation
p1520
g1
(g6
g7
S'"Dentex maroccanus"[Organism] AND Rhodopsin[All Fields]'
p1521
tp1522
Rp1523
(dp1524
g12
g1520
sbstp1525
Rp1526
(dp1527
g12
VeSearchResult
p1528
sbag1
(g2
g3
(dp1529
VCount
p1530
g1
(g6
g7
g156
tp1531
Rp1532
(dp1533
g12
g1530
sbsVRetMax
p1534
g1
(g6
g7
g156
tp1535
Rp1536
(dp1537
g12
g1534
sbsVIdList
p1538
g1
(g18
g19
(lp1539
g1
(g6
g7
S'129561505'
p1540
tp1541
Rp1542
(dp1543
g12
VId
p1544
sbag1
(g6
g7
S'129561503'
p1545
tp1546
Rp1547
(dp1548
g12
g1544
sbag1
(g6
g7
S'154745109'
p1549
tp1550
Rp1551
(dp1552
g12
g1544
sbag1
(g6
g7
S'154745107'
p1553
tp1554
Rp1555
(dp1556
g12
g1544
sbag1
(g6
g7
S'133923950'
p1557
tp1558
Rp1559
(dp1560
g12
g1544
sbag1
(g6
g7
S'133923948'
p1561
tp1562
Rp1563
(dp1564
g12
g1544
sbag1
(g6
g7
S'4210634'
p1565
tp1566
Rp1567
(dp1568
g12
g1544
sbatp1569
Rp1570
(dp1571
g12
g1538
sbsVTranslationStack
p1572
g1
(g18
g19
(lp1573
g1
(g2
g3
(dp1574
g1530
g1
(g6
g7
S'74'
p1575
tp1576
Rp1577
(dp1578
g12
g1530
sbsVField
p1579
g1
(g6
g7
S'Organism'
p1580
tp1581
Rp1582
(dp1583
g12
g1579
sbsVTerm
p1584
g1
(g6
g7
S'"Diplodus annularis"[Organism]'
p1585
tp1586
Rp1587
(dp1588
g12
g1584
sbsVExplode
p1589
g1
(g6
g7
g67
tp1590
Rp1591
(dp1592
g12
g1589
sbstp1593
Rp1594
(dp1595
g12
VTermSet
p1596
sbag1
(g2
g3
(dp1597
g1530
g1
(g6
g7
S'351582'
p1598
tp1599
Rp1600
(dp1601
g12
g1530
sbsg1579
g1
(g6
g7
S'All Fields'
p1602
tp1603
Rp1604
(dp1605
g12
g1579
sbsg1584
g1
(g6
g7
S'Rhodopsin[All Fields]'
p1606
tp1607
Rp1608
(dp1609
g12
g1584
sbsg1589
g1
(g6
g7
g88
tp1610
Rp1611
(dp1612
g12
g1589
sbstp1613
Rp1614
(dp1615
g12
g1596
sbag1
(g6
g7
S'AND'
p1616
tp1617
Rp1618
(dp1619
g12
VOP
p1620
sbatp1621
Rp1622
(dp1623
g12
g1572
sbsVErrorList
p1624
g1
(g104
g3
(dp1625
VFieldNotFound
p1626
(lp1627
g1
(g6
g7
S'definition'
p1628
tp1629
Rp1630
(dp1631
g12
VFieldNotFound
p1632
sbasVPhraseNotFound
p1633
(lp1634
stp1635
Rp1636
(dp1637
g12
g1624
sg118
(lp1638
g1633
ag1626
asbsVTranslationSet
p1639
g1
(g18
g19
(lp1640
g1
(g2
g3
(dp1641
VTo
p1642
g1
(g6
g7
S'"Diplodus annularis"[Organism]'
p1643
tp1644
Rp1645
(dp1646
g12
g1642
sbsVFrom
p1647
g1
(g6
g7
S'Diplodus annularis[organism]'
p1648
tp1649
Rp1650
(dp1651
g12
g1647
sbstp1652
Rp1653
(dp1654
g12
VTranslation
p1655
sbatp1656
Rp1657
(dp1658
g12
g1639
sbsVRetStart
p1659
g1
(g6
g7
g141
tp1660
Rp1661
(dp1662
g12
g1659
sbsVQueryTranslation
p1663
g1
(g6
g7
S'"Diplodus annularis"[Organism] AND Rhodopsin[All Fields]'
p1664
tp1665
Rp1666
(dp1667
g12
g1663
sbstp1668
Rp1669
(dp1670
g12
VeSearchResult
p1671
sbag1
(g2
g3
(dp1672
VCount
p1673
g1
(g6
g7
g156
tp1674
Rp1675
(dp1676
g12
g1673
sbsVRetMax
p1677
g1
(g6
g7
g156
tp1678
Rp1679
(dp1680
g12
g1677
sbsVIdList
p1681
g1
(g18
g19
(lp1682
g1
(g6
g7
S'80524326'
p1683
tp1684
Rp1685
(dp1686
g12
VId
p1687
sbag1
(g6
g7
S'134154796'
p1688
tp1689
Rp1690
(dp1691
g12
g1687
sbag1
(g6
g7
S'134154794'
p1692
tp1693
Rp1694
(dp1695
g12
g1687
sbag1
(g6
g7
S'129561509'
p1696
tp1697
Rp1698
(dp1699
g12
g1687
sbag1
(g6
g7
S'129561507'
p1700
tp1701
Rp1702
(dp1703
g12
g1687
sbag1
(g6
g7
S'133923754'
p1704
tp1705
Rp1706
(dp1707
g12
g1687
sbag1
(g6
g7
S'133923752'
p1708
tp1709
Rp1710
(dp1711
g12
g1687
sbatp1712
Rp1713
(dp1714
g12
g1681
sbsVTranslationStack
p1715
g1
(g18
g19
(lp1716
g1
(g2
g3
(dp1717
g1673
g1
(g6
g7
S'52'
p1718
tp1719
Rp1720
(dp1721
g12
g1673
sbsVField
p1722
g1
(g6
g7
S'Organism'
p1723
tp1724
Rp1725
(dp1726
g12
g1722
sbsVTerm
p1727
g1
(g6
g7
S'"Diplodus cervinus"[Organism]'
p1728
tp1729
Rp1730
(dp1731
g12
g1727
sbsVExplode
p1732
g1
(g6
g7
g67
tp1733
Rp1734
(dp1735
g12
g1732
sbstp1736
Rp1737
(dp1738
g12
VTermSet
p1739
sbag1
(g2
g3
(dp1740
g1673
g1
(g6
g7
S'351582'
p1741
tp1742
Rp1743
(dp1744
g12
g1673
sbsg1722
g1
(g6
g7
S'All Fields'
p1745
tp1746
Rp1747
(dp1748
g12
g1722
sbsg1727
g1
(g6
g7
S'Rhodopsin[All Fields]'
p1749
tp1750
Rp1751
(dp1752
g12
g1727
sbsg1732
g1
(g6
g7
g88
tp1753
Rp1754
(dp1755
g12
g1732
sbstp1756
Rp1757
(dp1758
g12
g1739
sbag1
(g6
g7
S'AND'
p1759
tp1760
Rp1761
(dp1762
g12
VOP
p1763
sbatp1764
Rp1765
(dp1766
g12
g1715
sbsVErrorList
p1767
g1
(g104
g3
(dp1768
VFieldNotFound
p1769
(lp1770
g1
(g6
g7
S'definition'
p1771
tp1772
Rp1773
(dp1774
g12
VFieldNotFound
p1775
sbasVPhraseNotFound
p1776
(lp1777
stp1778
Rp1779
(dp1780
g12
g1767
sg118
(lp1781
g1776
ag1769
asbsVTranslationSet
p1782
g1
(g18
g19
(lp1783
g1
(g2
g3
(dp1784
VTo
p1785
g1
(g6
g7
S'"Diplodus cervinus"[Organism]'
p1786
tp1787
Rp1788
(dp1789
g12
g1785
sbsVFrom
p1790
g1
(g6
g7
S'Diplodus cervinus[organism]'
p1791
tp1792
Rp1793
(dp1794
g12
g1790
sbstp1795
Rp1796
(dp1797
g12
VTranslation
p1798
sbatp1799
Rp1800
(dp1801
g12
g1782
sbsVRetStart
p1802
g1
(g6
g7
g141
tp1803
Rp1804
(dp1805
g12
g1802
sbsVQueryTranslation
p1806
g1
(g6
g7
S'"Diplodus cervinus"[Organism] AND Rhodopsin[All Fields]'
p1807
tp1808
Rp1809
(dp1810
g12
g1806
sbstp1811
Rp1812
(dp1813
g12
VeSearchResult
p1814
sbag1
(g2
g3
(dp1815
VCount
p1816
g1
(g6
g7
g8
tp1817
Rp1818
(dp1819
g12
g1816
sbsVRetMax
p1820
g1
(g6
g7
g8
tp1821
Rp1822
(dp1823
g12
g1820
sbsVIdList
p1824
g1
(g18
g19
(lp1825
g1
(g6
g7
S'134154800'
p1826
tp1827
Rp1828
(dp1829
g12
VId
p1830
sbag1
(g6
g7
S'134154798'
p1831
tp1832
Rp1833
(dp1834
g12
g1830
sbag1
(g6
g7
S'129561513'
p1835
tp1836
Rp1837
(dp1838
g12
g1830
sbag1
(g6
g7
S'129561511'
p1839
tp1840
Rp1841
(dp1842
g12
g1830
sbag1
(g6
g7
S'154745113'
p1843
tp1844
Rp1845
(dp1846
g12
g1830
sbag1
(g6
g7
S'154745111'
p1847
tp1848
Rp1849
(dp1850
g12
g1830
sbatp1851
Rp1852
(dp1853
g12
g1824
sbsVTranslationStack
p1854
g1
(g18
g19
(lp1855
g1
(g2
g3
(dp1856
g1816
g1
(g6
g7
S'163'
p1857
tp1858
Rp1859
(dp1860
g12
g1816
sbsVField
p1861
g1
(g6
g7
S'Organism'
p1862
tp1863
Rp1864
(dp1865
g12
g1861
sbsVTerm
p1866
g1
(g6
g7
S'"Diplodus puntazzo"[Organism]'
p1867
tp1868
Rp1869
(dp1870
g12
g1866
sbsVExplode
p1871
g1
(g6
g7
g67
tp1872
Rp1873
(dp1874
g12
g1871
sbstp1875
Rp1876
(dp1877
g12
VTermSet
p1878
sbag1
(g2
g3
(dp1879
g1816
g1
(g6
g7
S'351582'
p1880
tp1881
Rp1882
(dp1883
g12
g1816
sbsg1861
g1
(g6
g7
S'All Fields'
p1884
tp1885
Rp1886
(dp1887
g12
g1861
sbsg1866
g1
(g6
g7
S'Rhodopsin[All Fields]'
p1888
tp1889
Rp1890
(dp1891
g12
g1866
sbsg1871
g1
(g6
g7
g88
tp1892
Rp1893
(dp1894
g12
g1871
sbstp1895
Rp1896
(dp1897
g12
g1878
sbag1
(g6
g7
S'AND'
p1898
tp1899
Rp1900
(dp1901
g12
VOP
p1902
sbatp1903
Rp1904
(dp1905
g12
g1854
sbsVErrorList
p1906
g1
(g104
g3
(dp1907
VFieldNotFound
p1908
(lp1909
g1
(g6
g7
S'definition'
p1910
tp1911
Rp1912
(dp1913
g12
VFieldNotFound
p1914
sbasVPhraseNotFound
p1915
(lp1916
stp1917
Rp1918
(dp1919
g12
g1906
sg118
(lp1920
g1915
ag1908
asbsVTranslationSet
p1921
g1
(g18
g19
(lp1922
g1
(g2
g3
(dp1923
VTo
p1924
g1
(g6
g7
S'"Diplodus puntazzo"[Organism]'
p1925
tp1926
Rp1927
(dp1928
g12
g1924
sbsVFrom
p1929
g1
(g6
g7
S'Diplodus puntazzo[organism]'
p1930
tp1931
Rp1932
(dp1933
g12
g1929
sbstp1934
Rp1935
(dp1936
g12
VTranslation
p1937
sbatp1938
Rp1939
(dp1940
g12
g1921
sbsVRetStart
p1941
g1
(g6
g7
g141
tp1942
Rp1943
(dp1944
g12
g1941
sbsVQueryTranslation
p1945
g1
(g6
g7
S'"Diplodus puntazzo"[Organism] AND Rhodopsin[All Fields]'
p1946
tp1947
Rp1948
(dp1949
g12
g1945
sbstp1950
Rp1951
(dp1952
g12
VeSearchResult
p1953
sbag1
(g2
g3
(dp1954
VCount
p1955
g1
(g6
g7
g300
tp1956
Rp1957
(dp1958
g12
g1955
sbsVRetMax
p1959
g1
(g6
g7
g300
tp1960
Rp1961
(dp1962
g12
g1959
sbsVIdList
p1963
g1
(g18
g19
(lp1964
g1
(g6
g7
S'80524328'
p1965
tp1966
Rp1967
(dp1968
g12
VId
p1969
sbatp1970
Rp1971
(dp1972
g12
g1963
sbsVTranslationStack
p1973
g1
(g18
g19
(lp1974
g1
(g2
g3
(dp1975
g1955
g1
(g6
g7
S'4'
p1976
tp1977
Rp1978
(dp1979
g12
g1955
sbsVField
p1980
g1
(g6
g7
S'Organism'
p1981
tp1982
Rp1983
(dp1984
g12
g1980
sbsVTerm
p1985
g1
(g6
g7
S'"Diplodus sargus cadenati"[Organism]'
p1986
tp1987
Rp1988
(dp1989
g12
g1985
sbsVExplode
p1990
g1
(g6
g7
g67
tp1991
Rp1992
(dp1993
g12
g1990
sbstp1994
Rp1995
(dp1996
g12
VTermSet
p1997
sbag1
(g2
g3
(dp1998
g1955
g1
(g6
g7
S'351582'
p1999
tp2000
Rp2001
(dp2002
g12
g1955
sbsg1980
g1
(g6
g7
S'All Fields'
p2003
tp2004
Rp2005
(dp2006
g12
g1980
sbsg1985
g1
(g6
g7
S'Rhodopsin[All Fields]'
p2007
tp2008
Rp2009
(dp2010
g12
g1985
sbsg1990
g1
(g6
g7
g88
tp2011
Rp2012
(dp2013
g12
g1990
sbstp2014
Rp2015
(dp2016
g12
g1997
sbag1
(g6
g7
S'AND'
p2017
tp2018
Rp2019
(dp2020
g12
VOP
p2021
sbatp2022
Rp2023
(dp2024
g12
g1973
sbsVErrorList
p2025
g1
(g104
g3
(dp2026
VFieldNotFound
p2027
(lp2028
g1
(g6
g7
S'definition'
p2029
tp2030
Rp2031
(dp2032
g12
VFieldNotFound
p2033
sbasVPhraseNotFound
p2034
(lp2035
stp2036
Rp2037
(dp2038
g12
g2025
sg118
(lp2039
g2034
ag2027
asbsVTranslationSet
p2040
g1
(g18
g19
(lp2041
g1
(g2
g3
(dp2042
VTo
p2043
g1
(g6
g7
S'"Diplodus sargus cadenati"[Organism]'
p2044
tp2045
Rp2046
(dp2047
g12
g2043
sbsVFrom
p2048
g1
(g6
g7
S'Diplodus sargus cadenati[organism]'
p2049
tp2050
Rp2051
(dp2052
g12
g2048
sbstp2053
Rp2054
(dp2055
g12
VTranslation
p2056
sbatp2057
Rp2058
(dp2059
g12
g2040
sbsVRetStart
p2060
g1
(g6
g7
g141
tp2061
Rp2062
(dp2063
g12
g2060
sbsVQueryTranslation
p2064
g1
(g6
g7
S'"Diplodus sargus cadenati"[Organism] AND Rhodopsin[All Fields]'
p2065
tp2066
Rp2067
(dp2068
g12
g2064
sbstp2069
Rp2070
(dp2071
g12
VeSearchResult
p2072
sbag1
(g2
g3
(dp2073
VCount
p2074
g1
(g6
g7
g8
tp2075
Rp2076
(dp2077
g12
g2074
sbsVRetMax
p2078
g1
(g6
g7
g8
tp2079
Rp2080
(dp2081
g12
g2078
sbsVIdList
p2082
g1
(g18
g19
(lp2083
g1
(g6
g7
S'133923954'
p2084
tp2085
Rp2086
(dp2087
g12
VId
p2088
sbag1
(g6
g7
S'133923952'
p2089
tp2090
Rp2091
(dp2092
g12
g2088
sbag1
(g6
g7
S'133923758'
p2093
tp2094
Rp2095
(dp2096
g12
g2088
sbag1
(g6
g7
S'133923756'
p2097
tp2098
Rp2099
(dp2100
g12
g2088
sbag1
(g6
g7
S'133923420'
p2101
tp2102
Rp2103
(dp2104
g12
g2088
sbag1
(g6
g7
S'133923418'
p2105
tp2106
Rp2107
(dp2108
g12
g2088
sbatp2109
Rp2110
(dp2111
g12
g2082
sbsVTranslationStack
p2112
g1
(g18
g19
(lp2113
g1
(g2
g3
(dp2114
g2074
g1
(g6
g7
S'16'
p2115
tp2116
Rp2117
(dp2118
g12
g2074
sbsVField
p2119
g1
(g6
g7
S'Organism'
p2120
tp2121
Rp2122
(dp2123
g12
g2119
sbsVTerm
p2124
g1
(g6
g7
S'"Diplodus sargus sargus"[Organism]'
p2125
tp2126
Rp2127
(dp2128
g12
g2124
sbsVExplode
p2129
g1
(g6
g7
g67
tp2130
Rp2131
(dp2132
g12
g2129
sbstp2133
Rp2134
(dp2135
g12
VTermSet
p2136
sbag1
(g2
g3
(dp2137
g2074
g1
(g6
g7
S'351582'
p2138
tp2139
Rp2140
(dp2141
g12
g2074
sbsg2119
g1
(g6
g7
S'All Fields'
p2142
tp2143
Rp2144
(dp2145
g12
g2119
sbsg2124
g1
(g6
g7
S'Rhodopsin[All Fields]'
p2146
tp2147
Rp2148
(dp2149
g12
g2124
sbsg2129
g1
(g6
g7
g88
tp2150
Rp2151
(dp2152
g12
g2129
sbstp2153
Rp2154
(dp2155
g12
g2136
sbag1
(g6
g7
S'AND'
p2156
tp2157
Rp2158
(dp2159
g12
VOP
p2160
sbatp2161
Rp2162
(dp2163
g12
g2112
sbsVErrorList
p2164
g1
(g104
g3
(dp2165
VFieldNotFound
p2166
(lp2167
g1
(g6
g7
S'definition'
p2168
tp2169
Rp2170
(dp2171
g12
VFieldNotFound
p2172
sbasVPhraseNotFound
p2173
(lp2174
stp2175
Rp2176
(dp2177
g12
g2164
sg118
(lp2178
g2173
ag2166
asbsVTranslationSet
p2179
g1
(g18
g19
(lp2180
g1
(g2
g3
(dp2181
VTo
p2182
g1
(g6
g7
S'"Diplodus sargus sargus"[Organism]'
p2183
tp2184
Rp2185
(dp2186
g12
g2182
sbsVFrom
p2187
g1
(g6
g7
S'Diplodus sargus sargus[organism]'
p2188
tp2189
Rp2190
(dp2191
g12
g2187
sbstp2192
Rp2193
(dp2194
g12
VTranslation
p2195
sbatp2196
Rp2197
(dp2198
g12
g2179
sbsVRetStart
p2199
g1
(g6
g7
g141
tp2200
Rp2201
(dp2202
g12
g2199
sbsVQueryTranslation
p2203
g1
(g6
g7
S'"Diplodus sargus sargus"[Organism] AND Rhodopsin[All Fields]'
p2204
tp2205
Rp2206
(dp2207
g12
g2203
sbstp2208
Rp2209
(dp2210
g12
VeSearchResult
p2211
sbag1
(g2
g3
(dp2212
VCount
p2213
g1
(g6
g7
S'12'
p2214
tp2215
Rp2216
(dp2217
g12
g2213
sbsVRetMax
p2218
g1
(g6
g7
S'12'
p2219
tp2220
Rp2221
(dp2222
g12
g2218
sbsVIdList
p2223
g1
(g18
g19
(lp2224
g1
(g6
g7
S'80524330'
p2225
tp2226
Rp2227
(dp2228
g12
VId
p2229
sbag1
(g6
g7
S'129561517'
p2230
tp2231
Rp2232
(dp2233
g12
g2229
sbag1
(g6
g7
S'129561515'
p2234
tp2235
Rp2236
(dp2237
g12
g2229
sbag1
(g6
g7
S'154745121'
p2238
tp2239
Rp2240
(dp2241
g12
g2229
sbag1
(g6
g7
S'154745119'
p2242
tp2243
Rp2244
(dp2245
g12
g2229
sbag1
(g6
g7
S'133923958'
p2246
tp2247
Rp2248
(dp2249
g12
g2229
sbag1
(g6
g7
S'133923956'
p2250
tp2251
Rp2252
(dp2253
g12
g2229
sbag1
(g6
g7
S'133923762'
p2254
tp2255
Rp2256
(dp2257
g12
g2229
sbag1
(g6
g7
S'133923760'
p2258
tp2259
Rp2260
(dp2261
g12
g2229
sbag1
(g6
g7
S'133923424'
p2262
tp2263
Rp2264
(dp2265
g12
g2229
sbag1
(g6
g7
S'133923422'
p2266
tp2267
Rp2268
(dp2269
g12
g2229
sbag1
(g6
g7
S'4210636'
p2270
tp2271
Rp2272
(dp2273
g12
g2229
sbatp2274
Rp2275
(dp2276
g12
g2223
sbsVTranslationStack
p2277
g1
(g18
g19
(lp2278
g1
(g2
g3
(dp2279
g2213
g1
(g6
g7
S'581'
p2280
tp2281
Rp2282
(dp2283
g12
g2213
sbsVField
p2284
g1
(g6
g7
S'Organism'
p2285
tp2286
Rp2287
(dp2288
g12
g2284
sbsVTerm
p2289
g1
(g6
g7
S'"Diplodus vulgaris"[Organism]'
p2290
tp2291
Rp2292
(dp2293
g12
g2289
sbsVExplode
p2294
g1
(g6
g7
g67
tp2295
Rp2296
(dp2297
g12
g2294
sbstp2298
Rp2299
(dp2300
g12
VTermSet
p2301
sbag1
(g2
g3
(dp2302
g2213
g1
(g6
g7
S'351582'
p2303
tp2304
Rp2305
(dp2306
g12
g2213
sbsg2284
g1
(g6
g7
S'All Fields'
p2307
tp2308
Rp2309
(dp2310
g12
g2284
sbsg2289
g1
(g6
g7
S'Rhodopsin[All Fields]'
p2311
tp2312
Rp2313
(dp2314
g12
g2289
sbsg2294
g1
(g6
g7
g88
tp2315
Rp2316
(dp2317
g12
g2294
sbstp2318
Rp2319
(dp2320
g12
g2301
sbag1
(g6
g7
S'AND'
p2321
tp2322
Rp2323
(dp2324
g12
VOP
p2325
sbatp2326
Rp2327
(dp2328
g12
g2277
sbsVErrorList
p2329
g1
(g104
g3
(dp2330
VFieldNotFound
p2331
(lp2332
g1
(g6
g7
S'definition'
p2333
tp2334
Rp2335
(dp2336
g12
VFieldNotFound
p2337
sbasVPhraseNotFound
p2338
(lp2339
stp2340
Rp2341
(dp2342
g12
g2329
sg118
(lp2343
g2338
ag2331
asbsVTranslationSet
p2344
g1
(g18
g19
(lp2345
g1
(g2
g3
(dp2346
VTo
p2347
g1
(g6
g7
S'"Diplodus vulgaris"[Organism]'
p2348
tp2349
Rp2350
(dp2351
g12
g2347
sbsVFrom
p2352
g1
(g6
g7
S'Diplodus vulgaris[organism]'
p2353
tp2354
Rp2355
(dp2356
g12
g2352
sbstp2357
Rp2358
(dp2359
g12
VTranslation
p2360
sbatp2361
Rp2362
(dp2363
g12
g2344
sbsVRetStart
p2364
g1
(g6
g7
g141
tp2365
Rp2366
(dp2367
g12
g2364
sbsVQueryTranslation
p2368
g1
(g6
g7
S'"Diplodus vulgaris"[Organism] AND Rhodopsin[All Fields]'
p2369
tp2370
Rp2371
(dp2372
g12
g2368
sbstp2373
Rp2374
(dp2375
g12
VeSearchResult
p2376
sbag1
(g2
g3
(dp2377
VCount
p2378
g1
(g6
g7
g8
tp2379
Rp2380
(dp2381
g12
g2378
sbsVRetMax
p2382
g1
(g6
g7
g8
tp2383
Rp2384
(dp2385
g12
g2382
sbsVIdList
p2386
g1
(g18
g19
(lp2387
g1
(g6
g7
S'80524358'
p2388
tp2389
Rp2390
(dp2391
g12
VId
p2392
sbag1
(g6
g7
S'154745141'
p2393
tp2394
Rp2395
(dp2396
g12
g2392
sbag1
(g6
g7
S'154745139'
p2397
tp2398
Rp2399
(dp2400
g12
g2392
sbag1
(g6
g7
S'133923994'
p2401
tp2402
Rp2403
(dp2404
g12
g2392
sbag1
(g6
g7
S'133923992'
p2405
tp2406
Rp2407
(dp2408
g12
g2392
sbag1
(g6
g7
S'4210734'
p2409
tp2410
Rp2411
(dp2412
g12
g2392
sbatp2413
Rp2414
(dp2415
g12
g2386
sbsVTranslationStack
p2416
g1
(g18
g19
(lp2417
g1
(g2
g3
(dp2418
g2378
g1
(g6
g7
S'1699'
p2419
tp2420
Rp2421
(dp2422
g12
g2378
sbsVField
p2423
g1
(g6
g7
S'Organism'
p2424
tp2425
Rp2426
(dp2427
g12
g2423
sbsVTerm
p2428
g1
(g6
g7
S'"Lithognathus mormyrus"[Organism]'
p2429
tp2430
Rp2431
(dp2432
g12
g2428
sbsVExplode
p2433
g1
(g6
g7
g67
tp2434
Rp2435
(dp2436
g12
g2433
sbstp2437
Rp2438
(dp2439
g12
VTermSet
p2440
sbag1
(g2
g3
(dp2441
g2378
g1
(g6
g7
S'351582'
p2442
tp2443
Rp2444
(dp2445
g12
g2378
sbsg2423
g1
(g6
g7
S'All Fields'
p2446
tp2447
Rp2448
(dp2449
g12
g2423
sbsg2428
g1
(g6
g7
S'Rhodopsin[All Fields]'
p2450
tp2451
Rp2452
(dp2453
g12
g2428
sbsg2433
g1
(g6
g7
g88
tp2454
Rp2455
(dp2456
g12
g2433
sbstp2457
Rp2458
(dp2459
g12
g2440
sbag1
(g6
g7
S'AND'
p2460
tp2461
Rp2462
(dp2463
g12
VOP
p2464
sbatp2465
Rp2466
(dp2467
g12
g2416
sbsVErrorList
p2468
g1
(g104
g3
(dp2469
VFieldNotFound
p2470
(lp2471
g1
(g6
g7
S'definition'
p2472
tp2473
Rp2474
(dp2475
g12
VFieldNotFound
p2476
sbasVPhraseNotFound
p2477
(lp2478
stp2479
Rp2480
(dp2481
g12
g2468
sg118
(lp2482
g2477
ag2470
asbsVTranslationSet
p2483
g1
(g18
g19
(lp2484
g1
(g2
g3
(dp2485
VTo
p2486
g1
(g6
g7
S'"Lithognathus mormyrus"[Organism]'
p2487
tp2488
Rp2489
(dp2490
g12
g2486
sbsVFrom
p2491
g1
(g6
g7
S'Lithognathus mormyrus[organism]'
p2492
tp2493
Rp2494
(dp2495
g12
g2491
sbstp2496
Rp2497
(dp2498
g12
VTranslation
p2499
sbatp2500
Rp2501
(dp2502
g12
g2483
sbsVRetStart
p2503
g1
(g6
g7
g141
tp2504
Rp2505
(dp2506
g12
g2503
sbsVQueryTranslation
p2507
g1
(g6
g7
S'"Lithognathus mormyrus"[Organism] AND Rhodopsin[All Fields]'
p2508
tp2509
Rp2510
(dp2511
g12
g2507
sbstp2512
Rp2513
(dp2514
g12
VeSearchResult
p2515
sbag1
(g2
g3
(dp2516
VCount
p2517
g1
(g6
g7
g8
tp2518
Rp2519
(dp2520
g12
g2517
sbsVRetMax
p2521
g1
(g6
g7
g8
tp2522
Rp2523
(dp2524
g12
g2521
sbsVIdList
p2525
g1
(g18
g19
(lp2526
g1
(g6
g7
S'134154842'
p2527
tp2528
Rp2529
(dp2530
g12
VId
p2531
sbag1
(g6
g7
S'134154840'
p2532
tp2533
Rp2534
(dp2535
g12
g2531
sbag1
(g6
g7
S'154745163'
p2536
tp2537
Rp2538
(dp2539
g12
g2531
sbag1
(g6
g7
S'154745161'
p2540
tp2541
Rp2542
(dp2543
g12
g2531
sbag1
(g6
g7
S'133924030'
p2544
tp2545
Rp2546
(dp2547
g12
g2531
sbag1
(g6
g7
S'133924028'
p2548
tp2549
Rp2550
(dp2551
g12
g2531
sbatp2552
Rp2553
(dp2554
g12
g2525
sbsVTranslationStack
p2555
g1
(g18
g19
(lp2556
g1
(g2
g3
(dp2557
g2517
g1
(g6
g7
S'95'
p2558
tp2559
Rp2560
(dp2561
g12
g2517
sbsVField
p2562
g1
(g6
g7
S'Organism'
p2563
tp2564
Rp2565
(dp2566
g12
g2562
sbsVTerm
p2567
g1
(g6
g7
S'"Oblada melanura"[Organism]'
p2568
tp2569
Rp2570
(dp2571
g12
g2567
sbsVExplode
p2572
g1
(g6
g7
g67
tp2573
Rp2574
(dp2575
g12
g2572
sbstp2576
Rp2577
(dp2578
g12
VTermSet
p2579
sbag1
(g2
g3
(dp2580
g2517
g1
(g6
g7
S'351582'
p2581
tp2582
Rp2583
(dp2584
g12
g2517
sbsg2562
g1
(g6
g7
S'All Fields'
p2585
tp2586
Rp2587
(dp2588
g12
g2562
sbsg2567
g1
(g6
g7
S'Rhodopsin[All Fields]'
p2589
tp2590
Rp2591
(dp2592
g12
g2567
sbsg2572
g1
(g6
g7
g88
tp2593
Rp2594
(dp2595
g12
g2572
sbstp2596
Rp2597
(dp2598
g12
g2579
sbag1
(g6
g7
S'AND'
p2599
tp2600
Rp2601
(dp2602
g12
VOP
p2603
sbatp2604
Rp2605
(dp2606
g12
g2555
sbsVErrorList
p2607
g1
(g104
g3
(dp2608
VFieldNotFound
p2609
(lp2610
g1
(g6
g7
S'definition'
p2611
tp2612
Rp2613
(dp2614
g12
VFieldNotFound
p2615
sbasVPhraseNotFound
p2616
(lp2617
stp2618
Rp2619
(dp2620
g12
g2607
sg118
(lp2621
g2616
ag2609
asbsVTranslationSet
p2622
g1
(g18
g19
(lp2623
g1
(g2
g3
(dp2624
VTo
p2625
g1
(g6
g7
S'"Oblada melanura"[Organism]'
p2626
tp2627
Rp2628
(dp2629
g12
g2625
sbsVFrom
p2630
g1
(g6
g7
S'Oblada melanura[organism]'
p2631
tp2632
Rp2633
(dp2634
g12
g2630
sbstp2635
Rp2636
(dp2637
g12
VTranslation
p2638
sbatp2639
Rp2640
(dp2641
g12
g2622
sbsVRetStart
p2642
g1
(g6
g7
g141
tp2643
Rp2644
(dp2645
g12
g2642
sbsVQueryTranslation
p2646
g1
(g6
g7
S'"Oblada melanura"[Organism] AND Rhodopsin[All Fields]'
p2647
tp2648
Rp2649
(dp2650
g12
g2646
sbstp2651
Rp2652
(dp2653
g12
VeSearchResult
p2654
sbag1
(g2
g3
(dp2655
VCount
p2656
g1
(g6
g7
g156
tp2657
Rp2658
(dp2659
g12
g2656
sbsVRetMax
p2660
g1
(g6
g7
g156
tp2661
Rp2662
(dp2663
g12
g2660
sbsVIdList
p2664
g1
(g18
g19
(lp2665
g1
(g6
g7
S'80524376'
p2666
tp2667
Rp2668
(dp2669
g12
VId
p2670
sbag1
(g6
g7
S'133924034'
p2671
tp2672
Rp2673
(dp2674
g12
g2670
sbag1
(g6
g7
S'133924032'
p2675
tp2676
Rp2677
(dp2678
g12
g2670
sbag1
(g6
g7
S'133923782'
p2679
tp2680
Rp2681
(dp2682
g12
g2670
sbag1
(g6
g7
S'133923780'
p2683
tp2684
Rp2685
(dp2686
g12
g2670
sbag1
(g6
g7
S'133923502'
p2687
tp2688
Rp2689
(dp2690
g12
g2670
sbag1
(g6
g7
S'133923500'
p2691
tp2692
Rp2693
(dp2694
g12
g2670
sbatp2695
Rp2696
(dp2697
g12
g2664
sbsVTranslationStack
p2698
g1
(g18
g19
(lp2699
g1
(g2
g3
(dp2700
g2656
g1
(g6
g7
S'93'
p2701
tp2702
Rp2703
(dp2704
g12
g2656
sbsVField
p2705
g1
(g6
g7
S'Organism'
p2706
tp2707
Rp2708
(dp2709
g12
g2705
sbsVTerm
p2710
g1
(g6
g7
S'"Pagellus acarne"[Organism]'
p2711
tp2712
Rp2713
(dp2714
g12
g2710
sbsVExplode
p2715
g1
(g6
g7
g67
tp2716
Rp2717
(dp2718
g12
g2715
sbstp2719
Rp2720
(dp2721
g12
VTermSet
p2722
sbag1
(g2
g3
(dp2723
g2656
g1
(g6
g7
S'351582'
p2724
tp2725
Rp2726
(dp2727
g12
g2656
sbsg2705
g1
(g6
g7
S'All Fields'
p2728
tp2729
Rp2730
(dp2731
g12
g2705
sbsg2710
g1
(g6
g7
S'Rhodopsin[All Fields]'
p2732
tp2733
Rp2734
(dp2735
g12
g2710
sbsg2715
g1
(g6
g7
g88
tp2736
Rp2737
(dp2738
g12
g2715
sbstp2739
Rp2740
(dp2741
g12
g2722
sbag1
(g6
g7
S'AND'
p2742
tp2743
Rp2744
(dp2745
g12
VOP
p2746
sbatp2747
Rp2748
(dp2749
g12
g2698
sbsVErrorList
p2750
g1
(g104
g3
(dp2751
VFieldNotFound
p2752
(lp2753
g1
(g6
g7
S'definition'
p2754
tp2755
Rp2756
(dp2757
g12
VFieldNotFound
p2758
sbasVPhraseNotFound
p2759
(lp2760
stp2761
Rp2762
(dp2763
g12
g2750
sg118
(lp2764
g2759
ag2752
asbsVTranslationSet
p2765
g1
(g18
g19
(lp2766
g1
(g2
g3
(dp2767
VTo
p2768
g1
(g6
g7
S'"Pagellus acarne"[Organism]'
p2769
tp2770
Rp2771
(dp2772
g12
g2768
sbsVFrom
p2773
g1
(g6
g7
S'Pagellus acarne[organism]'
p2774
tp2775
Rp2776
(dp2777
g12
g2773
sbstp2778
Rp2779
(dp2780
g12
VTranslation
p2781
sbatp2782
Rp2783
(dp2784
g12
g2765
sbsVRetStart
p2785
g1
(g6
g7
g141
tp2786
Rp2787
(dp2788
g12
g2785
sbsVQueryTranslation
p2789
g1
(g6
g7
S'"Pagellus acarne"[Organism] AND Rhodopsin[All Fields]'
p2790
tp2791
Rp2792
(dp2793
g12
g2789
sbstp2794
Rp2795
(dp2796
g12
VeSearchResult
p2797
sbag1
(g2
g3
(dp2798
VCount
p2799
g1
(g6
g7
S'5'
p2800
tp2801
Rp2802
(dp2803
g12
g2799
sbsVRetMax
p2804
g1
(g6
g7
g2800
tp2805
Rp2806
(dp2807
g12
g2804
sbsVIdList
p2808
g1
(g18
g19
(lp2809
g1
(g6
g7
S'80524378'
p2810
tp2811
Rp2812
(dp2813
g12
VId
p2814
sbag1
(g6
g7
S'134154846'
p2815
tp2816
Rp2817
(dp2818
g12
g2814
sbag1
(g6
g7
S'134154844'
p2819
tp2820
Rp2821
(dp2822
g12
g2814
sbag1
(g6
g7
S'129561549'
p2823
tp2824
Rp2825
(dp2826
g12
g2814
sbag1
(g6
g7
S'129561547'
p2827
tp2828
Rp2829
(dp2830
g12
g2814
sbatp2831
Rp2832
(dp2833
g12
g2808
sbsVTranslationStack
p2834
g1
(g18
g19
(lp2835
g1
(g2
g3
(dp2836
g2799
g1
(g6
g7
S'19'
p2837
tp2838
Rp2839
(dp2840
g12
g2799
sbsVField
p2841
g1
(g6
g7
S'Organism'
p2842
tp2843
Rp2844
(dp2845
g12
g2841
sbsVTerm
p2846
g1
(g6
g7
S'"Pagellus bellottii"[Organism]'
p2847
tp2848
Rp2849
(dp2850
g12
g2846
sbsVExplode
p2851
g1
(g6
g7
g67
tp2852
Rp2853
(dp2854
g12
g2851
sbstp2855
Rp2856
(dp2857
g12
VTermSet
p2858
sbag1
(g2
g3
(dp2859
g2799
g1
(g6
g7
S'351582'
p2860
tp2861
Rp2862
(dp2863
g12
g2799
sbsg2841
g1
(g6
g7
S'All Fields'
p2864
tp2865
Rp2866
(dp2867
g12
g2841
sbsg2846
g1
(g6
g7
S'Rhodopsin[All Fields]'
p2868
tp2869
Rp2870
(dp2871
g12
g2846
sbsg2851
g1
(g6
g7
g88
tp2872
Rp2873
(dp2874
g12
g2851
sbstp2875
Rp2876
(dp2877
g12
g2858
sbag1
(g6
g7
S'AND'
p2878
tp2879
Rp2880
(dp2881
g12
VOP
p2882
sbatp2883
Rp2884
(dp2885
g12
g2834
sbsVErrorList
p2886
g1
(g104
g3
(dp2887
VFieldNotFound
p2888
(lp2889
g1
(g6
g7
S'definition'
p2890
tp2891
Rp2892
(dp2893
g12
VFieldNotFound
p2894
sbasVPhraseNotFound
p2895
(lp2896
stp2897
Rp2898
(dp2899
g12
g2886
sg118
(lp2900
g2895
ag2888
asbsVTranslationSet
p2901
g1
(g18
g19
(lp2902
g1
(g2
g3
(dp2903
VTo
p2904
g1
(g6
g7
S'"Pagellus bellottii"[Organism]'
p2905
tp2906
Rp2907
(dp2908
g12
g2904
sbsVFrom
p2909
g1
(g6
g7
S'Pagellus bellottii[organism]'
p2910
tp2911
Rp2912
(dp2913
g12
g2909
sbstp2914
Rp2915
(dp2916
g12
VTranslation
p2917
sbatp2918
Rp2919
(dp2920
g12
g2901
sbsVRetStart
p2921
g1
(g6
g7
g141
tp2922
Rp2923
(dp2924
g12
g2921
sbsVQueryTranslation
p2925
g1
(g6
g7
S'"Pagellus bellottii"[Organism] AND Rhodopsin[All Fields]'
p2926
tp2927
Rp2928
(dp2929
g12
g2925
sbstp2930
Rp2931
(dp2932
g12
VeSearchResult
p2933
sbag1
(g2
g3
(dp2934
VCount
p2935
g1
(g6
g7
S'11'
p2936
tp2937
Rp2938
(dp2939
g12
g2935
sbsVRetMax
p2940
g1
(g6
g7
S'11'
p2941
tp2942
Rp2943
(dp2944
g12
g2940
sbsVIdList
p2945
g1
(g18
g19
(lp2946
g1
(g6
g7
S'159462293'
p2947
tp2948
Rp2949
(dp2950
g12
VId
p2951
sbag1
(g6
g7
S'159462291'
p2952
tp2953
Rp2954
(dp2955
g12
g2951
sbag1
(g6
g7
S'80524380'
p2956
tp2957
Rp2958
(dp2959
g12
g2951
sbag1
(g6
g7
S'154745167'
p2960
tp2961
Rp2962
(dp2963
g12
g2951
sbag1
(g6
g7
S'154745165'
p2964
tp2965
Rp2966
(dp2967
g12
g2951
sbag1
(g6
g7
S'133924038'
p2968
tp2969
Rp2970
(dp2971
g12
g2951
sbag1
(g6
g7
S'133924036'
p2972
tp2973
Rp2974
(dp2975
g12
g2951
sbag1
(g6
g7
S'133923786'
p2976
tp2977
Rp2978
(dp2979
g12
g2951
sbag1
(g6
g7
S'133923784'
p2980
tp2981
Rp2982
(dp2983
g12
g2951
sbag1
(g6
g7
S'133923506'
p2984
tp2985
Rp2986
(dp2987
g12
g2951
sbag1
(g6
g7
S'133923504'
p2988
tp2989
Rp2990
(dp2991
g12
g2951
sbatp2992
Rp2993
(dp2994
g12
g2945
sbsVTranslationStack
p2995
g1
(g18
g19
(lp2996
g1
(g2
g3
(dp2997
g2935
g1
(g6
g7
S'106'
p2998
tp2999
Rp3000
(dp3001
g12
g2935
sbsVField
p3002
g1
(g6
g7
S'Organism'
p3003
tp3004
Rp3005
(dp3006
g12
g3002
sbsVTerm
p3007
g1
(g6
g7
S'"Pagellus bogaraveo"[Organism]'
p3008
tp3009
Rp3010
(dp3011
g12
g3007
sbsVExplode
p3012
g1
(g6
g7
g67
tp3013
Rp3014
(dp3015
g12
g3012
sbstp3016
Rp3017
(dp3018
g12
VTermSet
p3019
sbag1
(g2
g3
(dp3020
g2935
g1
(g6
g7
S'351582'
p3021
tp3022
Rp3023
(dp3024
g12
g2935
sbsg3002
g1
(g6
g7
S'All Fields'
p3025
tp3026
Rp3027
(dp3028
g12
g3002
sbsg3007
g1
(g6
g7
S'Rhodopsin[All Fields]'
p3029
tp3030
Rp3031
(dp3032
g12
g3007
sbsg3012
g1
(g6
g7
g88
tp3033
Rp3034
(dp3035
g12
g3012
sbstp3036
Rp3037
(dp3038
g12
g3019
sbag1
(g6
g7
S'AND'
p3039
tp3040
Rp3041
(dp3042
g12
VOP
p3043
sbatp3044
Rp3045
(dp3046
g12
g2995
sbsVErrorList
p3047
g1
(g104
g3
(dp3048
VFieldNotFound
p3049
(lp3050
g1
(g6
g7
S'definition'
p3051
tp3052
Rp3053
(dp3054
g12
VFieldNotFound
p3055
sbasVPhraseNotFound
p3056
(lp3057
stp3058
Rp3059
(dp3060
g12
g3047
sg118
(lp3061
g3056
ag3049
asbsVTranslationSet
p3062
g1
(g18
g19
(lp3063
g1
(g2
g3
(dp3064
VTo
p3065
g1
(g6
g7
S'"Pagellus bogaraveo"[Organism]'
p3066
tp3067
Rp3068
(dp3069
g12
g3065
sbsVFrom
p3070
g1
(g6
g7
S'Pagellus bogaraveo[organism]'
p3071
tp3072
Rp3073
(dp3074
g12
g3070
sbstp3075
Rp3076
(dp3077
g12
VTranslation
p3078
sbatp3079
Rp3080
(dp3081
g12
g3062
sbsVRetStart
p3082
g1
(g6
g7
g141
tp3083
Rp3084
(dp3085
g12
g3082
sbsVQueryTranslation
p3086
g1
(g6
g7
S'"Pagellus bogaraveo"[Organism] AND Rhodopsin[All Fields]'
p3087
tp3088
Rp3089
(dp3090
g12
g3086
sbstp3091
Rp3092
(dp3093
g12
VeSearchResult
p3094
sbag1
(g2
g3
(dp3095
VCount
p3096
g1
(g6
g7
S'9'
p3097
tp3098
Rp3099
(dp3100
g12
g3096
sbsVRetMax
p3101
g1
(g6
g7
g3097
tp3102
Rp3103
(dp3104
g12
g3101
sbsVIdList
p3105
g1
(g18
g19
(lp3106
g1
(g6
g7
S'159462197'
p3107
tp3108
Rp3109
(dp3110
g12
VId
p3111
sbag1
(g6
g7
S'159462195'
p3112
tp3113
Rp3114
(dp3115
g12
g3111
sbag1
(g6
g7
S'80524382'
p3116
tp3117
Rp3118
(dp3119
g12
g3111
sbag1
(g6
g7
S'154745171'
p3120
tp3121
Rp3122
(dp3123
g12
g3111
sbag1
(g6
g7
S'154745169'
p3124
tp3125
Rp3126
(dp3127
g12
g3111
sbag1
(g6
g7
S'133924042'
p3128
tp3129
Rp3130
(dp3131
g12
g3111
sbag1
(g6
g7
S'133924040'
p3132
tp3133
Rp3134
(dp3135
g12
g3111
sbag1
(g6
g7
S'133923790'
p3136
tp3137
Rp3138
(dp3139
g12
g3111
sbag1
(g6
g7
S'133923788'
p3140
tp3141
Rp3142
(dp3143
g12
g3111
sbatp3144
Rp3145
(dp3146
g12
g3105
sbsVTranslationStack
p3147
g1
(g18
g19
(lp3148
g1
(g2
g3
(dp3149
g3096
g1
(g6
g7
S'282'
p3150
tp3151
Rp3152
(dp3153
g12
g3096
sbsVField
p3154
g1
(g6
g7
S'Organism'
p3155
tp3156
Rp3157
(dp3158
g12
g3154
sbsVTerm
p3159
g1
(g6
g7
S'"Pagellus erythrinus"[Organism]'
p3160
tp3161
Rp3162
(dp3163
g12
g3159
sbsVExplode
p3164
g1
(g6
g7
g67
tp3165
Rp3166
(dp3167
g12
g3164
sbstp3168
Rp3169
(dp3170
g12
VTermSet
p3171
sbag1
(g2
g3
(dp3172
g3096
g1
(g6
g7
S'351582'
p3173
tp3174
Rp3175
(dp3176
g12
g3096
sbsg3154
g1
(g6
g7
S'All Fields'
p3177
tp3178
Rp3179
(dp3180
g12
g3154
sbsg3159
g1
(g6
g7
S'Rhodopsin[All Fields]'
p3181
tp3182
Rp3183
(dp3184
g12
g3159
sbsg3164
g1
(g6
g7
g88
tp3185
Rp3186
(dp3187
g12
g3164
sbstp3188
Rp3189
(dp3190
g12
g3171
sbag1
(g6
g7
S'AND'
p3191
tp3192
Rp3193
(dp3194
g12
VOP
p3195
sbatp3196
Rp3197
(dp3198
g12
g3147
sbsVErrorList
p3199
g1
(g104
g3
(dp3200
VFieldNotFound
p3201
(lp3202
g1
(g6
g7
S'definition'
p3203
tp3204
Rp3205
(dp3206
g12
VFieldNotFound
p3207
sbasVPhraseNotFound
p3208
(lp3209
stp3210
Rp3211
(dp3212
g12
g3199
sg118
(lp3213
g3208
ag3201
asbsVTranslationSet
p3214
g1
(g18
g19
(lp3215
g1
(g2
g3
(dp3216
VTo
p3217
g1
(g6
g7
S'"Pagellus erythrinus"[Organism]'
p3218
tp3219
Rp3220
(dp3221
g12
g3217
sbsVFrom
p3222
g1
(g6
g7
S'Pagellus erythrinus[organism]'
p3223
tp3224
Rp3225
(dp3226
g12
g3222
sbstp3227
Rp3228
(dp3229
g12
VTranslation
p3230
sbatp3231
Rp3232
(dp3233
g12
g3214
sbsVRetStart
p3234
g1
(g6
g7
g141
tp3235
Rp3236
(dp3237
g12
g3234
sbsVQueryTranslation
p3238
g1
(g6
g7
S'"Pagellus erythrinus"[Organism] AND Rhodopsin[All Fields]'
p3239
tp3240
Rp3241
(dp3242
g12
g3238
sbstp3243
Rp3244
(dp3245
g12
VeSearchResult
p3246
sbag1
(g2
g3
(dp3247
VCount
p3248
g1
(g6
g7
g300
tp3249
Rp3250
(dp3251
g12
g3248
sbsVRetMax
p3252
g1
(g6
g7
g300
tp3253
Rp3254
(dp3255
g12
g3252
sbsVIdList
p3256
g1
(g18
g19
(lp3257
g1
(g6
g7
S'393007835'
p3258
tp3259
Rp3260
(dp3261
g12
VId
p3262
sbatp3263
Rp3264
(dp3265
g12
g3256
sbsVTranslationStack
p3266
g1
(g18
g19
(lp3267
g1
(g2
g3
(dp3268
g3248
g1
(g6
g7
S'140'
p3269
tp3270
Rp3271
(dp3272
g12
g3248
sbsVField
p3273
g1
(g6
g7
S'Organism'
p3274
tp3275
Rp3276
(dp3277
g12
g3273
sbsVTerm
p3278
g1
(g6
g7
S'"Pagrus auratus"[Organism]'
p3279
tp3280
Rp3281
(dp3282
g12
g3278
sbsVExplode
p3283
g1
(g6
g7
g67
tp3284
Rp3285
(dp3286
g12
g3283
sbstp3287
Rp3288
(dp3289
g12
VTermSet
p3290
sbag1
(g2
g3
(dp3291
g3248
g1
(g6
g7
S'351582'
p3292
tp3293
Rp3294
(dp3295
g12
g3248
sbsg3273
g1
(g6
g7
S'All Fields'
p3296
tp3297
Rp3298
(dp3299
g12
g3273
sbsg3278
g1
(g6
g7
S'Rhodopsin[All Fields]'
p3300
tp3301
Rp3302
(dp3303
g12
g3278
sbsg3283
g1
(g6
g7
g88
tp3304
Rp3305
(dp3306
g12
g3283
sbstp3307
Rp3308
(dp3309
g12
g3290
sbag1
(g6
g7
S'AND'
p3310
tp3311
Rp3312
(dp3313
g12
VOP
p3314
sbatp3315
Rp3316
(dp3317
g12
g3266
sbsVErrorList
p3318
g1
(g104
g3
(dp3319
VFieldNotFound
p3320
(lp3321
g1
(g6
g7
S'definition'
p3322
tp3323
Rp3324
(dp3325
g12
VFieldNotFound
p3326
sbasVPhraseNotFound
p3327
(lp3328
stp3329
Rp3330
(dp3331
g12
g3318
sg118
(lp3332
g3327
ag3320
asbsVTranslationSet
p3333
g1
(g18
g19
(lp3334
g1
(g2
g3
(dp3335
VTo
p3336
g1
(g6
g7
S'"Pagrus auratus"[Organism]'
p3337
tp3338
Rp3339
(dp3340
g12
g3336
sbsVFrom
p3341
g1
(g6
g7
S'Pagrus auratus[organism]'
p3342
tp3343
Rp3344
(dp3345
g12
g3341
sbstp3346
Rp3347
(dp3348
g12
VTranslation
p3349
sbatp3350
Rp3351
(dp3352
g12
g3333
sbsVRetStart
p3353
g1
(g6
g7
g141
tp3354
Rp3355
(dp3356
g12
g3353
sbsVQueryTranslation
p3357
g1
(g6
g7
S'"Pagrus auratus"[Organism] AND Rhodopsin[All Fields]'
p3358
tp3359
Rp3360
(dp3361
g12
g3357
sbstp3362
Rp3363
(dp3364
g12
VeSearchResult
p3365
sbag1
(g2
g3
(dp3366
VCount
p3367
g1
(g6
g7
g300
tp3368
Rp3369
(dp3370
g12
g3367
sbsVRetMax
p3371
g1
(g6
g7
g300
tp3372
Rp3373
(dp3374
g12
g3371
sbsVIdList
p3375
g1
(g18
g19
(lp3376
g1
(g6
g7
S'80524384'
p3377
tp3378
Rp3379
(dp3380
g12
VId
p3381
sbatp3382
Rp3383
(dp3384
g12
g3375
sbsVTranslationStack
p3385
g1
(g18
g19
(lp3386
g1
(g2
g3
(dp3387
g3367
g1
(g6
g7
S'95'
p3388
tp3389
Rp3390
(dp3391
g12
g3367
sbsVField
p3392
g1
(g6
g7
S'Organism'
p3393
tp3394
Rp3395
(dp3396
g12
g3392
sbsVTerm
p3397
g1
(g6
g7
S'"Pagrus auriga"[Organism]'
p3398
tp3399
Rp3400
(dp3401
g12
g3397
sbsVExplode
p3402
g1
(g6
g7
g67
tp3403
Rp3404
(dp3405
g12
g3402
sbstp3406
Rp3407
(dp3408
g12
VTermSet
p3409
sbag1
(g2
g3
(dp3410
g3367
g1
(g6
g7
S'351582'
p3411
tp3412
Rp3413
(dp3414
g12
g3367
sbsg3392
g1
(g6
g7
S'All Fields'
p3415
tp3416
Rp3417
(dp3418
g12
g3392
sbsg3397
g1
(g6
g7
S'Rhodopsin[All Fields]'
p3419
tp3420
Rp3421
(dp3422
g12
g3397
sbsg3402
g1
(g6
g7
g88
tp3423
Rp3424
(dp3425
g12
g3402
sbstp3426
Rp3427
(dp3428
g12
g3409
sbag1
(g6
g7
S'AND'
p3429
tp3430
Rp3431
(dp3432
g12
VOP
p3433
sbatp3434
Rp3435
(dp3436
g12
g3385
sbsVErrorList
p3437
g1
(g104
g3
(dp3438
VFieldNotFound
p3439
(lp3440
g1
(g6
g7
S'definition'
p3441
tp3442
Rp3443
(dp3444
g12
VFieldNotFound
p3445
sbasVPhraseNotFound
p3446
(lp3447
stp3448
Rp3449
(dp3450
g12
g3437
sg118
(lp3451
g3446
ag3439
asbsVTranslationSet
p3452
g1
(g18
g19
(lp3453
g1
(g2
g3
(dp3454
VTo
p3455
g1
(g6
g7
S'"Pagrus auriga"[Organism]'
p3456
tp3457
Rp3458
(dp3459
g12
g3455
sbsVFrom
p3460
g1
(g6
g7
S'Pagrus auriga[organism]'
p3461
tp3462
Rp3463
(dp3464
g12
g3460
sbstp3465
Rp3466
(dp3467
g12
VTranslation
p3468
sbatp3469
Rp3470
(dp3471
g12
g3452
sbsVRetStart
p3472
g1
(g6
g7
g141
tp3473
Rp3474
(dp3475
g12
g3472
sbsVQueryTranslation
p3476
g1
(g6
g7
S'"Pagrus auriga"[Organism] AND Rhodopsin[All Fields]'
p3477
tp3478
Rp3479
(dp3480
g12
g3476
sbstp3481
Rp3482
(dp3483
g12
VeSearchResult
p3484
sbag1
(g2
g3
(dp3485
VCount
p3486
g1
(g6
g7
g300
tp3487
Rp3488
(dp3489
g12
g3486
sbsVRetMax
p3490
g1
(g6
g7
g300
tp3491
Rp3492
(dp3493
g12
g3490
sbsVIdList
p3494
g1
(g18
g19
(lp3495
g1
(g6
g7
S'80524386'
p3496
tp3497
Rp3498
(dp3499
g12
VId
p3500
sbatp3501
Rp3502
(dp3503
g12
g3494
sbsVTranslationStack
p3504
g1
(g18
g19
(lp3505
g1
(g2
g3
(dp3506
g3486
g1
(g6
g7
S'33'
p3507
tp3508
Rp3509
(dp3510
g12
g3486
sbsVField
p3511
g1
(g6
g7
S'Organism'
p3512
tp3513
Rp3514
(dp3515
g12
g3511
sbsVTerm
p3516
g1
(g6
g7
S'"Pagrus caeruleostictus"[Organism]'
p3517
tp3518
Rp3519
(dp3520
g12
g3516
sbsVExplode
p3521
g1
(g6
g7
g67
tp3522
Rp3523
(dp3524
g12
g3521
sbstp3525
Rp3526
(dp3527
g12
VTermSet
p3528
sbag1
(g2
g3
(dp3529
g3486
g1
(g6
g7
S'351582'
p3530
tp3531
Rp3532
(dp3533
g12
g3486
sbsg3511
g1
(g6
g7
S'All Fields'
p3534
tp3535
Rp3536
(dp3537
g12
g3511
sbsg3516
g1
(g6
g7
S'Rhodopsin[All Fields]'
p3538
tp3539
Rp3540
(dp3541
g12
g3516
sbsg3521
g1
(g6
g7
g88
tp3542
Rp3543
(dp3544
g12
g3521
sbstp3545
Rp3546
(dp3547
g12
g3528
sbag1
(g6
g7
S'AND'
p3548
tp3549
Rp3550
(dp3551
g12
VOP
p3552
sbatp3553
Rp3554
(dp3555
g12
g3504
sbsVErrorList
p3556
g1
(g104
g3
(dp3557
VFieldNotFound
p3558
(lp3559
g1
(g6
g7
S'definition'
p3560
tp3561
Rp3562
(dp3563
g12
VFieldNotFound
p3564
sbasVPhraseNotFound
p3565
(lp3566
stp3567
Rp3568
(dp3569
g12
g3556
sg118
(lp3570
g3565
ag3558
asbsVTranslationSet
p3571
g1
(g18
g19
(lp3572
g1
(g2
g3
(dp3573
VTo
p3574
g1
(g6
g7
S'"Pagrus caeruleostictus"[Organism]'
p3575
tp3576
Rp3577
(dp3578
g12
g3574
sbsVFrom
p3579
g1
(g6
g7
S'Pagrus caeruleostictus[organism]'
p3580
tp3581
Rp3582
(dp3583
g12
g3579
sbstp3584
Rp3585
(dp3586
g12
VTranslation
p3587
sbatp3588
Rp3589
(dp3590
g12
g3571
sbsVRetStart
p3591
g1
(g6
g7
g141
tp3592
Rp3593
(dp3594
g12
g3591
sbsVQueryTranslation
p3595
g1
(g6
g7
S'"Pagrus caeruleostictus"[Organism] AND Rhodopsin[All Fields]'
p3596
tp3597
Rp3598
(dp3599
g12
g3595
sbstp3600
Rp3601
(dp3602
g12
VeSearchResult
p3603
sbag1
(g2
g3
(dp3604
VCount
p3605
g1
(g6
g7
g8
tp3606
Rp3607
(dp3608
g12
g3605
sbsVRetMax
p3609
g1
(g6
g7
g8
tp3610
Rp3611
(dp3612
g12
g3609
sbsVIdList
p3613
g1
(g18
g19
(lp3614
g1
(g6
g7
S'389608072'
p3615
tp3616
Rp3617
(dp3618
g12
VId
p3619
sbag1
(g6
g7
S'386872535'
p3620
tp3621
Rp3622
(dp3623
g12
g3619
sbag1
(g6
g7
S'386872529'
p3624
tp3625
Rp3626
(dp3627
g12
g3619
sbag1
(g6
g7
S'386872523'
p3628
tp3629
Rp3630
(dp3631
g12
g3619
sbag1
(g6
g7
S'386872517'
p3632
tp3633
Rp3634
(dp3635
g12
g3619
sbag1
(g6
g7
S'386872511'
p3636
tp3637
Rp3638
(dp3639
g12
g3619
sbatp3640
Rp3641
(dp3642
g12
g3613
sbsVTranslationStack
p3643
g1
(g18
g19
(lp3644
g1
(g2
g3
(dp3645
g3605
g1
(g6
g7
S'974'
p3646
tp3647
Rp3648
(dp3649
g12
g3605
sbsVField
p3650
g1
(g6
g7
S'Organism'
p3651
tp3652
Rp3653
(dp3654
g12
g3650
sbsVTerm
p3655
g1
(g6
g7
S'"Pagrus major"[Organism]'
p3656
tp3657
Rp3658
(dp3659
g12
g3655
sbsVExplode
p3660
g1
(g6
g7
g67
tp3661
Rp3662
(dp3663
g12
g3660
sbstp3664
Rp3665
(dp3666
g12
VTermSet
p3667
sbag1
(g2
g3
(dp3668
g3605
g1
(g6
g7
S'351582'
p3669
tp3670
Rp3671
(dp3672
g12
g3605
sbsg3650
g1
(g6
g7
S'All Fields'
p3673
tp3674
Rp3675
(dp3676
g12
g3650
sbsg3655
g1
(g6
g7
S'Rhodopsin[All Fields]'
p3677
tp3678
Rp3679
(dp3680
g12
g3655
sbsg3660
g1
(g6
g7
g88
tp3681
Rp3682
(dp3683
g12
g3660
sbstp3684
Rp3685
(dp3686
g12
g3667
sbag1
(g6
g7
S'AND'
p3687
tp3688
Rp3689
(dp3690
g12
VOP
p3691
sbatp3692
Rp3693
(dp3694
g12
g3643
sbsVErrorList
p3695
g1
(g104
g3
(dp3696
VFieldNotFound
p3697
(lp3698
g1
(g6
g7
S'definition'
p3699
tp3700
Rp3701
(dp3702
g12
VFieldNotFound
p3703
sbasVPhraseNotFound
p3704
(lp3705
stp3706
Rp3707
(dp3708
g12
g3695
sg118
(lp3709
g3704
ag3697
asbsVTranslationSet
p3710
g1
(g18
g19
(lp3711
g1
(g2
g3
(dp3712
VTo
p3713
g1
(g6
g7
S'"Pagrus major"[Organism]'
p3714
tp3715
Rp3716
(dp3717
g12
g3713
sbsVFrom
p3718
g1
(g6
g7
S'Pagrus major[organism]'
p3719
tp3720
Rp3721
(dp3722
g12
g3718
sbstp3723
Rp3724
(dp3725
g12
VTranslation
p3726
sbatp3727
Rp3728
(dp3729
g12
g3710
sbsVRetStart
p3730
g1
(g6
g7
g141
tp3731
Rp3732
(dp3733
g12
g3730
sbsVQueryTranslation
p3734
g1
(g6
g7
S'"Pagrus major"[Organism] AND Rhodopsin[All Fields]'
p3735
tp3736
Rp3737
(dp3738
g12
g3734
sbstp3739
Rp3740
(dp3741
g12
VeSearchResult
p3742
sbag1
(g2
g3
(dp3743
VCount
p3744
g1
(g6
g7
g156
tp3745
Rp3746
(dp3747
g12
g3744
sbsVRetMax
p3748
g1
(g6
g7
g156
tp3749
Rp3750
(dp3751
g12
g3748
sbsVIdList
p3752
g1
(g18
g19
(lp3753
g1
(g6
g7
S'80524388'
p3754
tp3755
Rp3756
(dp3757
g12
VId
p3758
sbag1
(g6
g7
S'154745175'
p3759
tp3760
Rp3761
(dp3762
g12
g3758
sbag1
(g6
g7
S'154745173'
p3763
tp3764
Rp3765
(dp3766
g12
g3758
sbag1
(g6
g7
S'133924046'
p3767
tp3768
Rp3769
(dp3770
g12
g3758
sbag1
(g6
g7
S'133924044'
p3771
tp3772
Rp3773
(dp3774
g12
g3758
sbag1
(g6
g7
S'133923794'
p3775
tp3776
Rp3777
(dp3778
g12
g3758
sbag1
(g6
g7
S'133923792'
p3779
tp3780
Rp3781
(dp3782
g12
g3758
sbatp3783
Rp3784
(dp3785
g12
g3752
sbsVTranslationStack
p3786
g1
(g18
g19
(lp3787
g1
(g2
g3
(dp3788
g3744
g1
(g6
g7
S'187'
p3789
tp3790
Rp3791
(dp3792
g12
g3744
sbsVField
p3793
g1
(g6
g7
S'Organism'
p3794
tp3795
Rp3796
(dp3797
g12
g3793
sbsVTerm
p3798
g1
(g6
g7
S'"Pagrus pagrus"[Organism]'
p3799
tp3800
Rp3801
(dp3802
g12
g3798
sbsVExplode
p3803
g1
(g6
g7
g67
tp3804
Rp3805
(dp3806
g12
g3803
sbstp3807
Rp3808
(dp3809
g12
VTermSet
p3810
sbag1
(g2
g3
(dp3811
g3744
g1
(g6
g7
S'351582'
p3812
tp3813
Rp3814
(dp3815
g12
g3744
sbsg3793
g1
(g6
g7
S'All Fields'
p3816
tp3817
Rp3818
(dp3819
g12
g3793
sbsg3798
g1
(g6
g7
S'Rhodopsin[All Fields]'
p3820
tp3821
Rp3822
(dp3823
g12
g3798
sbsg3803
g1
(g6
g7
g88
tp3824
Rp3825
(dp3826
g12
g3803
sbstp3827
Rp3828
(dp3829
g12
g3810
sbag1
(g6
g7
S'AND'
p3830
tp3831
Rp3832
(dp3833
g12
VOP
p3834
sbatp3835
Rp3836
(dp3837
g12
g3786
sbsVErrorList
p3838
g1
(g104
g3
(dp3839
VFieldNotFound
p3840
(lp3841
g1
(g6
g7
S'definition'
p3842
tp3843
Rp3844
(dp3845
g12
VFieldNotFound
p3846
sbasVPhraseNotFound
p3847
(lp3848
stp3849
Rp3850
(dp3851
g12
g3838
sg118
(lp3852
g3847
ag3840
asbsVTranslationSet
p3853
g1
(g18
g19
(lp3854
g1
(g2
g3
(dp3855
VTo
p3856
g1
(g6
g7
S'"Pagrus pagrus"[Organism]'
p3857
tp3858
Rp3859
(dp3860
g12
g3856
sbsVFrom
p3861
g1
(g6
g7
S'Pagrus pagrus[organism]'
p3862
tp3863
Rp3864
(dp3865
g12
g3861
sbstp3866
Rp3867
(dp3868
g12
VTranslation
p3869
sbatp3870
Rp3871
(dp3872
g12
g3853
sbsVRetStart
p3873
g1
(g6
g7
g141
tp3874
Rp3875
(dp3876
g12
g3873
sbsVQueryTranslation
p3877
g1
(g6
g7
S'"Pagrus pagrus"[Organism] AND Rhodopsin[All Fields]'
p3878
tp3879
Rp3880
(dp3881
g12
g3877
sbstp3882
Rp3883
(dp3884
g12
VeSearchResult
p3885
sbag1
(g2
g3
(dp3886
VCount
p3887
g1
(g6
g7
g1158
tp3888
Rp3889
(dp3890
g12
g3887
sbsVRetMax
p3891
g1
(g6
g7
g1158
tp3892
Rp3893
(dp3894
g12
g3891
sbsVIdList
p3895
g1
(g18
g19
(lp3896
g1
(g6
g7
S'433689277'
p3897
tp3898
Rp3899
(dp3900
g12
VId
p3901
sbag1
(g6
g7
S'145412174'
p3902
tp3903
Rp3904
(dp3905
g12
g3901
sbag1
(g6
g7
S'115291419'
p3906
tp3907
Rp3908
(dp3909
g12
g3901
sbatp3910
Rp3911
(dp3912
g12
g3895
sbsVTranslationStack
p3913
g1
(g18
g19
(lp3914
g1
(g2
g3
(dp3915
g3887
g1
(g6
g7
S'116'
p3916
tp3917
Rp3918
(dp3919
g12
g3887
sbsVField
p3920
g1
(g6
g7
S'Organism'
p3921
tp3922
Rp3923
(dp3924
g12
g3920
sbsVTerm
p3925
g1
(g6
g7
S'"Rhabdosargus sarba"[Organism]'
p3926
tp3927
Rp3928
(dp3929
g12
g3925
sbsVExplode
p3930
g1
(g6
g7
g67
tp3931
Rp3932
(dp3933
g12
g3930
sbstp3934
Rp3935
(dp3936
g12
VTermSet
p3937
sbag1
(g2
g3
(dp3938
g3887
g1
(g6
g7
S'351582'
p3939
tp3940
Rp3941
(dp3942
g12
g3887
sbsg3920
g1
(g6
g7
S'All Fields'
p3943
tp3944
Rp3945
(dp3946
g12
g3920
sbsg3925
g1
(g6
g7
S'Rhodopsin[All Fields]'
p3947
tp3948
Rp3949
(dp3950
g12
g3925
sbsg3930
g1
(g6
g7
g88
tp3951
Rp3952
(dp3953
g12
g3930
sbstp3954
Rp3955
(dp3956
g12
g3937
sbag1
(g6
g7
S'AND'
p3957
tp3958
Rp3959
(dp3960
g12
VOP
p3961
sbatp3962
Rp3963
(dp3964
g12
g3913
sbsVErrorList
p3965
g1
(g104
g3
(dp3966
VFieldNotFound
p3967
(lp3968
g1
(g6
g7
S'definition'
p3969
tp3970
Rp3971
(dp3972
g12
VFieldNotFound
p3973
sbasVPhraseNotFound
p3974
(lp3975
stp3976
Rp3977
(dp3978
g12
g3965
sg118
(lp3979
g3974
ag3967
asbsVTranslationSet
p3980
g1
(g18
g19
(lp3981
g1
(g2
g3
(dp3982
VTo
p3983
g1
(g6
g7
S'"Rhabdosargus sarba"[Organism]'
p3984
tp3985
Rp3986
(dp3987
g12
g3983
sbsVFrom
p3988
g1
(g6
g7
S'Rhabdosargus sarba[organism]'
p3989
tp3990
Rp3991
(dp3992
g12
g3988
sbstp3993
Rp3994
(dp3995
g12
VTranslation
p3996
sbatp3997
Rp3998
(dp3999
g12
g3980
sbsVRetStart
p4000
g1
(g6
g7
g141
tp4001
Rp4002
(dp4003
g12
g4000
sbsVQueryTranslation
p4004
g1
(g6
g7
S'"Rhabdosargus sarba"[Organism] AND Rhodopsin[All Fields]'
p4005
tp4006
Rp4007
(dp4008
g12
g4004
sbstp4009
Rp4010
(dp4011
g12
VeSearchResult
p4012
sbag1
(g2
g3
(dp4013
VCount
p4014
g1
(g6
g7
S'8'
p4015
tp4016
Rp4017
(dp4018
g12
g4014
sbsVRetMax
p4019
g1
(g6
g7
g4015
tp4020
Rp4021
(dp4022
g12
g4019
sbsVIdList
p4023
g1
(g18
g19
(lp4024
g1
(g6
g7
S'80524420'
p4025
tp4026
Rp4027
(dp4028
g12
VId
p4029
sbag1
(g6
g7
S'154745203'
p4030
tp4031
Rp4032
(dp4033
g12
g4029
sbag1
(g6
g7
S'154745201'
p4034
tp4035
Rp4036
(dp4037
g12
g4029
sbag1
(g6
g7
S'133924070'
p4038
tp4039
Rp4040
(dp4041
g12
g4029
sbag1
(g6
g7
S'133923822'
p4042
tp4043
Rp4044
(dp4045
g12
g4029
sbag1
(g6
g7
S'133923820'
p4046
tp4047
Rp4048
(dp4049
g12
g4029
sbag1
(g6
g7
S'444292153'
p4050
tp4051
Rp4052
(dp4053
g12
g4029
sbag1
(g6
g7
S'4210846'
p4054
tp4055
Rp4056
(dp4057
g12
g4029
sbatp4058
Rp4059
(dp4060
g12
g4023
sbsVTranslationStack
p4061
g1
(g18
g19
(lp4062
g1
(g2
g3
(dp4063
g4014
g1
(g6
g7
S'225'
p4064
tp4065
Rp4066
(dp4067
g12
g4014
sbsVField
p4068
g1
(g6
g7
S'Organism'
p4069
tp4070
Rp4071
(dp4072
g12
g4068
sbsVTerm
p4073
g1
(g6
g7
S'"Sarpa salpa"[Organism]'
p4074
tp4075
Rp4076
(dp4077
g12
g4073
sbsVExplode
p4078
g1
(g6
g7
g67
tp4079
Rp4080
(dp4081
g12
g4078
sbstp4082
Rp4083
(dp4084
g12
VTermSet
p4085
sbag1
(g2
g3
(dp4086
g4014
g1
(g6
g7
S'351582'
p4087
tp4088
Rp4089
(dp4090
g12
g4014
sbsg4068
g1
(g6
g7
S'All Fields'
p4091
tp4092
Rp4093
(dp4094
g12
g4068
sbsg4073
g1
(g6
g7
S'Rhodopsin[All Fields]'
p4095
tp4096
Rp4097
(dp4098
g12
g4073
sbsg4078
g1
(g6
g7
g88
tp4099
Rp4100
(dp4101
g12
g4078
sbstp4102
Rp4103
(dp4104
g12
g4085
sbag1
(g6
g7
S'AND'
p4105
tp4106
Rp4107
(dp4108
g12
VOP
p4109
sbatp4110
Rp4111
(dp4112
g12
g4061
sbsVErrorList
p4113
g1
(g104
g3
(dp4114
VFieldNotFound
p4115
(lp4116
g1
(g6
g7
S'definition'
p4117
tp4118
Rp4119
(dp4120
g12
VFieldNotFound
p4121
sbasVPhraseNotFound
p4122
(lp4123
stp4124
Rp4125
(dp4126
g12
g4113
sg118
(lp4127
g4122
ag4115
asbsVTranslationSet
p4128
g1
(g18
g19
(lp4129
g1
(g2
g3
(dp4130
VTo
p4131
g1
(g6
g7
S'"Sarpa salpa"[Organism]'
p4132
tp4133
Rp4134
(dp4135
g12
g4131
sbsVFrom
p4136
g1
(g6
g7
S'Sarpa salpa[organism]'
p4137
tp4138
Rp4139
(dp4140
g12
g4136
sbstp4141
Rp4142
(dp4143
g12
VTranslation
p4144
sbatp4145
Rp4146
(dp4147
g12
g4128
sbsVRetStart
p4148
g1
(g6
g7
g141
tp4149
Rp4150
(dp4151
g12
g4148
sbsVQueryTranslation
p4152
g1
(g6
g7
S'"Sarpa salpa"[Organism] AND Rhodopsin[All Fields]'
p4153
tp4154
Rp4155
(dp4156
g12
g4152
sbstp4157
Rp4158
(dp4159
g12
VeSearchResult
p4160
sbag1
(g2
g3
(dp4161
VCount
p4162
g1
(g6
g7
S'24'
p4163
tp4164
Rp4165
(dp4166
g12
g4162
sbsVRetMax
p4167
g1
(g6
g7
S'20'
p4168
tp4169
Rp4170
(dp4171
g12
g4167
sbsVIdList
p4172
g1
(g18
g19
(lp4173
g1
(g6
g7
S'161089215'
p4174
tp4175
Rp4176
(dp4177
g12
VId
p4178
sbag1
(g6
g7
S'161089213'
p4179
tp4180
Rp4181
(dp4182
g12
g4178
sbag1
(g6
g7
S'161089211'
p4183
tp4184
Rp4185
(dp4186
g12
g4178
sbag1
(g6
g7
S'159462321'
p4187
tp4188
Rp4189
(dp4190
g12
g4178
sbag1
(g6
g7
S'159462319'
p4191
tp4192
Rp4193
(dp4194
g12
g4178
sbag1
(g6
g7
S'80524446'
p4195
tp4196
Rp4197
(dp4198
g12
g4178
sbag1
(g6
g7
S'46451446'
p4199
tp4200
Rp4201
(dp4202
g12
g4178
sbag1
(g6
g7
S'117650725'
p4203
tp4204
Rp4205
(dp4206
g12
g4178
sbag1
(g6
g7
S'133924122'
p4207
tp4208
Rp4209
(dp4210
g12
g4178
sbag1
(g6
g7
S'133924120'
p4211
tp4212
Rp4213
(dp4214
g12
g4178
sbag1
(g6
g7
S'133923550'
p4215
tp4216
Rp4217
(dp4218
g12
g4178
sbag1
(g6
g7
S'133923548'
p4219
tp4220
Rp4221
(dp4222
g12
g4178
sbag1
(g6
g7
S'966207690'
p4223
tp4224
Rp4225
(dp4226
g12
g4178
sbag1
(g6
g7
S'529485005'
p4227
tp4228
Rp4229
(dp4230
g12
g4178
sbag1
(g6
g7
S'512772526'
p4231
tp4232
Rp4233
(dp4234
g12
g4178
sbag1
(g6
g7
S'512772524'
p4235
tp4236
Rp4237
(dp4238
g12
g4178
sbag1
(g6
g7
S'698176007'
p4239
tp4240
Rp4241
(dp4242
g12
g4178
sbag1
(g6
g7
S'698176005'
p4243
tp4244
Rp4245
(dp4246
g12
g4178
sbag1
(g6
g7
S'698176003'
p4247
tp4248
Rp4249
(dp4250
g12
g4178
sbag1
(g6
g7
S'529125470'
p4251
tp4252
Rp4253
(dp4254
g12
g4178
sbatp4255
Rp4256
(dp4257
g12
g4172
sbsVTranslationStack
p4258
g1
(g18
g19
(lp4259
g1
(g2
g3
(dp4260
g4162
g1
(g6
g7
S'2062'
p4261
tp4262
Rp4263
(dp4264
g12
g4162
sbsVField
p4265
g1
(g6
g7
S'Organism'
p4266
tp4267
Rp4268
(dp4269
g12
g4265
sbsVTerm
p4270
g1
(g6
g7
S'"Sparus aurata"[Organism]'
p4271
tp4272
Rp4273
(dp4274
g12
g4270
sbsVExplode
p4275
g1
(g6
g7
g67
tp4276
Rp4277
(dp4278
g12
g4275
sbstp4279
Rp4280
(dp4281
g12
VTermSet
p4282
sbag1
(g2
g3
(dp4283
g4162
g1
(g6
g7
S'351582'
p4284
tp4285
Rp4286
(dp4287
g12
g4162
sbsg4265
g1
(g6
g7
S'All Fields'
p4288
tp4289
Rp4290
(dp4291
g12
g4265
sbsg4270
g1
(g6
g7
S'Rhodopsin[All Fields]'
p4292
tp4293
Rp4294
(dp4295
g12
g4270
sbsg4275
g1
(g6
g7
g88
tp4296
Rp4297
(dp4298
g12
g4275
sbstp4299
Rp4300
(dp4301
g12
g4282
sbag1
(g6
g7
S'AND'
p4302
tp4303
Rp4304
(dp4305
g12
VOP
p4306
sbatp4307
Rp4308
(dp4309
g12
g4258
sbsVErrorList
p4310
g1
(g104
g3
(dp4311
VFieldNotFound
p4312
(lp4313
g1
(g6
g7
S'definition'
p4314
tp4315
Rp4316
(dp4317
g12
VFieldNotFound
p4318
sbasVPhraseNotFound
p4319
(lp4320
stp4321
Rp4322
(dp4323
g12
g4310
sg118
(lp4324
g4319
ag4312
asbsVTranslationSet
p4325
g1
(g18
g19
(lp4326
g1
(g2
g3
(dp4327
VTo
p4328
g1
(g6
g7
S'"Sparus aurata"[Organism]'
p4329
tp4330
Rp4331
(dp4332
g12
g4328
sbsVFrom
p4333
g1
(g6
g7
S'Sparus aurata[organism]'
p4334
tp4335
Rp4336
(dp4337
g12
g4333
sbstp4338
Rp4339
(dp4340
g12
VTranslation
p4341
sbatp4342
Rp4343
(dp4344
g12
g4325
sbsVRetStart
p4345
g1
(g6
g7
g141
tp4346
Rp4347
(dp4348
g12
g4345
sbsVQueryTranslation
p4349
g1
(g6
g7
S'"Sparus aurata"[Organism] AND Rhodopsin[All Fields]'
p4350
tp4351
Rp4352
(dp4353
g12
g4349
sbstp4354
Rp4355
(dp4356
g12
VeSearchResult
p4357
sbag1
(g2
g3
(dp4358
VCount
p4359
g1
(g6
g7
g156
tp4360
Rp4361
(dp4362
g12
g4359
sbsVRetMax
p4363
g1
(g6
g7
g156
tp4364
Rp4365
(dp4366
g12
g4363
sbsVIdList
p4367
g1
(g18
g19
(lp4368
g1
(g6
g7
S'154745251'
p4369
tp4370
Rp4371
(dp4372
g12
VId
p4373
sbag1
(g6
g7
S'154745249'
p4374
tp4375
Rp4376
(dp4377
g12
g4373
sbag1
(g6
g7
S'133924134'
p4378
tp4379
Rp4380
(dp4381
g12
g4373
sbag1
(g6
g7
S'133924132'
p4382
tp4383
Rp4384
(dp4385
g12
g4373
sbag1
(g6
g7
S'133924130'
p4386
tp4387
Rp4388
(dp4389
g12
g4373
sbag1
(g6
g7
S'133924128'
p4390
tp4391
Rp4392
(dp4393
g12
g4373
sbag1
(g6
g7
S'482514143'
p4394
tp4395
Rp4396
(dp4397
g12
g4373
sbatp4398
Rp4399
(dp4400
g12
g4367
sbsVTranslationStack
p4401
g1
(g18
g19
(lp4402
g1
(g2
g3
(dp4403
g4359
g1
(g6
g7
S'65'
p4404
tp4405
Rp4406
(dp4407
g12
g4359
sbsVField
p4408
g1
(g6
g7
S'Organism'
p4409
tp4410
Rp4411
(dp4412
g12
g4408
sbsVTerm
p4413
g1
(g6
g7
S'"Spicara maena"[Organism]'
p4414
tp4415
Rp4416
(dp4417
g12
g4413
sbsVExplode
p4418
g1
(g6
g7
g67
tp4419
Rp4420
(dp4421
g12
g4418
sbstp4422
Rp4423
(dp4424
g12
VTermSet
p4425
sbag1
(g2
g3
(dp4426
g4359
g1
(g6
g7
S'351582'
p4427
tp4428
Rp4429
(dp4430
g12
g4359
sbsg4408
g1
(g6
g7
S'All Fields'
p4431
tp4432
Rp4433
(dp4434
g12
g4408
sbsg4413
g1
(g6
g7
S'Rhodopsin[All Fields]'
p4435
tp4436
Rp4437
(dp4438
g12
g4413
sbsg4418
g1
(g6
g7
g88
tp4439
Rp4440
(dp4441
g12
g4418
sbstp4442
Rp4443
(dp4444
g12
g4425
sbag1
(g6
g7
S'AND'
p4445
tp4446
Rp4447
(dp4448
g12
VOP
p4449
sbatp4450
Rp4451
(dp4452
g12
g4401
sbsVErrorList
p4453
g1
(g104
g3
(dp4454
VFieldNotFound
p4455
(lp4456
g1
(g6
g7
S'definition'
p4457
tp4458
Rp4459
(dp4460
g12
VFieldNotFound
p4461
sbasVPhraseNotFound
p4462
(lp4463
stp4464
Rp4465
(dp4466
g12
g4453
sg118
(lp4467
g4462
ag4455
asbsVTranslationSet
p4468
g1
(g18
g19
(lp4469
g1
(g2
g3
(dp4470
VTo
p4471
g1
(g6
g7
S'"Spicara maena"[Organism]'
p4472
tp4473
Rp4474
(dp4475
g12
g4471
sbsVFrom
p4476
g1
(g6
g7
S'Spicara maena[organism]'
p4477
tp4478
Rp4479
(dp4480
g12
g4476
sbstp4481
Rp4482
(dp4483
g12
VTranslation
p4484
sbatp4485
Rp4486
(dp4487
g12
g4468
sbsVRetStart
p4488
g1
(g6
g7
g141
tp4489
Rp4490
(dp4491
g12
g4488
sbsVQueryTranslation
p4492
g1
(g6
g7
S'"Spicara maena"[Organism] AND Rhodopsin[All Fields]'
p4493
tp4494
Rp4495
(dp4496
g12
g4492
sbstp4497
Rp4498
(dp4499
g12
VeSearchResult
p4500
sbag1
(g2
g3
(dp4501
VCount
p4502
g1
(g6
g7
g1976
tp4503
Rp4504
(dp4505
g12
g4502
sbsVRetMax
p4506
g1
(g6
g7
g1976
tp4507
Rp4508
(dp4509
g12
g4506
sbsVIdList
p4510
g1
(g18
g19
(lp4511
g1
(g6
g7
S'154745239'
p4512
tp4513
Rp4514
(dp4515
g12
VId
p4516
sbag1
(g6
g7
S'154745237'
p4517
tp4518
Rp4519
(dp4520
g12
g4516
sbag1
(g6
g7
S'133924138'
p4521
tp4522
Rp4523
(dp4524
g12
g4516
sbag1
(g6
g7
S'133924136'
p4525
tp4526
Rp4527
(dp4528
g12
g4516
sbatp4529
Rp4530
(dp4531
g12
g4510
sbsVTranslationStack
p4532
g1
(g18
g19
(lp4533
g1
(g2
g3
(dp4534
g4502
g1
(g6
g7
S'59'
p4535
tp4536
Rp4537
(dp4538
g12
g4502
sbsVField
p4539
g1
(g6
g7
S'Organism'
p4540
tp4541
Rp4542
(dp4543
g12
g4539
sbsVTerm
p4544
g1
(g6
g7
S'"Spicara smaris"[Organism]'
p4545
tp4546
Rp4547
(dp4548
g12
g4544
sbsVExplode
p4549
g1
(g6
g7
g67
tp4550
Rp4551
(dp4552
g12
g4549
sbstp4553
Rp4554
(dp4555
g12
VTermSet
p4556
sbag1
(g2
g3
(dp4557
g4502
g1
(g6
g7
S'351582'
p4558
tp4559
Rp4560
(dp4561
g12
g4502
sbsg4539
g1
(g6
g7
S'All Fields'
p4562
tp4563
Rp4564
(dp4565
g12
g4539
sbsg4544
g1
(g6
g7
S'Rhodopsin[All Fields]'
p4566
tp4567
Rp4568
(dp4569
g12
g4544
sbsg4549
g1
(g6
g7
g88
tp4570
Rp4571
(dp4572
g12
g4549
sbstp4573
Rp4574
(dp4575
g12
g4556
sbag1
(g6
g7
S'AND'
p4576
tp4577
Rp4578
(dp4579
g12
VOP
p4580
sbatp4581
Rp4582
(dp4583
g12
g4532
sbsVErrorList
p4584
g1
(g104
g3
(dp4585
VFieldNotFound
p4586
(lp4587
g1
(g6
g7
S'definition'
p4588
tp4589
Rp4590
(dp4591
g12
VFieldNotFound
p4592
sbasVPhraseNotFound
p4593
(lp4594
stp4595
Rp4596
(dp4597
g12
g4584
sg118
(lp4598
g4593
ag4586
asbsVTranslationSet
p4599
g1
(g18
g19
(lp4600
g1
(g2
g3
(dp4601
VTo
p4602
g1
(g6
g7
S'"Spicara smaris"[Organism]'
p4603
tp4604
Rp4605
(dp4606
g12
g4602
sbsVFrom
p4607
g1
(g6
g7
S'Spicara smaris[organism]'
p4608
tp4609
Rp4610
(dp4611
g12
g4607
sbstp4612
Rp4613
(dp4614
g12
VTranslation
p4615
sbatp4616
Rp4617
(dp4618
g12
g4599
sbsVRetStart
p4619
g1
(g6
g7
g141
tp4620
Rp4621
(dp4622
g12
g4619
sbsVQueryTranslation
p4623
g1
(g6
g7
S'"Spicara smaris"[Organism] AND Rhodopsin[All Fields]'
p4624
tp4625
Rp4626
(dp4627
g12
g4623
sbstp4628
Rp4629
(dp4630
g12
VeSearchResult
p4631
sbag1
(g2
g3
(dp4632
VCount
p4633
g1
(g6
g7
S'13'
p4634
tp4635
Rp4636
(dp4637
g12
g4633
sbsVRetMax
p4638
g1
(g6
g7
S'13'
p4639
tp4640
Rp4641
(dp4642
g12
g4638
sbsVIdList
p4643
g1
(g18
g19
(lp4644
g1
(g6
g7
S'159462325'
p4645
tp4646
Rp4647
(dp4648
g12
VId
p4649
sbag1
(g6
g7
S'159462323'
p4650
tp4651
Rp4652
(dp4653
g12
g4649
sbag1
(g6
g7
S'80524450'
p4654
tp4655
Rp4656
(dp4657
g12
g4649
sbag1
(g6
g7
S'154745255'
p4658
tp4659
Rp4660
(dp4661
g12
g4649
sbag1
(g6
g7
S'154745253'
p4662
tp4663
Rp4664
(dp4665
g12
g4649
sbag1
(g6
g7
S'133924142'
p4666
tp4667
Rp4668
(dp4669
g12
g4649
sbag1
(g6
g7
S'133924140'
p4670
tp4671
Rp4672
(dp4673
g12
g4649
sbag1
(g6
g7
S'133923850'
p4674
tp4675
Rp4676
(dp4677
g12
g4649
sbag1
(g6
g7
S'133923848'
p4678
tp4679
Rp4680
(dp4681
g12
g4649
sbag1
(g6
g7
S'133923554'
p4682
tp4683
Rp4684
(dp4685
g12
g4649
sbag1
(g6
g7
S'133923552'
p4686
tp4687
Rp4688
(dp4689
g12
g4649
sbag1
(g6
g7
S'745791711'
p4690
tp4691
Rp4692
(dp4693
g12
g4649
sbag1
(g6
g7
S'745791706'
p4694
tp4695
Rp4696
(dp4697
g12
g4649
sbatp4698
Rp4699
(dp4700
g12
g4643
sbsVTranslationStack
p4701
g1
(g18
g19
(lp4702
g1
(g2
g3
(dp4703
g4633
g1
(g6
g7
S'131'
p4704
tp4705
Rp4706
(dp4707
g12
g4633
sbsVField
p4708
g1
(g6
g7
S'Organism'
p4709
tp4710
Rp4711
(dp4712
g12
g4708
sbsVTerm
p4713
g1
(g6
g7
S'"Spondyliosoma cantharus"[Organism]'
p4714
tp4715
Rp4716
(dp4717
g12
g4713
sbsVExplode
p4718
g1
(g6
g7
g67
tp4719
Rp4720
(dp4721
g12
g4718
sbstp4722
Rp4723
(dp4724
g12
VTermSet
p4725
sbag1
(g2
g3
(dp4726
g4633
g1
(g6
g7
S'351582'
p4727
tp4728
Rp4729
(dp4730
g12
g4633
sbsg4708
g1
(g6
g7
S'All Fields'
p4731
tp4732
Rp4733
(dp4734
g12
g4708
sbsg4713
g1
(g6
g7
S'Rhodopsin[All Fields]'
p4735
tp4736
Rp4737
(dp4738
g12
g4713
sbsg4718
g1
(g6
g7
g88
tp4739
Rp4740
(dp4741
g12
g4718
sbstp4742
Rp4743
(dp4744
g12
g4725
sbag1
(g6
g7
S'AND'
p4745
tp4746
Rp4747
(dp4748
g12
VOP
p4749
sbatp4750
Rp4751
(dp4752
g12
g4701
sbsVErrorList
p4753
g1
(g104
g3
(dp4754
VFieldNotFound
p4755
(lp4756
g1
(g6
g7
S'definition'
p4757
tp4758
Rp4759
(dp4760
g12
VFieldNotFound
p4761
sbasVPhraseNotFound
p4762
(lp4763
stp4764
Rp4765
(dp4766
g12
g4753
sg118
(lp4767
g4762
ag4755
asbsVTranslationSet
p4768
g1
(g18
g19
(lp4769
g1
(g2
g3
(dp4770
VTo
p4771
g1
(g6
g7
S'"Spondyliosoma cantharus"[Organism]'
p4772
tp4773
Rp4774
(dp4775
g12
g4771
sbsVFrom
p4776
g1
(g6
g7
S'Spondyliosoma cantharus[organism]'
p4777
tp4778
Rp4779
(dp4780
g12
g4776
sbstp4781
Rp4782
(dp4783
g12
VTranslation
p4784
sbatp4785
Rp4786
(dp4787
g12
g4768
sbsVRetStart
p4788
g1
(g6
g7
g141
tp4789
Rp4790
(dp4791
g12
g4788
sbsVQueryTranslation
p4792
g1
(g6
g7
S'"Spondyliosoma cantharus"[Organism] AND Rhodopsin[All Fields]'
p4793
tp4794
Rp4795
(dp4796
g12
g4792
sbstp4797
Rp4798
(dp4799
g12
VeSearchResult
p4800
sba.