(lp0
ccopy_reg
_reconstructor
p1
(cBio.Entrez.Parser
DictionaryElement
p2
c__builtin__
dict
p3
(dp4
VCount
p5
g1
(cBio.Entrez.Parser
StringElement
p6
c__builtin__
str
p7
S'2'
p8
tp9
Rp10
(dp11
S'tag'
p12
g5
sbsVRetMax
p13
g1
(g6
g7
g8
tp14
Rp15
(dp16
g12
g13
sbsVIdList
p17
g1
(cBio.Entrez.Parser
ListElement
p18
c__builtin__
list
p19
(lp20
g1
(g6
g7
S'375005952'
p21
tp22
Rp23
(dp24
g12
VId
p25
sbag1
(g6
g7
S'14348610'
p26
tp27
Rp28
(dp29
g12
g25
sbatp30
Rp31
(dp32
g12
g17
sbsVTranslationStack
p33
g1
(g18
g19
(lp34
g1
(g2
g3
(dp35
g5
g1
(g6
g7
S'26'
p36
tp37
Rp38
(dp39
g12
g5
sbsVField
p40
g1
(g6
g7
S'Organism'
p41
tp42
Rp43
(dp44
g12
g40
sbsVTerm
p45
g1
(g6
g7
S'"Acanthopagrus australis"[Organism]'
p46
tp47
Rp48
(dp49
g12
g45
sbsVExplode
p50
g1
(g6
g7
S'Y'
p51
tp52
Rp53
(dp54
g12
g50
sbstp55
Rp56
(dp57
g12
VTermSet
p58
sbag1
(g2
g3
(dp59
g5
g1
(g6
g7
S'12666469'
p60
tp61
Rp62
(dp63
g12
g5
sbsg40
g1
(g6
g7
S'All Fields'
p64
tp65
Rp66
(dp67
g12
g40
sbsg45
g1
(g6
g7
S'16S[All Fields]'
p68
tp69
Rp70
(dp71
g12
g45
sbsg50
g1
(g6
g7
S'N'
p72
tp73
Rp74
(dp75
g12
g50
sbstp76
Rp77
(dp78
g12
g58
sbag1
(g6
g7
S'AND'
p79
tp80
Rp81
(dp82
g12
VOP
p83
sbatp84
Rp85
(dp86
g12
g33
sbsVErrorList
p87
g1
(cBio.Entrez.Parser
StructureElement
p88
g3
(dp89
VFieldNotFound
p90
(lp91
g1
(g6
g7
S'definition'
p92
tp93
Rp94
(dp95
g12
VFieldNotFound
p96
sbasVPhraseNotFound
p97
(lp98
stp99
Rp100
(dp101
g12
g87
sS'listkeys'
p102
(lp103
g97
ag90
asbsVTranslationSet
p104
g1
(g18
g19
(lp105
g1
(g2
g3
(dp106
VTo
p107
g1
(g6
g7
S'"Acanthopagrus australis"[Organism]'
p108
tp109
Rp110
(dp111
g12
g107
sbsVFrom
p112
g1
(g6
g7
S'Acanthopagrus australis[organism]'
p113
tp114
Rp115
(dp116
g12
g112
sbstp117
Rp118
(dp119
g12
VTranslation
p120
sbatp121
Rp122
(dp123
g12
g104
sbsVRetStart
p124
g1
(g6
g7
S'0'
p125
tp126
Rp127
(dp128
g12
g124
sbsVQueryTranslation
p129
g1
(g6
g7
S'"Acanthopagrus australis"[Organism] AND 16S[All Fields]'
p130
tp131
Rp132
(dp133
g12
g129
sbstp134
Rp135
(dp136
g12
VeSearchResult
p137
sbag1
(g2
g3
(dp138
VCount
p139
g1
(g6
g7
S'3'
p140
tp141
Rp142
(dp143
g12
g139
sbsVRetMax
p144
g1
(g6
g7
g140
tp145
Rp146
(dp147
g12
g144
sbsVIdList
p148
g1
(g18
g19
(lp149
g1
(g6
g7
S'441415350'
p150
tp151
Rp152
(dp153
g12
VId
p154
sbag1
(g6
g7
S'19850086'
p155
tp156
Rp157
(dp158
g12
g154
sbag1
(g6
g7
S'41584422'
p159
tp160
Rp161
(dp162
g12
g154
sbatp163
Rp164
(dp165
g12
g148
sbsVTranslationStack
p166
g1
(g18
g19
(lp167
g1
(g2
g3
(dp168
g139
g1
(g6
g7
S'125'
p169
tp170
Rp171
(dp172
g12
g139
sbsVField
p173
g1
(g6
g7
S'Organism'
p174
tp175
Rp176
(dp177
g12
g173
sbsVTerm
p178
g1
(g6
g7
S'"Acanthopagrus berda"[Organism]'
p179
tp180
Rp181
(dp182
g12
g178
sbsVExplode
p183
g1
(g6
g7
g51
tp184
Rp185
(dp186
g12
g183
sbstp187
Rp188
(dp189
g12
VTermSet
p190
sbag1
(g2
g3
(dp191
g139
g1
(g6
g7
S'12666469'
p192
tp193
Rp194
(dp195
g12
g139
sbsg173
g1
(g6
g7
S'All Fields'
p196
tp197
Rp198
(dp199
g12
g173
sbsg178
g1
(g6
g7
S'16S[All Fields]'
p200
tp201
Rp202
(dp203
g12
g178
sbsg183
g1
(g6
g7
g72
tp204
Rp205
(dp206
g12
g183
sbstp207
Rp208
(dp209
g12
g190
sbag1
(g6
g7
S'AND'
p210
tp211
Rp212
(dp213
g12
VOP
p214
sbatp215
Rp216
(dp217
g12
g166
sbsVErrorList
p218
g1
(g88
g3
(dp219
VFieldNotFound
p220
(lp221
g1
(g6
g7
S'definition'
p222
tp223
Rp224
(dp225
g12
VFieldNotFound
p226
sbasVPhraseNotFound
p227
(lp228
stp229
Rp230
(dp231
g12
g218
sg102
(lp232
g227
ag220
asbsVTranslationSet
p233
g1
(g18
g19
(lp234
g1
(g2
g3
(dp235
VTo
p236
g1
(g6
g7
S'"Acanthopagrus berda"[Organism]'
p237
tp238
Rp239
(dp240
g12
g236
sbsVFrom
p241
g1
(g6
g7
S'Acanthopagrus berda[organism]'
p242
tp243
Rp244
(dp245
g12
g241
sbstp246
Rp247
(dp248
g12
VTranslation
p249
sbatp250
Rp251
(dp252
g12
g233
sbsVRetStart
p253
g1
(g6
g7
g125
tp254
Rp255
(dp256
g12
g253
sbsVQueryTranslation
p257
g1
(g6
g7
S'"Acanthopagrus berda"[Organism] AND 16S[All Fields]'
p258
tp259
Rp260
(dp261
g12
g257
sbstp262
Rp263
(dp264
g12
VeSearchResult
p265
sbag1
(g2
g3
(dp266
VCount
p267
g1
(g6
g7
g140
tp268
Rp269
(dp270
g12
g267
sbsVRetMax
p271
g1
(g6
g7
g140
tp272
Rp273
(dp274
g12
g271
sbsVIdList
p275
g1
(g18
g19
(lp276
g1
(g6
g7
S'441415353'
p277
tp278
Rp279
(dp280
g12
VId
p281
sbag1
(g6
g7
S'441415352'
p282
tp283
Rp284
(dp285
g12
g281
sbag1
(g6
g7
S'441415351'
p286
tp287
Rp288
(dp289
g12
g281
sbatp290
Rp291
(dp292
g12
g275
sbsVTranslationStack
p293
g1
(g18
g19
(lp294
g1
(g2
g3
(dp295
g267
g1
(g6
g7
S'8'
p296
tp297
Rp298
(dp299
g12
g267
sbsVField
p300
g1
(g6
g7
S'Organism'
p301
tp302
Rp303
(dp304
g12
g300
sbsVTerm
p305
g1
(g6
g7
S'"Acanthopagrus bifasciatus"[Organism]'
p306
tp307
Rp308
(dp309
g12
g305
sbsVExplode
p310
g1
(g6
g7
g51
tp311
Rp312
(dp313
g12
g310
sbstp314
Rp315
(dp316
g12
VTermSet
p317
sbag1
(g2
g3
(dp318
g267
g1
(g6
g7
S'12666469'
p319
tp320
Rp321
(dp322
g12
g267
sbsg300
g1
(g6
g7
S'All Fields'
p323
tp324
Rp325
(dp326
g12
g300
sbsg305
g1
(g6
g7
S'16S[All Fields]'
p327
tp328
Rp329
(dp330
g12
g305
sbsg310
g1
(g6
g7
g72
tp331
Rp332
(dp333
g12
g310
sbstp334
Rp335
(dp336
g12
g317
sbag1
(g6
g7
S'AND'
p337
tp338
Rp339
(dp340
g12
VOP
p341
sbatp342
Rp343
(dp344
g12
g293
sbsVErrorList
p345
g1
(g88
g3
(dp346
VFieldNotFound
p347
(lp348
g1
(g6
g7
S'definition'
p349
tp350
Rp351
(dp352
g12
VFieldNotFound
p353
sbasVPhraseNotFound
p354
(lp355
stp356
Rp357
(dp358
g12
g345
sg102
(lp359
g354
ag347
asbsVTranslationSet
p360
g1
(g18
g19
(lp361
g1
(g2
g3
(dp362
VTo
p363
g1
(g6
g7
S'"Acanthopagrus bifasciatus"[Organism]'
p364
tp365
Rp366
(dp367
g12
g363
sbsVFrom
p368
g1
(g6
g7
S'Acanthopagrus bifasciatus[organism]'
p369
tp370
Rp371
(dp372
g12
g368
sbstp373
Rp374
(dp375
g12
VTranslation
p376
sbatp377
Rp378
(dp379
g12
g360
sbsVRetStart
p380
g1
(g6
g7
g125
tp381
Rp382
(dp383
g12
g380
sbsVQueryTranslation
p384
g1
(g6
g7
S'"Acanthopagrus bifasciatus"[Organism] AND 16S[All Fields]'
p385
tp386
Rp387
(dp388
g12
g384
sbstp389
Rp390
(dp391
g12
VeSearchResult
p392
sbag1
(g2
g3
(dp393
VCount
p394
g1
(g6
g7
S'18'
p395
tp396
Rp397
(dp398
g12
g394
sbsVRetMax
p399
g1
(g6
g7
S'18'
p400
tp401
Rp402
(dp403
g12
g399
sbsVIdList
p404
g1
(g18
g19
(lp405
g1
(g6
g7
S'134153961'
p406
tp407
Rp408
(dp409
g12
VId
p410
sbag1
(g6
g7
S'953298998'
p411
tp412
Rp413
(dp414
g12
g410
sbag1
(g6
g7
S'441415332'
p415
tp416
Rp417
(dp418
g12
g410
sbag1
(g6
g7
S'441415331'
p419
tp420
Rp421
(dp422
g12
g410
sbag1
(g6
g7
S'441415330'
p423
tp424
Rp425
(dp426
g12
g410
sbag1
(g6
g7
S'441415329'
p427
tp428
Rp429
(dp430
g12
g410
sbag1
(g6
g7
S'441415328'
p431
tp432
Rp433
(dp434
g12
g410
sbag1
(g6
g7
S'441415327'
p435
tp436
Rp437
(dp438
g12
g410
sbag1
(g6
g7
S'441415326'
p439
tp440
Rp441
(dp442
g12
g410
sbag1
(g6
g7
S'441415325'
p443
tp444
Rp445
(dp446
g12
g410
sbag1
(g6
g7
S'441415324'
p447
tp448
Rp449
(dp450
g12
g410
sbag1
(g6
g7
S'441415323'
p451
tp452
Rp453
(dp454
g12
g410
sbag1
(g6
g7
S'190349314'
p455
tp456
Rp457
(dp458
g12
g410
sbag1
(g6
g7
S'354550710'
p459
tp460
Rp461
(dp462
g12
g410
sbag1
(g6
g7
S'354550709'
p463
tp464
Rp465
(dp466
g12
g410
sbag1
(g6
g7
S'354550708'
p467
tp468
Rp469
(dp470
g12
g410
sbag1
(g6
g7
S'354550707'
p471
tp472
Rp473
(dp474
g12
g410
sbag1
(g6
g7
S'38489951'
p475
tp476
Rp477
(dp478
g12
g410
sbatp479
Rp480
(dp481
g12
g404
sbsVTranslationStack
p482
g1
(g18
g19
(lp483
g1
(g2
g3
(dp484
g394
g1
(g6
g7
S'326'
p485
tp486
Rp487
(dp488
g12
g394
sbsVField
p489
g1
(g6
g7
S'Organism'
p490
tp491
Rp492
(dp493
g12
g489
sbsVTerm
p494
g1
(g6
g7
S'"Acanthopagrus latus"[Organism]'
p495
tp496
Rp497
(dp498
g12
g494
sbsVExplode
p499
g1
(g6
g7
g51
tp500
Rp501
(dp502
g12
g499
sbstp503
Rp504
(dp505
g12
VTermSet
p506
sbag1
(g2
g3
(dp507
g394
g1
(g6
g7
S'12666469'
p508
tp509
Rp510
(dp511
g12
g394
sbsg489
g1
(g6
g7
S'All Fields'
p512
tp513
Rp514
(dp515
g12
g489
sbsg494
g1
(g6
g7
S'16S[All Fields]'
p516
tp517
Rp518
(dp519
g12
g494
sbsg499
g1
(g6
g7
g72
tp520
Rp521
(dp522
g12
g499
sbstp523
Rp524
(dp525
g12
g506
sbag1
(g6
g7
S'AND'
p526
tp527
Rp528
(dp529
g12
VOP
p530
sbatp531
Rp532
(dp533
g12
g482
sbsVErrorList
p534
g1
(g88
g3
(dp535
VFieldNotFound
p536
(lp537
g1
(g6
g7
S'definition'
p538
tp539
Rp540
(dp541
g12
VFieldNotFound
p542
sbasVPhraseNotFound
p543
(lp544
stp545
Rp546
(dp547
g12
g534
sg102
(lp548
g543
ag536
asbsVTranslationSet
p549
g1
(g18
g19
(lp550
g1
(g2
g3
(dp551
VTo
p552
g1
(g6
g7
S'"Acanthopagrus latus"[Organism]'
p553
tp554
Rp555
(dp556
g12
g552
sbsVFrom
p557
g1
(g6
g7
S'Acanthopagrus latus[organism]'
p558
tp559
Rp560
(dp561
g12
g557
sbstp562
Rp563
(dp564
g12
VTranslation
p565
sbatp566
Rp567
(dp568
g12
g549
sbsVRetStart
p569
g1
(g6
g7
g125
tp570
Rp571
(dp572
g12
g569
sbsVQueryTranslation
p573
g1
(g6
g7
S'"Acanthopagrus latus"[Organism] AND 16S[All Fields]'
p574
tp575
Rp576
(dp577
g12
g573
sbstp578
Rp579
(dp580
g12
VeSearchResult
p581
sbag1
(g2
g3
(dp582
VCount
p583
g1
(g6
g7
g8
tp584
Rp585
(dp586
g12
g583
sbsVRetMax
p587
g1
(g6
g7
g8
tp588
Rp589
(dp590
g12
g587
sbsVIdList
p591
g1
(g18
g19
(lp592
g1
(g6
g7
S'441415349'
p593
tp594
Rp595
(dp596
g12
VId
p597
sbag1
(g6
g7
S'441415348'
p598
tp599
Rp600
(dp601
g12
g597
sbatp602
Rp603
(dp604
g12
g591
sbsVTranslationStack
p605
g1
(g18
g19
(lp606
g1
(g2
g3
(dp607
g583
g1
(g6
g7
S'5'
p608
tp609
Rp610
(dp611
g12
g583
sbsVField
p612
g1
(g6
g7
S'Organism'
p613
tp614
Rp615
(dp616
g12
g612
sbsVTerm
p617
g1
(g6
g7
S'"Acanthopagrus pacificus"[Organism]'
p618
tp619
Rp620
(dp621
g12
g617
sbsVExplode
p622
g1
(g6
g7
g51
tp623
Rp624
(dp625
g12
g622
sbstp626
Rp627
(dp628
g12
VTermSet
p629
sbag1
(g2
g3
(dp630
g583
g1
(g6
g7
S'12666469'
p631
tp632
Rp633
(dp634
g12
g583
sbsg612
g1
(g6
g7
S'All Fields'
p635
tp636
Rp637
(dp638
g12
g612
sbsg617
g1
(g6
g7
S'16S[All Fields]'
p639
tp640
Rp641
(dp642
g12
g617
sbsg622
g1
(g6
g7
g72
tp643
Rp644
(dp645
g12
g622
sbstp646
Rp647
(dp648
g12
g629
sbag1
(g6
g7
S'AND'
p649
tp650
Rp651
(dp652
g12
VOP
p653
sbatp654
Rp655
(dp656
g12
g605
sbsVErrorList
p657
g1
(g88
g3
(dp658
VFieldNotFound
p659
(lp660
g1
(g6
g7
S'definition'
p661
tp662
Rp663
(dp664
g12
VFieldNotFound
p665
sbasVPhraseNotFound
p666
(lp667
stp668
Rp669
(dp670
g12
g657
sg102
(lp671
g666
ag659
asbsVTranslationSet
p672
g1
(g18
g19
(lp673
g1
(g2
g3
(dp674
VTo
p675
g1
(g6
g7
S'"Acanthopagrus pacificus"[Organism]'
p676
tp677
Rp678
(dp679
g12
g675
sbsVFrom
p680
g1
(g6
g7
S'Acanthopagrus pacificus[organism]'
p681
tp682
Rp683
(dp684
g12
g680
sbstp685
Rp686
(dp687
g12
VTranslation
p688
sbatp689
Rp690
(dp691
g12
g672
sbsVRetStart
p692
g1
(g6
g7
g125
tp693
Rp694
(dp695
g12
g692
sbsVQueryTranslation
p696
g1
(g6
g7
S'"Acanthopagrus pacificus"[Organism] AND 16S[All Fields]'
p697
tp698
Rp699
(dp700
g12
g696
sbstp701
Rp702
(dp703
g12
VeSearchResult
p704
sbag1
(g2
g3
(dp705
VCount
p706
g1
(g6
g7
g296
tp707
Rp708
(dp709
g12
g706
sbsVRetMax
p710
g1
(g6
g7
g296
tp711
Rp712
(dp713
g12
g710
sbsVIdList
p714
g1
(g18
g19
(lp715
g1
(g6
g7
S'953298984'
p716
tp717
Rp718
(dp719
g12
VId
p720
sbag1
(g6
g7
S'403531702'
p721
tp722
Rp723
(dp724
g12
g720
sbag1
(g6
g7
S'401465994'
p725
tp726
Rp727
(dp728
g12
g720
sbag1
(g6
g7
S'354550544'
p729
tp730
Rp731
(dp732
g12
g720
sbag1
(g6
g7
S'354550543'
p733
tp734
Rp735
(dp736
g12
g720
sbag1
(g6
g7
S'354550542'
p737
tp738
Rp739
(dp740
g12
g720
sbag1
(g6
g7
S'354550541'
p741
tp742
Rp743
(dp744
g12
g720
sbag1
(g6
g7
S'38489954'
p745
tp746
Rp747
(dp748
g12
g720
sbatp749
Rp750
(dp751
g12
g714
sbsVTranslationStack
p752
g1
(g18
g19
(lp753
g1
(g2
g3
(dp754
g706
g1
(g6
g7
S'415'
p755
tp756
Rp757
(dp758
g12
g706
sbsVField
p759
g1
(g6
g7
S'Organism'
p760
tp761
Rp762
(dp763
g12
g759
sbsVTerm
p764
g1
(g6
g7
S'"Acanthopagrus schlegelii"[Organism]'
p765
tp766
Rp767
(dp768
g12
g764
sbsVExplode
p769
g1
(g6
g7
g51
tp770
Rp771
(dp772
g12
g769
sbstp773
Rp774
(dp775
g12
VTermSet
p776
sbag1
(g2
g3
(dp777
g706
g1
(g6
g7
S'12666469'
p778
tp779
Rp780
(dp781
g12
g706
sbsg759
g1
(g6
g7
S'All Fields'
p782
tp783
Rp784
(dp785
g12
g759
sbsg764
g1
(g6
g7
S'16S[All Fields]'
p786
tp787
Rp788
(dp789
g12
g764
sbsg769
g1
(g6
g7
g72
tp790
Rp791
(dp792
g12
g769
sbstp793
Rp794
(dp795
g12
g776
sbag1
(g6
g7
S'AND'
p796
tp797
Rp798
(dp799
g12
VOP
p800
sbatp801
Rp802
(dp803
g12
g752
sbsVErrorList
p804
g1
(g88
g3
(dp805
VFieldNotFound
p806
(lp807
g1
(g6
g7
S'definition'
p808
tp809
Rp810
(dp811
g12
VFieldNotFound
p812
sbasVPhraseNotFound
p813
(lp814
stp815
Rp816
(dp817
g12
g804
sg102
(lp818
g813
ag806
asbsVTranslationSet
p819
g1
(g18
g19
(lp820
g1
(g2
g3
(dp821
VTo
p822
g1
(g6
g7
S'"Acanthopagrus schlegelii"[Organism]'
p823
tp824
Rp825
(dp826
g12
g822
sbsVFrom
p827
g1
(g6
g7
S'Acanthopagrus schlegelii[organism]'
p828
tp829
Rp830
(dp831
g12
g827
sbstp832
Rp833
(dp834
g12
VTranslation
p835
sbatp836
Rp837
(dp838
g12
g819
sbsVRetStart
p839
g1
(g6
g7
g125
tp840
Rp841
(dp842
g12
g839
sbsVQueryTranslation
p843
g1
(g6
g7
S'"Acanthopagrus schlegelii"[Organism] AND 16S[All Fields]'
p844
tp845
Rp846
(dp847
g12
g843
sbstp848
Rp849
(dp850
g12
VeSearchResult
p851
sbag1
(g2
g3
(dp852
VCount
p853
g1
(g6
g7
S'4'
p854
tp855
Rp856
(dp857
g12
g853
sbsVRetMax
p858
g1
(g6
g7
g854
tp859
Rp860
(dp861
g12
g858
sbsVIdList
p862
g1
(g18
g19
(lp863
g1
(g6
g7
S'448871726'
p864
tp865
Rp866
(dp867
g12
VId
p868
sbag1
(g6
g7
S'159902038'
p869
tp870
Rp871
(dp872
g12
g868
sbag1
(g6
g7
S'113203274'
p873
tp874
Rp875
(dp876
g12
g868
sbag1
(g6
g7
S'19850087'
p877
tp878
Rp879
(dp880
g12
g868
sbatp881
Rp882
(dp883
g12
g862
sbsVTranslationStack
p884
g1
(g18
g19
(lp885
g1
(g2
g3
(dp886
g853
g1
(g6
g7
S'252'
p887
tp888
Rp889
(dp890
g12
g853
sbsVField
p891
g1
(g6
g7
S'Organism'
p892
tp893
Rp894
(dp895
g12
g891
sbsVTerm
p896
g1
(g6
g7
S'"Archosargus probatocephalus"[Organism]'
p897
tp898
Rp899
(dp900
g12
g896
sbsVExplode
p901
g1
(g6
g7
g51
tp902
Rp903
(dp904
g12
g901
sbstp905
Rp906
(dp907
g12
VTermSet
p908
sbag1
(g2
g3
(dp909
g853
g1
(g6
g7
S'12666469'
p910
tp911
Rp912
(dp913
g12
g853
sbsg891
g1
(g6
g7
S'All Fields'
p914
tp915
Rp916
(dp917
g12
g891
sbsg896
g1
(g6
g7
S'16S[All Fields]'
p918
tp919
Rp920
(dp921
g12
g896
sbsg901
g1
(g6
g7
g72
tp922
Rp923
(dp924
g12
g901
sbstp925
Rp926
(dp927
g12
g908
sbag1
(g6
g7
S'AND'
p928
tp929
Rp930
(dp931
g12
VOP
p932
sbatp933
Rp934
(dp935
g12
g884
sbsVErrorList
p936
g1
(g88
g3
(dp937
VFieldNotFound
p938
(lp939
g1
(g6
g7
S'definition'
p940
tp941
Rp942
(dp943
g12
VFieldNotFound
p944
sbasVPhraseNotFound
p945
(lp946
stp947
Rp948
(dp949
g12
g936
sg102
(lp950
g945
ag938
asbsVTranslationSet
p951
g1
(g18
g19
(lp952
g1
(g2
g3
(dp953
VTo
p954
g1
(g6
g7
S'"Archosargus probatocephalus"[Organism]'
p955
tp956
Rp957
(dp958
g12
g954
sbsVFrom
p959
g1
(g6
g7
S'Archosargus probatocephalus[organism]'
p960
tp961
Rp962
(dp963
g12
g959
sbstp964
Rp965
(dp966
g12
VTranslation
p967
sbatp968
Rp969
(dp970
g12
g951
sbsVRetStart
p971
g1
(g6
g7
g125
tp972
Rp973
(dp974
g12
g971
sbsVQueryTranslation
p975
g1
(g6
g7
S'"Archosargus probatocephalus"[Organism] AND 16S[All Fields]'
p976
tp977
Rp978
(dp979
g12
g975
sbstp980
Rp981
(dp982
g12
VeSearchResult
p983
sbag1
(g2
g3
(dp984
VCount
p985
g1
(g6
g7
S'1'
p986
tp987
Rp988
(dp989
g12
g985
sbsVRetMax
p990
g1
(g6
g7
g986
tp991
Rp992
(dp993
g12
g990
sbsVIdList
p994
g1
(g18
g19
(lp995
g1
(g6
g7
S'19850088'
p996
tp997
Rp998
(dp999
g12
VId
p1000
sbatp1001
Rp1002
(dp1003
g12
g994
sbsVTranslationStack
p1004
g1
(g18
g19
(lp1005
g1
(g2
g3
(dp1006
g985
g1
(g6
g7
S'34'
p1007
tp1008
Rp1009
(dp1010
g12
g985
sbsVField
p1011
g1
(g6
g7
S'Organism'
p1012
tp1013
Rp1014
(dp1015
g12
g1011
sbsVTerm
p1016
g1
(g6
g7
S'"Argyrops spinifer"[Organism]'
p1017
tp1018
Rp1019
(dp1020
g12
g1016
sbsVExplode
p1021
g1
(g6
g7
g51
tp1022
Rp1023
(dp1024
g12
g1021
sbstp1025
Rp1026
(dp1027
g12
VTermSet
p1028
sbag1
(g2
g3
(dp1029
g985
g1
(g6
g7
S'12666469'
p1030
tp1031
Rp1032
(dp1033
g12
g985
sbsg1011
g1
(g6
g7
S'All Fields'
p1034
tp1035
Rp1036
(dp1037
g12
g1011
sbsg1016
g1
(g6
g7
S'16S[All Fields]'
p1038
tp1039
Rp1040
(dp1041
g12
g1016
sbsg1021
g1
(g6
g7
g72
tp1042
Rp1043
(dp1044
g12
g1021
sbstp1045
Rp1046
(dp1047
g12
g1028
sbag1
(g6
g7
S'AND'
p1048
tp1049
Rp1050
(dp1051
g12
VOP
p1052
sbatp1053
Rp1054
(dp1055
g12
g1004
sbsVErrorList
p1056
g1
(g88
g3
(dp1057
VFieldNotFound
p1058
(lp1059
g1
(g6
g7
S'definition'
p1060
tp1061
Rp1062
(dp1063
g12
VFieldNotFound
p1064
sbasVPhraseNotFound
p1065
(lp1066
stp1067
Rp1068
(dp1069
g12
g1056
sg102
(lp1070
g1065
ag1058
asbsVTranslationSet
p1071
g1
(g18
g19
(lp1072
g1
(g2
g3
(dp1073
VTo
p1074
g1
(g6
g7
S'"Argyrops spinifer"[Organism]'
p1075
tp1076
Rp1077
(dp1078
g12
g1074
sbsVFrom
p1079
g1
(g6
g7
S'Argyrops spinifer[organism]'
p1080
tp1081
Rp1082
(dp1083
g12
g1079
sbstp1084
Rp1085
(dp1086
g12
VTranslation
p1087
sbatp1088
Rp1089
(dp1090
g12
g1071
sbsVRetStart
p1091
g1
(g6
g7
g125
tp1092
Rp1093
(dp1094
g12
g1091
sbsVQueryTranslation
p1095
g1
(g6
g7
S'"Argyrops spinifer"[Organism] AND 16S[All Fields]'
p1096
tp1097
Rp1098
(dp1099
g12
g1095
sbstp1100
Rp1101
(dp1102
g12
VeSearchResult
p1103
sbag1
(g2
g3
(dp1104
VCount
p1105
g1
(g6
g7
S'7'
p1106
tp1107
Rp1108
(dp1109
g12
g1105
sbsVRetMax
p1110
g1
(g6
g7
g1106
tp1111
Rp1112
(dp1113
g12
g1110
sbsVIdList
p1114
g1
(g18
g19
(lp1115
g1
(g6
g7
S'293595857'
p1116
tp1117
Rp1118
(dp1119
g12
VId
p1120
sbag1
(g6
g7
S'293595856'
p1121
tp1122
Rp1123
(dp1124
g12
g1120
sbag1
(g6
g7
S'293595855'
p1125
tp1126
Rp1127
(dp1128
g12
g1120
sbag1
(g6
g7
S'291289129'
p1129
tp1130
Rp1131
(dp1132
g12
g1120
sbag1
(g6
g7
S'291289128'
p1133
tp1134
Rp1135
(dp1136
g12
g1120
sbag1
(g6
g7
S'291289127'
p1137
tp1138
Rp1139
(dp1140
g12
g1120
sbag1
(g6
g7
S'19850077'
p1141
tp1142
Rp1143
(dp1144
g12
g1120
sbatp1145
Rp1146
(dp1147
g12
g1114
sbsVTranslationStack
p1148
g1
(g18
g19
(lp1149
g1
(g2
g3
(dp1150
g1105
g1
(g6
g7
S'29'
p1151
tp1152
Rp1153
(dp1154
g12
g1105
sbsVField
p1155
g1
(g6
g7
S'Organism'
p1156
tp1157
Rp1158
(dp1159
g12
g1155
sbsVTerm
p1160
g1
(g6
g7
S'"Argyrozona argyrozona"[Organism]'
p1161
tp1162
Rp1163
(dp1164
g12
g1160
sbsVExplode
p1165
g1
(g6
g7
g51
tp1166
Rp1167
(dp1168
g12
g1165
sbstp1169
Rp1170
(dp1171
g12
VTermSet
p1172
sbag1
(g2
g3
(dp1173
g1105
g1
(g6
g7
S'12666469'
p1174
tp1175
Rp1176
(dp1177
g12
g1105
sbsg1155
g1
(g6
g7
S'All Fields'
p1178
tp1179
Rp1180
(dp1181
g12
g1155
sbsg1160
g1
(g6
g7
S'16S[All Fields]'
p1182
tp1183
Rp1184
(dp1185
g12
g1160
sbsg1165
g1
(g6
g7
g72
tp1186
Rp1187
(dp1188
g12
g1165
sbstp1189
Rp1190
(dp1191
g12
g1172
sbag1
(g6
g7
S'AND'
p1192
tp1193
Rp1194
(dp1195
g12
VOP
p1196
sbatp1197
Rp1198
(dp1199
g12
g1148
sbsVErrorList
p1200
g1
(g88
g3
(dp1201
VFieldNotFound
p1202
(lp1203
g1
(g6
g7
S'definition'
p1204
tp1205
Rp1206
(dp1207
g12
VFieldNotFound
p1208
sbasVPhraseNotFound
p1209
(lp1210
stp1211
Rp1212
(dp1213
g12
g1200
sg102
(lp1214
g1209
ag1202
asbsVTranslationSet
p1215
g1
(g18
g19
(lp1216
g1
(g2
g3
(dp1217
VTo
p1218
g1
(g6
g7
S'"Argyrozona argyrozona"[Organism]'
p1219
tp1220
Rp1221
(dp1222
g12
g1218
sbsVFrom
p1223
g1
(g6
g7
S'Argyrozona argyrozona[organism]'
p1224
tp1225
Rp1226
(dp1227
g12
g1223
sbstp1228
Rp1229
(dp1230
g12
VTranslation
p1231
sbatp1232
Rp1233
(dp1234
g12
g1215
sbsVRetStart
p1235
g1
(g6
g7
g125
tp1236
Rp1237
(dp1238
g12
g1235
sbsVQueryTranslation
p1239
g1
(g6
g7
S'"Argyrozona argyrozona"[Organism] AND 16S[All Fields]'
p1240
tp1241
Rp1242
(dp1243
g12
g1239
sbstp1244
Rp1245
(dp1246
g12
VeSearchResult
p1247
sbag1
(g2
g3
(dp1248
VCount
p1249
g1
(g6
g7
S'16'
p1250
tp1251
Rp1252
(dp1253
g12
g1249
sbsVRetMax
p1254
g1
(g6
g7
S'16'
p1255
tp1256
Rp1257
(dp1258
g12
g1254
sbsVIdList
p1259
g1
(g18
g19
(lp1260
g1
(g6
g7
S'651209315'
p1261
tp1262
Rp1263
(dp1264
g12
VId
p1265
sbag1
(g6
g7
S'525469646'
p1266
tp1267
Rp1268
(dp1269
g12
g1265
sbag1
(g6
g7
S'525469643'
p1270
tp1271
Rp1272
(dp1273
g12
g1265
sbag1
(g6
g7
S'544582221'
p1274
tp1275
Rp1276
(dp1277
g12
g1265
sbag1
(g6
g7
S'307343890'
p1278
tp1279
Rp1280
(dp1281
g12
g1265
sbag1
(g6
g7
S'307343889'
p1282
tp1283
Rp1284
(dp1285
g12
g1265
sbag1
(g6
g7
S'307343888'
p1286
tp1287
Rp1288
(dp1289
g12
g1265
sbag1
(g6
g7
S'307343887'
p1290
tp1291
Rp1292
(dp1293
g12
g1265
sbag1
(g6
g7
S'307343886'
p1294
tp1295
Rp1296
(dp1297
g12
g1265
sbag1
(g6
g7
S'307343885'
p1298
tp1299
Rp1300
(dp1301
g12
g1265
sbag1
(g6
g7
S'307343884'
p1302
tp1303
Rp1304
(dp1305
g12
g1265
sbag1
(g6
g7
S'307343883'
p1306
tp1307
Rp1308
(dp1309
g12
g1265
sbag1
(g6
g7
S'307343882'
p1310
tp1311
Rp1312
(dp1313
g12
g1265
sbag1
(g6
g7
S'259121967'
p1314
tp1315
Rp1316
(dp1317
g12
g1265
sbag1
(g6
g7
S'19850069'
p1318
tp1319
Rp1320
(dp1321
g12
g1265
sbag1
(g6
g7
S'6491705'
p1322
tp1323
Rp1324
(dp1325
g12
g1265
sbatp1326
Rp1327
(dp1328
g12
g1259
sbsVTranslationStack
p1329
g1
(g18
g19
(lp1330
g1
(g2
g3
(dp1331
g1249
g1
(g6
g7
S'157'
p1332
tp1333
Rp1334
(dp1335
g12
g1249
sbsVField
p1336
g1
(g6
g7
S'Organism'
p1337
tp1338
Rp1339
(dp1340
g12
g1336
sbsVTerm
p1341
g1
(g6
g7
S'"Boops boops"[Organism]'
p1342
tp1343
Rp1344
(dp1345
g12
g1341
sbsVExplode
p1346
g1
(g6
g7
g51
tp1347
Rp1348
(dp1349
g12
g1346
sbstp1350
Rp1351
(dp1352
g12
VTermSet
p1353
sbag1
(g2
g3
(dp1354
g1249
g1
(g6
g7
S'12666469'
p1355
tp1356
Rp1357
(dp1358
g12
g1249
sbsg1336
g1
(g6
g7
S'All Fields'
p1359
tp1360
Rp1361
(dp1362
g12
g1336
sbsg1341
g1
(g6
g7
S'16S[All Fields]'
p1363
tp1364
Rp1365
(dp1366
g12
g1341
sbsg1346
g1
(g6
g7
g72
tp1367
Rp1368
(dp1369
g12
g1346
sbstp1370
Rp1371
(dp1372
g12
g1353
sbag1
(g6
g7
S'AND'
p1373
tp1374
Rp1375
(dp1376
g12
VOP
p1377
sbatp1378
Rp1379
(dp1380
g12
g1329
sbsVErrorList
p1381
g1
(g88
g3
(dp1382
VFieldNotFound
p1383
(lp1384
g1
(g6
g7
S'definition'
p1385
tp1386
Rp1387
(dp1388
g12
VFieldNotFound
p1389
sbasVPhraseNotFound
p1390
(lp1391
stp1392
Rp1393
(dp1394
g12
g1381
sg102
(lp1395
g1390
ag1383
asbsVTranslationSet
p1396
g1
(g18
g19
(lp1397
g1
(g2
g3
(dp1398
VTo
p1399
g1
(g6
g7
S'"Boops boops"[Organism]'
p1400
tp1401
Rp1402
(dp1403
g12
g1399
sbsVFrom
p1404
g1
(g6
g7
S'Boops boops[organism]'
p1405
tp1406
Rp1407
(dp1408
g12
g1404
sbstp1409
Rp1410
(dp1411
g12
VTranslation
p1412
sbatp1413
Rp1414
(dp1415
g12
g1396
sbsVRetStart
p1416
g1
(g6
g7
g125
tp1417
Rp1418
(dp1419
g12
g1416
sbsVQueryTranslation
p1420
g1
(g6
g7
S'"Boops boops"[Organism] AND 16S[All Fields]'
p1421
tp1422
Rp1423
(dp1424
g12
g1420
sbstp1425
Rp1426
(dp1427
g12
VeSearchResult
p1428
sbag1
(g2
g3
(dp1429
VCount
p1430
g1
(g6
g7
g986
tp1431
Rp1432
(dp1433
g12
g1430
sbsVRetMax
p1434
g1
(g6
g7
g986
tp1435
Rp1436
(dp1437
g12
g1434
sbsVIdList
p1438
g1
(g18
g19
(lp1439
g1
(g6
g7
S'19850082'
p1440
tp1441
Rp1442
(dp1443
g12
VId
p1444
sbatp1445
Rp1446
(dp1447
g12
g1438
sbsVTranslationStack
p1448
g1
(g18
g19
(lp1449
g1
(g2
g3
(dp1450
g1430
g1
(g6
g7
S'10'
p1451
tp1452
Rp1453
(dp1454
g12
g1430
sbsVField
p1455
g1
(g6
g7
S'Organism'
p1456
tp1457
Rp1458
(dp1459
g12
g1455
sbsVTerm
p1460
g1
(g6
g7
S'"Boopsoidea inornata"[Organism]'
p1461
tp1462
Rp1463
(dp1464
g12
g1460
sbsVExplode
p1465
g1
(g6
g7
g51
tp1466
Rp1467
(dp1468
g12
g1465
sbstp1469
Rp1470
(dp1471
g12
VTermSet
p1472
sbag1
(g2
g3
(dp1473
g1430
g1
(g6
g7
S'12666469'
p1474
tp1475
Rp1476
(dp1477
g12
g1430
sbsg1455
g1
(g6
g7
S'All Fields'
p1478
tp1479
Rp1480
(dp1481
g12
g1455
sbsg1460
g1
(g6
g7
S'16S[All Fields]'
p1482
tp1483
Rp1484
(dp1485
g12
g1460
sbsg1465
g1
(g6
g7
g72
tp1486
Rp1487
(dp1488
g12
g1465
sbstp1489
Rp1490
(dp1491
g12
g1472
sbag1
(g6
g7
S'AND'
p1492
tp1493
Rp1494
(dp1495
g12
VOP
p1496
sbatp1497
Rp1498
(dp1499
g12
g1448
sbsVErrorList
p1500
g1
(g88
g3
(dp1501
VFieldNotFound
p1502
(lp1503
g1
(g6
g7
S'definition'
p1504
tp1505
Rp1506
(dp1507
g12
VFieldNotFound
p1508
sbasVPhraseNotFound
p1509
(lp1510
stp1511
Rp1512
(dp1513
g12
g1500
sg102
(lp1514
g1509
ag1502
asbsVTranslationSet
p1515
g1
(g18
g19
(lp1516
g1
(g2
g3
(dp1517
VTo
p1518
g1
(g6
g7
S'"Boopsoidea inornata"[Organism]'
p1519
tp1520
Rp1521
(dp1522
g12
g1518
sbsVFrom
p1523
g1
(g6
g7
S'Boopsoidea inornata[organism]'
p1524
tp1525
Rp1526
(dp1527
g12
g1523
sbstp1528
Rp1529
(dp1530
g12
VTranslation
p1531
sbatp1532
Rp1533
(dp1534
g12
g1515
sbsVRetStart
p1535
g1
(g6
g7
g125
tp1536
Rp1537
(dp1538
g12
g1535
sbsVQueryTranslation
p1539
g1
(g6
g7
S'"Boopsoidea inornata"[Organism] AND 16S[All Fields]'
p1540
tp1541
Rp1542
(dp1543
g12
g1539
sbstp1544
Rp1545
(dp1546
g12
VeSearchResult
p1547
sbag1
(g2
g3
(dp1548
VCount
p1549
g1
(g6
g7
g8
tp1550
Rp1551
(dp1552
g12
g1549
sbsVRetMax
p1553
g1
(g6
g7
g8
tp1554
Rp1555
(dp1556
g12
g1553
sbsVIdList
p1557
g1
(g18
g19
(lp1558
g1
(g6
g7
S'386372807'
p1559
tp1560
Rp1561
(dp1562
g12
VId
p1563
sbag1
(g6
g7
S'62123282'
p1564
tp1565
Rp1566
(dp1567
g12
g1563
sbatp1568
Rp1569
(dp1570
g12
g1557
sbsVTranslationStack
p1571
g1
(g18
g19
(lp1572
g1
(g2
g3
(dp1573
g1549
g1
(g6
g7
g1106
tp1574
Rp1575
(dp1576
g12
g1549
sbsVField
p1577
g1
(g6
g7
S'Organism'
p1578
tp1579
Rp1580
(dp1581
g12
g1577
sbsVTerm
p1582
g1
(g6
g7
S'"Calamus brachysomus"[Organism]'
p1583
tp1584
Rp1585
(dp1586
g12
g1582
sbsVExplode
p1587
g1
(g6
g7
g51
tp1588
Rp1589
(dp1590
g12
g1587
sbstp1591
Rp1592
(dp1593
g12
VTermSet
p1594
sbag1
(g2
g3
(dp1595
g1549
g1
(g6
g7
S'12666469'
p1596
tp1597
Rp1598
(dp1599
g12
g1549
sbsg1577
g1
(g6
g7
S'All Fields'
p1600
tp1601
Rp1602
(dp1603
g12
g1577
sbsg1582
g1
(g6
g7
S'16S[All Fields]'
p1604
tp1605
Rp1606
(dp1607
g12
g1582
sbsg1587
g1
(g6
g7
g72
tp1608
Rp1609
(dp1610
g12
g1587
sbstp1611
Rp1612
(dp1613
g12
g1594
sbag1
(g6
g7
S'AND'
p1614
tp1615
Rp1616
(dp1617
g12
VOP
p1618
sbatp1619
Rp1620
(dp1621
g12
g1571
sbsVErrorList
p1622
g1
(g88
g3
(dp1623
VFieldNotFound
p1624
(lp1625
g1
(g6
g7
S'definition'
p1626
tp1627
Rp1628
(dp1629
g12
VFieldNotFound
p1630
sbasVPhraseNotFound
p1631
(lp1632
stp1633
Rp1634
(dp1635
g12
g1622
sg102
(lp1636
g1631
ag1624
asbsVTranslationSet
p1637
g1
(g18
g19
(lp1638
g1
(g2
g3
(dp1639
VTo
p1640
g1
(g6
g7
S'"Calamus brachysomus"[Organism]'
p1641
tp1642
Rp1643
(dp1644
g12
g1640
sbsVFrom
p1645
g1
(g6
g7
S'Calamus brachysomus[organism]'
p1646
tp1647
Rp1648
(dp1649
g12
g1645
sbstp1650
Rp1651
(dp1652
g12
VTranslation
p1653
sbatp1654
Rp1655
(dp1656
g12
g1637
sbsVRetStart
p1657
g1
(g6
g7
g125
tp1658
Rp1659
(dp1660
g12
g1657
sbsVQueryTranslation
p1661
g1
(g6
g7
S'"Calamus brachysomus"[Organism] AND 16S[All Fields]'
p1662
tp1663
Rp1664
(dp1665
g12
g1661
sbstp1666
Rp1667
(dp1668
g12
VeSearchResult
p1669
sbag1
(g2
g3
(dp1670
VCount
p1671
g1
(g6
g7
g986
tp1672
Rp1673
(dp1674
g12
g1671
sbsVRetMax
p1675
g1
(g6
g7
g986
tp1676
Rp1677
(dp1678
g12
g1675
sbsVIdList
p1679
g1
(g18
g19
(lp1680
g1
(g6
g7
S'19850089'
p1681
tp1682
Rp1683
(dp1684
g12
VId
p1685
sbatp1686
Rp1687
(dp1688
g12
g1679
sbsVTranslationStack
p1689
g1
(g18
g19
(lp1690
g1
(g2
g3
(dp1691
g1671
g1
(g6
g7
S'11'
p1692
tp1693
Rp1694
(dp1695
g12
g1671
sbsVField
p1696
g1
(g6
g7
S'Organism'
p1697
tp1698
Rp1699
(dp1700
g12
g1696
sbsVTerm
p1701
g1
(g6
g7
S'"Calamus nodosus"[Organism]'
p1702
tp1703
Rp1704
(dp1705
g12
g1701
sbsVExplode
p1706
g1
(g6
g7
g51
tp1707
Rp1708
(dp1709
g12
g1706
sbstp1710
Rp1711
(dp1712
g12
VTermSet
p1713
sbag1
(g2
g3
(dp1714
g1671
g1
(g6
g7
S'12666469'
p1715
tp1716
Rp1717
(dp1718
g12
g1671
sbsg1696
g1
(g6
g7
S'All Fields'
p1719
tp1720
Rp1721
(dp1722
g12
g1696
sbsg1701
g1
(g6
g7
S'16S[All Fields]'
p1723
tp1724
Rp1725
(dp1726
g12
g1701
sbsg1706
g1
(g6
g7
g72
tp1727
Rp1728
(dp1729
g12
g1706
sbstp1730
Rp1731
(dp1732
g12
g1713
sbag1
(g6
g7
S'AND'
p1733
tp1734
Rp1735
(dp1736
g12
VOP
p1737
sbatp1738
Rp1739
(dp1740
g12
g1689
sbsVErrorList
p1741
g1
(g88
g3
(dp1742
VFieldNotFound
p1743
(lp1744
g1
(g6
g7
S'definition'
p1745
tp1746
Rp1747
(dp1748
g12
VFieldNotFound
p1749
sbasVPhraseNotFound
p1750
(lp1751
stp1752
Rp1753
(dp1754
g12
g1741
sg102
(lp1755
g1750
ag1743
asbsVTranslationSet
p1756
g1
(g18
g19
(lp1757
g1
(g2
g3
(dp1758
VTo
p1759
g1
(g6
g7
S'"Calamus nodosus"[Organism]'
p1760
tp1761
Rp1762
(dp1763
g12
g1759
sbsVFrom
p1764
g1
(g6
g7
S'Calamus nodosus[organism]'
p1765
tp1766
Rp1767
(dp1768
g12
g1764
sbstp1769
Rp1770
(dp1771
g12
VTranslation
p1772
sbatp1773
Rp1774
(dp1775
g12
g1756
sbsVRetStart
p1776
g1
(g6
g7
g125
tp1777
Rp1778
(dp1779
g12
g1776
sbsVQueryTranslation
p1780
g1
(g6
g7
S'"Calamus nodosus"[Organism] AND 16S[All Fields]'
p1781
tp1782
Rp1783
(dp1784
g12
g1780
sbstp1785
Rp1786
(dp1787
g12
VeSearchResult
p1788
sbag1
(g2
g3
(dp1789
VCount
p1790
g1
(g6
g7
g986
tp1791
Rp1792
(dp1793
g12
g1790
sbsVRetMax
p1794
g1
(g6
g7
g986
tp1795
Rp1796
(dp1797
g12
g1794
sbsVIdList
p1798
g1
(g18
g19
(lp1799
g1
(g6
g7
S'58198985'
p1800
tp1801
Rp1802
(dp1803
g12
VId
p1804
sbatp1805
Rp1806
(dp1807
g12
g1798
sbsVTranslationStack
p1808
g1
(g18
g19
(lp1809
g1
(g2
g3
(dp1810
g1790
g1
(g6
g7
S'17'
p1811
tp1812
Rp1813
(dp1814
g12
g1790
sbsVField
p1815
g1
(g6
g7
S'Organism'
p1816
tp1817
Rp1818
(dp1819
g12
g1815
sbsVTerm
p1820
g1
(g6
g7
S'"Calamus penna"[Organism]'
p1821
tp1822
Rp1823
(dp1824
g12
g1820
sbsVExplode
p1825
g1
(g6
g7
g51
tp1826
Rp1827
(dp1828
g12
g1825
sbstp1829
Rp1830
(dp1831
g12
VTermSet
p1832
sbag1
(g2
g3
(dp1833
g1790
g1
(g6
g7
S'12666469'
p1834
tp1835
Rp1836
(dp1837
g12
g1790
sbsg1815
g1
(g6
g7
S'All Fields'
p1838
tp1839
Rp1840
(dp1841
g12
g1815
sbsg1820
g1
(g6
g7
S'16S[All Fields]'
p1842
tp1843
Rp1844
(dp1845
g12
g1820
sbsg1825
g1
(g6
g7
g72
tp1846
Rp1847
(dp1848
g12
g1825
sbstp1849
Rp1850
(dp1851
g12
g1832
sbag1
(g6
g7
S'AND'
p1852
tp1853
Rp1854
(dp1855
g12
VOP
p1856
sbatp1857
Rp1858
(dp1859
g12
g1808
sbsVErrorList
p1860
g1
(g88
g3
(dp1861
VFieldNotFound
p1862
(lp1863
g1
(g6
g7
S'definition'
p1864
tp1865
Rp1866
(dp1867
g12
VFieldNotFound
p1868
sbasVPhraseNotFound
p1869
(lp1870
stp1871
Rp1872
(dp1873
g12
g1860
sg102
(lp1874
g1869
ag1862
asbsVTranslationSet
p1875
g1
(g18
g19
(lp1876
g1
(g2
g3
(dp1877
VTo
p1878
g1
(g6
g7
S'"Calamus penna"[Organism]'
p1879
tp1880
Rp1881
(dp1882
g12
g1878
sbsVFrom
p1883
g1
(g6
g7
S'Calamus penna[organism]'
p1884
tp1885
Rp1886
(dp1887
g12
g1883
sbstp1888
Rp1889
(dp1890
g12
VTranslation
p1891
sbatp1892
Rp1893
(dp1894
g12
g1875
sbsVRetStart
p1895
g1
(g6
g7
g125
tp1896
Rp1897
(dp1898
g12
g1895
sbsVQueryTranslation
p1899
g1
(g6
g7
S'"Calamus penna"[Organism] AND 16S[All Fields]'
p1900
tp1901
Rp1902
(dp1903
g12
g1899
sbstp1904
Rp1905
(dp1906
g12
VeSearchResult
p1907
sbag1
(g2
g3
(dp1908
VCount
p1909
g1
(g6
g7
g140
tp1910
Rp1911
(dp1912
g12
g1909
sbsVRetMax
p1913
g1
(g6
g7
g140
tp1914
Rp1915
(dp1916
g12
g1913
sbsVIdList
p1917
g1
(g18
g19
(lp1918
g1
(g6
g7
S'330426837'
p1919
tp1920
Rp1921
(dp1922
g12
VId
p1923
sbag1
(g6
g7
S'330426836'
p1924
tp1925
Rp1926
(dp1927
g12
g1923
sbag1
(g6
g7
S'330426835'
p1928
tp1929
Rp1930
(dp1931
g12
g1923
sbatp1932
Rp1933
(dp1934
g12
g1917
sbsVTranslationStack
p1935
g1
(g18
g19
(lp1936
g1
(g2
g3
(dp1937
g1909
g1
(g6
g7
S'15'
p1938
tp1939
Rp1940
(dp1941
g12
g1909
sbsVField
p1942
g1
(g6
g7
S'Organism'
p1943
tp1944
Rp1945
(dp1946
g12
g1942
sbsVTerm
p1947
g1
(g6
g7
S'"Centracanthus cirrus"[Organism]'
p1948
tp1949
Rp1950
(dp1951
g12
g1947
sbsVExplode
p1952
g1
(g6
g7
g51
tp1953
Rp1954
(dp1955
g12
g1952
sbstp1956
Rp1957
(dp1958
g12
VTermSet
p1959
sbag1
(g2
g3
(dp1960
g1909
g1
(g6
g7
S'12666469'
p1961
tp1962
Rp1963
(dp1964
g12
g1909
sbsg1942
g1
(g6
g7
S'All Fields'
p1965
tp1966
Rp1967
(dp1968
g12
g1942
sbsg1947
g1
(g6
g7
S'16S[All Fields]'
p1969
tp1970
Rp1971
(dp1972
g12
g1947
sbsg1952
g1
(g6
g7
g72
tp1973
Rp1974
(dp1975
g12
g1952
sbstp1976
Rp1977
(dp1978
g12
g1959
sbag1
(g6
g7
S'AND'
p1979
tp1980
Rp1981
(dp1982
g12
VOP
p1983
sbatp1984
Rp1985
(dp1986
g12
g1935
sbsVErrorList
p1987
g1
(g88
g3
(dp1988
VFieldNotFound
p1989
(lp1990
g1
(g6
g7
S'definition'
p1991
tp1992
Rp1993
(dp1994
g12
VFieldNotFound
p1995
sbasVPhraseNotFound
p1996
(lp1997
stp1998
Rp1999
(dp2000
g12
g1987
sg102
(lp2001
g1996
ag1989
asbsVTranslationSet
p2002
g1
(g18
g19
(lp2003
g1
(g2
g3
(dp2004
VTo
p2005
g1
(g6
g7
S'"Centracanthus cirrus"[Organism]'
p2006
tp2007
Rp2008
(dp2009
g12
g2005
sbsVFrom
p2010
g1
(g6
g7
S'Centracanthus cirrus[organism]'
p2011
tp2012
Rp2013
(dp2014
g12
g2010
sbstp2015
Rp2016
(dp2017
g12
VTranslation
p2018
sbatp2019
Rp2020
(dp2021
g12
g2002
sbsVRetStart
p2022
g1
(g6
g7
g125
tp2023
Rp2024
(dp2025
g12
g2022
sbsVQueryTranslation
p2026
g1
(g6
g7
S'"Centracanthus cirrus"[Organism] AND 16S[All Fields]'
p2027
tp2028
Rp2029
(dp2030
g12
g2026
sbstp2031
Rp2032
(dp2033
g12
VeSearchResult
p2034
sbag1
(g2
g3
(dp2035
VCount
p2036
g1
(g6
g7
S'9'
p2037
tp2038
Rp2039
(dp2040
g12
g2036
sbsVRetMax
p2041
g1
(g6
g7
g2037
tp2042
Rp2043
(dp2044
g12
g2041
sbsVIdList
p2045
g1
(g18
g19
(lp2046
g1
(g6
g7
S'336317889'
p2047
tp2048
Rp2049
(dp2050
g12
VId
p2051
sbag1
(g6
g7
S'293595854'
p2052
tp2053
Rp2054
(dp2055
g12
g2051
sbag1
(g6
g7
S'293595853'
p2056
tp2057
Rp2058
(dp2059
g12
g2051
sbag1
(g6
g7
S'293595852'
p2060
tp2061
Rp2062
(dp2063
g12
g2051
sbag1
(g6
g7
S'291289141'
p2064
tp2065
Rp2066
(dp2067
g12
g2051
sbag1
(g6
g7
S'291289140'
p2068
tp2069
Rp2070
(dp2071
g12
g2051
sbag1
(g6
g7
S'291289139'
p2072
tp2073
Rp2074
(dp2075
g12
g2051
sbag1
(g6
g7
S'336317914'
p2076
tp2077
Rp2078
(dp2079
g12
g2051
sbag1
(g6
g7
S'19850078'
p2080
tp2081
Rp2082
(dp2083
g12
g2051
sbatp2084
Rp2085
(dp2086
g12
g2045
sbsVTranslationStack
p2087
g1
(g18
g19
(lp2088
g1
(g2
g3
(dp2089
g2036
g1
(g6
g7
S'27'
p2090
tp2091
Rp2092
(dp2093
g12
g2036
sbsVField
p2094
g1
(g6
g7
S'Organism'
p2095
tp2096
Rp2097
(dp2098
g12
g2094
sbsVTerm
p2099
g1
(g6
g7
S'"Cheimerius nufar"[Organism]'
p2100
tp2101
Rp2102
(dp2103
g12
g2099
sbsVExplode
p2104
g1
(g6
g7
g51
tp2105
Rp2106
(dp2107
g12
g2104
sbstp2108
Rp2109
(dp2110
g12
VTermSet
p2111
sbag1
(g2
g3
(dp2112
g2036
g1
(g6
g7
S'12666469'
p2113
tp2114
Rp2115
(dp2116
g12
g2036
sbsg2094
g1
(g6
g7
S'All Fields'
p2117
tp2118
Rp2119
(dp2120
g12
g2094
sbsg2099
g1
(g6
g7
S'16S[All Fields]'
p2121
tp2122
Rp2123
(dp2124
g12
g2099
sbsg2104
g1
(g6
g7
g72
tp2125
Rp2126
(dp2127
g12
g2104
sbstp2128
Rp2129
(dp2130
g12
g2111
sbag1
(g6
g7
S'AND'
p2131
tp2132
Rp2133
(dp2134
g12
VOP
p2135
sbatp2136
Rp2137
(dp2138
g12
g2087
sbsVErrorList
p2139
g1
(g88
g3
(dp2140
VFieldNotFound
p2141
(lp2142
g1
(g6
g7
S'definition'
p2143
tp2144
Rp2145
(dp2146
g12
VFieldNotFound
p2147
sbasVPhraseNotFound
p2148
(lp2149
stp2150
Rp2151
(dp2152
g12
g2139
sg102
(lp2153
g2148
ag2141
asbsVTranslationSet
p2154
g1
(g18
g19
(lp2155
g1
(g2
g3
(dp2156
VTo
p2157
g1
(g6
g7
S'"Cheimerius nufar"[Organism]'
p2158
tp2159
Rp2160
(dp2161
g12
g2157
sbsVFrom
p2162
g1
(g6
g7
S'Cheimerius nufar[organism]'
p2163
tp2164
Rp2165
(dp2166
g12
g2162
sbstp2167
Rp2168
(dp2169
g12
VTranslation
p2170
sbatp2171
Rp2172
(dp2173
g12
g2154
sbsVRetStart
p2174
g1
(g6
g7
g125
tp2175
Rp2176
(dp2177
g12
g2174
sbsVQueryTranslation
p2178
g1
(g6
g7
S'"Cheimerius nufar"[Organism] AND 16S[All Fields]'
p2179
tp2180
Rp2181
(dp2182
g12
g2178
sbstp2183
Rp2184
(dp2185
g12
VeSearchResult
p2186
sbag1
(g2
g3
(dp2187
VCount
p2188
g1
(g6
g7
g1106
tp2189
Rp2190
(dp2191
g12
g2188
sbsVRetMax
p2192
g1
(g6
g7
g1106
tp2193
Rp2194
(dp2195
g12
g2192
sbsVIdList
p2196
g1
(g18
g19
(lp2197
g1
(g6
g7
S'402810039'
p2198
tp2199
Rp2200
(dp2201
g12
VId
p2202
sbag1
(g6
g7
S'332802194'
p2203
tp2204
Rp2205
(dp2206
g12
g2202
sbag1
(g6
g7
S'332802193'
p2207
tp2208
Rp2209
(dp2210
g12
g2202
sbag1
(g6
g7
S'332802192'
p2211
tp2212
Rp2213
(dp2214
g12
g2202
sbag1
(g6
g7
S'315019149'
p2215
tp2216
Rp2217
(dp2218
g12
g2202
sbag1
(g6
g7
S'315019148'
p2219
tp2220
Rp2221
(dp2222
g12
g2202
sbag1
(g6
g7
S'315019147'
p2223
tp2224
Rp2225
(dp2226
g12
g2202
sbatp2227
Rp2228
(dp2229
g12
g2196
sbsVTranslationStack
p2230
g1
(g18
g19
(lp2231
g1
(g2
g3
(dp2232
g2188
g1
(g6
g7
S'21'
p2233
tp2234
Rp2235
(dp2236
g12
g2188
sbsVField
p2237
g1
(g6
g7
S'Organism'
p2238
tp2239
Rp2240
(dp2241
g12
g2237
sbsVTerm
p2242
g1
(g6
g7
S'"Chrysoblephus anglicus"[Organism]'
p2243
tp2244
Rp2245
(dp2246
g12
g2242
sbsVExplode
p2247
g1
(g6
g7
g51
tp2248
Rp2249
(dp2250
g12
g2247
sbstp2251
Rp2252
(dp2253
g12
VTermSet
p2254
sbag1
(g2
g3
(dp2255
g2188
g1
(g6
g7
S'12666469'
p2256
tp2257
Rp2258
(dp2259
g12
g2188
sbsg2237
g1
(g6
g7
S'All Fields'
p2260
tp2261
Rp2262
(dp2263
g12
g2237
sbsg2242
g1
(g6
g7
S'16S[All Fields]'
p2264
tp2265
Rp2266
(dp2267
g12
g2242
sbsg2247
g1
(g6
g7
g72
tp2268
Rp2269
(dp2270
g12
g2247
sbstp2271
Rp2272
(dp2273
g12
g2254
sbag1
(g6
g7
S'AND'
p2274
tp2275
Rp2276
(dp2277
g12
VOP
p2278
sbatp2279
Rp2280
(dp2281
g12
g2230
sbsVErrorList
p2282
g1
(g88
g3
(dp2283
VFieldNotFound
p2284
(lp2285
g1
(g6
g7
S'definition'
p2286
tp2287
Rp2288
(dp2289
g12
VFieldNotFound
p2290
sbasVPhraseNotFound
p2291
(lp2292
stp2293
Rp2294
(dp2295
g12
g2282
sg102
(lp2296
g2291
ag2284
asbsVTranslationSet
p2297
g1
(g18
g19
(lp2298
g1
(g2
g3
(dp2299
VTo
p2300
g1
(g6
g7
S'"Chrysoblephus anglicus"[Organism]'
p2301
tp2302
Rp2303
(dp2304
g12
g2300
sbsVFrom
p2305
g1
(g6
g7
S'Chrysoblephus anglicus[organism]'
p2306
tp2307
Rp2308
(dp2309
g12
g2305
sbstp2310
Rp2311
(dp2312
g12
VTranslation
p2313
sbatp2314
Rp2315
(dp2316
g12
g2297
sbsVRetStart
p2317
g1
(g6
g7
g125
tp2318
Rp2319
(dp2320
g12
g2317
sbsVQueryTranslation
p2321
g1
(g6
g7
S'"Chrysoblephus anglicus"[Organism] AND 16S[All Fields]'
p2322
tp2323
Rp2324
(dp2325
g12
g2321
sbstp2326
Rp2327
(dp2328
g12
VeSearchResult
p2329
sbag1
(g2
g3
(dp2330
VCount
p2331
g1
(g6
g7
g8
tp2332
Rp2333
(dp2334
g12
g2331
sbsVRetMax
p2335
g1
(g6
g7
g8
tp2336
Rp2337
(dp2338
g12
g2335
sbsVIdList
p2339
g1
(g18
g19
(lp2340
g1
(g6
g7
S'402810044'
p2341
tp2342
Rp2343
(dp2344
g12
VId
p2345
sbag1
(g6
g7
S'19850090'
p2346
tp2347
Rp2348
(dp2349
g12
g2345
sbatp2350
Rp2351
(dp2352
g12
g2339
sbsVTranslationStack
p2353
g1
(g18
g19
(lp2354
g1
(g2
g3
(dp2355
g2331
g1
(g6
g7
S'14'
p2356
tp2357
Rp2358
(dp2359
g12
g2331
sbsVField
p2360
g1
(g6
g7
S'Organism'
p2361
tp2362
Rp2363
(dp2364
g12
g2360
sbsVTerm
p2365
g1
(g6
g7
S'"Chrysoblephus cristiceps"[Organism]'
p2366
tp2367
Rp2368
(dp2369
g12
g2365
sbsVExplode
p2370
g1
(g6
g7
g51
tp2371
Rp2372
(dp2373
g12
g2370
sbstp2374
Rp2375
(dp2376
g12
VTermSet
p2377
sbag1
(g2
g3
(dp2378
g2331
g1
(g6
g7
S'12666469'
p2379
tp2380
Rp2381
(dp2382
g12
g2331
sbsg2360
g1
(g6
g7
S'All Fields'
p2383
tp2384
Rp2385
(dp2386
g12
g2360
sbsg2365
g1
(g6
g7
S'16S[All Fields]'
p2387
tp2388
Rp2389
(dp2390
g12
g2365
sbsg2370
g1
(g6
g7
g72
tp2391
Rp2392
(dp2393
g12
g2370
sbstp2394
Rp2395
(dp2396
g12
g2377
sbag1
(g6
g7
S'AND'
p2397
tp2398
Rp2399
(dp2400
g12
VOP
p2401
sbatp2402
Rp2403
(dp2404
g12
g2353
sbsVErrorList
p2405
g1
(g88
g3
(dp2406
VFieldNotFound
p2407
(lp2408
g1
(g6
g7
S'definition'
p2409
tp2410
Rp2411
(dp2412
g12
VFieldNotFound
p2413
sbasVPhraseNotFound
p2414
(lp2415
stp2416
Rp2417
(dp2418
g12
g2405
sg102
(lp2419
g2414
ag2407
asbsVTranslationSet
p2420
g1
(g18
g19
(lp2421
g1
(g2
g3
(dp2422
VTo
p2423
g1
(g6
g7
S'"Chrysoblephus cristiceps"[Organism]'
p2424
tp2425
Rp2426
(dp2427
g12
g2423
sbsVFrom
p2428
g1
(g6
g7
S'Chrysoblephus cristiceps[organism]'
p2429
tp2430
Rp2431
(dp2432
g12
g2428
sbstp2433
Rp2434
(dp2435
g12
VTranslation
p2436
sbatp2437
Rp2438
(dp2439
g12
g2420
sbsVRetStart
p2440
g1
(g6
g7
g125
tp2441
Rp2442
(dp2443
g12
g2440
sbsVQueryTranslation
p2444
g1
(g6
g7
S'"Chrysoblephus cristiceps"[Organism] AND 16S[All Fields]'
p2445
tp2446
Rp2447
(dp2448
g12
g2444
sbstp2449
Rp2450
(dp2451
g12
VeSearchResult
p2452
sbag1
(g2
g3
(dp2453
VCount
p2454
g1
(g6
g7
g1106
tp2455
Rp2456
(dp2457
g12
g2454
sbsVRetMax
p2458
g1
(g6
g7
g1106
tp2459
Rp2460
(dp2461
g12
g2458
sbsVIdList
p2462
g1
(g18
g19
(lp2463
g1
(g6
g7
S'402810048'
p2464
tp2465
Rp2466
(dp2467
g12
VId
p2468
sbag1
(g6
g7
S'293595845'
p2469
tp2470
Rp2471
(dp2472
g12
g2468
sbag1
(g6
g7
S'293595844'
p2473
tp2474
Rp2475
(dp2476
g12
g2468
sbag1
(g6
g7
S'293595843'
p2477
tp2478
Rp2479
(dp2480
g12
g2468
sbag1
(g6
g7
S'291289138'
p2481
tp2482
Rp2483
(dp2484
g12
g2468
sbag1
(g6
g7
S'291289137'
p2485
tp2486
Rp2487
(dp2488
g12
g2468
sbag1
(g6
g7
S'291289136'
p2489
tp2490
Rp2491
(dp2492
g12
g2468
sbatp2493
Rp2494
(dp2495
g12
g2462
sbsVTranslationStack
p2496
g1
(g18
g19
(lp2497
g1
(g2
g3
(dp2498
g2454
g1
(g6
g7
S'185'
p2499
tp2500
Rp2501
(dp2502
g12
g2454
sbsVField
p2503
g1
(g6
g7
S'Organism'
p2504
tp2505
Rp2506
(dp2507
g12
g2503
sbsVTerm
p2508
g1
(g6
g7
S'"Chrysoblephus laticeps"[Organism]'
p2509
tp2510
Rp2511
(dp2512
g12
g2508
sbsVExplode
p2513
g1
(g6
g7
g51
tp2514
Rp2515
(dp2516
g12
g2513
sbstp2517
Rp2518
(dp2519
g12
VTermSet
p2520
sbag1
(g2
g3
(dp2521
g2454
g1
(g6
g7
S'12666469'
p2522
tp2523
Rp2524
(dp2525
g12
g2454
sbsg2503
g1
(g6
g7
S'All Fields'
p2526
tp2527
Rp2528
(dp2529
g12
g2503
sbsg2508
g1
(g6
g7
S'16S[All Fields]'
p2530
tp2531
Rp2532
(dp2533
g12
g2508
sbsg2513
g1
(g6
g7
g72
tp2534
Rp2535
(dp2536
g12
g2513
sbstp2537
Rp2538
(dp2539
g12
g2520
sbag1
(g6
g7
S'AND'
p2540
tp2541
Rp2542
(dp2543
g12
VOP
p2544
sbatp2545
Rp2546
(dp2547
g12
g2496
sbsVErrorList
p2548
g1
(g88
g3
(dp2549
VFieldNotFound
p2550
(lp2551
g1
(g6
g7
S'definition'
p2552
tp2553
Rp2554
(dp2555
g12
VFieldNotFound
p2556
sbasVPhraseNotFound
p2557
(lp2558
stp2559
Rp2560
(dp2561
g12
g2548
sg102
(lp2562
g2557
ag2550
asbsVTranslationSet
p2563
g1
(g18
g19
(lp2564
g1
(g2
g3
(dp2565
VTo
p2566
g1
(g6
g7
S'"Chrysoblephus laticeps"[Organism]'
p2567
tp2568
Rp2569
(dp2570
g12
g2566
sbsVFrom
p2571
g1
(g6
g7
S'Chrysoblephus laticeps[organism]'
p2572
tp2573
Rp2574
(dp2575
g12
g2571
sbstp2576
Rp2577
(dp2578
g12
VTranslation
p2579
sbatp2580
Rp2581
(dp2582
g12
g2563
sbsVRetStart
p2583
g1
(g6
g7
g125
tp2584
Rp2585
(dp2586
g12
g2583
sbsVQueryTranslation
p2587
g1
(g6
g7
S'"Chrysoblephus laticeps"[Organism] AND 16S[All Fields]'
p2588
tp2589
Rp2590
(dp2591
g12
g2587
sbstp2592
Rp2593
(dp2594
g12
VeSearchResult
p2595
sbag1
(g2
g3
(dp2596
VCount
p2597
g1
(g6
g7
g986
tp2598
Rp2599
(dp2600
g12
g2597
sbsVRetMax
p2601
g1
(g6
g7
g986
tp2602
Rp2603
(dp2604
g12
g2601
sbsVIdList
p2605
g1
(g18
g19
(lp2606
g1
(g6
g7
S'402810043'
p2607
tp2608
Rp2609
(dp2610
g12
VId
p2611
sbatp2612
Rp2613
(dp2614
g12
g2605
sbsVTranslationStack
p2615
g1
(g18
g19
(lp2616
g1
(g2
g3
(dp2617
g2597
g1
(g6
g7
S'12'
p2618
tp2619
Rp2620
(dp2621
g12
g2597
sbsVField
p2622
g1
(g6
g7
S'Organism'
p2623
tp2624
Rp2625
(dp2626
g12
g2622
sbsVTerm
p2627
g1
(g6
g7
S'"Chrysoblephus lophus"[Organism]'
p2628
tp2629
Rp2630
(dp2631
g12
g2627
sbsVExplode
p2632
g1
(g6
g7
g51
tp2633
Rp2634
(dp2635
g12
g2632
sbstp2636
Rp2637
(dp2638
g12
VTermSet
p2639
sbag1
(g2
g3
(dp2640
g2597
g1
(g6
g7
S'12666469'
p2641
tp2642
Rp2643
(dp2644
g12
g2597
sbsg2622
g1
(g6
g7
S'All Fields'
p2645
tp2646
Rp2647
(dp2648
g12
g2622
sbsg2627
g1
(g6
g7
S'16S[All Fields]'
p2649
tp2650
Rp2651
(dp2652
g12
g2627
sbsg2632
g1
(g6
g7
g72
tp2653
Rp2654
(dp2655
g12
g2632
sbstp2656
Rp2657
(dp2658
g12
g2639
sbag1
(g6
g7
S'AND'
p2659
tp2660
Rp2661
(dp2662
g12
VOP
p2663
sbatp2664
Rp2665
(dp2666
g12
g2615
sbsVErrorList
p2667
g1
(g88
g3
(dp2668
VFieldNotFound
p2669
(lp2670
g1
(g6
g7
S'definition'
p2671
tp2672
Rp2673
(dp2674
g12
VFieldNotFound
p2675
sbasVPhraseNotFound
p2676
(lp2677
stp2678
Rp2679
(dp2680
g12
g2667
sg102
(lp2681
g2676
ag2669
asbsVTranslationSet
p2682
g1
(g18
g19
(lp2683
g1
(g2
g3
(dp2684
VTo
p2685
g1
(g6
g7
S'"Chrysoblephus lophus"[Organism]'
p2686
tp2687
Rp2688
(dp2689
g12
g2685
sbsVFrom
p2690
g1
(g6
g7
S'Chrysoblephus lophus[organism]'
p2691
tp2692
Rp2693
(dp2694
g12
g2690
sbstp2695
Rp2696
(dp2697
g12
VTranslation
p2698
sbatp2699
Rp2700
(dp2701
g12
g2682
sbsVRetStart
p2702
g1
(g6
g7
g125
tp2703
Rp2704
(dp2705
g12
g2702
sbsVQueryTranslation
p2706
g1
(g6
g7
S'"Chrysoblephus lophus"[Organism] AND 16S[All Fields]'
p2707
tp2708
Rp2709
(dp2710
g12
g2706
sbstp2711
Rp2712
(dp2713
g12
VeSearchResult
p2714
sbag1
(g2
g3
(dp2715
VCount
p2716
g1
(g6
g7
g1106
tp2717
Rp2718
(dp2719
g12
g2716
sbsVRetMax
p2720
g1
(g6
g7
g1106
tp2721
Rp2722
(dp2723
g12
g2720
sbsVIdList
p2724
g1
(g18
g19
(lp2725
g1
(g6
g7
S'402810042'
p2726
tp2727
Rp2728
(dp2729
g12
VId
p2730
sbag1
(g6
g7
S'332802191'
p2731
tp2732
Rp2733
(dp2734
g12
g2730
sbag1
(g6
g7
S'332802190'
p2735
tp2736
Rp2737
(dp2738
g12
g2730
sbag1
(g6
g7
S'332802189'
p2739
tp2740
Rp2741
(dp2742
g12
g2730
sbag1
(g6
g7
S'315019124'
p2743
tp2744
Rp2745
(dp2746
g12
g2730
sbag1
(g6
g7
S'315019123'
p2747
tp2748
Rp2749
(dp2750
g12
g2730
sbag1
(g6
g7
S'315019122'
p2751
tp2752
Rp2753
(dp2754
g12
g2730
sbatp2755
Rp2756
(dp2757
g12
g2724
sbsVTranslationStack
p2758
g1
(g18
g19
(lp2759
g1
(g2
g3
(dp2760
g2716
g1
(g6
g7
S'132'
p2761
tp2762
Rp2763
(dp2764
g12
g2716
sbsVField
p2765
g1
(g6
g7
S'Organism'
p2766
tp2767
Rp2768
(dp2769
g12
g2765
sbsVTerm
p2770
g1
(g6
g7
S'"Chrysoblephus puniceus"[Organism]'
p2771
tp2772
Rp2773
(dp2774
g12
g2770
sbsVExplode
p2775
g1
(g6
g7
g51
tp2776
Rp2777
(dp2778
g12
g2775
sbstp2779
Rp2780
(dp2781
g12
VTermSet
p2782
sbag1
(g2
g3
(dp2783
g2716
g1
(g6
g7
S'12666469'
p2784
tp2785
Rp2786
(dp2787
g12
g2716
sbsg2765
g1
(g6
g7
S'All Fields'
p2788
tp2789
Rp2790
(dp2791
g12
g2765
sbsg2770
g1
(g6
g7
S'16S[All Fields]'
p2792
tp2793
Rp2794
(dp2795
g12
g2770
sbsg2775
g1
(g6
g7
g72
tp2796
Rp2797
(dp2798
g12
g2775
sbstp2799
Rp2800
(dp2801
g12
g2782
sbag1
(g6
g7
S'AND'
p2802
tp2803
Rp2804
(dp2805
g12
VOP
p2806
sbatp2807
Rp2808
(dp2809
g12
g2758
sbsVErrorList
p2810
g1
(g88
g3
(dp2811
VFieldNotFound
p2812
(lp2813
g1
(g6
g7
S'definition'
p2814
tp2815
Rp2816
(dp2817
g12
VFieldNotFound
p2818
sbasVPhraseNotFound
p2819
(lp2820
stp2821
Rp2822
(dp2823
g12
g2810
sg102
(lp2824
g2819
ag2812
asbsVTranslationSet
p2825
g1
(g18
g19
(lp2826
g1
(g2
g3
(dp2827
VTo
p2828
g1
(g6
g7
S'"Chrysoblephus puniceus"[Organism]'
p2829
tp2830
Rp2831
(dp2832
g12
g2828
sbsVFrom
p2833
g1
(g6
g7
S'Chrysoblephus puniceus[organism]'
p2834
tp2835
Rp2836
(dp2837
g12
g2833
sbstp2838
Rp2839
(dp2840
g12
VTranslation
p2841
sbatp2842
Rp2843
(dp2844
g12
g2825
sbsVRetStart
p2845
g1
(g6
g7
g125
tp2846
Rp2847
(dp2848
g12
g2845
sbsVQueryTranslation
p2849
g1
(g6
g7
S'"Chrysoblephus puniceus"[Organism] AND 16S[All Fields]'
p2850
tp2851
Rp2852
(dp2853
g12
g2849
sbstp2854
Rp2855
(dp2856
g12
VeSearchResult
p2857
sbag1
(g2
g3
(dp2858
VCount
p2859
g1
(g6
g7
g986
tp2860
Rp2861
(dp2862
g12
g2859
sbsVRetMax
p2863
g1
(g6
g7
g986
tp2864
Rp2865
(dp2866
g12
g2863
sbsVIdList
p2867
g1
(g18
g19
(lp2868
g1
(g6
g7
S'19850070'
p2869
tp2870
Rp2871
(dp2872
g12
VId
p2873
sbatp2874
Rp2875
(dp2876
g12
g2867
sbsVTranslationStack
p2877
g1
(g18
g19
(lp2878
g1
(g2
g3
(dp2879
g2859
g1
(g6
g7
S'15'
p2880
tp2881
Rp2882
(dp2883
g12
g2859
sbsVField
p2884
g1
(g6
g7
S'Organism'
p2885
tp2886
Rp2887
(dp2888
g12
g2884
sbsVTerm
p2889
g1
(g6
g7
S'"Crenidens crenidens"[Organism]'
p2890
tp2891
Rp2892
(dp2893
g12
g2889
sbsVExplode
p2894
g1
(g6
g7
g51
tp2895
Rp2896
(dp2897
g12
g2894
sbstp2898
Rp2899
(dp2900
g12
VTermSet
p2901
sbag1
(g2
g3
(dp2902
g2859
g1
(g6
g7
S'12666469'
p2903
tp2904
Rp2905
(dp2906
g12
g2859
sbsg2884
g1
(g6
g7
S'All Fields'
p2907
tp2908
Rp2909
(dp2910
g12
g2884
sbsg2889
g1
(g6
g7
S'16S[All Fields]'
p2911
tp2912
Rp2913
(dp2914
g12
g2889
sbsg2894
g1
(g6
g7
g72
tp2915
Rp2916
(dp2917
g12
g2894
sbstp2918
Rp2919
(dp2920
g12
g2901
sbag1
(g6
g7
S'AND'
p2921
tp2922
Rp2923
(dp2924
g12
VOP
p2925
sbatp2926
Rp2927
(dp2928
g12
g2877
sbsVErrorList
p2929
g1
(g88
g3
(dp2930
VFieldNotFound
p2931
(lp2932
g1
(g6
g7
S'definition'
p2933
tp2934
Rp2935
(dp2936
g12
VFieldNotFound
p2937
sbasVPhraseNotFound
p2938
(lp2939
stp2940
Rp2941
(dp2942
g12
g2929
sg102
(lp2943
g2938
ag2931
asbsVTranslationSet
p2944
g1
(g18
g19
(lp2945
g1
(g2
g3
(dp2946
VTo
p2947
g1
(g6
g7
S'"Crenidens crenidens"[Organism]'
p2948
tp2949
Rp2950
(dp2951
g12
g2947
sbsVFrom
p2952
g1
(g6
g7
S'Crenidens crenidens[organism]'
p2953
tp2954
Rp2955
(dp2956
g12
g2952
sbstp2957
Rp2958
(dp2959
g12
VTranslation
p2960
sbatp2961
Rp2962
(dp2963
g12
g2944
sbsVRetStart
p2964
g1
(g6
g7
g125
tp2965
Rp2966
(dp2967
g12
g2964
sbsVQueryTranslation
p2968
g1
(g6
g7
S'"Crenidens crenidens"[Organism] AND 16S[All Fields]'
p2969
tp2970
Rp2971
(dp2972
g12
g2968
sbstp2973
Rp2974
(dp2975
g12
VeSearchResult
p2976
sbag1
(g2
g3
(dp2977
VCount
p2978
g1
(g6
g7
g986
tp2979
Rp2980
(dp2981
g12
g2978
sbsVRetMax
p2982
g1
(g6
g7
g986
tp2983
Rp2984
(dp2985
g12
g2982
sbsVIdList
p2986
g1
(g18
g19
(lp2987
g1
(g6
g7
S'19850091'
p2988
tp2989
Rp2990
(dp2991
g12
VId
p2992
sbatp2993
Rp2994
(dp2995
g12
g2986
sbsVTranslationStack
p2996
g1
(g18
g19
(lp2997
g1
(g2
g3
(dp2998
g2978
g1
(g6
g7
S'560'
p2999
tp3000
Rp3001
(dp3002
g12
g2978
sbsVField
p3003
g1
(g6
g7
S'Organism'
p3004
tp3005
Rp3006
(dp3007
g12
g3003
sbsVTerm
p3008
g1
(g6
g7
S'"Cymatoceps nasutus"[Organism]'
p3009
tp3010
Rp3011
(dp3012
g12
g3008
sbsVExplode
p3013
g1
(g6
g7
g51
tp3014
Rp3015
(dp3016
g12
g3013
sbstp3017
Rp3018
(dp3019
g12
VTermSet
p3020
sbag1
(g2
g3
(dp3021
g2978
g1
(g6
g7
S'12666469'
p3022
tp3023
Rp3024
(dp3025
g12
g2978
sbsg3003
g1
(g6
g7
S'All Fields'
p3026
tp3027
Rp3028
(dp3029
g12
g3003
sbsg3008
g1
(g6
g7
S'16S[All Fields]'
p3030
tp3031
Rp3032
(dp3033
g12
g3008
sbsg3013
g1
(g6
g7
g72
tp3034
Rp3035
(dp3036
g12
g3013
sbstp3037
Rp3038
(dp3039
g12
g3020
sbag1
(g6
g7
S'AND'
p3040
tp3041
Rp3042
(dp3043
g12
VOP
p3044
sbatp3045
Rp3046
(dp3047
g12
g2996
sbsVErrorList
p3048
g1
(g88
g3
(dp3049
VFieldNotFound
p3050
(lp3051
g1
(g6
g7
S'definition'
p3052
tp3053
Rp3054
(dp3055
g12
VFieldNotFound
p3056
sbasVPhraseNotFound
p3057
(lp3058
stp3059
Rp3060
(dp3061
g12
g3048
sg102
(lp3062
g3057
ag3050
asbsVTranslationSet
p3063
g1
(g18
g19
(lp3064
g1
(g2
g3
(dp3065
VTo
p3066
g1
(g6
g7
S'"Cymatoceps nasutus"[Organism]'
p3067
tp3068
Rp3069
(dp3070
g12
g3066
sbsVFrom
p3071
g1
(g6
g7
S'Cymatoceps nasutus[organism]'
p3072
tp3073
Rp3074
(dp3075
g12
g3071
sbstp3076
Rp3077
(dp3078
g12
VTranslation
p3079
sbatp3080
Rp3081
(dp3082
g12
g3063
sbsVRetStart
p3083
g1
(g6
g7
g125
tp3084
Rp3085
(dp3086
g12
g3083
sbsVQueryTranslation
p3087
g1
(g6
g7
S'"Cymatoceps nasutus"[Organism] AND 16S[All Fields]'
p3088
tp3089
Rp3090
(dp3091
g12
g3087
sbstp3092
Rp3093
(dp3094
g12
VeSearchResult
p3095
sbag1
(g2
g3
(dp3096
VCount
p3097
g1
(g6
g7
g986
tp3098
Rp3099
(dp3100
g12
g3097
sbsVRetMax
p3101
g1
(g6
g7
g986
tp3102
Rp3103
(dp3104
g12
g3101
sbsVIdList
p3105
g1
(g18
g19
(lp3106
g1
(g6
g7
S'944519626'
p3107
tp3108
Rp3109
(dp3110
g12
VId
p3111
sbatp3112
Rp3113
(dp3114
g12
g3105
sbsVTranslationStack
p3115
g1
(g18
g19
(lp3116
g1
(g2
g3
(dp3117
g3097
g1
(g6
g7
g140
tp3118
Rp3119
(dp3120
g12
g3097
sbsVField
p3121
g1
(g6
g7
S'Organism'
p3122
tp3123
Rp3124
(dp3125
g12
g3121
sbsVTerm
p3126
g1
(g6
g7
S'"Dentex abei"[Organism]'
p3127
tp3128
Rp3129
(dp3130
g12
g3126
sbsVExplode
p3131
g1
(g6
g7
g51
tp3132
Rp3133
(dp3134
g12
g3131
sbstp3135
Rp3136
(dp3137
g12
VTermSet
p3138
sbag1
(g2
g3
(dp3139
g3097
g1
(g6
g7
S'12666469'
p3140
tp3141
Rp3142
(dp3143
g12
g3097
sbsg3121
g1
(g6
g7
S'All Fields'
p3144
tp3145
Rp3146
(dp3147
g12
g3121
sbsg3126
g1
(g6
g7
S'16S[All Fields]'
p3148
tp3149
Rp3150
(dp3151
g12
g3126
sbsg3131
g1
(g6
g7
g72
tp3152
Rp3153
(dp3154
g12
g3131
sbstp3155
Rp3156
(dp3157
g12
g3138
sbag1
(g6
g7
S'AND'
p3158
tp3159
Rp3160
(dp3161
g12
VOP
p3162
sbatp3163
Rp3164
(dp3165
g12
g3115
sbsVErrorList
p3166
g1
(g88
g3
(dp3167
VFieldNotFound
p3168
(lp3169
g1
(g6
g7
S'definition'
p3170
tp3171
Rp3172
(dp3173
g12
VFieldNotFound
p3174
sbasVPhraseNotFound
p3175
(lp3176
stp3177
Rp3178
(dp3179
g12
g3166
sg102
(lp3180
g3175
ag3168
asbsVTranslationSet
p3181
g1
(g18
g19
(lp3182
g1
(g2
g3
(dp3183
VTo
p3184
g1
(g6
g7
S'"Dentex abei"[Organism]'
p3185
tp3186
Rp3187
(dp3188
g12
g3184
sbsVFrom
p3189
g1
(g6
g7
S'Dentex abei[organism]'
p3190
tp3191
Rp3192
(dp3193
g12
g3189
sbstp3194
Rp3195
(dp3196
g12
VTranslation
p3197
sbatp3198
Rp3199
(dp3200
g12
g3181
sbsVRetStart
p3201
g1
(g6
g7
g125
tp3202
Rp3203
(dp3204
g12
g3201
sbsVQueryTranslation
p3205
g1
(g6
g7
S'"Dentex abei"[Organism] AND 16S[All Fields]'
p3206
tp3207
Rp3208
(dp3209
g12
g3205
sbstp3210
Rp3211
(dp3212
g12
VeSearchResult
p3213
sbag1
(g2
g3
(dp3214
VCount
p3215
g1
(g6
g7
g986
tp3216
Rp3217
(dp3218
g12
g3215
sbsVRetMax
p3219
g1
(g6
g7
g986
tp3220
Rp3221
(dp3222
g12
g3219
sbsVIdList
p3223
g1
(g18
g19
(lp3224
g1
(g6
g7
S'6491720'
p3225
tp3226
Rp3227
(dp3228
g12
VId
p3229
sbatp3230
Rp3231
(dp3232
g12
g3223
sbsVTranslationStack
p3233
g1
(g18
g19
(lp3234
g1
(g2
g3
(dp3235
g3215
g1
(g6
g7
S'14'
p3236
tp3237
Rp3238
(dp3239
g12
g3215
sbsVField
p3240
g1
(g6
g7
S'Organism'
p3241
tp3242
Rp3243
(dp3244
g12
g3240
sbsVTerm
p3245
g1
(g6
g7
S'"Dentex canariensis"[Organism]'
p3246
tp3247
Rp3248
(dp3249
g12
g3245
sbsVExplode
p3250
g1
(g6
g7
g51
tp3251
Rp3252
(dp3253
g12
g3250
sbstp3254
Rp3255
(dp3256
g12
VTermSet
p3257
sbag1
(g2
g3
(dp3258
g3215
g1
(g6
g7
S'12666469'
p3259
tp3260
Rp3261
(dp3262
g12
g3215
sbsg3240
g1
(g6
g7
S'All Fields'
p3263
tp3264
Rp3265
(dp3266
g12
g3240
sbsg3245
g1
(g6
g7
S'16S[All Fields]'
p3267
tp3268
Rp3269
(dp3270
g12
g3245
sbsg3250
g1
(g6
g7
g72
tp3271
Rp3272
(dp3273
g12
g3250
sbstp3274
Rp3275
(dp3276
g12
g3257
sbag1
(g6
g7
S'AND'
p3277
tp3278
Rp3279
(dp3280
g12
VOP
p3281
sbatp3282
Rp3283
(dp3284
g12
g3233
sbsVErrorList
p3285
g1
(g88
g3
(dp3286
VFieldNotFound
p3287
(lp3288
g1
(g6
g7
S'definition'
p3289
tp3290
Rp3291
(dp3292
g12
VFieldNotFound
p3293
sbasVPhraseNotFound
p3294
(lp3295
stp3296
Rp3297
(dp3298
g12
g3285
sg102
(lp3299
g3294
ag3287
asbsVTranslationSet
p3300
g1
(g18
g19
(lp3301
g1
(g2
g3
(dp3302
VTo
p3303
g1
(g6
g7
S'"Dentex canariensis"[Organism]'
p3304
tp3305
Rp3306
(dp3307
g12
g3303
sbsVFrom
p3308
g1
(g6
g7
S'Dentex canariensis[organism]'
p3309
tp3310
Rp3311
(dp3312
g12
g3308
sbstp3313
Rp3314
(dp3315
g12
VTranslation
p3316
sbatp3317
Rp3318
(dp3319
g12
g3300
sbsVRetStart
p3320
g1
(g6
g7
g125
tp3321
Rp3322
(dp3323
g12
g3320
sbsVQueryTranslation
p3324
g1
(g6
g7
S'"Dentex canariensis"[Organism] AND 16S[All Fields]'
p3325
tp3326
Rp3327
(dp3328
g12
g3324
sbstp3329
Rp3330
(dp3331
g12
VeSearchResult
p3332
sbag1
(g2
g3
(dp3333
VCount
p3334
g1
(g6
g7
g140
tp3335
Rp3336
(dp3337
g12
g3334
sbsVRetMax
p3338
g1
(g6
g7
g140
tp3339
Rp3340
(dp3341
g12
g3338
sbsVIdList
p3342
g1
(g18
g19
(lp3343
g1
(g6
g7
S'109158877'
p3344
tp3345
Rp3346
(dp3347
g12
VId
p3348
sbag1
(g6
g7
S'109158552'
p3349
tp3350
Rp3351
(dp3352
g12
g3348
sbag1
(g6
g7
S'6491721'
p3353
tp3354
Rp3355
(dp3356
g12
g3348
sbatp3357
Rp3358
(dp3359
g12
g3342
sbsVTranslationStack
p3360
g1
(g18
g19
(lp3361
g1
(g2
g3
(dp3362
g3334
g1
(g6
g7
S'126'
p3363
tp3364
Rp3365
(dp3366
g12
g3334
sbsVField
p3367
g1
(g6
g7
S'Organism'
p3368
tp3369
Rp3370
(dp3371
g12
g3367
sbsVTerm
p3372
g1
(g6
g7
S'"Dentex dentex"[Organism]'
p3373
tp3374
Rp3375
(dp3376
g12
g3372
sbsVExplode
p3377
g1
(g6
g7
g51
tp3378
Rp3379
(dp3380
g12
g3377
sbstp3381
Rp3382
(dp3383
g12
VTermSet
p3384
sbag1
(g2
g3
(dp3385
g3334
g1
(g6
g7
S'12666469'
p3386
tp3387
Rp3388
(dp3389
g12
g3334
sbsg3367
g1
(g6
g7
S'All Fields'
p3390
tp3391
Rp3392
(dp3393
g12
g3367
sbsg3372
g1
(g6
g7
S'16S[All Fields]'
p3394
tp3395
Rp3396
(dp3397
g12
g3372
sbsg3377
g1
(g6
g7
g72
tp3398
Rp3399
(dp3400
g12
g3377
sbstp3401
Rp3402
(dp3403
g12
g3384
sbag1
(g6
g7
S'AND'
p3404
tp3405
Rp3406
(dp3407
g12
VOP
p3408
sbatp3409
Rp3410
(dp3411
g12
g3360
sbsVErrorList
p3412
g1
(g88
g3
(dp3413
VFieldNotFound
p3414
(lp3415
g1
(g6
g7
S'definition'
p3416
tp3417
Rp3418
(dp3419
g12
VFieldNotFound
p3420
sbasVPhraseNotFound
p3421
(lp3422
stp3423
Rp3424
(dp3425
g12
g3412
sg102
(lp3426
g3421
ag3414
asbsVTranslationSet
p3427
g1
(g18
g19
(lp3428
g1
(g2
g3
(dp3429
VTo
p3430
g1
(g6
g7
S'"Dentex dentex"[Organism]'
p3431
tp3432
Rp3433
(dp3434
g12
g3430
sbsVFrom
p3435
g1
(g6
g7
S'Dentex dentex[organism]'
p3436
tp3437
Rp3438
(dp3439
g12
g3435
sbstp3440
Rp3441
(dp3442
g12
VTranslation
p3443
sbatp3444
Rp3445
(dp3446
g12
g3427
sbsVRetStart
p3447
g1
(g6
g7
g125
tp3448
Rp3449
(dp3450
g12
g3447
sbsVQueryTranslation
p3451
g1
(g6
g7
S'"Dentex dentex"[Organism] AND 16S[All Fields]'
p3452
tp3453
Rp3454
(dp3455
g12
g3451
sbstp3456
Rp3457
(dp3458
g12
VeSearchResult
p3459
sbag1
(g2
g3
(dp3460
VCount
p3461
g1
(g6
g7
g986
tp3462
Rp3463
(dp3464
g12
g3461
sbsVRetMax
p3465
g1
(g6
g7
g986
tp3466
Rp3467
(dp3468
g12
g3465
sbsVIdList
p3469
g1
(g18
g19
(lp3470
g1
(g6
g7
S'944519625'
p3471
tp3472
Rp3473
(dp3474
g12
VId
p3475
sbatp3476
Rp3477
(dp3478
g12
g3469
sbsVTranslationStack
p3479
g1
(g18
g19
(lp3480
g1
(g2
g3
(dp3481
g3461
g1
(g6
g7
g986
tp3482
Rp3483
(dp3484
g12
g3461
sbsVField
p3485
g1
(g6
g7
S'Organism'
p3486
tp3487
Rp3488
(dp3489
g12
g3485
sbsVTerm
p3490
g1
(g6
g7
S'"Dentex fourmanoiri"[Organism]'
p3491
tp3492
Rp3493
(dp3494
g12
g3490
sbsVExplode
p3495
g1
(g6
g7
g51
tp3496
Rp3497
(dp3498
g12
g3495
sbstp3499
Rp3500
(dp3501
g12
VTermSet
p3502
sbag1
(g2
g3
(dp3503
g3461
g1
(g6
g7
S'12666469'
p3504
tp3505
Rp3506
(dp3507
g12
g3461
sbsg3485
g1
(g6
g7
S'All Fields'
p3508
tp3509
Rp3510
(dp3511
g12
g3485
sbsg3490
g1
(g6
g7
S'16S[All Fields]'
p3512
tp3513
Rp3514
(dp3515
g12
g3490
sbsg3495
g1
(g6
g7
g72
tp3516
Rp3517
(dp3518
g12
g3495
sbstp3519
Rp3520
(dp3521
g12
g3502
sbag1
(g6
g7
S'AND'
p3522
tp3523
Rp3524
(dp3525
g12
VOP
p3526
sbatp3527
Rp3528
(dp3529
g12
g3479
sbsVErrorList
p3530
g1
(g88
g3
(dp3531
VFieldNotFound
p3532
(lp3533
g1
(g6
g7
S'definition'
p3534
tp3535
Rp3536
(dp3537
g12
VFieldNotFound
p3538
sbasVPhraseNotFound
p3539
(lp3540
stp3541
Rp3542
(dp3543
g12
g3530
sg102
(lp3544
g3539
ag3532
asbsVTranslationSet
p3545
g1
(g18
g19
(lp3546
g1
(g2
g3
(dp3547
VTo
p3548
g1
(g6
g7
S'"Dentex fourmanoiri"[Organism]'
p3549
tp3550
Rp3551
(dp3552
g12
g3548
sbsVFrom
p3553
g1
(g6
g7
S'Dentex fourmanoiri[organism]'
p3554
tp3555
Rp3556
(dp3557
g12
g3553
sbstp3558
Rp3559
(dp3560
g12
VTranslation
p3561
sbatp3562
Rp3563
(dp3564
g12
g3545
sbsVRetStart
p3565
g1
(g6
g7
g125
tp3566
Rp3567
(dp3568
g12
g3565
sbsVQueryTranslation
p3569
g1
(g6
g7
S'"Dentex fourmanoiri"[Organism] AND 16S[All Fields]'
p3570
tp3571
Rp3572
(dp3573
g12
g3569
sbstp3574
Rp3575
(dp3576
g12
VeSearchResult
p3577
sbag1
(g2
g3
(dp3578
VCount
p3579
g1
(g6
g7
g8
tp3580
Rp3581
(dp3582
g12
g3579
sbsVRetMax
p3583
g1
(g6
g7
g8
tp3584
Rp3585
(dp3586
g12
g3583
sbsVIdList
p3587
g1
(g18
g19
(lp3588
g1
(g6
g7
S'259121968'
p3589
tp3590
Rp3591
(dp3592
g12
VId
p3593
sbag1
(g6
g7
S'6491722'
p3594
tp3595
Rp3596
(dp3597
g12
g3593
sbatp3598
Rp3599
(dp3600
g12
g3587
sbsVTranslationStack
p3601
g1
(g18
g19
(lp3602
g1
(g2
g3
(dp3603
g3579
g1
(g6
g7
S'13'
p3604
tp3605
Rp3606
(dp3607
g12
g3579
sbsVField
p3608
g1
(g6
g7
S'Organism'
p3609
tp3610
Rp3611
(dp3612
g12
g3608
sbsVTerm
p3613
g1
(g6
g7
S'"Dentex gibbosus"[Organism]'
p3614
tp3615
Rp3616
(dp3617
g12
g3613
sbsVExplode
p3618
g1
(g6
g7
g51
tp3619
Rp3620
(dp3621
g12
g3618
sbstp3622
Rp3623
(dp3624
g12
VTermSet
p3625
sbag1
(g2
g3
(dp3626
g3579
g1
(g6
g7
S'12666469'
p3627
tp3628
Rp3629
(dp3630
g12
g3579
sbsg3608
g1
(g6
g7
S'All Fields'
p3631
tp3632
Rp3633
(dp3634
g12
g3608
sbsg3613
g1
(g6
g7
S'16S[All Fields]'
p3635
tp3636
Rp3637
(dp3638
g12
g3613
sbsg3618
g1
(g6
g7
g72
tp3639
Rp3640
(dp3641
g12
g3618
sbstp3642
Rp3643
(dp3644
g12
g3625
sbag1
(g6
g7
S'AND'
p3645
tp3646
Rp3647
(dp3648
g12
VOP
p3649
sbatp3650
Rp3651
(dp3652
g12
g3601
sbsVErrorList
p3653
g1
(g88
g3
(dp3654
VFieldNotFound
p3655
(lp3656
g1
(g6
g7
S'definition'
p3657
tp3658
Rp3659
(dp3660
g12
VFieldNotFound
p3661
sbasVPhraseNotFound
p3662
(lp3663
stp3664
Rp3665
(dp3666
g12
g3653
sg102
(lp3667
g3662
ag3655
asbsVTranslationSet
p3668
g1
(g18
g19
(lp3669
g1
(g2
g3
(dp3670
VTo
p3671
g1
(g6
g7
S'"Dentex gibbosus"[Organism]'
p3672
tp3673
Rp3674
(dp3675
g12
g3671
sbsVFrom
p3676
g1
(g6
g7
S'Dentex gibbosus[organism]'
p3677
tp3678
Rp3679
(dp3680
g12
g3676
sbstp3681
Rp3682
(dp3683
g12
VTranslation
p3684
sbatp3685
Rp3686
(dp3687
g12
g3668
sbsVRetStart
p3688
g1
(g6
g7
g125
tp3689
Rp3690
(dp3691
g12
g3688
sbsVQueryTranslation
p3692
g1
(g6
g7
S'"Dentex gibbosus"[Organism] AND 16S[All Fields]'
p3693
tp3694
Rp3695
(dp3696
g12
g3692
sbstp3697
Rp3698
(dp3699
g12
VeSearchResult
p3700
sbag1
(g2
g3
(dp3701
VCount
p3702
g1
(g6
g7
g986
tp3703
Rp3704
(dp3705
g12
g3702
sbsVRetMax
p3706
g1
(g6
g7
g986
tp3707
Rp3708
(dp3709
g12
g3706
sbsVIdList
p3710
g1
(g18
g19
(lp3711
g1
(g6
g7
S'944519627'
p3712
tp3713
Rp3714
(dp3715
g12
VId
p3716
sbatp3717
Rp3718
(dp3719
g12
g3710
sbsVTranslationStack
p3720
g1
(g18
g19
(lp3721
g1
(g2
g3
(dp3722
g3702
g1
(g6
g7
S'15'
p3723
tp3724
Rp3725
(dp3726
g12
g3702
sbsVField
p3727
g1
(g6
g7
S'Organism'
p3728
tp3729
Rp3730
(dp3731
g12
g3727
sbsVTerm
p3732
g1
(g6
g7
S'"Dentex hypselosomus"[Organism]'
p3733
tp3734
Rp3735
(dp3736
g12
g3732
sbsVExplode
p3737
g1
(g6
g7
g51
tp3738
Rp3739
(dp3740
g12
g3737
sbstp3741
Rp3742
(dp3743
g12
VTermSet
p3744
sbag1
(g2
g3
(dp3745
g3702
g1
(g6
g7
S'12666469'
p3746
tp3747
Rp3748
(dp3749
g12
g3702
sbsg3727
g1
(g6
g7
S'All Fields'
p3750
tp3751
Rp3752
(dp3753
g12
g3727
sbsg3732
g1
(g6
g7
S'16S[All Fields]'
p3754
tp3755
Rp3756
(dp3757
g12
g3732
sbsg3737
g1
(g6
g7
g72
tp3758
Rp3759
(dp3760
g12
g3737
sbstp3761
Rp3762
(dp3763
g12
g3744
sbag1
(g6
g7
S'AND'
p3764
tp3765
Rp3766
(dp3767
g12
VOP
p3768
sbatp3769
Rp3770
(dp3771
g12
g3720
sbsVErrorList
p3772
g1
(g88
g3
(dp3773
VFieldNotFound
p3774
(lp3775
g1
(g6
g7
S'definition'
p3776
tp3777
Rp3778
(dp3779
g12
VFieldNotFound
p3780
sbasVPhraseNotFound
p3781
(lp3782
stp3783
Rp3784
(dp3785
g12
g3772
sg102
(lp3786
g3781
ag3774
asbsVTranslationSet
p3787
g1
(g18
g19
(lp3788
g1
(g2
g3
(dp3789
VTo
p3790
g1
(g6
g7
S'"Dentex hypselosomus"[Organism]'
p3791
tp3792
Rp3793
(dp3794
g12
g3790
sbsVFrom
p3795
g1
(g6
g7
S'Dentex hypselosomus[organism]'
p3796
tp3797
Rp3798
(dp3799
g12
g3795
sbstp3800
Rp3801
(dp3802
g12
VTranslation
p3803
sbatp3804
Rp3805
(dp3806
g12
g3787
sbsVRetStart
p3807
g1
(g6
g7
g125
tp3808
Rp3809
(dp3810
g12
g3807
sbsVQueryTranslation
p3811
g1
(g6
g7
S'"Dentex hypselosomus"[Organism] AND 16S[All Fields]'
p3812
tp3813
Rp3814
(dp3815
g12
g3811
sbstp3816
Rp3817
(dp3818
g12
VeSearchResult
p3819
sbag1
(g2
g3
(dp3820
VCount
p3821
g1
(g6
g7
g8
tp3822
Rp3823
(dp3824
g12
g3821
sbsVRetMax
p3825
g1
(g6
g7
g8
tp3826
Rp3827
(dp3828
g12
g3825
sbsVIdList
p3829
g1
(g18
g19
(lp3830
g1
(g6
g7
S'944519628'
p3831
tp3832
Rp3833
(dp3834
g12
VId
p3835
sbag1
(g6
g7
S'6491723'
p3836
tp3837
Rp3838
(dp3839
g12
g3835
sbatp3840
Rp3841
(dp3842
g12
g3829
sbsVTranslationStack
p3843
g1
(g18
g19
(lp3844
g1
(g2
g3
(dp3845
g3821
g1
(g6
g7
S'37'
p3846
tp3847
Rp3848
(dp3849
g12
g3821
sbsVField
p3850
g1
(g6
g7
S'Organism'
p3851
tp3852
Rp3853
(dp3854
g12
g3850
sbsVTerm
p3855
g1
(g6
g7
S'"Dentex macrophthalmus"[Organism]'
p3856
tp3857
Rp3858
(dp3859
g12
g3855
sbsVExplode
p3860
g1
(g6
g7
g51
tp3861
Rp3862
(dp3863
g12
g3860
sbstp3864
Rp3865
(dp3866
g12
VTermSet
p3867
sbag1
(g2
g3
(dp3868
g3821
g1
(g6
g7
S'12666469'
p3869
tp3870
Rp3871
(dp3872
g12
g3821
sbsg3850
g1
(g6
g7
S'All Fields'
p3873
tp3874
Rp3875
(dp3876
g12
g3850
sbsg3855
g1
(g6
g7
S'16S[All Fields]'
p3877
tp3878
Rp3879
(dp3880
g12
g3855
sbsg3860
g1
(g6
g7
g72
tp3881
Rp3882
(dp3883
g12
g3860
sbstp3884
Rp3885
(dp3886
g12
g3867
sbag1
(g6
g7
S'AND'
p3887
tp3888
Rp3889
(dp3890
g12
VOP
p3891
sbatp3892
Rp3893
(dp3894
g12
g3843
sbsVErrorList
p3895
g1
(g88
g3
(dp3896
VFieldNotFound
p3897
(lp3898
g1
(g6
g7
S'definition'
p3899
tp3900
Rp3901
(dp3902
g12
VFieldNotFound
p3903
sbasVPhraseNotFound
p3904
(lp3905
stp3906
Rp3907
(dp3908
g12
g3895
sg102
(lp3909
g3904
ag3897
asbsVTranslationSet
p3910
g1
(g18
g19
(lp3911
g1
(g2
g3
(dp3912
VTo
p3913
g1
(g6
g7
S'"Dentex macrophthalmus"[Organism]'
p3914
tp3915
Rp3916
(dp3917
g12
g3913
sbsVFrom
p3918
g1
(g6
g7
S'Dentex macrophthalmus[organism]'
p3919
tp3920
Rp3921
(dp3922
g12
g3918
sbstp3923
Rp3924
(dp3925
g12
VTranslation
p3926
sbatp3927
Rp3928
(dp3929
g12
g3910
sbsVRetStart
p3930
g1
(g6
g7
g125
tp3931
Rp3932
(dp3933
g12
g3930
sbsVQueryTranslation
p3934
g1
(g6
g7
S'"Dentex macrophthalmus"[Organism] AND 16S[All Fields]'
p3935
tp3936
Rp3937
(dp3938
g12
g3934
sbstp3939
Rp3940
(dp3941
g12
VeSearchResult
p3942
sbag1
(g2
g3
(dp3943
VCount
p3944
g1
(g6
g7
g8
tp3945
Rp3946
(dp3947
g12
g3944
sbsVRetMax
p3948
g1
(g6
g7
g8
tp3949
Rp3950
(dp3951
g12
g3948
sbsVIdList
p3952
g1
(g18
g19
(lp3953
g1
(g6
g7
S'167460353'
p3954
tp3955
Rp3956
(dp3957
g12
VId
p3958
sbag1
(g6
g7
S'6491724'
p3959
tp3960
Rp3961
(dp3962
g12
g3958
sbatp3963
Rp3964
(dp3965
g12
g3952
sbsVTranslationStack
p3966
g1
(g18
g19
(lp3967
g1
(g2
g3
(dp3968
g3944
g1
(g6
g7
S'6'
p3969
tp3970
Rp3971
(dp3972
g12
g3944
sbsVField
p3973
g1
(g6
g7
S'Organism'
p3974
tp3975
Rp3976
(dp3977
g12
g3973
sbsVTerm
p3978
g1
(g6
g7
S'"Dentex maroccanus"[Organism]'
p3979
tp3980
Rp3981
(dp3982
g12
g3978
sbsVExplode
p3983
g1
(g6
g7
g51
tp3984
Rp3985
(dp3986
g12
g3983
sbstp3987
Rp3988
(dp3989
g12
VTermSet
p3990
sbag1
(g2
g3
(dp3991
g3944
g1
(g6
g7
S'12666469'
p3992
tp3993
Rp3994
(dp3995
g12
g3944
sbsg3973
g1
(g6
g7
S'All Fields'
p3996
tp3997
Rp3998
(dp3999
g12
g3973
sbsg3978
g1
(g6
g7
S'16S[All Fields]'
p4000
tp4001
Rp4002
(dp4003
g12
g3978
sbsg3983
g1
(g6
g7
g72
tp4004
Rp4005
(dp4006
g12
g3983
sbstp4007
Rp4008
(dp4009
g12
g3990
sbag1
(g6
g7
S'AND'
p4010
tp4011
Rp4012
(dp4013
g12
VOP
p4014
sbatp4015
Rp4016
(dp4017
g12
g3966
sbsVErrorList
p4018
g1
(g88
g3
(dp4019
VFieldNotFound
p4020
(lp4021
g1
(g6
g7
S'definition'
p4022
tp4023
Rp4024
(dp4025
g12
VFieldNotFound
p4026
sbasVPhraseNotFound
p4027
(lp4028
stp4029
Rp4030
(dp4031
g12
g4018
sg102
(lp4032
g4027
ag4020
asbsVTranslationSet
p4033
g1
(g18
g19
(lp4034
g1
(g2
g3
(dp4035
VTo
p4036
g1
(g6
g7
S'"Dentex maroccanus"[Organism]'
p4037
tp4038
Rp4039
(dp4040
g12
g4036
sbsVFrom
p4041
g1
(g6
g7
S'Dentex maroccanus[organism]'
p4042
tp4043
Rp4044
(dp4045
g12
g4041
sbstp4046
Rp4047
(dp4048
g12
VTranslation
p4049
sbatp4050
Rp4051
(dp4052
g12
g4033
sbsVRetStart
p4053
g1
(g6
g7
g125
tp4054
Rp4055
(dp4056
g12
g4053
sbsVQueryTranslation
p4057
g1
(g6
g7
S'"Dentex maroccanus"[Organism] AND 16S[All Fields]'
p4058
tp4059
Rp4060
(dp4061
g12
g4057
sbstp4062
Rp4063
(dp4064
g12
VeSearchResult
p4065
sbag1
(g2
g3
(dp4066
VCount
p4067
g1
(g6
g7
g8
tp4068
Rp4069
(dp4070
g12
g4067
sbsVRetMax
p4071
g1
(g6
g7
g8
tp4072
Rp4073
(dp4074
g12
g4071
sbsVIdList
p4075
g1
(g18
g19
(lp4076
g1
(g6
g7
S'944519624'
p4077
tp4078
Rp4079
(dp4080
g12
VId
p4081
sbag1
(g6
g7
S'944519623'
p4082
tp4083
Rp4084
(dp4085
g12
g4081
sbatp4086
Rp4087
(dp4088
g12
g4075
sbsVTranslationStack
p4089
g1
(g18
g19
(lp4090
g1
(g2
g3
(dp4091
g4067
g1
(g6
g7
g140
tp4092
Rp4093
(dp4094
g12
g4067
sbsVField
p4095
g1
(g6
g7
S'Organism'
p4096
tp4097
Rp4098
(dp4099
g12
g4095
sbsVTerm
p4100
g1
(g6
g7
S'"Dentex spariformis"[Organism]'
p4101
tp4102
Rp4103
(dp4104
g12
g4100
sbsVExplode
p4105
g1
(g6
g7
g51
tp4106
Rp4107
(dp4108
g12
g4105
sbstp4109
Rp4110
(dp4111
g12
VTermSet
p4112
sbag1
(g2
g3
(dp4113
g4067
g1
(g6
g7
S'12666469'
p4114
tp4115
Rp4116
(dp4117
g12
g4067
sbsg4095
g1
(g6
g7
S'All Fields'
p4118
tp4119
Rp4120
(dp4121
g12
g4095
sbsg4100
g1
(g6
g7
S'16S[All Fields]'
p4122
tp4123
Rp4124
(dp4125
g12
g4100
sbsg4105
g1
(g6
g7
g72
tp4126
Rp4127
(dp4128
g12
g4105
sbstp4129
Rp4130
(dp4131
g12
g4112
sbag1
(g6
g7
S'AND'
p4132
tp4133
Rp4134
(dp4135
g12
VOP
p4136
sbatp4137
Rp4138
(dp4139
g12
g4089
sbsVErrorList
p4140
g1
(g88
g3
(dp4141
VFieldNotFound
p4142
(lp4143
g1
(g6
g7
S'definition'
p4144
tp4145
Rp4146
(dp4147
g12
VFieldNotFound
p4148
sbasVPhraseNotFound
p4149
(lp4150
stp4151
Rp4152
(dp4153
g12
g4140
sg102
(lp4154
g4149
ag4142
asbsVTranslationSet
p4155
g1
(g18
g19
(lp4156
g1
(g2
g3
(dp4157
VTo
p4158
g1
(g6
g7
S'"Dentex spariformis"[Organism]'
p4159
tp4160
Rp4161
(dp4162
g12
g4158
sbsVFrom
p4163
g1
(g6
g7
S'Dentex spariformis[organism]'
p4164
tp4165
Rp4166
(dp4167
g12
g4163
sbstp4168
Rp4169
(dp4170
g12
VTranslation
p4171
sbatp4172
Rp4173
(dp4174
g12
g4155
sbsVRetStart
p4175
g1
(g6
g7
g125
tp4176
Rp4177
(dp4178
g12
g4175
sbsVQueryTranslation
p4179
g1
(g6
g7
S'"Dentex spariformis"[Organism] AND 16S[All Fields]'
p4180
tp4181
Rp4182
(dp4183
g12
g4179
sbstp4184
Rp4185
(dp4186
g12
VeSearchResult
p4187
sbag1
(g2
g3
(dp4188
VCount
p4189
g1
(g6
g7
g3969
tp4190
Rp4191
(dp4192
g12
g4189
sbsVRetMax
p4193
g1
(g6
g7
g3969
tp4194
Rp4195
(dp4196
g12
g4193
sbsVIdList
p4197
g1
(g18
g19
(lp4198
g1
(g6
g7
S'1002166019'
p4199
tp4200
Rp4201
(dp4202
g12
VId
p4203
sbag1
(g6
g7
S'988047756'
p4204
tp4205
Rp4206
(dp4207
g12
g4203
sbag1
(g6
g7
S'190609985'
p4208
tp4209
Rp4210
(dp4211
g12
g4203
sbag1
(g6
g7
S'190609984'
p4212
tp4213
Rp4214
(dp4215
g12
g4203
sbag1
(g6
g7
S'19850095'
p4216
tp4217
Rp4218
(dp4219
g12
g4203
sbag1
(g6
g7
S'19850079'
p4220
tp4221
Rp4222
(dp4223
g12
g4203
sbatp4224
Rp4225
(dp4226
g12
g4197
sbsVTranslationStack
p4227
g1
(g18
g19
(lp4228
g1
(g2
g3
(dp4229
g4189
g1
(g6
g7
S'39'
p4230
tp4231
Rp4232
(dp4233
g12
g4189
sbsVField
p4234
g1
(g6
g7
S'Organism'
p4235
tp4236
Rp4237
(dp4238
g12
g4234
sbsVTerm
p4239
g1
(g6
g7
S'"Dentex tumifrons"[Organism]'
p4240
tp4241
Rp4242
(dp4243
g12
g4239
sbsVExplode
p4244
g1
(g6
g7
g51
tp4245
Rp4246
(dp4247
g12
g4244
sbstp4248
Rp4249
(dp4250
g12
VTermSet
p4251
sbag1
(g2
g3
(dp4252
g4189
g1
(g6
g7
S'12666469'
p4253
tp4254
Rp4255
(dp4256
g12
g4189
sbsg4234
g1
(g6
g7
S'All Fields'
p4257
tp4258
Rp4259
(dp4260
g12
g4234
sbsg4239
g1
(g6
g7
S'16S[All Fields]'
p4261
tp4262
Rp4263
(dp4264
g12
g4239
sbsg4244
g1
(g6
g7
g72
tp4265
Rp4266
(dp4267
g12
g4244
sbstp4268
Rp4269
(dp4270
g12
g4251
sbag1
(g6
g7
S'AND'
p4271
tp4272
Rp4273
(dp4274
g12
VOP
p4275
sbatp4276
Rp4277
(dp4278
g12
g4227
sbsVErrorList
p4279
g1
(g88
g3
(dp4280
VFieldNotFound
p4281
(lp4282
g1
(g6
g7
S'definition'
p4283
tp4284
Rp4285
(dp4286
g12
VFieldNotFound
p4287
sbasVPhraseNotFound
p4288
(lp4289
stp4290
Rp4291
(dp4292
g12
g4279
sg102
(lp4293
g4288
ag4281
asbsVTranslationSet
p4294
g1
(g18
g19
(lp4295
g1
(g2
g3
(dp4296
VTo
p4297
g1
(g6
g7
S'"Dentex tumifrons"[Organism]'
p4298
tp4299
Rp4300
(dp4301
g12
g4297
sbsVFrom
p4302
g1
(g6
g7
S'Dentex tumifrons[organism]'
p4303
tp4304
Rp4305
(dp4306
g12
g4302
sbstp4307
Rp4308
(dp4309
g12
VTranslation
p4310
sbatp4311
Rp4312
(dp4313
g12
g4294
sbsVRetStart
p4314
g1
(g6
g7
g125
tp4315
Rp4316
(dp4317
g12
g4314
sbsVQueryTranslation
p4318
g1
(g6
g7
S'"Dentex tumifrons"[Organism] AND 16S[All Fields]'
p4319
tp4320
Rp4321
(dp4322
g12
g4318
sbstp4323
Rp4324
(dp4325
g12
VeSearchResult
p4326
sbag1
(g2
g3
(dp4327
VCount
p4328
g1
(g6
g7
g140
tp4329
Rp4330
(dp4331
g12
g4328
sbsVRetMax
p4332
g1
(g6
g7
g140
tp4333
Rp4334
(dp4335
g12
g4332
sbsVIdList
p4336
g1
(g18
g19
(lp4337
g1
(g6
g7
S'259121969'
p4338
tp4339
Rp4340
(dp4341
g12
VId
p4342
sbag1
(g6
g7
S'6491726'
p4343
tp4344
Rp4345
(dp4346
g12
g4342
sbag1
(g6
g7
S'6491725'
p4347
tp4348
Rp4349
(dp4350
g12
g4342
sbatp4351
Rp4352
(dp4353
g12
g4336
sbsVTranslationStack
p4354
g1
(g18
g19
(lp4355
g1
(g2
g3
(dp4356
g4328
g1
(g6
g7
S'74'
p4357
tp4358
Rp4359
(dp4360
g12
g4328
sbsVField
p4361
g1
(g6
g7
S'Organism'
p4362
tp4363
Rp4364
(dp4365
g12
g4361
sbsVTerm
p4366
g1
(g6
g7
S'"Diplodus annularis"[Organism]'
p4367
tp4368
Rp4369
(dp4370
g12
g4366
sbsVExplode
p4371
g1
(g6
g7
g51
tp4372
Rp4373
(dp4374
g12
g4371
sbstp4375
Rp4376
(dp4377
g12
VTermSet
p4378
sbag1
(g2
g3
(dp4379
g4328
g1
(g6
g7
S'12666469'
p4380
tp4381
Rp4382
(dp4383
g12
g4328
sbsg4361
g1
(g6
g7
S'All Fields'
p4384
tp4385
Rp4386
(dp4387
g12
g4361
sbsg4366
g1
(g6
g7
S'16S[All Fields]'
p4388
tp4389
Rp4390
(dp4391
g12
g4366
sbsg4371
g1
(g6
g7
g72
tp4392
Rp4393
(dp4394
g12
g4371
sbstp4395
Rp4396
(dp4397
g12
g4378
sbag1
(g6
g7
S'AND'
p4398
tp4399
Rp4400
(dp4401
g12
VOP
p4402
sbatp4403
Rp4404
(dp4405
g12
g4354
sbsVErrorList
p4406
g1
(g88
g3
(dp4407
VFieldNotFound
p4408
(lp4409
g1
(g6
g7
S'definition'
p4410
tp4411
Rp4412
(dp4413
g12
VFieldNotFound
p4414
sbasVPhraseNotFound
p4415
(lp4416
stp4417
Rp4418
(dp4419
g12
g4406
sg102
(lp4420
g4415
ag4408
asbsVTranslationSet
p4421
g1
(g18
g19
(lp4422
g1
(g2
g3
(dp4423
VTo
p4424
g1
(g6
g7
S'"Diplodus annularis"[Organism]'
p4425
tp4426
Rp4427
(dp4428
g12
g4424
sbsVFrom
p4429
g1
(g6
g7
S'Diplodus annularis[organism]'
p4430
tp4431
Rp4432
(dp4433
g12
g4429
sbstp4434
Rp4435
(dp4436
g12
VTranslation
p4437
sbatp4438
Rp4439
(dp4440
g12
g4421
sbsVRetStart
p4441
g1
(g6
g7
g125
tp4442
Rp4443
(dp4444
g12
g4441
sbsVQueryTranslation
p4445
g1
(g6
g7
S'"Diplodus annularis"[Organism] AND 16S[All Fields]'
p4446
tp4447
Rp4448
(dp4449
g12
g4445
sbstp4450
Rp4451
(dp4452
g12
VeSearchResult
p4453
sbag1
(g2
g3
(dp4454
VCount
p4455
g1
(g6
g7
g8
tp4456
Rp4457
(dp4458
g12
g4455
sbsVRetMax
p4459
g1
(g6
g7
g8
tp4460
Rp4461
(dp4462
g12
g4459
sbsVIdList
p4463
g1
(g18
g19
(lp4464
g1
(g6
g7
S'15425761'
p4465
tp4466
Rp4467
(dp4468
g12
VId
p4469
sbag1
(g6
g7
S'15425760'
p4470
tp4471
Rp4472
(dp4473
g12
g4469
sbatp4474
Rp4475
(dp4476
g12
g4463
sbsVTranslationStack
p4477
g1
(g18
g19
(lp4478
g1
(g2
g3
(dp4479
g4455
g1
(g6
g7
g854
tp4480
Rp4481
(dp4482
g12
g4455
sbsVField
p4483
g1
(g6
g7
S'Organism'
p4484
tp4485
Rp4486
(dp4487
g12
g4483
sbsVTerm
p4488
g1
(g6
g7
S'"Diplodus argenteus argenteus"[Organism]'
p4489
tp4490
Rp4491
(dp4492
g12
g4488
sbsVExplode
p4493
g1
(g6
g7
g51
tp4494
Rp4495
(dp4496
g12
g4493
sbstp4497
Rp4498
(dp4499
g12
VTermSet
p4500
sbag1
(g2
g3
(dp4501
g4455
g1
(g6
g7
S'12666469'
p4502
tp4503
Rp4504
(dp4505
g12
g4455
sbsg4483
g1
(g6
g7
S'All Fields'
p4506
tp4507
Rp4508
(dp4509
g12
g4483
sbsg4488
g1
(g6
g7
S'16S[All Fields]'
p4510
tp4511
Rp4512
(dp4513
g12
g4488
sbsg4493
g1
(g6
g7
g72
tp4514
Rp4515
(dp4516
g12
g4493
sbstp4517
Rp4518
(dp4519
g12
g4500
sbag1
(g6
g7
S'AND'
p4520
tp4521
Rp4522
(dp4523
g12
VOP
p4524
sbatp4525
Rp4526
(dp4527
g12
g4477
sbsVErrorList
p4528
g1
(g88
g3
(dp4529
VFieldNotFound
p4530
(lp4531
g1
(g6
g7
S'definition'
p4532
tp4533
Rp4534
(dp4535
g12
VFieldNotFound
p4536
sbasVPhraseNotFound
p4537
(lp4538
stp4539
Rp4540
(dp4541
g12
g4528
sg102
(lp4542
g4537
ag4530
asbsVTranslationSet
p4543
g1
(g18
g19
(lp4544
g1
(g2
g3
(dp4545
VTo
p4546
g1
(g6
g7
S'"Diplodus argenteus argenteus"[Organism]'
p4547
tp4548
Rp4549
(dp4550
g12
g4546
sbsVFrom
p4551
g1
(g6
g7
S'Diplodus argenteus argenteus[organism]'
p4552
tp4553
Rp4554
(dp4555
g12
g4551
sbstp4556
Rp4557
(dp4558
g12
VTranslation
p4559
sbatp4560
Rp4561
(dp4562
g12
g4543
sbsVRetStart
p4563
g1
(g6
g7
g125
tp4564
Rp4565
(dp4566
g12
g4563
sbsVQueryTranslation
p4567
g1
(g6
g7
S'"Diplodus argenteus argenteus"[Organism] AND 16S[All Fields]'
p4568
tp4569
Rp4570
(dp4571
g12
g4567
sbstp4572
Rp4573
(dp4574
g12
VeSearchResult
p4575
sbag1
(g2
g3
(dp4576
VCount
p4577
g1
(g6
g7
g8
tp4578
Rp4579
(dp4580
g12
g4577
sbsVRetMax
p4581
g1
(g6
g7
g8
tp4582
Rp4583
(dp4584
g12
g4581
sbsVIdList
p4585
g1
(g18
g19
(lp4586
g1
(g6
g7
S'6491728'
p4587
tp4588
Rp4589
(dp4590
g12
VId
p4591
sbag1
(g6
g7
S'6491727'
p4592
tp4593
Rp4594
(dp4595
g12
g4591
sbatp4596
Rp4597
(dp4598
g12
g4585
sbsVTranslationStack
p4599
g1
(g18
g19
(lp4600
g1
(g2
g3
(dp4601
g4577
g1
(g6
g7
S'10'
p4602
tp4603
Rp4604
(dp4605
g12
g4577
sbsVField
p4606
g1
(g6
g7
S'Organism'
p4607
tp4608
Rp4609
(dp4610
g12
g4606
sbsVTerm
p4611
g1
(g6
g7
S'"Diplodus bellottii"[Organism]'
p4612
tp4613
Rp4614
(dp4615
g12
g4611
sbsVExplode
p4616
g1
(g6
g7
g51
tp4617
Rp4618
(dp4619
g12
g4616
sbstp4620
Rp4621
(dp4622
g12
VTermSet
p4623
sbag1
(g2
g3
(dp4624
g4577
g1
(g6
g7
S'12666469'
p4625
tp4626
Rp4627
(dp4628
g12
g4577
sbsg4606
g1
(g6
g7
S'All Fields'
p4629
tp4630
Rp4631
(dp4632
g12
g4606
sbsg4611
g1
(g6
g7
S'16S[All Fields]'
p4633
tp4634
Rp4635
(dp4636
g12
g4611
sbsg4616
g1
(g6
g7
g72
tp4637
Rp4638
(dp4639
g12
g4616
sbstp4640
Rp4641
(dp4642
g12
g4623
sbag1
(g6
g7
S'AND'
p4643
tp4644
Rp4645
(dp4646
g12
VOP
p4647
sbatp4648
Rp4649
(dp4650
g12
g4599
sbsVErrorList
p4651
g1
(g88
g3
(dp4652
VFieldNotFound
p4653
(lp4654
g1
(g6
g7
S'definition'
p4655
tp4656
Rp4657
(dp4658
g12
VFieldNotFound
p4659
sbasVPhraseNotFound
p4660
(lp4661
stp4662
Rp4663
(dp4664
g12
g4651
sg102
(lp4665
g4660
ag4653
asbsVTranslationSet
p4666
g1
(g18
g19
(lp4667
g1
(g2
g3
(dp4668
VTo
p4669
g1
(g6
g7
S'"Diplodus bellottii"[Organism]'
p4670
tp4671
Rp4672
(dp4673
g12
g4669
sbsVFrom
p4674
g1
(g6
g7
S'Diplodus bellottii[organism]'
p4675
tp4676
Rp4677
(dp4678
g12
g4674
sbstp4679
Rp4680
(dp4681
g12
VTranslation
p4682
sbatp4683
Rp4684
(dp4685
g12
g4666
sbsVRetStart
p4686
g1
(g6
g7
g125
tp4687
Rp4688
(dp4689
g12
g4686
sbsVQueryTranslation
p4690
g1
(g6
g7
S'"Diplodus bellottii"[Organism] AND 16S[All Fields]'
p4691
tp4692
Rp4693
(dp4694
g12
g4690
sbstp4695
Rp4696
(dp4697
g12
VeSearchResult
p4698
sbag1
(g2
g3
(dp4699
VCount
p4700
g1
(g6
g7
g8
tp4701
Rp4702
(dp4703
g12
g4700
sbsVRetMax
p4704
g1
(g6
g7
g8
tp4705
Rp4706
(dp4707
g12
g4704
sbsVIdList
p4708
g1
(g18
g19
(lp4709
g1
(g6
g7
S'19850092'
p4710
tp4711
Rp4712
(dp4713
g12
VId
p4714
sbag1
(g6
g7
S'15425763'
p4715
tp4716
Rp4717
(dp4718
g12
g4714
sbatp4719
Rp4720
(dp4721
g12
g4708
sbsVTranslationStack
p4722
g1
(g18
g19
(lp4723
g1
(g2
g3
(dp4724
g4700
g1
(g6
g7
g2037
tp4725
Rp4726
(dp4727
g12
g4700
sbsVField
p4728
g1
(g6
g7
S'Organism'
p4729
tp4730
Rp4731
(dp4732
g12
g4728
sbsVTerm
p4733
g1
(g6
g7
S'"Diplodus bermudensis"[Organism]'
p4734
tp4735
Rp4736
(dp4737
g12
g4733
sbsVExplode
p4738
g1
(g6
g7
g51
tp4739
Rp4740
(dp4741
g12
g4738
sbstp4742
Rp4743
(dp4744
g12
VTermSet
p4745
sbag1
(g2
g3
(dp4746
g4700
g1
(g6
g7
S'12666469'
p4747
tp4748
Rp4749
(dp4750
g12
g4700
sbsg4728
g1
(g6
g7
S'All Fields'
p4751
tp4752
Rp4753
(dp4754
g12
g4728
sbsg4733
g1
(g6
g7
S'16S[All Fields]'
p4755
tp4756
Rp4757
(dp4758
g12
g4733
sbsg4738
g1
(g6
g7
g72
tp4759
Rp4760
(dp4761
g12
g4738
sbstp4762
Rp4763
(dp4764
g12
g4745
sbag1
(g6
g7
S'AND'
p4765
tp4766
Rp4767
(dp4768
g12
VOP
p4769
sbatp4770
Rp4771
(dp4772
g12
g4722
sbsVErrorList
p4773
g1
(g88
g3
(dp4774
VFieldNotFound
p4775
(lp4776
g1
(g6
g7
S'definition'
p4777
tp4778
Rp4779
(dp4780
g12
VFieldNotFound
p4781
sbasVPhraseNotFound
p4782
(lp4783
stp4784
Rp4785
(dp4786
g12
g4773
sg102
(lp4787
g4782
ag4775
asbsVTranslationSet
p4788
g1
(g18
g19
(lp4789
g1
(g2
g3
(dp4790
VTo
p4791
g1
(g6
g7
S'"Diplodus bermudensis"[Organism]'
p4792
tp4793
Rp4794
(dp4795
g12
g4791
sbsVFrom
p4796
g1
(g6
g7
S'Diplodus bermudensis[organism]'
p4797
tp4798
Rp4799
(dp4800
g12
g4796
sbstp4801
Rp4802
(dp4803
g12
VTranslation
p4804
sbatp4805
Rp4806
(dp4807
g12
g4788
sbsVRetStart
p4808
g1
(g6
g7
g125
tp4809
Rp4810
(dp4811
g12
g4808
sbsVQueryTranslation
p4812
g1
(g6
g7
S'"Diplodus bermudensis"[Organism] AND 16S[All Fields]'
p4813
tp4814
Rp4815
(dp4816
g12
g4812
sbstp4817
Rp4818
(dp4819
g12
VeSearchResult
p4820
sbag1
(g2
g3
(dp4821
VCount
p4822
g1
(g6
g7
g986
tp4823
Rp4824
(dp4825
g12
g4822
sbsVRetMax
p4826
g1
(g6
g7
g986
tp4827
Rp4828
(dp4829
g12
g4826
sbsVIdList
p4830
g1
(g18
g19
(lp4831
g1
(g6
g7
S'15425765'
p4832
tp4833
Rp4834
(dp4835
g12
VId
p4836
sbatp4837
Rp4838
(dp4839
g12
g4830
sbsVTranslationStack
p4840
g1
(g18
g19
(lp4841
g1
(g2
g3
(dp4842
g4822
g1
(g6
g7
S'175'
p4843
tp4844
Rp4845
(dp4846
g12
g4822
sbsVField
p4847
g1
(g6
g7
S'Organism'
p4848
tp4849
Rp4850
(dp4851
g12
g4847
sbsVTerm
p4852
g1
(g6
g7
S'"Diplodus capensis"[Organism]'
p4853
tp4854
Rp4855
(dp4856
g12
g4852
sbsVExplode
p4857
g1
(g6
g7
g51
tp4858
Rp4859
(dp4860
g12
g4857
sbstp4861
Rp4862
(dp4863
g12
VTermSet
p4864
sbag1
(g2
g3
(dp4865
g4822
g1
(g6
g7
S'12666469'
p4866
tp4867
Rp4868
(dp4869
g12
g4822
sbsg4847
g1
(g6
g7
S'All Fields'
p4870
tp4871
Rp4872
(dp4873
g12
g4847
sbsg4852
g1
(g6
g7
S'16S[All Fields]'
p4874
tp4875
Rp4876
(dp4877
g12
g4852
sbsg4857
g1
(g6
g7
g72
tp4878
Rp4879
(dp4880
g12
g4857
sbstp4881
Rp4882
(dp4883
g12
g4864
sbag1
(g6
g7
S'AND'
p4884
tp4885
Rp4886
(dp4887
g12
VOP
p4888
sbatp4889
Rp4890
(dp4891
g12
g4840
sbsVErrorList
p4892
g1
(g88
g3
(dp4893
VFieldNotFound
p4894
(lp4895
g1
(g6
g7
S'definition'
p4896
tp4897
Rp4898
(dp4899
g12
VFieldNotFound
p4900
sbasVPhraseNotFound
p4901
(lp4902
stp4903
Rp4904
(dp4905
g12
g4892
sg102
(lp4906
g4901
ag4894
asbsVTranslationSet
p4907
g1
(g18
g19
(lp4908
g1
(g2
g3
(dp4909
VTo
p4910
g1
(g6
g7
S'"Diplodus capensis"[Organism]'
p4911
tp4912
Rp4913
(dp4914
g12
g4910
sbsVFrom
p4915
g1
(g6
g7
S'Diplodus capensis[organism]'
p4916
tp4917
Rp4918
(dp4919
g12
g4915
sbstp4920
Rp4921
(dp4922
g12
VTranslation
p4923
sbatp4924
Rp4925
(dp4926
g12
g4907
sbsVRetStart
p4927
g1
(g6
g7
g125
tp4928
Rp4929
(dp4930
g12
g4927
sbsVQueryTranslation
p4931
g1
(g6
g7
S'"Diplodus capensis"[Organism] AND 16S[All Fields]'
p4932
tp4933
Rp4934
(dp4935
g12
g4931
sbstp4936
Rp4937
(dp4938
g12
VeSearchResult
p4939
sbag1
(g2
g3
(dp4940
VCount
p4941
g1
(g6
g7
g8
tp4942
Rp4943
(dp4944
g12
g4941
sbsVRetMax
p4945
g1
(g6
g7
g8
tp4946
Rp4947
(dp4948
g12
g4945
sbsVIdList
p4949
g1
(g18
g19
(lp4950
g1
(g6
g7
S'19850093'
p4951
tp4952
Rp4953
(dp4954
g12
VId
p4955
sbag1
(g6
g7
S'6491729'
p4956
tp4957
Rp4958
(dp4959
g12
g4955
sbatp4960
Rp4961
(dp4962
g12
g4949
sbsVTranslationStack
p4963
g1
(g18
g19
(lp4964
g1
(g2
g3
(dp4965
g4941
g1
(g6
g7
S'52'
p4966
tp4967
Rp4968
(dp4969
g12
g4941
sbsVField
p4970
g1
(g6
g7
S'Organism'
p4971
tp4972
Rp4973
(dp4974
g12
g4970
sbsVTerm
p4975
g1
(g6
g7
S'"Diplodus cervinus"[Organism]'
p4976
tp4977
Rp4978
(dp4979
g12
g4975
sbsVExplode
p4980
g1
(g6
g7
g51
tp4981
Rp4982
(dp4983
g12
g4980
sbstp4984
Rp4985
(dp4986
g12
VTermSet
p4987
sbag1
(g2
g3
(dp4988
g4941
g1
(g6
g7
S'12666469'
p4989
tp4990
Rp4991
(dp4992
g12
g4941
sbsg4970
g1
(g6
g7
S'All Fields'
p4993
tp4994
Rp4995
(dp4996
g12
g4970
sbsg4975
g1
(g6
g7
S'16S[All Fields]'
p4997
tp4998
Rp4999
(dp5000
g12
g4975
sbsg4980
g1
(g6
g7
g72
tp5001
Rp5002
(dp5003
g12
g4980
sbstp5004
Rp5005
(dp5006
g12
g4987
sbag1
(g6
g7
S'AND'
p5007
tp5008
Rp5009
(dp5010
g12
VOP
p5011
sbatp5012
Rp5013
(dp5014
g12
g4963
sbsVErrorList
p5015
g1
(g88
g3
(dp5016
VFieldNotFound
p5017
(lp5018
g1
(g6
g7
S'definition'
p5019
tp5020
Rp5021
(dp5022
g12
VFieldNotFound
p5023
sbasVPhraseNotFound
p5024
(lp5025
stp5026
Rp5027
(dp5028
g12
g5015
sg102
(lp5029
g5024
ag5017
asbsVTranslationSet
p5030
g1
(g18
g19
(lp5031
g1
(g2
g3
(dp5032
VTo
p5033
g1
(g6
g7
S'"Diplodus cervinus"[Organism]'
p5034
tp5035
Rp5036
(dp5037
g12
g5033
sbsVFrom
p5038
g1
(g6
g7
S'Diplodus cervinus[organism]'
p5039
tp5040
Rp5041
(dp5042
g12
g5038
sbstp5043
Rp5044
(dp5045
g12
VTranslation
p5046
sbatp5047
Rp5048
(dp5049
g12
g5030
sbsVRetStart
p5050
g1
(g6
g7
g125
tp5051
Rp5052
(dp5053
g12
g5050
sbsVQueryTranslation
p5054
g1
(g6
g7
S'"Diplodus cervinus"[Organism] AND 16S[All Fields]'
p5055
tp5056
Rp5057
(dp5058
g12
g5054
sbstp5059
Rp5060
(dp5061
g12
VeSearchResult
p5062
sbag1
(g2
g3
(dp5063
VCount
p5064
g1
(g6
g7
g986
tp5065
Rp5066
(dp5067
g12
g5064
sbsVRetMax
p5068
g1
(g6
g7
g986
tp5069
Rp5070
(dp5071
g12
g5068
sbsVIdList
p5072
g1
(g18
g19
(lp5073
g1
(g6
g7
S'15425756'
p5074
tp5075
Rp5076
(dp5077
g12
VId
p5078
sbatp5079
Rp5080
(dp5081
g12
g5072
sbsVTranslationStack
p5082
g1
(g18
g19
(lp5083
g1
(g2
g3
(dp5084
g5064
g1
(g6
g7
g140
tp5085
Rp5086
(dp5087
g12
g5064
sbsVField
p5088
g1
(g6
g7
S'Organism'
p5089
tp5090
Rp5091
(dp5092
g12
g5088
sbsVTerm
p5093
g1
(g6
g7
S'"Diplodus fasciatus"[Organism]'
p5094
tp5095
Rp5096
(dp5097
g12
g5093
sbsVExplode
p5098
g1
(g6
g7
g51
tp5099
Rp5100
(dp5101
g12
g5098
sbstp5102
Rp5103
(dp5104
g12
VTermSet
p5105
sbag1
(g2
g3
(dp5106
g5064
g1
(g6
g7
S'12666469'
p5107
tp5108
Rp5109
(dp5110
g12
g5064
sbsg5088
g1
(g6
g7
S'All Fields'
p5111
tp5112
Rp5113
(dp5114
g12
g5088
sbsg5093
g1
(g6
g7
S'16S[All Fields]'
p5115
tp5116
Rp5117
(dp5118
g12
g5093
sbsg5098
g1
(g6
g7
g72
tp5119
Rp5120
(dp5121
g12
g5098
sbstp5122
Rp5123
(dp5124
g12
g5105
sbag1
(g6
g7
S'AND'
p5125
tp5126
Rp5127
(dp5128
g12
VOP
p5129
sbatp5130
Rp5131
(dp5132
g12
g5082
sbsVErrorList
p5133
g1
(g88
g3
(dp5134
VFieldNotFound
p5135
(lp5136
g1
(g6
g7
S'definition'
p5137
tp5138
Rp5139
(dp5140
g12
VFieldNotFound
p5141
sbasVPhraseNotFound
p5142
(lp5143
stp5144
Rp5145
(dp5146
g12
g5133
sg102
(lp5147
g5142
ag5135
asbsVTranslationSet
p5148
g1
(g18
g19
(lp5149
g1
(g2
g3
(dp5150
VTo
p5151
g1
(g6
g7
S'"Diplodus fasciatus"[Organism]'
p5152
tp5153
Rp5154
(dp5155
g12
g5151
sbsVFrom
p5156
g1
(g6
g7
S'Diplodus fasciatus[organism]'
p5157
tp5158
Rp5159
(dp5160
g12
g5156
sbstp5161
Rp5162
(dp5163
g12
VTranslation
p5164
sbatp5165
Rp5166
(dp5167
g12
g5148
sbsVRetStart
p5168
g1
(g6
g7
g125
tp5169
Rp5170
(dp5171
g12
g5168
sbsVQueryTranslation
p5172
g1
(g6
g7
S'"Diplodus fasciatus"[Organism] AND 16S[All Fields]'
p5173
tp5174
Rp5175
(dp5176
g12
g5172
sbstp5177
Rp5178
(dp5179
g12
VeSearchResult
p5180
sbag1
(g2
g3
(dp5181
VCount
p5182
g1
(g6
g7
g8
tp5183
Rp5184
(dp5185
g12
g5182
sbsVRetMax
p5186
g1
(g6
g7
g8
tp5187
Rp5188
(dp5189
g12
g5186
sbsVIdList
p5190
g1
(g18
g19
(lp5191
g1
(g6
g7
S'19850094'
p5192
tp5193
Rp5194
(dp5195
g12
VId
p5196
sbag1
(g6
g7
S'15425762'
p5197
tp5198
Rp5199
(dp5200
g12
g5196
sbatp5201
Rp5202
(dp5203
g12
g5190
sbsVTranslationStack
p5204
g1
(g18
g19
(lp5205
g1
(g2
g3
(dp5206
g5182
g1
(g6
g7
S'16'
p5207
tp5208
Rp5209
(dp5210
g12
g5182
sbsVField
p5211
g1
(g6
g7
S'Organism'
p5212
tp5213
Rp5214
(dp5215
g12
g5211
sbsVTerm
p5216
g1
(g6
g7
S'"Diplodus holbrookii"[Organism]'
p5217
tp5218
Rp5219
(dp5220
g12
g5216
sbsVExplode
p5221
g1
(g6
g7
g51
tp5222
Rp5223
(dp5224
g12
g5221
sbstp5225
Rp5226
(dp5227
g12
VTermSet
p5228
sbag1
(g2
g3
(dp5229
g5182
g1
(g6
g7
S'12666469'
p5230
tp5231
Rp5232
(dp5233
g12
g5182
sbsg5211
g1
(g6
g7
S'All Fields'
p5234
tp5235
Rp5236
(dp5237
g12
g5211
sbsg5216
g1
(g6
g7
S'16S[All Fields]'
p5238
tp5239
Rp5240
(dp5241
g12
g5216
sbsg5221
g1
(g6
g7
g72
tp5242
Rp5243
(dp5244
g12
g5221
sbstp5245
Rp5246
(dp5247
g12
g5228
sbag1
(g6
g7
S'AND'
p5248
tp5249
Rp5250
(dp5251
g12
VOP
p5252
sbatp5253
Rp5254
(dp5255
g12
g5204
sbsVErrorList
p5256
g1
(g88
g3
(dp5257
VFieldNotFound
p5258
(lp5259
g1
(g6
g7
S'definition'
p5260
tp5261
Rp5262
(dp5263
g12
VFieldNotFound
p5264
sbasVPhraseNotFound
p5265
(lp5266
stp5267
Rp5268
(dp5269
g12
g5256
sg102
(lp5270
g5265
ag5258
asbsVTranslationSet
p5271
g1
(g18
g19
(lp5272
g1
(g2
g3
(dp5273
VTo
p5274
g1
(g6
g7
S'"Diplodus holbrookii"[Organism]'
p5275
tp5276
Rp5277
(dp5278
g12
g5274
sbsVFrom
p5279
g1
(g6
g7
S'Diplodus holbrookii[organism]'
p5280
tp5281
Rp5282
(dp5283
g12
g5279
sbstp5284
Rp5285
(dp5286
g12
VTranslation
p5287
sbatp5288
Rp5289
(dp5290
g12
g5271
sbsVRetStart
p5291
g1
(g6
g7
g125
tp5292
Rp5293
(dp5294
g12
g5291
sbsVQueryTranslation
p5295
g1
(g6
g7
S'"Diplodus holbrookii"[Organism] AND 16S[All Fields]'
p5296
tp5297
Rp5298
(dp5299
g12
g5295
sbstp5300
Rp5301
(dp5302
g12
VeSearchResult
p5303
sbag1
(g2
g3
(dp5304
VCount
p5305
g1
(g6
g7
g986
tp5306
Rp5307
(dp5308
g12
g5305
sbsVRetMax
p5309
g1
(g6
g7
g986
tp5310
Rp5311
(dp5312
g12
g5309
sbsVIdList
p5313
g1
(g18
g19
(lp5314
g1
(g6
g7
S'15425764'
p5315
tp5316
Rp5317
(dp5318
g12
VId
p5319
sbatp5320
Rp5321
(dp5322
g12
g5313
sbsVTranslationStack
p5323
g1
(g18
g19
(lp5324
g1
(g2
g3
(dp5325
g5305
g1
(g6
g7
g1106
tp5326
Rp5327
(dp5328
g12
g5305
sbsVField
p5329
g1
(g6
g7
S'Organism'
p5330
tp5331
Rp5332
(dp5333
g12
g5329
sbsVTerm
p5334
g1
(g6
g7
S'"Diplodus noct"[Organism]'
p5335
tp5336
Rp5337
(dp5338
g12
g5334
sbsVExplode
p5339
g1
(g6
g7
g51
tp5340
Rp5341
(dp5342
g12
g5339
sbstp5343
Rp5344
(dp5345
g12
VTermSet
p5346
sbag1
(g2
g3
(dp5347
g5305
g1
(g6
g7
S'12666469'
p5348
tp5349
Rp5350
(dp5351
g12
g5305
sbsg5329
g1
(g6
g7
S'All Fields'
p5352
tp5353
Rp5354
(dp5355
g12
g5329
sbsg5334
g1
(g6
g7
S'16S[All Fields]'
p5356
tp5357
Rp5358
(dp5359
g12
g5334
sbsg5339
g1
(g6
g7
g72
tp5360
Rp5361
(dp5362
g12
g5339
sbstp5363
Rp5364
(dp5365
g12
g5346
sbag1
(g6
g7
S'AND'
p5366
tp5367
Rp5368
(dp5369
g12
VOP
p5370
sbatp5371
Rp5372
(dp5373
g12
g5323
sbsVErrorList
p5374
g1
(g88
g3
(dp5375
VFieldNotFound
p5376
(lp5377
g1
(g6
g7
S'definition'
p5378
tp5379
Rp5380
(dp5381
g12
VFieldNotFound
p5382
sbasVPhraseNotFound
p5383
(lp5384
stp5385
Rp5386
(dp5387
g12
g5374
sg102
(lp5388
g5383
ag5376
asbsVTranslationSet
p5389
g1
(g18
g19
(lp5390
g1
(g2
g3
(dp5391
VTo
p5392
g1
(g6
g7
S'"Diplodus noct"[Organism]'
p5393
tp5394
Rp5395
(dp5396
g12
g5392
sbsVFrom
p5397
g1
(g6
g7
S'Diplodus noct[organism]'
p5398
tp5399
Rp5400
(dp5401
g12
g5397
sbstp5402
Rp5403
(dp5404
g12
VTranslation
p5405
sbatp5406
Rp5407
(dp5408
g12
g5389
sbsVRetStart
p5409
g1
(g6
g7
g125
tp5410
Rp5411
(dp5412
g12
g5409
sbsVQueryTranslation
p5413
g1
(g6
g7
S'"Diplodus noct"[Organism] AND 16S[All Fields]'
p5414
tp5415
Rp5416
(dp5417
g12
g5413
sbstp5418
Rp5419
(dp5420
g12
VeSearchResult
p5421
sbag1
(g2
g3
(dp5422
VCount
p5423
g1
(g6
g7
g986
tp5424
Rp5425
(dp5426
g12
g5423
sbsVRetMax
p5427
g1
(g6
g7
g986
tp5428
Rp5429
(dp5430
g12
g5427
sbsVIdList
p5431
g1
(g18
g19
(lp5432
g1
(g6
g7
S'15425757'
p5433
tp5434
Rp5435
(dp5436
g12
VId
p5437
sbatp5438
Rp5439
(dp5440
g12
g5431
sbsVTranslationStack
p5441
g1
(g18
g19
(lp5442
g1
(g2
g3
(dp5443
g5423
g1
(g6
g7
g140
tp5444
Rp5445
(dp5446
g12
g5423
sbsVField
p5447
g1
(g6
g7
S'Organism'
p5448
tp5449
Rp5450
(dp5451
g12
g5447
sbsVTerm
p5452
g1
(g6
g7
S'"Diplodus prayensis"[Organism]'
p5453
tp5454
Rp5455
(dp5456
g12
g5452
sbsVExplode
p5457
g1
(g6
g7
g51
tp5458
Rp5459
(dp5460
g12
g5457
sbstp5461
Rp5462
(dp5463
g12
VTermSet
p5464
sbag1
(g2
g3
(dp5465
g5423
g1
(g6
g7
S'12666469'
p5466
tp5467
Rp5468
(dp5469
g12
g5423
sbsg5447
g1
(g6
g7
S'All Fields'
p5470
tp5471
Rp5472
(dp5473
g12
g5447
sbsg5452
g1
(g6
g7
S'16S[All Fields]'
p5474
tp5475
Rp5476
(dp5477
g12
g5452
sbsg5457
g1
(g6
g7
g72
tp5478
Rp5479
(dp5480
g12
g5457
sbstp5481
Rp5482
(dp5483
g12
g5464
sbag1
(g6
g7
S'AND'
p5484
tp5485
Rp5486
(dp5487
g12
VOP
p5488
sbatp5489
Rp5490
(dp5491
g12
g5441
sbsVErrorList
p5492
g1
(g88
g3
(dp5493
VFieldNotFound
p5494
(lp5495
g1
(g6
g7
S'definition'
p5496
tp5497
Rp5498
(dp5499
g12
VFieldNotFound
p5500
sbasVPhraseNotFound
p5501
(lp5502
stp5503
Rp5504
(dp5505
g12
g5492
sg102
(lp5506
g5501
ag5494
asbsVTranslationSet
p5507
g1
(g18
g19
(lp5508
g1
(g2
g3
(dp5509
VTo
p5510
g1
(g6
g7
S'"Diplodus prayensis"[Organism]'
p5511
tp5512
Rp5513
(dp5514
g12
g5510
sbsVFrom
p5515
g1
(g6
g7
S'Diplodus prayensis[organism]'
p5516
tp5517
Rp5518
(dp5519
g12
g5515
sbstp5520
Rp5521
(dp5522
g12
VTranslation
p5523
sbatp5524
Rp5525
(dp5526
g12
g5507
sbsVRetStart
p5527
g1
(g6
g7
g125
tp5528
Rp5529
(dp5530
g12
g5527
sbsVQueryTranslation
p5531
g1
(g6
g7
S'"Diplodus prayensis"[Organism] AND 16S[All Fields]'
p5532
tp5533
Rp5534
(dp5535
g12
g5531
sbstp5536
Rp5537
(dp5538
g12
VeSearchResult
p5539
sbag1
(g2
g3
(dp5540
VCount
p5541
g1
(g6
g7
g8
tp5542
Rp5543
(dp5544
g12
g5541
sbsVRetMax
p5545
g1
(g6
g7
g8
tp5546
Rp5547
(dp5548
g12
g5545
sbsVIdList
p5549
g1
(g18
g19
(lp5550
g1
(g6
g7
S'6491731'
p5551
tp5552
Rp5553
(dp5554
g12
VId
p5555
sbag1
(g6
g7
S'6491730'
p5556
tp5557
Rp5558
(dp5559
g12
g5555
sbatp5560
Rp5561
(dp5562
g12
g5549
sbsVTranslationStack
p5563
g1
(g18
g19
(lp5564
g1
(g2
g3
(dp5565
g5541
g1
(g6
g7
S'163'
p5566
tp5567
Rp5568
(dp5569
g12
g5541
sbsVField
p5570
g1
(g6
g7
S'Organism'
p5571
tp5572
Rp5573
(dp5574
g12
g5570
sbsVTerm
p5575
g1
(g6
g7
S'"Diplodus puntazzo"[Organism]'
p5576
tp5577
Rp5578
(dp5579
g12
g5575
sbsVExplode
p5580
g1
(g6
g7
g51
tp5581
Rp5582
(dp5583
g12
g5580
sbstp5584
Rp5585
(dp5586
g12
VTermSet
p5587
sbag1
(g2
g3
(dp5588
g5541
g1
(g6
g7
S'12666469'
p5589
tp5590
Rp5591
(dp5592
g12
g5541
sbsg5570
g1
(g6
g7
S'All Fields'
p5593
tp5594
Rp5595
(dp5596
g12
g5570
sbsg5575
g1
(g6
g7
S'16S[All Fields]'
p5597
tp5598
Rp5599
(dp5600
g12
g5575
sbsg5580
g1
(g6
g7
g72
tp5601
Rp5602
(dp5603
g12
g5580
sbstp5604
Rp5605
(dp5606
g12
g5587
sbag1
(g6
g7
S'AND'
p5607
tp5608
Rp5609
(dp5610
g12
VOP
p5611
sbatp5612
Rp5613
(dp5614
g12
g5563
sbsVErrorList
p5615
g1
(g88
g3
(dp5616
VFieldNotFound
p5617
(lp5618
g1
(g6
g7
S'definition'
p5619
tp5620
Rp5621
(dp5622
g12
VFieldNotFound
p5623
sbasVPhraseNotFound
p5624
(lp5625
stp5626
Rp5627
(dp5628
g12
g5615
sg102
(lp5629
g5624
ag5617
asbsVTranslationSet
p5630
g1
(g18
g19
(lp5631
g1
(g2
g3
(dp5632
VTo
p5633
g1
(g6
g7
S'"Diplodus puntazzo"[Organism]'
p5634
tp5635
Rp5636
(dp5637
g12
g5633
sbsVFrom
p5638
g1
(g6
g7
S'Diplodus puntazzo[organism]'
p5639
tp5640
Rp5641
(dp5642
g12
g5638
sbstp5643
Rp5644
(dp5645
g12
VTranslation
p5646
sbatp5647
Rp5648
(dp5649
g12
g5630
sbsVRetStart
p5650
g1
(g6
g7
g125
tp5651
Rp5652
(dp5653
g12
g5650
sbsVQueryTranslation
p5654
g1
(g6
g7
S'"Diplodus puntazzo"[Organism] AND 16S[All Fields]'
p5655
tp5656
Rp5657
(dp5658
g12
g5654
sbstp5659
Rp5660
(dp5661
g12
VeSearchResult
p5662
sbag1
(g2
g3
(dp5663
VCount
p5664
g1
(g6
g7
g8
tp5665
Rp5666
(dp5667
g12
g5664
sbsVRetMax
p5668
g1
(g6
g7
g8
tp5669
Rp5670
(dp5671
g12
g5668
sbsVIdList
p5672
g1
(g18
g19
(lp5673
g1
(g6
g7
S'15425759'
p5674
tp5675
Rp5676
(dp5677
g12
VId
p5678
sbag1
(g6
g7
S'15425758'
p5679
tp5680
Rp5681
(dp5682
g12
g5678
sbatp5683
Rp5684
(dp5685
g12
g5672
sbsVTranslationStack
p5686
g1
(g18
g19
(lp5687
g1
(g2
g3
(dp5688
g5664
g1
(g6
g7
g854
tp5689
Rp5690
(dp5691
g12
g5664
sbsVField
p5692
g1
(g6
g7
S'Organism'
p5693
tp5694
Rp5695
(dp5696
g12
g5692
sbsVTerm
p5697
g1
(g6
g7
S'"Diplodus sargus lineatus"[Organism]'
p5698
tp5699
Rp5700
(dp5701
g12
g5697
sbsVExplode
p5702
g1
(g6
g7
g51
tp5703
Rp5704
(dp5705
g12
g5702
sbstp5706
Rp5707
(dp5708
g12
VTermSet
p5709
sbag1
(g2
g3
(dp5710
g5664
g1
(g6
g7
S'12666469'
p5711
tp5712
Rp5713
(dp5714
g12
g5664
sbsg5692
g1
(g6
g7
S'All Fields'
p5715
tp5716
Rp5717
(dp5718
g12
g5692
sbsg5697
g1
(g6
g7
S'16S[All Fields]'
p5719
tp5720
Rp5721
(dp5722
g12
g5697
sbsg5702
g1
(g6
g7
g72
tp5723
Rp5724
(dp5725
g12
g5702
sbstp5726
Rp5727
(dp5728
g12
g5709
sbag1
(g6
g7
S'AND'
p5729
tp5730
Rp5731
(dp5732
g12
VOP
p5733
sbatp5734
Rp5735
(dp5736
g12
g5686
sbsVErrorList
p5737
g1
(g88
g3
(dp5738
VFieldNotFound
p5739
(lp5740
g1
(g6
g7
S'definition'
p5741
tp5742
Rp5743
(dp5744
g12
VFieldNotFound
p5745
sbasVPhraseNotFound
p5746
(lp5747
stp5748
Rp5749
(dp5750
g12
g5737
sg102
(lp5751
g5746
ag5739
asbsVTranslationSet
p5752
g1
(g18
g19
(lp5753
g1
(g2
g3
(dp5754
VTo
p5755
g1
(g6
g7
S'"Diplodus sargus lineatus"[Organism]'
p5756
tp5757
Rp5758
(dp5759
g12
g5755
sbsVFrom
p5760
g1
(g6
g7
S'Diplodus sargus lineatus[organism]'
p5761
tp5762
Rp5763
(dp5764
g12
g5760
sbstp5765
Rp5766
(dp5767
g12
VTranslation
p5768
sbatp5769
Rp5770
(dp5771
g12
g5752
sbsVRetStart
p5772
g1
(g6
g7
g125
tp5773
Rp5774
(dp5775
g12
g5772
sbsVQueryTranslation
p5776
g1
(g6
g7
S'"Diplodus sargus lineatus"[Organism] AND 16S[All Fields]'
p5777
tp5778
Rp5779
(dp5780
g12
g5776
sbstp5781
Rp5782
(dp5783
g12
VeSearchResult
p5784
sbag1
(g2
g3
(dp5785
VCount
p5786
g1
(g6
g7
g986
tp5787
Rp5788
(dp5789
g12
g5786
sbsVRetMax
p5790
g1
(g6
g7
g986
tp5791
Rp5792
(dp5793
g12
g5790
sbsVIdList
p5794
g1
(g18
g19
(lp5795
g1
(g6
g7
S'6491732'
p5796
tp5797
Rp5798
(dp5799
g12
VId
p5800
sbatp5801
Rp5802
(dp5803
g12
g5794
sbsVTranslationStack
p5804
g1
(g18
g19
(lp5805
g1
(g2
g3
(dp5806
g5786
g1
(g6
g7
S'16'
p5807
tp5808
Rp5809
(dp5810
g12
g5786
sbsVField
p5811
g1
(g6
g7
S'Organism'
p5812
tp5813
Rp5814
(dp5815
g12
g5811
sbsVTerm
p5816
g1
(g6
g7
S'"Diplodus sargus sargus"[Organism]'
p5817
tp5818
Rp5819
(dp5820
g12
g5816
sbsVExplode
p5821
g1
(g6
g7
g51
tp5822
Rp5823
(dp5824
g12
g5821
sbstp5825
Rp5826
(dp5827
g12
VTermSet
p5828
sbag1
(g2
g3
(dp5829
g5786
g1
(g6
g7
S'12666469'
p5830
tp5831
Rp5832
(dp5833
g12
g5786
sbsg5811
g1
(g6
g7
S'All Fields'
p5834
tp5835
Rp5836
(dp5837
g12
g5811
sbsg5816
g1
(g6
g7
S'16S[All Fields]'
p5838
tp5839
Rp5840
(dp5841
g12
g5816
sbsg5821
g1
(g6
g7
g72
tp5842
Rp5843
(dp5844
g12
g5821
sbstp5845
Rp5846
(dp5847
g12
g5828
sbag1
(g6
g7
S'AND'
p5848
tp5849
Rp5850
(dp5851
g12
VOP
p5852
sbatp5853
Rp5854
(dp5855
g12
g5804
sbsVErrorList
p5856
g1
(g88
g3
(dp5857
VFieldNotFound
p5858
(lp5859
g1
(g6
g7
S'definition'
p5860
tp5861
Rp5862
(dp5863
g12
VFieldNotFound
p5864
sbasVPhraseNotFound
p5865
(lp5866
stp5867
Rp5868
(dp5869
g12
g5856
sg102
(lp5870
g5865
ag5858
asbsVTranslationSet
p5871
g1
(g18
g19
(lp5872
g1
(g2
g3
(dp5873
VTo
p5874
g1
(g6
g7
S'"Diplodus sargus sargus"[Organism]'
p5875
tp5876
Rp5877
(dp5878
g12
g5874
sbsVFrom
p5879
g1
(g6
g7
S'Diplodus sargus sargus[organism]'
p5880
tp5881
Rp5882
(dp5883
g12
g5879
sbstp5884
Rp5885
(dp5886
g12
VTranslation
p5887
sbatp5888
Rp5889
(dp5890
g12
g5871
sbsVRetStart
p5891
g1
(g6
g7
g125
tp5892
Rp5893
(dp5894
g12
g5891
sbsVQueryTranslation
p5895
g1
(g6
g7
S'"Diplodus sargus sargus"[Organism] AND 16S[All Fields]'
p5896
tp5897
Rp5898
(dp5899
g12
g5895
sbstp5900
Rp5901
(dp5902
g12
VeSearchResult
p5903
sbag1
(g2
g3
(dp5904
VCount
p5905
g1
(g6
g7
S'16'
p5906
tp5907
Rp5908
(dp5909
g12
g5905
sbsVRetMax
p5910
g1
(g6
g7
S'16'
p5911
tp5912
Rp5913
(dp5914
g12
g5910
sbsVIdList
p5915
g1
(g18
g19
(lp5916
g1
(g6
g7
S'307343932'
p5917
tp5918
Rp5919
(dp5920
g12
VId
p5921
sbag1
(g6
g7
S'307343931'
p5922
tp5923
Rp5924
(dp5925
g12
g5921
sbag1
(g6
g7
S'307343930'
p5926
tp5927
Rp5928
(dp5929
g12
g5921
sbag1
(g6
g7
S'307343929'
p5930
tp5931
Rp5932
(dp5933
g12
g5921
sbag1
(g6
g7
S'307343928'
p5934
tp5935
Rp5936
(dp5937
g12
g5921
sbag1
(g6
g7
S'307343927'
p5938
tp5939
Rp5940
(dp5941
g12
g5921
sbag1
(g6
g7
S'307343926'
p5942
tp5943
Rp5944
(dp5945
g12
g5921
sbag1
(g6
g7
S'307343925'
p5946
tp5947
Rp5948
(dp5949
g12
g5921
sbag1
(g6
g7
S'307343924'
p5950
tp5951
Rp5952
(dp5953
g12
g5921
sbag1
(g6
g7
S'307343923'
p5954
tp5955
Rp5956
(dp5957
g12
g5921
sbag1
(g6
g7
S'307343922'
p5958
tp5959
Rp5960
(dp5961
g12
g5921
sbag1
(g6
g7
S'307343921'
p5962
tp5963
Rp5964
(dp5965
g12
g5921
sbag1
(g6
g7
S'307343920'
p5966
tp5967
Rp5968
(dp5969
g12
g5921
sbag1
(g6
g7
S'259121970'
p5970
tp5971
Rp5972
(dp5973
g12
g5921
sbag1
(g6
g7
S'6491734'
p5974
tp5975
Rp5976
(dp5977
g12
g5921
sbag1
(g6
g7
S'6491733'
p5978
tp5979
Rp5980
(dp5981
g12
g5921
sbatp5982
Rp5983
(dp5984
g12
g5915
sbsVTranslationStack
p5985
g1
(g18
g19
(lp5986
g1
(g2
g3
(dp5987
g5905
g1
(g6
g7
S'581'
p5988
tp5989
Rp5990
(dp5991
g12
g5905
sbsVField
p5992
g1
(g6
g7
S'Organism'
p5993
tp5994
Rp5995
(dp5996
g12
g5992
sbsVTerm
p5997
g1
(g6
g7
S'"Diplodus vulgaris"[Organism]'
p5998
tp5999
Rp6000
(dp6001
g12
g5997
sbsVExplode
p6002
g1
(g6
g7
g51
tp6003
Rp6004
(dp6005
g12
g6002
sbstp6006
Rp6007
(dp6008
g12
VTermSet
p6009
sbag1
(g2
g3
(dp6010
g5905
g1
(g6
g7
S'12666469'
p6011
tp6012
Rp6013
(dp6014
g12
g5905
sbsg5992
g1
(g6
g7
S'All Fields'
p6015
tp6016
Rp6017
(dp6018
g12
g5992
sbsg5997
g1
(g6
g7
S'16S[All Fields]'
p6019
tp6020
Rp6021
(dp6022
g12
g5997
sbsg6002
g1
(g6
g7
g72
tp6023
Rp6024
(dp6025
g12
g6002
sbstp6026
Rp6027
(dp6028
g12
g6009
sbag1
(g6
g7
S'AND'
p6029
tp6030
Rp6031
(dp6032
g12
VOP
p6033
sbatp6034
Rp6035
(dp6036
g12
g5985
sbsVErrorList
p6037
g1
(g88
g3
(dp6038
VFieldNotFound
p6039
(lp6040
g1
(g6
g7
S'definition'
p6041
tp6042
Rp6043
(dp6044
g12
VFieldNotFound
p6045
sbasVPhraseNotFound
p6046
(lp6047
stp6048
Rp6049
(dp6050
g12
g6037
sg102
(lp6051
g6046
ag6039
asbsVTranslationSet
p6052
g1
(g18
g19
(lp6053
g1
(g2
g3
(dp6054
VTo
p6055
g1
(g6
g7
S'"Diplodus vulgaris"[Organism]'
p6056
tp6057
Rp6058
(dp6059
g12
g6055
sbsVFrom
p6060
g1
(g6
g7
S'Diplodus vulgaris[organism]'
p6061
tp6062
Rp6063
(dp6064
g12
g6060
sbstp6065
Rp6066
(dp6067
g12
VTranslation
p6068
sbatp6069
Rp6070
(dp6071
g12
g6052
sbsVRetStart
p6072
g1
(g6
g7
g125
tp6073
Rp6074
(dp6075
g12
g6072
sbsVQueryTranslation
p6076
g1
(g6
g7
S'"Diplodus vulgaris"[Organism] AND 16S[All Fields]'
p6077
tp6078
Rp6079
(dp6080
g12
g6076
sbstp6081
Rp6082
(dp6083
g12
VeSearchResult
p6084
sbag1
(g2
g3
(dp6085
VCount
p6086
g1
(g6
g7
g8
tp6087
Rp6088
(dp6089
g12
g6086
sbsVRetMax
p6090
g1
(g6
g7
g8
tp6091
Rp6092
(dp6093
g12
g6090
sbsVIdList
p6094
g1
(g18
g19
(lp6095
g1
(g6
g7
S'402810046'
p6096
tp6097
Rp6098
(dp6099
g12
VId
p6100
sbag1
(g6
g7
S'19850071'
p6101
tp6102
Rp6103
(dp6104
g12
g6100
sbatp6105
Rp6106
(dp6107
g12
g6094
sbsVTranslationStack
p6108
g1
(g18
g19
(lp6109
g1
(g2
g3
(dp6110
g6086
g1
(g6
g7
S'13'
p6111
tp6112
Rp6113
(dp6114
g12
g6086
sbsVField
p6115
g1
(g6
g7
S'Organism'
p6116
tp6117
Rp6118
(dp6119
g12
g6115
sbsVTerm
p6120
g1
(g6
g7
S'"Gymnocrotaphus curvidens"[Organism]'
p6121
tp6122
Rp6123
(dp6124
g12
g6120
sbsVExplode
p6125
g1
(g6
g7
g51
tp6126
Rp6127
(dp6128
g12
g6125
sbstp6129
Rp6130
(dp6131
g12
VTermSet
p6132
sbag1
(g2
g3
(dp6133
g6086
g1
(g6
g7
S'12666469'
p6134
tp6135
Rp6136
(dp6137
g12
g6086
sbsg6115
g1
(g6
g7
S'All Fields'
p6138
tp6139
Rp6140
(dp6141
g12
g6115
sbsg6120
g1
(g6
g7
S'16S[All Fields]'
p6142
tp6143
Rp6144
(dp6145
g12
g6120
sbsg6125
g1
(g6
g7
g72
tp6146
Rp6147
(dp6148
g12
g6125
sbstp6149
Rp6150
(dp6151
g12
g6132
sbag1
(g6
g7
S'AND'
p6152
tp6153
Rp6154
(dp6155
g12
VOP
p6156
sbatp6157
Rp6158
(dp6159
g12
g6108
sbsVErrorList
p6160
g1
(g88
g3
(dp6161
VFieldNotFound
p6162
(lp6163
g1
(g6
g7
S'definition'
p6164
tp6165
Rp6166
(dp6167
g12
VFieldNotFound
p6168
sbasVPhraseNotFound
p6169
(lp6170
stp6171
Rp6172
(dp6173
g12
g6160
sg102
(lp6174
g6169
ag6162
asbsVTranslationSet
p6175
g1
(g18
g19
(lp6176
g1
(g2
g3
(dp6177
VTo
p6178
g1
(g6
g7
S'"Gymnocrotaphus curvidens"[Organism]'
p6179
tp6180
Rp6181
(dp6182
g12
g6178
sbsVFrom
p6183
g1
(g6
g7
S'Gymnocrotaphus curvidens[organism]'
p6184
tp6185
Rp6186
(dp6187
g12
g6183
sbstp6188
Rp6189
(dp6190
g12
VTranslation
p6191
sbatp6192
Rp6193
(dp6194
g12
g6175
sbsVRetStart
p6195
g1
(g6
g7
g125
tp6196
Rp6197
(dp6198
g12
g6195
sbsVQueryTranslation
p6199
g1
(g6
g7
S'"Gymnocrotaphus curvidens"[Organism] AND 16S[All Fields]'
p6200
tp6201
Rp6202
(dp6203
g12
g6199
sbstp6204
Rp6205
(dp6206
g12
VeSearchResult
p6207
sbag1
(g2
g3
(dp6208
VCount
p6209
g1
(g6
g7
S'11'
p6210
tp6211
Rp6212
(dp6213
g12
g6209
sbsVRetMax
p6214
g1
(g6
g7
S'11'
p6215
tp6216
Rp6217
(dp6218
g12
g6214
sbsVIdList
p6219
g1
(g18
g19
(lp6220
g1
(g6
g7
S'448871752'
p6221
tp6222
Rp6223
(dp6224
g12
VId
p6225
sbag1
(g6
g7
S'448871751'
p6226
tp6227
Rp6228
(dp6229
g12
g6225
sbag1
(g6
g7
S'448871750'
p6230
tp6231
Rp6232
(dp6233
g12
g6225
sbag1
(g6
g7
S'448871749'
p6234
tp6235
Rp6236
(dp6237
g12
g6225
sbag1
(g6
g7
S'448871748'
p6238
tp6239
Rp6240
(dp6241
g12
g6225
sbag1
(g6
g7
S'448871747'
p6242
tp6243
Rp6244
(dp6245
g12
g6225
sbag1
(g6
g7
S'448871746'
p6246
tp6247
Rp6248
(dp6249
g12
g6225
sbag1
(g6
g7
S'448871745'
p6250
tp6251
Rp6252
(dp6253
g12
g6225
sbag1
(g6
g7
S'448871744'
p6254
tp6255
Rp6256
(dp6257
g12
g6225
sbag1
(g6
g7
S'159902039'
p6258
tp6259
Rp6260
(dp6261
g12
g6225
sbag1
(g6
g7
S'19850096'
p6262
tp6263
Rp6264
(dp6265
g12
g6225
sbatp6266
Rp6267
(dp6268
g12
g6219
sbsVTranslationStack
p6269
g1
(g18
g19
(lp6270
g1
(g2
g3
(dp6271
g6209
g1
(g6
g7
S'56'
p6272
tp6273
Rp6274
(dp6275
g12
g6209
sbsVField
p6276
g1
(g6
g7
S'Organism'
p6277
tp6278
Rp6279
(dp6280
g12
g6276
sbsVTerm
p6281
g1
(g6
g7
S'"Lagodon rhomboides"[Organism]'
p6282
tp6283
Rp6284
(dp6285
g12
g6281
sbsVExplode
p6286
g1
(g6
g7
g51
tp6287
Rp6288
(dp6289
g12
g6286
sbstp6290
Rp6291
(dp6292
g12
VTermSet
p6293
sbag1
(g2
g3
(dp6294
g6209
g1
(g6
g7
S'12666469'
p6295
tp6296
Rp6297
(dp6298
g12
g6209
sbsg6276
g1
(g6
g7
S'All Fields'
p6299
tp6300
Rp6301
(dp6302
g12
g6276
sbsg6281
g1
(g6
g7
S'16S[All Fields]'
p6303
tp6304
Rp6305
(dp6306
g12
g6281
sbsg6286
g1
(g6
g7
g72
tp6307
Rp6308
(dp6309
g12
g6286
sbstp6310
Rp6311
(dp6312
g12
g6293
sbag1
(g6
g7
S'AND'
p6313
tp6314
Rp6315
(dp6316
g12
VOP
p6317
sbatp6318
Rp6319
(dp6320
g12
g6269
sbsVErrorList
p6321
g1
(g88
g3
(dp6322
VFieldNotFound
p6323
(lp6324
g1
(g6
g7
S'definition'
p6325
tp6326
Rp6327
(dp6328
g12
VFieldNotFound
p6329
sbasVPhraseNotFound
p6330
(lp6331
stp6332
Rp6333
(dp6334
g12
g6321
sg102
(lp6335
g6330
ag6323
asbsVTranslationSet
p6336
g1
(g18
g19
(lp6337
g1
(g2
g3
(dp6338
VTo
p6339
g1
(g6
g7
S'"Lagodon rhomboides"[Organism]'
p6340
tp6341
Rp6342
(dp6343
g12
g6339
sbsVFrom
p6344
g1
(g6
g7
S'Lagodon rhomboides[organism]'
p6345
tp6346
Rp6347
(dp6348
g12
g6344
sbstp6349
Rp6350
(dp6351
g12
VTranslation
p6352
sbatp6353
Rp6354
(dp6355
g12
g6336
sbsVRetStart
p6356
g1
(g6
g7
g125
tp6357
Rp6358
(dp6359
g12
g6356
sbsVQueryTranslation
p6360
g1
(g6
g7
S'"Lagodon rhomboides"[Organism] AND 16S[All Fields]'
p6361
tp6362
Rp6363
(dp6364
g12
g6360
sbstp6365
Rp6366
(dp6367
g12
VeSearchResult
p6368
sbag1
(g2
g3
(dp6369
VCount
p6370
g1
(g6
g7
g854
tp6371
Rp6372
(dp6373
g12
g6370
sbsVRetMax
p6374
g1
(g6
g7
g854
tp6375
Rp6376
(dp6377
g12
g6374
sbsVIdList
p6378
g1
(g18
g19
(lp6379
g1
(g6
g7
S'259121972'
p6380
tp6381
Rp6382
(dp6383
g12
VId
p6384
sbag1
(g6
g7
S'259121971'
p6385
tp6386
Rp6387
(dp6388
g12
g6384
sbag1
(g6
g7
S'19850083'
p6389
tp6390
Rp6391
(dp6392
g12
g6384
sbag1
(g6
g7
S'6491793'
p6393
tp6394
Rp6395
(dp6396
g12
g6384
sbatp6397
Rp6398
(dp6399
g12
g6378
sbsVTranslationStack
p6400
g1
(g18
g19
(lp6401
g1
(g2
g3
(dp6402
g6370
g1
(g6
g7
S'1699'
p6403
tp6404
Rp6405
(dp6406
g12
g6370
sbsVField
p6407
g1
(g6
g7
S'Organism'
p6408
tp6409
Rp6410
(dp6411
g12
g6407
sbsVTerm
p6412
g1
(g6
g7
S'"Lithognathus mormyrus"[Organism]'
p6413
tp6414
Rp6415
(dp6416
g12
g6412
sbsVExplode
p6417
g1
(g6
g7
g51
tp6418
Rp6419
(dp6420
g12
g6417
sbstp6421
Rp6422
(dp6423
g12
VTermSet
p6424
sbag1
(g2
g3
(dp6425
g6370
g1
(g6
g7
S'12666469'
p6426
tp6427
Rp6428
(dp6429
g12
g6370
sbsg6407
g1
(g6
g7
S'All Fields'
p6430
tp6431
Rp6432
(dp6433
g12
g6407
sbsg6412
g1
(g6
g7
S'16S[All Fields]'
p6434
tp6435
Rp6436
(dp6437
g12
g6412
sbsg6417
g1
(g6
g7
g72
tp6438
Rp6439
(dp6440
g12
g6417
sbstp6441
Rp6442
(dp6443
g12
g6424
sbag1
(g6
g7
S'AND'
p6444
tp6445
Rp6446
(dp6447
g12
VOP
p6448
sbatp6449
Rp6450
(dp6451
g12
g6400
sbsVErrorList
p6452
g1
(g88
g3
(dp6453
VFieldNotFound
p6454
(lp6455
g1
(g6
g7
S'definition'
p6456
tp6457
Rp6458
(dp6459
g12
VFieldNotFound
p6460
sbasVPhraseNotFound
p6461
(lp6462
stp6463
Rp6464
(dp6465
g12
g6452
sg102
(lp6466
g6461
ag6454
asbsVTranslationSet
p6467
g1
(g18
g19
(lp6468
g1
(g2
g3
(dp6469
VTo
p6470
g1
(g6
g7
S'"Lithognathus mormyrus"[Organism]'
p6471
tp6472
Rp6473
(dp6474
g12
g6470
sbsVFrom
p6475
g1
(g6
g7
S'Lithognathus mormyrus[organism]'
p6476
tp6477
Rp6478
(dp6479
g12
g6475
sbstp6480
Rp6481
(dp6482
g12
VTranslation
p6483
sbatp6484
Rp6485
(dp6486
g12
g6467
sbsVRetStart
p6487
g1
(g6
g7
g125
tp6488
Rp6489
(dp6490
g12
g6487
sbsVQueryTranslation
p6491
g1
(g6
g7
S'"Lithognathus mormyrus"[Organism] AND 16S[All Fields]'
p6492
tp6493
Rp6494
(dp6495
g12
g6491
sbstp6496
Rp6497
(dp6498
g12
VeSearchResult
p6499
sbag1
(g2
g3
(dp6500
VCount
p6501
g1
(g6
g7
g608
tp6502
Rp6503
(dp6504
g12
g6501
sbsVRetMax
p6505
g1
(g6
g7
g608
tp6506
Rp6507
(dp6508
g12
g6505
sbsVIdList
p6509
g1
(g18
g19
(lp6510
g1
(g6
g7
S'544582199'
p6511
tp6512
Rp6513
(dp6514
g12
VId
p6515
sbag1
(g6
g7
S'259121973'
p6516
tp6517
Rp6518
(dp6519
g12
g6515
sbag1
(g6
g7
S'19850072'
p6520
tp6521
Rp6522
(dp6523
g12
g6515
sbag1
(g6
g7
S'6491795'
p6524
tp6525
Rp6526
(dp6527
g12
g6515
sbag1
(g6
g7
S'6491794'
p6528
tp6529
Rp6530
(dp6531
g12
g6515
sbatp6532
Rp6533
(dp6534
g12
g6509
sbsVTranslationStack
p6535
g1
(g18
g19
(lp6536
g1
(g2
g3
(dp6537
g6501
g1
(g6
g7
S'95'
p6538
tp6539
Rp6540
(dp6541
g12
g6501
sbsVField
p6542
g1
(g6
g7
S'Organism'
p6543
tp6544
Rp6545
(dp6546
g12
g6542
sbsVTerm
p6547
g1
(g6
g7
S'"Oblada melanura"[Organism]'
p6548
tp6549
Rp6550
(dp6551
g12
g6547
sbsVExplode
p6552
g1
(g6
g7
g51
tp6553
Rp6554
(dp6555
g12
g6552
sbstp6556
Rp6557
(dp6558
g12
VTermSet
p6559
sbag1
(g2
g3
(dp6560
g6501
g1
(g6
g7
S'12666469'
p6561
tp6562
Rp6563
(dp6564
g12
g6501
sbsg6542
g1
(g6
g7
S'All Fields'
p6565
tp6566
Rp6567
(dp6568
g12
g6542
sbsg6547
g1
(g6
g7
S'16S[All Fields]'
p6569
tp6570
Rp6571
(dp6572
g12
g6547
sbsg6552
g1
(g6
g7
g72
tp6573
Rp6574
(dp6575
g12
g6552
sbstp6576
Rp6577
(dp6578
g12
g6559
sbag1
(g6
g7
S'AND'
p6579
tp6580
Rp6581
(dp6582
g12
VOP
p6583
sbatp6584
Rp6585
(dp6586
g12
g6535
sbsVErrorList
p6587
g1
(g88
g3
(dp6588
VFieldNotFound
p6589
(lp6590
g1
(g6
g7
S'definition'
p6591
tp6592
Rp6593
(dp6594
g12
VFieldNotFound
p6595
sbasVPhraseNotFound
p6596
(lp6597
stp6598
Rp6599
(dp6600
g12
g6587
sg102
(lp6601
g6596
ag6589
asbsVTranslationSet
p6602
g1
(g18
g19
(lp6603
g1
(g2
g3
(dp6604
VTo
p6605
g1
(g6
g7
S'"Oblada melanura"[Organism]'
p6606
tp6607
Rp6608
(dp6609
g12
g6605
sbsVFrom
p6610
g1
(g6
g7
S'Oblada melanura[organism]'
p6611
tp6612
Rp6613
(dp6614
g12
g6610
sbstp6615
Rp6616
(dp6617
g12
VTranslation
p6618
sbatp6619
Rp6620
(dp6621
g12
g6602
sbsVRetStart
p6622
g1
(g6
g7
g125
tp6623
Rp6624
(dp6625
g12
g6622
sbsVQueryTranslation
p6626
g1
(g6
g7
S'"Oblada melanura"[Organism] AND 16S[All Fields]'
p6627
tp6628
Rp6629
(dp6630
g12
g6626
sbstp6631
Rp6632
(dp6633
g12
VeSearchResult
p6634
sbag1
(g2
g3
(dp6635
VCount
p6636
g1
(g6
g7
g986
tp6637
Rp6638
(dp6639
g12
g6636
sbsVRetMax
p6640
g1
(g6
g7
g986
tp6641
Rp6642
(dp6643
g12
g6640
sbsVIdList
p6644
g1
(g18
g19
(lp6645
g1
(g6
g7
S'19850073'
p6646
tp6647
Rp6648
(dp6649
g12
VId
p6650
sbatp6651
Rp6652
(dp6653
g12
g6644
sbsVTranslationStack
p6654
g1
(g18
g19
(lp6655
g1
(g2
g3
(dp6656
g6636
g1
(g6
g7
S'12'
p6657
tp6658
Rp6659
(dp6660
g12
g6636
sbsVField
p6661
g1
(g6
g7
S'Organism'
p6662
tp6663
Rp6664
(dp6665
g12
g6661
sbsVTerm
p6666
g1
(g6
g7
S'"Pachymetopon aeneum"[Organism]'
p6667
tp6668
Rp6669
(dp6670
g12
g6666
sbsVExplode
p6671
g1
(g6
g7
g51
tp6672
Rp6673
(dp6674
g12
g6671
sbstp6675
Rp6676
(dp6677
g12
VTermSet
p6678
sbag1
(g2
g3
(dp6679
g6636
g1
(g6
g7
S'12666469'
p6680
tp6681
Rp6682
(dp6683
g12
g6636
sbsg6661
g1
(g6
g7
S'All Fields'
p6684
tp6685
Rp6686
(dp6687
g12
g6661
sbsg6666
g1
(g6
g7
S'16S[All Fields]'
p6688
tp6689
Rp6690
(dp6691
g12
g6666
sbsg6671
g1
(g6
g7
g72
tp6692
Rp6693
(dp6694
g12
g6671
sbstp6695
Rp6696
(dp6697
g12
g6678
sbag1
(g6
g7
S'AND'
p6698
tp6699
Rp6700
(dp6701
g12
VOP
p6702
sbatp6703
Rp6704
(dp6705
g12
g6654
sbsVErrorList
p6706
g1
(g88
g3
(dp6707
VFieldNotFound
p6708
(lp6709
g1
(g6
g7
S'definition'
p6710
tp6711
Rp6712
(dp6713
g12
VFieldNotFound
p6714
sbasVPhraseNotFound
p6715
(lp6716
stp6717
Rp6718
(dp6719
g12
g6706
sg102
(lp6720
g6715
ag6708
asbsVTranslationSet
p6721
g1
(g18
g19
(lp6722
g1
(g2
g3
(dp6723
VTo
p6724
g1
(g6
g7
S'"Pachymetopon aeneum"[Organism]'
p6725
tp6726
Rp6727
(dp6728
g12
g6724
sbsVFrom
p6729
g1
(g6
g7
S'Pachymetopon aeneum[organism]'
p6730
tp6731
Rp6732
(dp6733
g12
g6729
sbstp6734
Rp6735
(dp6736
g12
VTranslation
p6737
sbatp6738
Rp6739
(dp6740
g12
g6721
sbsVRetStart
p6741
g1
(g6
g7
g125
tp6742
Rp6743
(dp6744
g12
g6741
sbsVQueryTranslation
p6745
g1
(g6
g7
S'"Pachymetopon aeneum"[Organism] AND 16S[All Fields]'
p6746
tp6747
Rp6748
(dp6749
g12
g6745
sbstp6750
Rp6751
(dp6752
g12
VeSearchResult
p6753
sbag1
(g2
g3
(dp6754
VCount
p6755
g1
(g6
g7
g1106
tp6756
Rp6757
(dp6758
g12
g6755
sbsVRetMax
p6759
g1
(g6
g7
g1106
tp6760
Rp6761
(dp6762
g12
g6759
sbsVIdList
p6763
g1
(g18
g19
(lp6764
g1
(g6
g7
S'402810047'
p6765
tp6766
Rp6767
(dp6768
g12
VId
p6769
sbag1
(g6
g7
S'293595813'
p6770
tp6771
Rp6772
(dp6773
g12
g6769
sbag1
(g6
g7
S'293595812'
p6774
tp6775
Rp6776
(dp6777
g12
g6769
sbag1
(g6
g7
S'293595811'
p6778
tp6779
Rp6780
(dp6781
g12
g6769
sbag1
(g6
g7
S'291289081'
p6782
tp6783
Rp6784
(dp6785
g12
g6769
sbag1
(g6
g7
S'291289080'
p6786
tp6787
Rp6788
(dp6789
g12
g6769
sbag1
(g6
g7
S'291289079'
p6790
tp6791
Rp6792
(dp6793
g12
g6769
sbatp6794
Rp6795
(dp6796
g12
g6763
sbsVTranslationStack
p6797
g1
(g18
g19
(lp6798
g1
(g2
g3
(dp6799
g6755
g1
(g6
g7
S'28'
p6800
tp6801
Rp6802
(dp6803
g12
g6755
sbsVField
p6804
g1
(g6
g7
S'Organism'
p6805
tp6806
Rp6807
(dp6808
g12
g6804
sbsVTerm
p6809
g1
(g6
g7
S'"Pachymetopon blochii"[Organism]'
p6810
tp6811
Rp6812
(dp6813
g12
g6809
sbsVExplode
p6814
g1
(g6
g7
g51
tp6815
Rp6816
(dp6817
g12
g6814
sbstp6818
Rp6819
(dp6820
g12
VTermSet
p6821
sbag1
(g2
g3
(dp6822
g6755
g1
(g6
g7
S'12666469'
p6823
tp6824
Rp6825
(dp6826
g12
g6755
sbsg6804
g1
(g6
g7
S'All Fields'
p6827
tp6828
Rp6829
(dp6830
g12
g6804
sbsg6809
g1
(g6
g7
S'16S[All Fields]'
p6831
tp6832
Rp6833
(dp6834
g12
g6809
sbsg6814
g1
(g6
g7
g72
tp6835
Rp6836
(dp6837
g12
g6814
sbstp6838
Rp6839
(dp6840
g12
g6821
sbag1
(g6
g7
S'AND'
p6841
tp6842
Rp6843
(dp6844
g12
VOP
p6845
sbatp6846
Rp6847
(dp6848
g12
g6797
sbsVErrorList
p6849
g1
(g88
g3
(dp6850
VFieldNotFound
p6851
(lp6852
g1
(g6
g7
S'definition'
p6853
tp6854
Rp6855
(dp6856
g12
VFieldNotFound
p6857
sbasVPhraseNotFound
p6858
(lp6859
stp6860
Rp6861
(dp6862
g12
g6849
sg102
(lp6863
g6858
ag6851
asbsVTranslationSet
p6864
g1
(g18
g19
(lp6865
g1
(g2
g3
(dp6866
VTo
p6867
g1
(g6
g7
S'"Pachymetopon blochii"[Organism]'
p6868
tp6869
Rp6870
(dp6871
g12
g6867
sbsVFrom
p6872
g1
(g6
g7
S'Pachymetopon blochii[organism]'
p6873
tp6874
Rp6875
(dp6876
g12
g6872
sbstp6877
Rp6878
(dp6879
g12
VTranslation
p6880
sbatp6881
Rp6882
(dp6883
g12
g6864
sbsVRetStart
p6884
g1
(g6
g7
g125
tp6885
Rp6886
(dp6887
g12
g6884
sbsVQueryTranslation
p6888
g1
(g6
g7
S'"Pachymetopon blochii"[Organism] AND 16S[All Fields]'
p6889
tp6890
Rp6891
(dp6892
g12
g6888
sbstp6893
Rp6894
(dp6895
g12
VeSearchResult
p6896
sbag1
(g2
g3
(dp6897
VCount
p6898
g1
(g6
g7
S'11'
p6899
tp6900
Rp6901
(dp6902
g12
g6898
sbsVRetMax
p6903
g1
(g6
g7
S'11'
p6904
tp6905
Rp6906
(dp6907
g12
g6903
sbsVIdList
p6908
g1
(g18
g19
(lp6909
g1
(g6
g7
S'307344072'
p6910
tp6911
Rp6912
(dp6913
g12
VId
p6914
sbag1
(g6
g7
S'307344071'
p6915
tp6916
Rp6917
(dp6918
g12
g6914
sbag1
(g6
g7
S'307344070'
p6919
tp6920
Rp6921
(dp6922
g12
g6914
sbag1
(g6
g7
S'307344069'
p6923
tp6924
Rp6925
(dp6926
g12
g6914
sbag1
(g6
g7
S'307344068'
p6927
tp6928
Rp6929
(dp6930
g12
g6914
sbag1
(g6
g7
S'307344067'
p6931
tp6932
Rp6933
(dp6934
g12
g6914
sbag1
(g6
g7
S'307344066'
p6935
tp6936
Rp6937
(dp6938
g12
g6914
sbag1
(g6
g7
S'307344065'
p6939
tp6940
Rp6941
(dp6942
g12
g6914
sbag1
(g6
g7
S'259121974'
p6943
tp6944
Rp6945
(dp6946
g12
g6914
sbag1
(g6
g7
S'19850084'
p6947
tp6948
Rp6949
(dp6950
g12
g6914
sbag1
(g6
g7
S'6491789'
p6951
tp6952
Rp6953
(dp6954
g12
g6914
sbatp6955
Rp6956
(dp6957
g12
g6908
sbsVTranslationStack
p6958
g1
(g18
g19
(lp6959
g1
(g2
g3
(dp6960
g6898
g1
(g6
g7
S'93'
p6961
tp6962
Rp6963
(dp6964
g12
g6898
sbsVField
p6965
g1
(g6
g7
S'Organism'
p6966
tp6967
Rp6968
(dp6969
g12
g6965
sbsVTerm
p6970
g1
(g6
g7
S'"Pagellus acarne"[Organism]'
p6971
tp6972
Rp6973
(dp6974
g12
g6970
sbsVExplode
p6975
g1
(g6
g7
g51
tp6976
Rp6977
(dp6978
g12
g6975
sbstp6979
Rp6980
(dp6981
g12
VTermSet
p6982
sbag1
(g2
g3
(dp6983
g6898
g1
(g6
g7
S'12666469'
p6984
tp6985
Rp6986
(dp6987
g12
g6898
sbsg6965
g1
(g6
g7
S'All Fields'
p6988
tp6989
Rp6990
(dp6991
g12
g6965
sbsg6970
g1
(g6
g7
S'16S[All Fields]'
p6992
tp6993
Rp6994
(dp6995
g12
g6970
sbsg6975
g1
(g6
g7
g72
tp6996
Rp6997
(dp6998
g12
g6975
sbstp6999
Rp7000
(dp7001
g12
g6982
sbag1
(g6
g7
S'AND'
p7002
tp7003
Rp7004
(dp7005
g12
VOP
p7006
sbatp7007
Rp7008
(dp7009
g12
g6958
sbsVErrorList
p7010
g1
(g88
g3
(dp7011
VFieldNotFound
p7012
(lp7013
g1
(g6
g7
S'definition'
p7014
tp7015
Rp7016
(dp7017
g12
VFieldNotFound
p7018
sbasVPhraseNotFound
p7019
(lp7020
stp7021
Rp7022
(dp7023
g12
g7010
sg102
(lp7024
g7019
ag7012
asbsVTranslationSet
p7025
g1
(g18
g19
(lp7026
g1
(g2
g3
(dp7027
VTo
p7028
g1
(g6
g7
S'"Pagellus acarne"[Organism]'
p7029
tp7030
Rp7031
(dp7032
g12
g7028
sbsVFrom
p7033
g1
(g6
g7
S'Pagellus acarne[organism]'
p7034
tp7035
Rp7036
(dp7037
g12
g7033
sbstp7038
Rp7039
(dp7040
g12
VTranslation
p7041
sbatp7042
Rp7043
(dp7044
g12
g7025
sbsVRetStart
p7045
g1
(g6
g7
g125
tp7046
Rp7047
(dp7048
g12
g7045
sbsVQueryTranslation
p7049
g1
(g6
g7
S'"Pagellus acarne"[Organism] AND 16S[All Fields]'
p7050
tp7051
Rp7052
(dp7053
g12
g7049
sbstp7054
Rp7055
(dp7056
g12
VeSearchResult
p7057
sbag1
(g2
g3
(dp7058
VCount
p7059
g1
(g6
g7
g8
tp7060
Rp7061
(dp7062
g12
g7059
sbsVRetMax
p7063
g1
(g6
g7
g8
tp7064
Rp7065
(dp7066
g12
g7063
sbsVIdList
p7067
g1
(g18
g19
(lp7068
g1
(g6
g7
S'19850085'
p7069
tp7070
Rp7071
(dp7072
g12
VId
p7073
sbag1
(g6
g7
S'6491790'
p7074
tp7075
Rp7076
(dp7077
g12
g7073
sbatp7078
Rp7079
(dp7080
g12
g7067
sbsVTranslationStack
p7081
g1
(g18
g19
(lp7082
g1
(g2
g3
(dp7083
g7059
g1
(g6
g7
S'19'
p7084
tp7085
Rp7086
(dp7087
g12
g7059
sbsVField
p7088
g1
(g6
g7
S'Organism'
p7089
tp7090
Rp7091
(dp7092
g12
g7088
sbsVTerm
p7093
g1
(g6
g7
S'"Pagellus bellottii"[Organism]'
p7094
tp7095
Rp7096
(dp7097
g12
g7093
sbsVExplode
p7098
g1
(g6
g7
g51
tp7099
Rp7100
(dp7101
g12
g7098
sbstp7102
Rp7103
(dp7104
g12
VTermSet
p7105
sbag1
(g2
g3
(dp7106
g7059
g1
(g6
g7
S'12666469'
p7107
tp7108
Rp7109
(dp7110
g12
g7059
sbsg7088
g1
(g6
g7
S'All Fields'
p7111
tp7112
Rp7113
(dp7114
g12
g7088
sbsg7093
g1
(g6
g7
S'16S[All Fields]'
p7115
tp7116
Rp7117
(dp7118
g12
g7093
sbsg7098
g1
(g6
g7
g72
tp7119
Rp7120
(dp7121
g12
g7098
sbstp7122
Rp7123
(dp7124
g12
g7105
sbag1
(g6
g7
S'AND'
p7125
tp7126
Rp7127
(dp7128
g12
VOP
p7129
sbatp7130
Rp7131
(dp7132
g12
g7081
sbsVErrorList
p7133
g1
(g88
g3
(dp7134
VFieldNotFound
p7135
(lp7136
g1
(g6
g7
S'definition'
p7137
tp7138
Rp7139
(dp7140
g12
VFieldNotFound
p7141
sbasVPhraseNotFound
p7142
(lp7143
stp7144
Rp7145
(dp7146
g12
g7133
sg102
(lp7147
g7142
ag7135
asbsVTranslationSet
p7148
g1
(g18
g19
(lp7149
g1
(g2
g3
(dp7150
VTo
p7151
g1
(g6
g7
S'"Pagellus bellottii"[Organism]'
p7152
tp7153
Rp7154
(dp7155
g12
g7151
sbsVFrom
p7156
g1
(g6
g7
S'Pagellus bellottii[organism]'
p7157
tp7158
Rp7159
(dp7160
g12
g7156
sbstp7161
Rp7162
(dp7163
g12
VTranslation
p7164
sbatp7165
Rp7166
(dp7167
g12
g7148
sbsVRetStart
p7168
g1
(g6
g7
g125
tp7169
Rp7170
(dp7171
g12
g7168
sbsVQueryTranslation
p7172
g1
(g6
g7
S'"Pagellus bellottii"[Organism] AND 16S[All Fields]'
p7173
tp7174
Rp7175
(dp7176
g12
g7172
sbstp7177
Rp7178
(dp7179
g12
VeSearchResult
p7180
sbag1
(g2
g3
(dp7181
VCount
p7182
g1
(g6
g7
g140
tp7183
Rp7184
(dp7185
g12
g7182
sbsVRetMax
p7186
g1
(g6
g7
g140
tp7187
Rp7188
(dp7189
g12
g7186
sbsVIdList
p7190
g1
(g18
g19
(lp7191
g1
(g6
g7
S'148368793'
p7192
tp7193
Rp7194
(dp7195
g12
VId
p7196
sbag1
(g6
g7
S'148356934'
p7197
tp7198
Rp7199
(dp7200
g12
g7196
sbag1
(g6
g7
S'6491791'
p7201
tp7202
Rp7203
(dp7204
g12
g7196
sbatp7205
Rp7206
(dp7207
g12
g7190
sbsVTranslationStack
p7208
g1
(g18
g19
(lp7209
g1
(g2
g3
(dp7210
g7182
g1
(g6
g7
S'106'
p7211
tp7212
Rp7213
(dp7214
g12
g7182
sbsVField
p7215
g1
(g6
g7
S'Organism'
p7216
tp7217
Rp7218
(dp7219
g12
g7215
sbsVTerm
p7220
g1
(g6
g7
S'"Pagellus bogaraveo"[Organism]'
p7221
tp7222
Rp7223
(dp7224
g12
g7220
sbsVExplode
p7225
g1
(g6
g7
g51
tp7226
Rp7227
(dp7228
g12
g7225
sbstp7229
Rp7230
(dp7231
g12
VTermSet
p7232
sbag1
(g2
g3
(dp7233
g7182
g1
(g6
g7
S'12666469'
p7234
tp7235
Rp7236
(dp7237
g12
g7182
sbsg7215
g1
(g6
g7
S'All Fields'
p7238
tp7239
Rp7240
(dp7241
g12
g7215
sbsg7220
g1
(g6
g7
S'16S[All Fields]'
p7242
tp7243
Rp7244
(dp7245
g12
g7220
sbsg7225
g1
(g6
g7
g72
tp7246
Rp7247
(dp7248
g12
g7225
sbstp7249
Rp7250
(dp7251
g12
g7232
sbag1
(g6
g7
S'AND'
p7252
tp7253
Rp7254
(dp7255
g12
VOP
p7256
sbatp7257
Rp7258
(dp7259
g12
g7208
sbsVErrorList
p7260
g1
(g88
g3
(dp7261
VFieldNotFound
p7262
(lp7263
g1
(g6
g7
S'definition'
p7264
tp7265
Rp7266
(dp7267
g12
VFieldNotFound
p7268
sbasVPhraseNotFound
p7269
(lp7270
stp7271
Rp7272
(dp7273
g12
g7260
sg102
(lp7274
g7269
ag7262
asbsVTranslationSet
p7275
g1
(g18
g19
(lp7276
g1
(g2
g3
(dp7277
VTo
p7278
g1
(g6
g7
S'"Pagellus bogaraveo"[Organism]'
p7279
tp7280
Rp7281
(dp7282
g12
g7278
sbsVFrom
p7283
g1
(g6
g7
S'Pagellus bogaraveo[organism]'
p7284
tp7285
Rp7286
(dp7287
g12
g7283
sbstp7288
Rp7289
(dp7290
g12
VTranslation
p7291
sbatp7292
Rp7293
(dp7294
g12
g7275
sbsVRetStart
p7295
g1
(g6
g7
g125
tp7296
Rp7297
(dp7298
g12
g7295
sbsVQueryTranslation
p7299
g1
(g6
g7
S'"Pagellus bogaraveo"[Organism] AND 16S[All Fields]'
p7300
tp7301
Rp7302
(dp7303
g12
g7299
sbstp7304
Rp7305
(dp7306
g12
VeSearchResult
p7307
sbag1
(g2
g3
(dp7308
VCount
p7309
g1
(g6
g7
S'14'
p7310
tp7311
Rp7312
(dp7313
g12
g7309
sbsVRetMax
p7314
g1
(g6
g7
S'14'
p7315
tp7316
Rp7317
(dp7318
g12
g7314
sbsVIdList
p7319
g1
(g18
g19
(lp7320
g1
(g6
g7
S'544582243'
p7321
tp7322
Rp7323
(dp7324
g12
VId
p7325
sbag1
(g6
g7
S'307344082'
p7326
tp7327
Rp7328
(dp7329
g12
g7325
sbag1
(g6
g7
S'307344081'
p7330
tp7331
Rp7332
(dp7333
g12
g7325
sbag1
(g6
g7
S'307344080'
p7334
tp7335
Rp7336
(dp7337
g12
g7325
sbag1
(g6
g7
S'307344079'
p7338
tp7339
Rp7340
(dp7341
g12
g7325
sbag1
(g6
g7
S'307344078'
p7342
tp7343
Rp7344
(dp7345
g12
g7325
sbag1
(g6
g7
S'307344077'
p7346
tp7347
Rp7348
(dp7349
g12
g7325
sbag1
(g6
g7
S'307344076'
p7350
tp7351
Rp7352
(dp7353
g12
g7325
sbag1
(g6
g7
S'307344075'
p7354
tp7355
Rp7356
(dp7357
g12
g7325
sbag1
(g6
g7
S'307344074'
p7358
tp7359
Rp7360
(dp7361
g12
g7325
sbag1
(g6
g7
S'307344073'
p7362
tp7363
Rp7364
(dp7365
g12
g7325
sbag1
(g6
g7
S'259121976'
p7366
tp7367
Rp7368
(dp7369
g12
g7325
sbag1
(g6
g7
S'259121975'
p7370
tp7371
Rp7372
(dp7373
g12
g7325
sbag1
(g6
g7
S'6491792'
p7374
tp7375
Rp7376
(dp7377
g12
g7325
sbatp7378
Rp7379
(dp7380
g12
g7319
sbsVTranslationStack
p7381
g1
(g18
g19
(lp7382
g1
(g2
g3
(dp7383
g7309
g1
(g6
g7
S'282'
p7384
tp7385
Rp7386
(dp7387
g12
g7309
sbsVField
p7388
g1
(g6
g7
S'Organism'
p7389
tp7390
Rp7391
(dp7392
g12
g7388
sbsVTerm
p7393
g1
(g6
g7
S'"Pagellus erythrinus"[Organism]'
p7394
tp7395
Rp7396
(dp7397
g12
g7393
sbsVExplode
p7398
g1
(g6
g7
g51
tp7399
Rp7400
(dp7401
g12
g7398
sbstp7402
Rp7403
(dp7404
g12
VTermSet
p7405
sbag1
(g2
g3
(dp7406
g7309
g1
(g6
g7
S'12666469'
p7407
tp7408
Rp7409
(dp7410
g12
g7309
sbsg7388
g1
(g6
g7
S'All Fields'
p7411
tp7412
Rp7413
(dp7414
g12
g7388
sbsg7393
g1
(g6
g7
S'16S[All Fields]'
p7415
tp7416
Rp7417
(dp7418
g12
g7393
sbsg7398
g1
(g6
g7
g72
tp7419
Rp7420
(dp7421
g12
g7398
sbstp7422
Rp7423
(dp7424
g12
g7405
sbag1
(g6
g7
S'AND'
p7425
tp7426
Rp7427
(dp7428
g12
VOP
p7429
sbatp7430
Rp7431
(dp7432
g12
g7381
sbsVErrorList
p7433
g1
(g88
g3
(dp7434
VFieldNotFound
p7435
(lp7436
g1
(g6
g7
S'definition'
p7437
tp7438
Rp7439
(dp7440
g12
VFieldNotFound
p7441
sbasVPhraseNotFound
p7442
(lp7443
stp7444
Rp7445
(dp7446
g12
g7433
sg102
(lp7447
g7442
ag7435
asbsVTranslationSet
p7448
g1
(g18
g19
(lp7449
g1
(g2
g3
(dp7450
VTo
p7451
g1
(g6
g7
S'"Pagellus erythrinus"[Organism]'
p7452
tp7453
Rp7454
(dp7455
g12
g7451
sbsVFrom
p7456
g1
(g6
g7
S'Pagellus erythrinus[organism]'
p7457
tp7458
Rp7459
(dp7460
g12
g7456
sbstp7461
Rp7462
(dp7463
g12
VTranslation
p7464
sbatp7465
Rp7466
(dp7467
g12
g7448
sbsVRetStart
p7468
g1
(g6
g7
g125
tp7469
Rp7470
(dp7471
g12
g7468
sbsVQueryTranslation
p7472
g1
(g6
g7
S'"Pagellus erythrinus"[Organism] AND 16S[All Fields]'
p7473
tp7474
Rp7475
(dp7476
g12
g7472
sbstp7477
Rp7478
(dp7479
g12
VeSearchResult
p7480
sbag1
(g2
g3
(dp7481
VCount
p7482
g1
(g6
g7
g140
tp7483
Rp7484
(dp7485
g12
g7482
sbsVRetMax
p7486
g1
(g6
g7
g140
tp7487
Rp7488
(dp7489
g12
g7486
sbsVIdList
p7490
g1
(g18
g19
(lp7491
g1
(g6
g7
S'19850097'
p7492
tp7493
Rp7494
(dp7495
g12
VId
p7496
sbag1
(g6
g7
S'14348608'
p7497
tp7498
Rp7499
(dp7500
g12
g7496
sbag1
(g6
g7
S'14348606'
p7501
tp7502
Rp7503
(dp7504
g12
g7496
sbatp7505
Rp7506
(dp7507
g12
g7490
sbsVTranslationStack
p7508
g1
(g18
g19
(lp7509
g1
(g2
g3
(dp7510
g7482
g1
(g6
g7
S'140'
p7511
tp7512
Rp7513
(dp7514
g12
g7482
sbsVField
p7515
g1
(g6
g7
S'Organism'
p7516
tp7517
Rp7518
(dp7519
g12
g7515
sbsVTerm
p7520
g1
(g6
g7
S'"Pagrus auratus"[Organism]'
p7521
tp7522
Rp7523
(dp7524
g12
g7520
sbsVExplode
p7525
g1
(g6
g7
g51
tp7526
Rp7527
(dp7528
g12
g7525
sbstp7529
Rp7530
(dp7531
g12
VTermSet
p7532
sbag1
(g2
g3
(dp7533
g7482
g1
(g6
g7
S'12666469'
p7534
tp7535
Rp7536
(dp7537
g12
g7482
sbsg7515
g1
(g6
g7
S'All Fields'
p7538
tp7539
Rp7540
(dp7541
g12
g7515
sbsg7520
g1
(g6
g7
S'16S[All Fields]'
p7542
tp7543
Rp7544
(dp7545
g12
g7520
sbsg7525
g1
(g6
g7
g72
tp7546
Rp7547
(dp7548
g12
g7525
sbstp7549
Rp7550
(dp7551
g12
g7532
sbag1
(g6
g7
S'AND'
p7552
tp7553
Rp7554
(dp7555
g12
VOP
p7556
sbatp7557
Rp7558
(dp7559
g12
g7508
sbsVErrorList
p7560
g1
(g88
g3
(dp7561
VFieldNotFound
p7562
(lp7563
g1
(g6
g7
S'definition'
p7564
tp7565
Rp7566
(dp7567
g12
VFieldNotFound
p7568
sbasVPhraseNotFound
p7569
(lp7570
stp7571
Rp7572
(dp7573
g12
g7560
sg102
(lp7574
g7569
ag7562
asbsVTranslationSet
p7575
g1
(g18
g19
(lp7576
g1
(g2
g3
(dp7577
VTo
p7578
g1
(g6
g7
S'"Pagrus auratus"[Organism]'
p7579
tp7580
Rp7581
(dp7582
g12
g7578
sbsVFrom
p7583
g1
(g6
g7
S'Pagrus auratus[organism]'
p7584
tp7585
Rp7586
(dp7587
g12
g7583
sbstp7588
Rp7589
(dp7590
g12
VTranslation
p7591
sbatp7592
Rp7593
(dp7594
g12
g7575
sbsVRetStart
p7595
g1
(g6
g7
g125
tp7596
Rp7597
(dp7598
g12
g7595
sbsVQueryTranslation
p7599
g1
(g6
g7
S'"Pagrus auratus"[Organism] AND 16S[All Fields]'
p7600
tp7601
Rp7602
(dp7603
g12
g7599
sbstp7604
Rp7605
(dp7606
g12
VeSearchResult
p7607
sbag1
(g2
g3
(dp7608
VCount
p7609
g1
(g6
g7
g854
tp7610
Rp7611
(dp7612
g12
g7609
sbsVRetMax
p7613
g1
(g6
g7
g854
tp7614
Rp7615
(dp7616
g12
g7613
sbsVIdList
p7617
g1
(g18
g19
(lp7618
g1
(g6
g7
S'38018046'
p7619
tp7620
Rp7621
(dp7622
g12
VId
p7623
sbag1
(g6
g7
S'19850098'
p7624
tp7625
Rp7626
(dp7627
g12
g7623
sbag1
(g6
g7
S'37896782'
p7628
tp7629
Rp7630
(dp7631
g12
g7623
sbag1
(g6
g7
S'6491785'
p7632
tp7633
Rp7634
(dp7635
g12
g7623
sbatp7636
Rp7637
(dp7638
g12
g7617
sbsVTranslationStack
p7639
g1
(g18
g19
(lp7640
g1
(g2
g3
(dp7641
g7609
g1
(g6
g7
S'95'
p7642
tp7643
Rp7644
(dp7645
g12
g7609
sbsVField
p7646
g1
(g6
g7
S'Organism'
p7647
tp7648
Rp7649
(dp7650
g12
g7646
sbsVTerm
p7651
g1
(g6
g7
S'"Pagrus auriga"[Organism]'
p7652
tp7653
Rp7654
(dp7655
g12
g7651
sbsVExplode
p7656
g1
(g6
g7
g51
tp7657
Rp7658
(dp7659
g12
g7656
sbstp7660
Rp7661
(dp7662
g12
VTermSet
p7663
sbag1
(g2
g3
(dp7664
g7609
g1
(g6
g7
S'12666469'
p7665
tp7666
Rp7667
(dp7668
g12
g7609
sbsg7646
g1
(g6
g7
S'All Fields'
p7669
tp7670
Rp7671
(dp7672
g12
g7646
sbsg7651
g1
(g6
g7
S'16S[All Fields]'
p7673
tp7674
Rp7675
(dp7676
g12
g7651
sbsg7656
g1
(g6
g7
g72
tp7677
Rp7678
(dp7679
g12
g7656
sbstp7680
Rp7681
(dp7682
g12
g7663
sbag1
(g6
g7
S'AND'
p7683
tp7684
Rp7685
(dp7686
g12
VOP
p7687
sbatp7688
Rp7689
(dp7690
g12
g7639
sbsVErrorList
p7691
g1
(g88
g3
(dp7692
VFieldNotFound
p7693
(lp7694
g1
(g6
g7
S'definition'
p7695
tp7696
Rp7697
(dp7698
g12
VFieldNotFound
p7699
sbasVPhraseNotFound
p7700
(lp7701
stp7702
Rp7703
(dp7704
g12
g7691
sg102
(lp7705
g7700
ag7693
asbsVTranslationSet
p7706
g1
(g18
g19
(lp7707
g1
(g2
g3
(dp7708
VTo
p7709
g1
(g6
g7
S'"Pagrus auriga"[Organism]'
p7710
tp7711
Rp7712
(dp7713
g12
g7709
sbsVFrom
p7714
g1
(g6
g7
S'Pagrus auriga[organism]'
p7715
tp7716
Rp7717
(dp7718
g12
g7714
sbstp7719
Rp7720
(dp7721
g12
VTranslation
p7722
sbatp7723
Rp7724
(dp7725
g12
g7706
sbsVRetStart
p7726
g1
(g6
g7
g125
tp7727
Rp7728
(dp7729
g12
g7726
sbsVQueryTranslation
p7730
g1
(g6
g7
S'"Pagrus auriga"[Organism] AND 16S[All Fields]'
p7731
tp7732
Rp7733
(dp7734
g12
g7730
sbstp7735
Rp7736
(dp7737
g12
VeSearchResult
p7738
sbag1
(g2
g3
(dp7739
VCount
p7740
g1
(g6
g7
g140
tp7741
Rp7742
(dp7743
g12
g7740
sbsVRetMax
p7744
g1
(g6
g7
g140
tp7745
Rp7746
(dp7747
g12
g7744
sbsVIdList
p7748
g1
(g18
g19
(lp7749
g1
(g6
g7
S'259121978'
p7750
tp7751
Rp7752
(dp7753
g12
VId
p7754
sbag1
(g6
g7
S'259121977'
p7755
tp7756
Rp7757
(dp7758
g12
g7754
sbag1
(g6
g7
S'6491786'
p7759
tp7760
Rp7761
(dp7762
g12
g7754
sbatp7763
Rp7764
(dp7765
g12
g7748
sbsVTranslationStack
p7766
g1
(g18
g19
(lp7767
g1
(g2
g3
(dp7768
g7740
g1
(g6
g7
S'33'
p7769
tp7770
Rp7771
(dp7772
g12
g7740
sbsVField
p7773
g1
(g6
g7
S'Organism'
p7774
tp7775
Rp7776
(dp7777
g12
g7773
sbsVTerm
p7778
g1
(g6
g7
S'"Pagrus caeruleostictus"[Organism]'
p7779
tp7780
Rp7781
(dp7782
g12
g7778
sbsVExplode
p7783
g1
(g6
g7
g51
tp7784
Rp7785
(dp7786
g12
g7783
sbstp7787
Rp7788
(dp7789
g12
VTermSet
p7790
sbag1
(g2
g3
(dp7791
g7740
g1
(g6
g7
S'12666469'
p7792
tp7793
Rp7794
(dp7795
g12
g7740
sbsg7773
g1
(g6
g7
S'All Fields'
p7796
tp7797
Rp7798
(dp7799
g12
g7773
sbsg7778
g1
(g6
g7
S'16S[All Fields]'
p7800
tp7801
Rp7802
(dp7803
g12
g7778
sbsg7783
g1
(g6
g7
g72
tp7804
Rp7805
(dp7806
g12
g7783
sbstp7807
Rp7808
(dp7809
g12
g7790
sbag1
(g6
g7
S'AND'
p7810
tp7811
Rp7812
(dp7813
g12
VOP
p7814
sbatp7815
Rp7816
(dp7817
g12
g7766
sbsVErrorList
p7818
g1
(g88
g3
(dp7819
VFieldNotFound
p7820
(lp7821
g1
(g6
g7
S'definition'
p7822
tp7823
Rp7824
(dp7825
g12
VFieldNotFound
p7826
sbasVPhraseNotFound
p7827
(lp7828
stp7829
Rp7830
(dp7831
g12
g7818
sg102
(lp7832
g7827
ag7820
asbsVTranslationSet
p7833
g1
(g18
g19
(lp7834
g1
(g2
g3
(dp7835
VTo
p7836
g1
(g6
g7
S'"Pagrus caeruleostictus"[Organism]'
p7837
tp7838
Rp7839
(dp7840
g12
g7836
sbsVFrom
p7841
g1
(g6
g7
S'Pagrus caeruleostictus[organism]'
p7842
tp7843
Rp7844
(dp7845
g12
g7841
sbstp7846
Rp7847
(dp7848
g12
VTranslation
p7849
sbatp7850
Rp7851
(dp7852
g12
g7833
sbsVRetStart
p7853
g1
(g6
g7
g125
tp7854
Rp7855
(dp7856
g12
g7853
sbsVQueryTranslation
p7857
g1
(g6
g7
S'"Pagrus caeruleostictus"[Organism] AND 16S[All Fields]'
p7858
tp7859
Rp7860
(dp7861
g12
g7857
sbstp7862
Rp7863
(dp7864
g12
VeSearchResult
p7865
sbag1
(g2
g3
(dp7866
VCount
p7867
g1
(g6
g7
g854
tp7868
Rp7869
(dp7870
g12
g7867
sbsVRetMax
p7871
g1
(g6
g7
g854
tp7872
Rp7873
(dp7874
g12
g7871
sbsVIdList
p7875
g1
(g18
g19
(lp7876
g1
(g6
g7
S'190609986'
p7877
tp7878
Rp7879
(dp7880
g12
VId
p7881
sbag1
(g6
g7
S'16357430'
p7882
tp7883
Rp7884
(dp7885
g12
g7881
sbag1
(g6
g7
S'375005950'
p7886
tp7887
Rp7888
(dp7889
g12
g7881
sbag1
(g6
g7
S'16267298'
p7890
tp7891
Rp7892
(dp7893
g12
g7881
sbatp7894
Rp7895
(dp7896
g12
g7875
sbsVTranslationStack
p7897
g1
(g18
g19
(lp7898
g1
(g2
g3
(dp7899
g7867
g1
(g6
g7
S'974'
p7900
tp7901
Rp7902
(dp7903
g12
g7867
sbsVField
p7904
g1
(g6
g7
S'Organism'
p7905
tp7906
Rp7907
(dp7908
g12
g7904
sbsVTerm
p7909
g1
(g6
g7
S'"Pagrus major"[Organism]'
p7910
tp7911
Rp7912
(dp7913
g12
g7909
sbsVExplode
p7914
g1
(g6
g7
g51
tp7915
Rp7916
(dp7917
g12
g7914
sbstp7918
Rp7919
(dp7920
g12
VTermSet
p7921
sbag1
(g2
g3
(dp7922
g7867
g1
(g6
g7
S'12666469'
p7923
tp7924
Rp7925
(dp7926
g12
g7867
sbsg7904
g1
(g6
g7
S'All Fields'
p7927
tp7928
Rp7929
(dp7930
g12
g7904
sbsg7909
g1
(g6
g7
S'16S[All Fields]'
p7931
tp7932
Rp7933
(dp7934
g12
g7909
sbsg7914
g1
(g6
g7
g72
tp7935
Rp7936
(dp7937
g12
g7914
sbstp7938
Rp7939
(dp7940
g12
g7921
sbag1
(g6
g7
S'AND'
p7941
tp7942
Rp7943
(dp7944
g12
VOP
p7945
sbatp7946
Rp7947
(dp7948
g12
g7897
sbsVErrorList
p7949
g1
(g88
g3
(dp7950
VFieldNotFound
p7951
(lp7952
g1
(g6
g7
S'definition'
p7953
tp7954
Rp7955
(dp7956
g12
VFieldNotFound
p7957
sbasVPhraseNotFound
p7958
(lp7959
stp7960
Rp7961
(dp7962
g12
g7949
sg102
(lp7963
g7958
ag7951
asbsVTranslationSet
p7964
g1
(g18
g19
(lp7965
g1
(g2
g3
(dp7966
VTo
p7967
g1
(g6
g7
S'"Pagrus major"[Organism]'
p7968
tp7969
Rp7970
(dp7971
g12
g7967
sbsVFrom
p7972
g1
(g6
g7
S'Pagrus major[organism]'
p7973
tp7974
Rp7975
(dp7976
g12
g7972
sbstp7977
Rp7978
(dp7979
g12
VTranslation
p7980
sbatp7981
Rp7982
(dp7983
g12
g7964
sbsVRetStart
p7984
g1
(g6
g7
g125
tp7985
Rp7986
(dp7987
g12
g7984
sbsVQueryTranslation
p7988
g1
(g6
g7
S'"Pagrus major"[Organism] AND 16S[All Fields]'
p7989
tp7990
Rp7991
(dp7992
g12
g7988
sbstp7993
Rp7994
(dp7995
g12
VeSearchResult
p7996
sbag1
(g2
g3
(dp7997
VCount
p7998
g1
(g6
g7
g296
tp7999
Rp8000
(dp8001
g12
g7998
sbsVRetMax
p8002
g1
(g6
g7
g296
tp8003
Rp8004
(dp8005
g12
g8002
sbsVIdList
p8006
g1
(g18
g19
(lp8007
g1
(g6
g7
S'31442338'
p8008
tp8009
Rp8010
(dp8011
g12
VId
p8012
sbag1
(g6
g7
S'31442335'
p8013
tp8014
Rp8015
(dp8016
g12
g8012
sbag1
(g6
g7
S'31442332'
p8017
tp8018
Rp8019
(dp8020
g12
g8012
sbag1
(g6
g7
S'259121980'
p8021
tp8022
Rp8023
(dp8024
g12
g8012
sbag1
(g6
g7
S'259121979'
p8025
tp8026
Rp8027
(dp8028
g12
g8012
sbag1
(g6
g7
S'19850099'
p8029
tp8030
Rp8031
(dp8032
g12
g8012
sbag1
(g6
g7
S'6491788'
p8033
tp8034
Rp8035
(dp8036
g12
g8012
sbag1
(g6
g7
S'6491787'
p8037
tp8038
Rp8039
(dp8040
g12
g8012
sbatp8041
Rp8042
(dp8043
g12
g8006
sbsVTranslationStack
p8044
g1
(g18
g19
(lp8045
g1
(g2
g3
(dp8046
g7998
g1
(g6
g7
S'187'
p8047
tp8048
Rp8049
(dp8050
g12
g7998
sbsVField
p8051
g1
(g6
g7
S'Organism'
p8052
tp8053
Rp8054
(dp8055
g12
g8051
sbsVTerm
p8056
g1
(g6
g7
S'"Pagrus pagrus"[Organism]'
p8057
tp8058
Rp8059
(dp8060
g12
g8056
sbsVExplode
p8061
g1
(g6
g7
g51
tp8062
Rp8063
(dp8064
g12
g8061
sbstp8065
Rp8066
(dp8067
g12
VTermSet
p8068
sbag1
(g2
g3
(dp8069
g7998
g1
(g6
g7
S'12666469'
p8070
tp8071
Rp8072
(dp8073
g12
g7998
sbsg8051
g1
(g6
g7
S'All Fields'
p8074
tp8075
Rp8076
(dp8077
g12
g8051
sbsg8056
g1
(g6
g7
S'16S[All Fields]'
p8078
tp8079
Rp8080
(dp8081
g12
g8056
sbsg8061
g1
(g6
g7
g72
tp8082
Rp8083
(dp8084
g12
g8061
sbstp8085
Rp8086
(dp8087
g12
g8068
sbag1
(g6
g7
S'AND'
p8088
tp8089
Rp8090
(dp8091
g12
VOP
p8092
sbatp8093
Rp8094
(dp8095
g12
g8044
sbsVErrorList
p8096
g1
(g88
g3
(dp8097
VFieldNotFound
p8098
(lp8099
g1
(g6
g7
S'definition'
p8100
tp8101
Rp8102
(dp8103
g12
VFieldNotFound
p8104
sbasVPhraseNotFound
p8105
(lp8106
stp8107
Rp8108
(dp8109
g12
g8096
sg102
(lp8110
g8105
ag8098
asbsVTranslationSet
p8111
g1
(g18
g19
(lp8112
g1
(g2
g3
(dp8113
VTo
p8114
g1
(g6
g7
S'"Pagrus pagrus"[Organism]'
p8115
tp8116
Rp8117
(dp8118
g12
g8114
sbsVFrom
p8119
g1
(g6
g7
S'Pagrus pagrus[organism]'
p8120
tp8121
Rp8122
(dp8123
g12
g8119
sbstp8124
Rp8125
(dp8126
g12
VTranslation
p8127
sbatp8128
Rp8129
(dp8130
g12
g8111
sbsVRetStart
p8131
g1
(g6
g7
g125
tp8132
Rp8133
(dp8134
g12
g8131
sbsVQueryTranslation
p8135
g1
(g6
g7
S'"Pagrus pagrus"[Organism] AND 16S[All Fields]'
p8136
tp8137
Rp8138
(dp8139
g12
g8135
sbstp8140
Rp8141
(dp8142
g12
VeSearchResult
p8143
sbag1
(g2
g3
(dp8144
VCount
p8145
g1
(g6
g7
g140
tp8146
Rp8147
(dp8148
g12
g8145
sbsVRetMax
p8149
g1
(g6
g7
g140
tp8150
Rp8151
(dp8152
g12
g8149
sbsVIdList
p8153
g1
(g18
g19
(lp8154
g1
(g6
g7
S'117937791'
p8155
tp8156
Rp8157
(dp8158
g12
VId
p8159
sbag1
(g6
g7
S'38489953'
p8160
tp8161
Rp8162
(dp8163
g12
g8159
sbag1
(g6
g7
S'118722303'
p8164
tp8165
Rp8166
(dp8167
g12
g8159
sbatp8168
Rp8169
(dp8170
g12
g8153
sbsVTranslationStack
p8171
g1
(g18
g19
(lp8172
g1
(g2
g3
(dp8173
g8145
g1
(g6
g7
S'183'
p8174
tp8175
Rp8176
(dp8177
g12
g8145
sbsVField
p8178
g1
(g6
g7
S'Organism'
p8179
tp8180
Rp8181
(dp8182
g12
g8178
sbsVTerm
p8183
g1
(g6
g7
S'"Parargyrops edita"[Organism]'
p8184
tp8185
Rp8186
(dp8187
g12
g8183
sbsVExplode
p8188
g1
(g6
g7
g51
tp8189
Rp8190
(dp8191
g12
g8188
sbstp8192
Rp8193
(dp8194
g12
VTermSet
p8195
sbag1
(g2
g3
(dp8196
g8145
g1
(g6
g7
S'12666469'
p8197
tp8198
Rp8199
(dp8200
g12
g8145
sbsg8178
g1
(g6
g7
S'All Fields'
p8201
tp8202
Rp8203
(dp8204
g12
g8178
sbsg8183
g1
(g6
g7
S'16S[All Fields]'
p8205
tp8206
Rp8207
(dp8208
g12
g8183
sbsg8188
g1
(g6
g7
g72
tp8209
Rp8210
(dp8211
g12
g8188
sbstp8212
Rp8213
(dp8214
g12
g8195
sbag1
(g6
g7
S'AND'
p8215
tp8216
Rp8217
(dp8218
g12
VOP
p8219
sbatp8220
Rp8221
(dp8222
g12
g8171
sbsVErrorList
p8223
g1
(g88
g3
(dp8224
VFieldNotFound
p8225
(lp8226
g1
(g6
g7
S'definition'
p8227
tp8228
Rp8229
(dp8230
g12
VFieldNotFound
p8231
sbasVPhraseNotFound
p8232
(lp8233
stp8234
Rp8235
(dp8236
g12
g8223
sg102
(lp8237
g8232
ag8225
asbsVTranslationSet
p8238
g1
(g18
g19
(lp8239
g1
(g2
g3
(dp8240
VTo
p8241
g1
(g6
g7
S'"Parargyrops edita"[Organism]'
p8242
tp8243
Rp8244
(dp8245
g12
g8241
sbsVFrom
p8246
g1
(g6
g7
S'Parargyrops edita[organism]'
p8247
tp8248
Rp8249
(dp8250
g12
g8246
sbstp8251
Rp8252
(dp8253
g12
VTranslation
p8254
sbatp8255
Rp8256
(dp8257
g12
g8238
sbsVRetStart
p8258
g1
(g6
g7
g125
tp8259
Rp8260
(dp8261
g12
g8258
sbsVQueryTranslation
p8262
g1
(g6
g7
S'"Parargyrops edita"[Organism] AND 16S[All Fields]'
p8263
tp8264
Rp8265
(dp8266
g12
g8262
sbstp8267
Rp8268
(dp8269
g12
VeSearchResult
p8270
sbag1
(g2
g3
(dp8271
VCount
p8272
g1
(g6
g7
g8
tp8273
Rp8274
(dp8275
g12
g8272
sbsVRetMax
p8276
g1
(g6
g7
g8
tp8277
Rp8278
(dp8279
g12
g8276
sbsVIdList
p8280
g1
(g18
g19
(lp8281
g1
(g6
g7
S'402810045'
p8282
tp8283
Rp8284
(dp8285
g12
VId
p8286
sbag1
(g6
g7
S'19850080'
p8287
tp8288
Rp8289
(dp8290
g12
g8286
sbatp8291
Rp8292
(dp8293
g12
g8280
sbsVTranslationStack
p8294
g1
(g18
g19
(lp8295
g1
(g2
g3
(dp8296
g8272
g1
(g6
g7
S'10'
p8297
tp8298
Rp8299
(dp8300
g12
g8272
sbsVField
p8301
g1
(g6
g7
S'Organism'
p8302
tp8303
Rp8304
(dp8305
g12
g8301
sbsVTerm
p8306
g1
(g6
g7
S'"Petrus rupestris"[Organism]'
p8307
tp8308
Rp8309
(dp8310
g12
g8306
sbsVExplode
p8311
g1
(g6
g7
g51
tp8312
Rp8313
(dp8314
g12
g8311
sbstp8315
Rp8316
(dp8317
g12
VTermSet
p8318
sbag1
(g2
g3
(dp8319
g8272
g1
(g6
g7
S'12666469'
p8320
tp8321
Rp8322
(dp8323
g12
g8272
sbsg8301
g1
(g6
g7
S'All Fields'
p8324
tp8325
Rp8326
(dp8327
g12
g8301
sbsg8306
g1
(g6
g7
S'16S[All Fields]'
p8328
tp8329
Rp8330
(dp8331
g12
g8306
sbsg8311
g1
(g6
g7
g72
tp8332
Rp8333
(dp8334
g12
g8311
sbstp8335
Rp8336
(dp8337
g12
g8318
sbag1
(g6
g7
S'AND'
p8338
tp8339
Rp8340
(dp8341
g12
VOP
p8342
sbatp8343
Rp8344
(dp8345
g12
g8294
sbsVErrorList
p8346
g1
(g88
g3
(dp8347
VFieldNotFound
p8348
(lp8349
g1
(g6
g7
S'definition'
p8350
tp8351
Rp8352
(dp8353
g12
VFieldNotFound
p8354
sbasVPhraseNotFound
p8355
(lp8356
stp8357
Rp8358
(dp8359
g12
g8346
sg102
(lp8360
g8355
ag8348
asbsVTranslationSet
p8361
g1
(g18
g19
(lp8362
g1
(g2
g3
(dp8363
VTo
p8364
g1
(g6
g7
S'"Petrus rupestris"[Organism]'
p8365
tp8366
Rp8367
(dp8368
g12
g8364
sbsVFrom
p8369
g1
(g6
g7
S'Petrus rupestris[organism]'
p8370
tp8371
Rp8372
(dp8373
g12
g8369
sbstp8374
Rp8375
(dp8376
g12
VTranslation
p8377
sbatp8378
Rp8379
(dp8380
g12
g8361
sbsVRetStart
p8381
g1
(g6
g7
g125
tp8382
Rp8383
(dp8384
g12
g8381
sbsVQueryTranslation
p8385
g1
(g6
g7
S'"Petrus rupestris"[Organism] AND 16S[All Fields]'
p8386
tp8387
Rp8388
(dp8389
g12
g8385
sbstp8390
Rp8391
(dp8392
g12
VeSearchResult
p8393
sbag1
(g2
g3
(dp8394
VCount
p8395
g1
(g6
g7
g986
tp8396
Rp8397
(dp8398
g12
g8395
sbsVRetMax
p8399
g1
(g6
g7
g986
tp8400
Rp8401
(dp8402
g12
g8399
sbsVIdList
p8403
g1
(g18
g19
(lp8404
g1
(g6
g7
S'19850074'
p8405
tp8406
Rp8407
(dp8408
g12
VId
p8409
sbatp8410
Rp8411
(dp8412
g12
g8403
sbsVTranslationStack
p8413
g1
(g18
g19
(lp8414
g1
(g2
g3
(dp8415
g8395
g1
(g6
g7
g1106
tp8416
Rp8417
(dp8418
g12
g8395
sbsVField
p8419
g1
(g6
g7
S'Organism'
p8420
tp8421
Rp8422
(dp8423
g12
g8419
sbsVTerm
p8424
g1
(g6
g7
S'"Polyamblyodon germanum"[Organism]'
p8425
tp8426
Rp8427
(dp8428
g12
g8424
sbsVExplode
p8429
g1
(g6
g7
g51
tp8430
Rp8431
(dp8432
g12
g8429
sbstp8433
Rp8434
(dp8435
g12
VTermSet
p8436
sbag1
(g2
g3
(dp8437
g8395
g1
(g6
g7
S'12666469'
p8438
tp8439
Rp8440
(dp8441
g12
g8395
sbsg8419
g1
(g6
g7
S'All Fields'
p8442
tp8443
Rp8444
(dp8445
g12
g8419
sbsg8424
g1
(g6
g7
S'16S[All Fields]'
p8446
tp8447
Rp8448
(dp8449
g12
g8424
sbsg8429
g1
(g6
g7
g72
tp8450
Rp8451
(dp8452
g12
g8429
sbstp8453
Rp8454
(dp8455
g12
g8436
sbag1
(g6
g7
S'AND'
p8456
tp8457
Rp8458
(dp8459
g12
VOP
p8460
sbatp8461
Rp8462
(dp8463
g12
g8413
sbsVErrorList
p8464
g1
(g88
g3
(dp8465
VFieldNotFound
p8466
(lp8467
g1
(g6
g7
S'definition'
p8468
tp8469
Rp8470
(dp8471
g12
VFieldNotFound
p8472
sbasVPhraseNotFound
p8473
(lp8474
stp8475
Rp8476
(dp8477
g12
g8464
sg102
(lp8478
g8473
ag8466
asbsVTranslationSet
p8479
g1
(g18
g19
(lp8480
g1
(g2
g3
(dp8481
VTo
p8482
g1
(g6
g7
S'"Polyamblyodon germanum"[Organism]'
p8483
tp8484
Rp8485
(dp8486
g12
g8482
sbsVFrom
p8487
g1
(g6
g7
S'Polyamblyodon germanum[organism]'
p8488
tp8489
Rp8490
(dp8491
g12
g8487
sbstp8492
Rp8493
(dp8494
g12
VTranslation
p8495
sbatp8496
Rp8497
(dp8498
g12
g8479
sbsVRetStart
p8499
g1
(g6
g7
g125
tp8500
Rp8501
(dp8502
g12
g8499
sbsVQueryTranslation
p8503
g1
(g6
g7
S'"Polyamblyodon germanum"[Organism] AND 16S[All Fields]'
p8504
tp8505
Rp8506
(dp8507
g12
g8503
sbstp8508
Rp8509
(dp8510
g12
VeSearchResult
p8511
sbag1
(g2
g3
(dp8512
VCount
p8513
g1
(g6
g7
g986
tp8514
Rp8515
(dp8516
g12
g8513
sbsVRetMax
p8517
g1
(g6
g7
g986
tp8518
Rp8519
(dp8520
g12
g8517
sbsVIdList
p8521
g1
(g18
g19
(lp8522
g1
(g6
g7
S'19850081'
p8523
tp8524
Rp8525
(dp8526
g12
VId
p8527
sbatp8528
Rp8529
(dp8530
g12
g8521
sbsVTranslationStack
p8531
g1
(g18
g19
(lp8532
g1
(g2
g3
(dp8533
g8513
g1
(g6
g7
g1106
tp8534
Rp8535
(dp8536
g12
g8513
sbsVField
p8537
g1
(g6
g7
S'Organism'
p8538
tp8539
Rp8540
(dp8541
g12
g8537
sbsVTerm
p8542
g1
(g6
g7
S'"Polysteganus praeorbitalis"[Organism]'
p8543
tp8544
Rp8545
(dp8546
g12
g8542
sbsVExplode
p8547
g1
(g6
g7
g51
tp8548
Rp8549
(dp8550
g12
g8547
sbstp8551
Rp8552
(dp8553
g12
VTermSet
p8554
sbag1
(g2
g3
(dp8555
g8513
g1
(g6
g7
S'12666469'
p8556
tp8557
Rp8558
(dp8559
g12
g8513
sbsg8537
g1
(g6
g7
S'All Fields'
p8560
tp8561
Rp8562
(dp8563
g12
g8537
sbsg8542
g1
(g6
g7
S'16S[All Fields]'
p8564
tp8565
Rp8566
(dp8567
g12
g8542
sbsg8547
g1
(g6
g7
g72
tp8568
Rp8569
(dp8570
g12
g8547
sbstp8571
Rp8572
(dp8573
g12
g8554
sbag1
(g6
g7
S'AND'
p8574
tp8575
Rp8576
(dp8577
g12
VOP
p8578
sbatp8579
Rp8580
(dp8581
g12
g8531
sbsVErrorList
p8582
g1
(g88
g3
(dp8583
VFieldNotFound
p8584
(lp8585
g1
(g6
g7
S'definition'
p8586
tp8587
Rp8588
(dp8589
g12
VFieldNotFound
p8590
sbasVPhraseNotFound
p8591
(lp8592
stp8593
Rp8594
(dp8595
g12
g8582
sg102
(lp8596
g8591
ag8584
asbsVTranslationSet
p8597
g1
(g18
g19
(lp8598
g1
(g2
g3
(dp8599
VTo
p8600
g1
(g6
g7
S'"Polysteganus praeorbitalis"[Organism]'
p8601
tp8602
Rp8603
(dp8604
g12
g8600
sbsVFrom
p8605
g1
(g6
g7
S'Polysteganus praeorbitalis[organism]'
p8606
tp8607
Rp8608
(dp8609
g12
g8605
sbstp8610
Rp8611
(dp8612
g12
VTranslation
p8613
sbatp8614
Rp8615
(dp8616
g12
g8597
sbsVRetStart
p8617
g1
(g6
g7
g125
tp8618
Rp8619
(dp8620
g12
g8617
sbsVQueryTranslation
p8621
g1
(g6
g7
S'"Polysteganus praeorbitalis"[Organism] AND 16S[All Fields]'
p8622
tp8623
Rp8624
(dp8625
g12
g8621
sbstp8626
Rp8627
(dp8628
g12
VeSearchResult
p8629
sbag1
(g2
g3
(dp8630
VCount
p8631
g1
(g6
g7
g8
tp8632
Rp8633
(dp8634
g12
g8631
sbsVRetMax
p8635
g1
(g6
g7
g8
tp8636
Rp8637
(dp8638
g12
g8635
sbsVIdList
p8639
g1
(g18
g19
(lp8640
g1
(g6
g7
S'402810041'
p8641
tp8642
Rp8643
(dp8644
g12
VId
p8645
sbag1
(g6
g7
S'19850100'
p8646
tp8647
Rp8648
(dp8649
g12
g8645
sbatp8650
Rp8651
(dp8652
g12
g8639
sbsVTranslationStack
p8653
g1
(g18
g19
(lp8654
g1
(g2
g3
(dp8655
g8631
g1
(g6
g7
S'17'
p8656
tp8657
Rp8658
(dp8659
g12
g8631
sbsVField
p8660
g1
(g6
g7
S'Organism'
p8661
tp8662
Rp8663
(dp8664
g12
g8660
sbsVTerm
p8665
g1
(g6
g7
S'"Porcostoma dentata"[Organism]'
p8666
tp8667
Rp8668
(dp8669
g12
g8665
sbsVExplode
p8670
g1
(g6
g7
g51
tp8671
Rp8672
(dp8673
g12
g8670
sbstp8674
Rp8675
(dp8676
g12
VTermSet
p8677
sbag1
(g2
g3
(dp8678
g8631
g1
(g6
g7
S'12666469'
p8679
tp8680
Rp8681
(dp8682
g12
g8631
sbsg8660
g1
(g6
g7
S'All Fields'
p8683
tp8684
Rp8685
(dp8686
g12
g8660
sbsg8665
g1
(g6
g7
S'16S[All Fields]'
p8687
tp8688
Rp8689
(dp8690
g12
g8665
sbsg8670
g1
(g6
g7
g72
tp8691
Rp8692
(dp8693
g12
g8670
sbstp8694
Rp8695
(dp8696
g12
g8677
sbag1
(g6
g7
S'AND'
p8697
tp8698
Rp8699
(dp8700
g12
VOP
p8701
sbatp8702
Rp8703
(dp8704
g12
g8653
sbsVErrorList
p8705
g1
(g88
g3
(dp8706
VFieldNotFound
p8707
(lp8708
g1
(g6
g7
S'definition'
p8709
tp8710
Rp8711
(dp8712
g12
VFieldNotFound
p8713
sbasVPhraseNotFound
p8714
(lp8715
stp8716
Rp8717
(dp8718
g12
g8705
sg102
(lp8719
g8714
ag8707
asbsVTranslationSet
p8720
g1
(g18
g19
(lp8721
g1
(g2
g3
(dp8722
VTo
p8723
g1
(g6
g7
S'"Porcostoma dentata"[Organism]'
p8724
tp8725
Rp8726
(dp8727
g12
g8723
sbsVFrom
p8728
g1
(g6
g7
S'Porcostoma dentata[organism]'
p8729
tp8730
Rp8731
(dp8732
g12
g8728
sbstp8733
Rp8734
(dp8735
g12
VTranslation
p8736
sbatp8737
Rp8738
(dp8739
g12
g8720
sbsVRetStart
p8740
g1
(g6
g7
g125
tp8741
Rp8742
(dp8743
g12
g8740
sbsVQueryTranslation
p8744
g1
(g6
g7
S'"Porcostoma dentata"[Organism] AND 16S[All Fields]'
p8745
tp8746
Rp8747
(dp8748
g12
g8744
sbstp8749
Rp8750
(dp8751
g12
VeSearchResult
p8752
sbag1
(g2
g3
(dp8753
VCount
p8754
g1
(g6
g7
g1106
tp8755
Rp8756
(dp8757
g12
g8754
sbsVRetMax
p8758
g1
(g6
g7
g1106
tp8759
Rp8760
(dp8761
g12
g8758
sbsVIdList
p8762
g1
(g18
g19
(lp8763
g1
(g6
g7
S'315019121'
p8764
tp8765
Rp8766
(dp8767
g12
VId
p8768
sbag1
(g6
g7
S'315019120'
p8769
tp8770
Rp8771
(dp8772
g12
g8768
sbag1
(g6
g7
S'315019119'
p8773
tp8774
Rp8775
(dp8776
g12
g8768
sbag1
(g6
g7
S'293595885'
p8777
tp8778
Rp8779
(dp8780
g12
g8768
sbag1
(g6
g7
S'293595884'
p8781
tp8782
Rp8783
(dp8784
g12
g8768
sbag1
(g6
g7
S'293595883'
p8785
tp8786
Rp8787
(dp8788
g12
g8768
sbag1
(g6
g7
S'19850101'
p8789
tp8790
Rp8791
(dp8792
g12
g8768
sbatp8793
Rp8794
(dp8795
g12
g8762
sbsVTranslationStack
p8796
g1
(g18
g19
(lp8797
g1
(g2
g3
(dp8798
g8754
g1
(g6
g7
S'20'
p8799
tp8800
Rp8801
(dp8802
g12
g8754
sbsVField
p8803
g1
(g6
g7
S'Organism'
p8804
tp8805
Rp8806
(dp8807
g12
g8803
sbsVTerm
p8808
g1
(g6
g7
S'"Pterogymnus laniarius"[Organism]'
p8809
tp8810
Rp8811
(dp8812
g12
g8808
sbsVExplode
p8813
g1
(g6
g7
g51
tp8814
Rp8815
(dp8816
g12
g8813
sbstp8817
Rp8818
(dp8819
g12
VTermSet
p8820
sbag1
(g2
g3
(dp8821
g8754
g1
(g6
g7
S'12666469'
p8822
tp8823
Rp8824
(dp8825
g12
g8754
sbsg8803
g1
(g6
g7
S'All Fields'
p8826
tp8827
Rp8828
(dp8829
g12
g8803
sbsg8808
g1
(g6
g7
S'16S[All Fields]'
p8830
tp8831
Rp8832
(dp8833
g12
g8808
sbsg8813
g1
(g6
g7
g72
tp8834
Rp8835
(dp8836
g12
g8813
sbstp8837
Rp8838
(dp8839
g12
g8820
sbag1
(g6
g7
S'AND'
p8840
tp8841
Rp8842
(dp8843
g12
VOP
p8844
sbatp8845
Rp8846
(dp8847
g12
g8796
sbsVErrorList
p8848
g1
(g88
g3
(dp8849
VFieldNotFound
p8850
(lp8851
g1
(g6
g7
S'definition'
p8852
tp8853
Rp8854
(dp8855
g12
VFieldNotFound
p8856
sbasVPhraseNotFound
p8857
(lp8858
stp8859
Rp8860
(dp8861
g12
g8848
sg102
(lp8862
g8857
ag8850
asbsVTranslationSet
p8863
g1
(g18
g19
(lp8864
g1
(g2
g3
(dp8865
VTo
p8866
g1
(g6
g7
S'"Pterogymnus laniarius"[Organism]'
p8867
tp8868
Rp8869
(dp8870
g12
g8866
sbsVFrom
p8871
g1
(g6
g7
S'Pterogymnus laniarius[organism]'
p8872
tp8873
Rp8874
(dp8875
g12
g8871
sbstp8876
Rp8877
(dp8878
g12
VTranslation
p8879
sbatp8880
Rp8881
(dp8882
g12
g8863
sbsVRetStart
p8883
g1
(g6
g7
g125
tp8884
Rp8885
(dp8886
g12
g8883
sbsVQueryTranslation
p8887
g1
(g6
g7
S'"Pterogymnus laniarius"[Organism] AND 16S[All Fields]'
p8888
tp8889
Rp8890
(dp8891
g12
g8887
sbstp8892
Rp8893
(dp8894
g12
VeSearchResult
p8895
sbag1
(g2
g3
(dp8896
VCount
p8897
g1
(g6
g7
g3969
tp8898
Rp8899
(dp8900
g12
g8897
sbsVRetMax
p8901
g1
(g6
g7
g3969
tp8902
Rp8903
(dp8904
g12
g8901
sbsVIdList
p8905
g1
(g18
g19
(lp8906
g1
(g6
g7
S'293595851'
p8907
tp8908
Rp8909
(dp8910
g12
VId
p8911
sbag1
(g6
g7
S'293595850'
p8912
tp8913
Rp8914
(dp8915
g12
g8911
sbag1
(g6
g7
S'293595849'
p8916
tp8917
Rp8918
(dp8919
g12
g8911
sbag1
(g6
g7
S'291289123'
p8920
tp8921
Rp8922
(dp8923
g12
g8911
sbag1
(g6
g7
S'291289122'
p8924
tp8925
Rp8926
(dp8927
g12
g8911
sbag1
(g6
g7
S'291289121'
p8928
tp8929
Rp8930
(dp8931
g12
g8911
sbatp8932
Rp8933
(dp8934
g12
g8905
sbsVTranslationStack
p8935
g1
(g18
g19
(lp8936
g1
(g2
g3
(dp8937
g8897
g1
(g6
g7
S'13'
p8938
tp8939
Rp8940
(dp8941
g12
g8897
sbsVField
p8942
g1
(g6
g7
S'Organism'
p8943
tp8944
Rp8945
(dp8946
g12
g8942
sbsVTerm
p8947
g1
(g6
g7
S'"Rhabdosargus globiceps"[Organism]'
p8948
tp8949
Rp8950
(dp8951
g12
g8947
sbsVExplode
p8952
g1
(g6
g7
g51
tp8953
Rp8954
(dp8955
g12
g8952
sbstp8956
Rp8957
(dp8958
g12
VTermSet
p8959
sbag1
(g2
g3
(dp8960
g8897
g1
(g6
g7
S'12666469'
p8961
tp8962
Rp8963
(dp8964
g12
g8897
sbsg8942
g1
(g6
g7
S'All Fields'
p8965
tp8966
Rp8967
(dp8968
g12
g8942
sbsg8947
g1
(g6
g7
S'16S[All Fields]'
p8969
tp8970
Rp8971
(dp8972
g12
g8947
sbsg8952
g1
(g6
g7
g72
tp8973
Rp8974
(dp8975
g12
g8952
sbstp8976
Rp8977
(dp8978
g12
g8959
sbag1
(g6
g7
S'AND'
p8979
tp8980
Rp8981
(dp8982
g12
VOP
p8983
sbatp8984
Rp8985
(dp8986
g12
g8935
sbsVErrorList
p8987
g1
(g88
g3
(dp8988
VFieldNotFound
p8989
(lp8990
g1
(g6
g7
S'definition'
p8991
tp8992
Rp8993
(dp8994
g12
VFieldNotFound
p8995
sbasVPhraseNotFound
p8996
(lp8997
stp8998
Rp8999
(dp9000
g12
g8987
sg102
(lp9001
g8996
ag8989
asbsVTranslationSet
p9002
g1
(g18
g19
(lp9003
g1
(g2
g3
(dp9004
VTo
p9005
g1
(g6
g7
S'"Rhabdosargus globiceps"[Organism]'
p9006
tp9007
Rp9008
(dp9009
g12
g9005
sbsVFrom
p9010
g1
(g6
g7
S'Rhabdosargus globiceps[organism]'
p9011
tp9012
Rp9013
(dp9014
g12
g9010
sbstp9015
Rp9016
(dp9017
g12
VTranslation
p9018
sbatp9019
Rp9020
(dp9021
g12
g9002
sbsVRetStart
p9022
g1
(g6
g7
g125
tp9023
Rp9024
(dp9025
g12
g9022
sbsVQueryTranslation
p9026
g1
(g6
g7
S'"Rhabdosargus globiceps"[Organism] AND 16S[All Fields]'
p9027
tp9028
Rp9029
(dp9030
g12
g9026
sbstp9031
Rp9032
(dp9033
g12
VeSearchResult
p9034
sbag1
(g2
g3
(dp9035
VCount
p9036
g1
(g6
g7
g854
tp9037
Rp9038
(dp9039
g12
g9036
sbsVRetMax
p9040
g1
(g6
g7
g854
tp9041
Rp9042
(dp9043
g12
g9040
sbsVIdList
p9044
g1
(g18
g19
(lp9045
g1
(g6
g7
S'699256677'
p9046
tp9047
Rp9048
(dp9049
g12
VId
p9050
sbag1
(g6
g7
S'690196210'
p9051
tp9052
Rp9053
(dp9054
g12
g9050
sbag1
(g6
g7
S'375005951'
p9055
tp9056
Rp9057
(dp9058
g12
g9050
sbag1
(g6
g7
S'38489952'
p9059
tp9060
Rp9061
(dp9062
g12
g9050
sbatp9063
Rp9064
(dp9065
g12
g9044
sbsVTranslationStack
p9066
g1
(g18
g19
(lp9067
g1
(g2
g3
(dp9068
g9036
g1
(g6
g7
S'116'
p9069
tp9070
Rp9071
(dp9072
g12
g9036
sbsVField
p9073
g1
(g6
g7
S'Organism'
p9074
tp9075
Rp9076
(dp9077
g12
g9073
sbsVTerm
p9078
g1
(g6
g7
S'"Rhabdosargus sarba"[Organism]'
p9079
tp9080
Rp9081
(dp9082
g12
g9078
sbsVExplode
p9083
g1
(g6
g7
g51
tp9084
Rp9085
(dp9086
g12
g9083
sbstp9087
Rp9088
(dp9089
g12
VTermSet
p9090
sbag1
(g2
g3
(dp9091
g9036
g1
(g6
g7
S'12666469'
p9092
tp9093
Rp9094
(dp9095
g12
g9036
sbsg9073
g1
(g6
g7
S'All Fields'
p9096
tp9097
Rp9098
(dp9099
g12
g9073
sbsg9078
g1
(g6
g7
S'16S[All Fields]'
p9100
tp9101
Rp9102
(dp9103
g12
g9078
sbsg9083
g1
(g6
g7
g72
tp9104
Rp9105
(dp9106
g12
g9083
sbstp9107
Rp9108
(dp9109
g12
g9090
sbag1
(g6
g7
S'AND'
p9110
tp9111
Rp9112
(dp9113
g12
VOP
p9114
sbatp9115
Rp9116
(dp9117
g12
g9066
sbsVErrorList
p9118
g1
(g88
g3
(dp9119
VFieldNotFound
p9120
(lp9121
g1
(g6
g7
S'definition'
p9122
tp9123
Rp9124
(dp9125
g12
VFieldNotFound
p9126
sbasVPhraseNotFound
p9127
(lp9128
stp9129
Rp9130
(dp9131
g12
g9118
sg102
(lp9132
g9127
ag9120
asbsVTranslationSet
p9133
g1
(g18
g19
(lp9134
g1
(g2
g3
(dp9135
VTo
p9136
g1
(g6
g7
S'"Rhabdosargus sarba"[Organism]'
p9137
tp9138
Rp9139
(dp9140
g12
g9136
sbsVFrom
p9141
g1
(g6
g7
S'Rhabdosargus sarba[organism]'
p9142
tp9143
Rp9144
(dp9145
g12
g9141
sbstp9146
Rp9147
(dp9148
g12
VTranslation
p9149
sbatp9150
Rp9151
(dp9152
g12
g9133
sbsVRetStart
p9153
g1
(g6
g7
g125
tp9154
Rp9155
(dp9156
g12
g9153
sbsVQueryTranslation
p9157
g1
(g6
g7
S'"Rhabdosargus sarba"[Organism] AND 16S[All Fields]'
p9158
tp9159
Rp9160
(dp9161
g12
g9157
sbstp9162
Rp9163
(dp9164
g12
VeSearchResult
p9165
sbag1
(g2
g3
(dp9166
VCount
p9167
g1
(g6
g7
g986
tp9168
Rp9169
(dp9170
g12
g9167
sbsVRetMax
p9171
g1
(g6
g7
g986
tp9172
Rp9173
(dp9174
g12
g9171
sbsVIdList
p9175
g1
(g18
g19
(lp9176
g1
(g6
g7
S'19850102'
p9177
tp9178
Rp9179
(dp9180
g12
VId
p9181
sbatp9182
Rp9183
(dp9184
g12
g9175
sbsVTranslationStack
p9185
g1
(g18
g19
(lp9186
g1
(g2
g3
(dp9187
g9167
g1
(g6
g7
g296
tp9188
Rp9189
(dp9190
g12
g9167
sbsVField
p9191
g1
(g6
g7
S'Organism'
p9192
tp9193
Rp9194
(dp9195
g12
g9191
sbsVTerm
p9196
g1
(g6
g7
S'"Rhabdosargus thorpei"[Organism]'
p9197
tp9198
Rp9199
(dp9200
g12
g9196
sbsVExplode
p9201
g1
(g6
g7
g51
tp9202
Rp9203
(dp9204
g12
g9201
sbstp9205
Rp9206
(dp9207
g12
VTermSet
p9208
sbag1
(g2
g3
(dp9209
g9167
g1
(g6
g7
S'12666469'
p9210
tp9211
Rp9212
(dp9213
g12
g9167
sbsg9191
g1
(g6
g7
S'All Fields'
p9214
tp9215
Rp9216
(dp9217
g12
g9191
sbsg9196
g1
(g6
g7
S'16S[All Fields]'
p9218
tp9219
Rp9220
(dp9221
g12
g9196
sbsg9201
g1
(g6
g7
g72
tp9222
Rp9223
(dp9224
g12
g9201
sbstp9225
Rp9226
(dp9227
g12
g9208
sbag1
(g6
g7
S'AND'
p9228
tp9229
Rp9230
(dp9231
g12
VOP
p9232
sbatp9233
Rp9234
(dp9235
g12
g9185
sbsVErrorList
p9236
g1
(g88
g3
(dp9237
VFieldNotFound
p9238
(lp9239
g1
(g6
g7
S'definition'
p9240
tp9241
Rp9242
(dp9243
g12
VFieldNotFound
p9244
sbasVPhraseNotFound
p9245
(lp9246
stp9247
Rp9248
(dp9249
g12
g9236
sg102
(lp9250
g9245
ag9238
asbsVTranslationSet
p9251
g1
(g18
g19
(lp9252
g1
(g2
g3
(dp9253
VTo
p9254
g1
(g6
g7
S'"Rhabdosargus thorpei"[Organism]'
p9255
tp9256
Rp9257
(dp9258
g12
g9254
sbsVFrom
p9259
g1
(g6
g7
S'Rhabdosargus thorpei[organism]'
p9260
tp9261
Rp9262
(dp9263
g12
g9259
sbstp9264
Rp9265
(dp9266
g12
VTranslation
p9267
sbatp9268
Rp9269
(dp9270
g12
g9251
sbsVRetStart
p9271
g1
(g6
g7
g125
tp9272
Rp9273
(dp9274
g12
g9271
sbsVQueryTranslation
p9275
g1
(g6
g7
S'"Rhabdosargus thorpei"[Organism] AND 16S[All Fields]'
p9276
tp9277
Rp9278
(dp9279
g12
g9275
sbstp9280
Rp9281
(dp9282
g12
VeSearchResult
p9283
sbag1
(g2
g3
(dp9284
VCount
p9285
g1
(g6
g7
g608
tp9286
Rp9287
(dp9288
g12
g9285
sbsVRetMax
p9289
g1
(g6
g7
g608
tp9290
Rp9291
(dp9292
g12
g9289
sbsVIdList
p9293
g1
(g18
g19
(lp9294
g1
(g6
g7
S'444292734'
p9295
tp9296
Rp9297
(dp9298
g12
VId
p9299
sbag1
(g6
g7
S'402810049'
p9300
tp9301
Rp9302
(dp9303
g12
g9299
sbag1
(g6
g7
S'259121981'
p9304
tp9305
Rp9306
(dp9307
g12
g9299
sbag1
(g6
g7
S'19850075'
p9308
tp9309
Rp9310
(dp9311
g12
g9299
sbag1
(g6
g7
S'6491854'
p9312
tp9313
Rp9314
(dp9315
g12
g9299
sbatp9316
Rp9317
(dp9318
g12
g9293
sbsVTranslationStack
p9319
g1
(g18
g19
(lp9320
g1
(g2
g3
(dp9321
g9285
g1
(g6
g7
S'225'
p9322
tp9323
Rp9324
(dp9325
g12
g9285
sbsVField
p9326
g1
(g6
g7
S'Organism'
p9327
tp9328
Rp9329
(dp9330
g12
g9326
sbsVTerm
p9331
g1
(g6
g7
S'"Sarpa salpa"[Organism]'
p9332
tp9333
Rp9334
(dp9335
g12
g9331
sbsVExplode
p9336
g1
(g6
g7
g51
tp9337
Rp9338
(dp9339
g12
g9336
sbstp9340
Rp9341
(dp9342
g12
VTermSet
p9343
sbag1
(g2
g3
(dp9344
g9285
g1
(g6
g7
S'12666469'
p9345
tp9346
Rp9347
(dp9348
g12
g9285
sbsg9326
g1
(g6
g7
S'All Fields'
p9349
tp9350
Rp9351
(dp9352
g12
g9326
sbsg9331
g1
(g6
g7
S'16S[All Fields]'
p9353
tp9354
Rp9355
(dp9356
g12
g9331
sbsg9336
g1
(g6
g7
g72
tp9357
Rp9358
(dp9359
g12
g9336
sbstp9360
Rp9361
(dp9362
g12
g9343
sbag1
(g6
g7
S'AND'
p9363
tp9364
Rp9365
(dp9366
g12
VOP
p9367
sbatp9368
Rp9369
(dp9370
g12
g9319
sbsVErrorList
p9371
g1
(g88
g3
(dp9372
VFieldNotFound
p9373
(lp9374
g1
(g6
g7
S'definition'
p9375
tp9376
Rp9377
(dp9378
g12
VFieldNotFound
p9379
sbasVPhraseNotFound
p9380
(lp9381
stp9382
Rp9383
(dp9384
g12
g9371
sg102
(lp9385
g9380
ag9373
asbsVTranslationSet
p9386
g1
(g18
g19
(lp9387
g1
(g2
g3
(dp9388
VTo
p9389
g1
(g6
g7
S'"Sarpa salpa"[Organism]'
p9390
tp9391
Rp9392
(dp9393
g12
g9389
sbsVFrom
p9394
g1
(g6
g7
S'Sarpa salpa[organism]'
p9395
tp9396
Rp9397
(dp9398
g12
g9394
sbstp9399
Rp9400
(dp9401
g12
VTranslation
p9402
sbatp9403
Rp9404
(dp9405
g12
g9386
sbsVRetStart
p9406
g1
(g6
g7
g125
tp9407
Rp9408
(dp9409
g12
g9406
sbsVQueryTranslation
p9410
g1
(g6
g7
S'"Sarpa salpa"[Organism] AND 16S[All Fields]'
p9411
tp9412
Rp9413
(dp9414
g12
g9410
sbstp9415
Rp9416
(dp9417
g12
VeSearchResult
p9418
sbag1
(g2
g3
(dp9419
VCount
p9420
g1
(g6
g7
g986
tp9421
Rp9422
(dp9423
g12
g9420
sbsVRetMax
p9424
g1
(g6
g7
g986
tp9425
Rp9426
(dp9427
g12
g9424
sbsVIdList
p9428
g1
(g18
g19
(lp9429
g1
(g6
g7
S'19850104'
p9430
tp9431
Rp9432
(dp9433
g12
VId
p9434
sbatp9435
Rp9436
(dp9437
g12
g9428
sbsVTranslationStack
p9438
g1
(g18
g19
(lp9439
g1
(g2
g3
(dp9440
g9420
g1
(g6
g7
S'13'
p9441
tp9442
Rp9443
(dp9444
g12
g9420
sbsVField
p9445
g1
(g6
g7
S'Organism'
p9446
tp9447
Rp9448
(dp9449
g12
g9445
sbsVTerm
p9450
g1
(g6
g7
S'"Sparidentex hasta"[Organism]'
p9451
tp9452
Rp9453
(dp9454
g12
g9450
sbsVExplode
p9455
g1
(g6
g7
g51
tp9456
Rp9457
(dp9458
g12
g9455
sbstp9459
Rp9460
(dp9461
g12
VTermSet
p9462
sbag1
(g2
g3
(dp9463
g9420
g1
(g6
g7
S'12666469'
p9464
tp9465
Rp9466
(dp9467
g12
g9420
sbsg9445
g1
(g6
g7
S'All Fields'
p9468
tp9469
Rp9470
(dp9471
g12
g9445
sbsg9450
g1
(g6
g7
S'16S[All Fields]'
p9472
tp9473
Rp9474
(dp9475
g12
g9450
sbsg9455
g1
(g6
g7
g72
tp9476
Rp9477
(dp9478
g12
g9455
sbstp9479
Rp9480
(dp9481
g12
g9462
sbag1
(g6
g7
S'AND'
p9482
tp9483
Rp9484
(dp9485
g12
VOP
p9486
sbatp9487
Rp9488
(dp9489
g12
g9438
sbsVErrorList
p9490
g1
(g88
g3
(dp9491
VFieldNotFound
p9492
(lp9493
g1
(g6
g7
S'definition'
p9494
tp9495
Rp9496
(dp9497
g12
VFieldNotFound
p9498
sbasVPhraseNotFound
p9499
(lp9500
stp9501
Rp9502
(dp9503
g12
g9490
sg102
(lp9504
g9499
ag9492
asbsVTranslationSet
p9505
g1
(g18
g19
(lp9506
g1
(g2
g3
(dp9507
VTo
p9508
g1
(g6
g7
S'"Sparidentex hasta"[Organism]'
p9509
tp9510
Rp9511
(dp9512
g12
g9508
sbsVFrom
p9513
g1
(g6
g7
S'Sparidentex hasta[organism]'
p9514
tp9515
Rp9516
(dp9517
g12
g9513
sbstp9518
Rp9519
(dp9520
g12
VTranslation
p9521
sbatp9522
Rp9523
(dp9524
g12
g9505
sbsVRetStart
p9525
g1
(g6
g7
g125
tp9526
Rp9527
(dp9528
g12
g9525
sbsVQueryTranslation
p9529
g1
(g6
g7
S'"Sparidentex hasta"[Organism] AND 16S[All Fields]'
p9530
tp9531
Rp9532
(dp9533
g12
g9529
sbstp9534
Rp9535
(dp9536
g12
VeSearchResult
p9537
sbag1
(g2
g3
(dp9538
VCount
p9539
g1
(g6
g7
g986
tp9540
Rp9541
(dp9542
g12
g9539
sbsVRetMax
p9543
g1
(g6
g7
g986
tp9544
Rp9545
(dp9546
g12
g9543
sbsVIdList
p9547
g1
(g18
g19
(lp9548
g1
(g6
g7
S'19850103'
p9549
tp9550
Rp9551
(dp9552
g12
VId
p9553
sbatp9554
Rp9555
(dp9556
g12
g9547
sbsVTranslationStack
p9557
g1
(g18
g19
(lp9558
g1
(g2
g3
(dp9559
g9539
g1
(g6
g7
g1106
tp9560
Rp9561
(dp9562
g12
g9539
sbsVField
p9563
g1
(g6
g7
S'Organism'
p9564
tp9565
Rp9566
(dp9567
g12
g9563
sbsVTerm
p9568
g1
(g6
g7
S'"Sparodon durbanensis"[Organism]'
p9569
tp9570
Rp9571
(dp9572
g12
g9568
sbsVExplode
p9573
g1
(g6
g7
g51
tp9574
Rp9575
(dp9576
g12
g9573
sbstp9577
Rp9578
(dp9579
g12
VTermSet
p9580
sbag1
(g2
g3
(dp9581
g9539
g1
(g6
g7
S'12666469'
p9582
tp9583
Rp9584
(dp9585
g12
g9539
sbsg9563
g1
(g6
g7
S'All Fields'
p9586
tp9587
Rp9588
(dp9589
g12
g9563
sbsg9568
g1
(g6
g7
S'16S[All Fields]'
p9590
tp9591
Rp9592
(dp9593
g12
g9568
sbsg9573
g1
(g6
g7
g72
tp9594
Rp9595
(dp9596
g12
g9573
sbstp9597
Rp9598
(dp9599
g12
g9580
sbag1
(g6
g7
S'AND'
p9600
tp9601
Rp9602
(dp9603
g12
VOP
p9604
sbatp9605
Rp9606
(dp9607
g12
g9557
sbsVErrorList
p9608
g1
(g88
g3
(dp9609
VFieldNotFound
p9610
(lp9611
g1
(g6
g7
S'definition'
p9612
tp9613
Rp9614
(dp9615
g12
VFieldNotFound
p9616
sbasVPhraseNotFound
p9617
(lp9618
stp9619
Rp9620
(dp9621
g12
g9608
sg102
(lp9622
g9617
ag9610
asbsVTranslationSet
p9623
g1
(g18
g19
(lp9624
g1
(g2
g3
(dp9625
VTo
p9626
g1
(g6
g7
S'"Sparodon durbanensis"[Organism]'
p9627
tp9628
Rp9629
(dp9630
g12
g9626
sbsVFrom
p9631
g1
(g6
g7
S'Sparodon durbanensis[organism]'
p9632
tp9633
Rp9634
(dp9635
g12
g9631
sbstp9636
Rp9637
(dp9638
g12
VTranslation
p9639
sbatp9640
Rp9641
(dp9642
g12
g9623
sbsVRetStart
p9643
g1
(g6
g7
g125
tp9644
Rp9645
(dp9646
g12
g9643
sbsVQueryTranslation
p9647
g1
(g6
g7
S'"Sparodon durbanensis"[Organism] AND 16S[All Fields]'
p9648
tp9649
Rp9650
(dp9651
g12
g9647
sbstp9652
Rp9653
(dp9654
g12
VeSearchResult
p9655
sbag1
(g2
g3
(dp9656
VCount
p9657
g1
(g6
g7
S'14'
p9658
tp9659
Rp9660
(dp9661
g12
g9657
sbsVRetMax
p9662
g1
(g6
g7
S'14'
p9663
tp9664
Rp9665
(dp9666
g12
g9662
sbsVIdList
p9667
g1
(g18
g19
(lp9668
g1
(g6
g7
S'646283121'
p9669
tp9670
Rp9671
(dp9672
g12
VId
p9673
sbag1
(g6
g7
S'641689246'
p9674
tp9675
Rp9676
(dp9677
g12
g9673
sbag1
(g6
g7
S'544582195'
p9678
tp9679
Rp9680
(dp9681
g12
g9673
sbag1
(g6
g7
S'140288576'
p9682
tp9683
Rp9684
(dp9685
g12
g9673
sbag1
(g6
g7
S'307344213'
p9686
tp9687
Rp9688
(dp9689
g12
g9673
sbag1
(g6
g7
S'307344212'
p9690
tp9691
Rp9692
(dp9693
g12
g9673
sbag1
(g6
g7
S'307344211'
p9694
tp9695
Rp9696
(dp9697
g12
g9673
sbag1
(g6
g7
S'307344210'
p9698
tp9699
Rp9700
(dp9701
g12
g9673
sbag1
(g6
g7
S'307344209'
p9702
tp9703
Rp9704
(dp9705
g12
g9673
sbag1
(g6
g7
S'307344208'
p9706
tp9707
Rp9708
(dp9709
g12
g9673
sbag1
(g6
g7
S'307344207'
p9710
tp9711
Rp9712
(dp9713
g12
g9673
sbag1
(g6
g7
S'259121982'
p9714
tp9715
Rp9716
(dp9717
g12
g9673
sbag1
(g6
g7
S'19850105'
p9718
tp9719
Rp9720
(dp9721
g12
g9673
sbag1
(g6
g7
S'6491832'
p9722
tp9723
Rp9724
(dp9725
g12
g9673
sbatp9726
Rp9727
(dp9728
g12
g9667
sbsVTranslationStack
p9729
g1
(g18
g19
(lp9730
g1
(g2
g3
(dp9731
g9657
g1
(g6
g7
S'2062'
p9732
tp9733
Rp9734
(dp9735
g12
g9657
sbsVField
p9736
g1
(g6
g7
S'Organism'
p9737
tp9738
Rp9739
(dp9740
g12
g9736
sbsVTerm
p9741
g1
(g6
g7
S'"Sparus aurata"[Organism]'
p9742
tp9743
Rp9744
(dp9745
g12
g9741
sbsVExplode
p9746
g1
(g6
g7
g51
tp9747
Rp9748
(dp9749
g12
g9746
sbstp9750
Rp9751
(dp9752
g12
VTermSet
p9753
sbag1
(g2
g3
(dp9754
g9657
g1
(g6
g7
S'12666469'
p9755
tp9756
Rp9757
(dp9758
g12
g9657
sbsg9736
g1
(g6
g7
S'All Fields'
p9759
tp9760
Rp9761
(dp9762
g12
g9736
sbsg9741
g1
(g6
g7
S'16S[All Fields]'
p9763
tp9764
Rp9765
(dp9766
g12
g9741
sbsg9746
g1
(g6
g7
g72
tp9767
Rp9768
(dp9769
g12
g9746
sbstp9770
Rp9771
(dp9772
g12
g9753
sbag1
(g6
g7
S'AND'
p9773
tp9774
Rp9775
(dp9776
g12
VOP
p9777
sbatp9778
Rp9779
(dp9780
g12
g9729
sbsVErrorList
p9781
g1
(g88
g3
(dp9782
VFieldNotFound
p9783
(lp9784
g1
(g6
g7
S'definition'
p9785
tp9786
Rp9787
(dp9788
g12
VFieldNotFound
p9789
sbasVPhraseNotFound
p9790
(lp9791
stp9792
Rp9793
(dp9794
g12
g9781
sg102
(lp9795
g9790
ag9783
asbsVTranslationSet
p9796
g1
(g18
g19
(lp9797
g1
(g2
g3
(dp9798
VTo
p9799
g1
(g6
g7
S'"Sparus aurata"[Organism]'
p9800
tp9801
Rp9802
(dp9803
g12
g9799
sbsVFrom
p9804
g1
(g6
g7
S'Sparus aurata[organism]'
p9805
tp9806
Rp9807
(dp9808
g12
g9804
sbstp9809
Rp9810
(dp9811
g12
VTranslation
p9812
sbatp9813
Rp9814
(dp9815
g12
g9796
sbsVRetStart
p9816
g1
(g6
g7
g125
tp9817
Rp9818
(dp9819
g12
g9816
sbsVQueryTranslation
p9820
g1
(g6
g7
S'"Sparus aurata"[Organism] AND 16S[All Fields]'
p9821
tp9822
Rp9823
(dp9824
g12
g9820
sbstp9825
Rp9826
(dp9827
g12
VeSearchResult
p9828
sbag1
(g2
g3
(dp9829
VCount
p9830
g1
(g6
g7
g986
tp9831
Rp9832
(dp9833
g12
g9830
sbsVRetMax
p9834
g1
(g6
g7
g986
tp9835
Rp9836
(dp9837
g12
g9834
sbsVIdList
p9838
g1
(g18
g19
(lp9839
g1
(g6
g7
S'19850108'
p9840
tp9841
Rp9842
(dp9843
g12
VId
p9844
sbatp9845
Rp9846
(dp9847
g12
g9838
sbsVTranslationStack
p9848
g1
(g18
g19
(lp9849
g1
(g2
g3
(dp9850
g9830
g1
(g6
g7
S'11'
p9851
tp9852
Rp9853
(dp9854
g12
g9830
sbsVField
p9855
g1
(g6
g7
S'Organism'
p9856
tp9857
Rp9858
(dp9859
g12
g9855
sbsVTerm
p9860
g1
(g6
g7
S'"Spicara alta"[Organism]'
p9861
tp9862
Rp9863
(dp9864
g12
g9860
sbsVExplode
p9865
g1
(g6
g7
g51
tp9866
Rp9867
(dp9868
g12
g9865
sbstp9869
Rp9870
(dp9871
g12
VTermSet
p9872
sbag1
(g2
g3
(dp9873
g9830
g1
(g6
g7
S'12666469'
p9874
tp9875
Rp9876
(dp9877
g12
g9830
sbsg9855
g1
(g6
g7
S'All Fields'
p9878
tp9879
Rp9880
(dp9881
g12
g9855
sbsg9860
g1
(g6
g7
S'16S[All Fields]'
p9882
tp9883
Rp9884
(dp9885
g12
g9860
sbsg9865
g1
(g6
g7
g72
tp9886
Rp9887
(dp9888
g12
g9865
sbstp9889
Rp9890
(dp9891
g12
g9872
sbag1
(g6
g7
S'AND'
p9892
tp9893
Rp9894
(dp9895
g12
VOP
p9896
sbatp9897
Rp9898
(dp9899
g12
g9848
sbsVErrorList
p9900
g1
(g88
g3
(dp9901
VFieldNotFound
p9902
(lp9903
g1
(g6
g7
S'definition'
p9904
tp9905
Rp9906
(dp9907
g12
VFieldNotFound
p9908
sbasVPhraseNotFound
p9909
(lp9910
stp9911
Rp9912
(dp9913
g12
g9900
sg102
(lp9914
g9909
ag9902
asbsVTranslationSet
p9915
g1
(g18
g19
(lp9916
g1
(g2
g3
(dp9917
VTo
p9918
g1
(g6
g7
S'"Spicara alta"[Organism]'
p9919
tp9920
Rp9921
(dp9922
g12
g9918
sbsVFrom
p9923
g1
(g6
g7
S'Spicara alta[organism]'
p9924
tp9925
Rp9926
(dp9927
g12
g9923
sbstp9928
Rp9929
(dp9930
g12
VTranslation
p9931
sbatp9932
Rp9933
(dp9934
g12
g9915
sbsVRetStart
p9935
g1
(g6
g7
g125
tp9936
Rp9937
(dp9938
g12
g9935
sbsVQueryTranslation
p9939
g1
(g6
g7
S'"Spicara alta"[Organism] AND 16S[All Fields]'
p9940
tp9941
Rp9942
(dp9943
g12
g9939
sbstp9944
Rp9945
(dp9946
g12
VeSearchResult
p9947
sbag1
(g2
g3
(dp9948
VCount
p9949
g1
(g6
g7
g2037
tp9950
Rp9951
(dp9952
g12
g9949
sbsVRetMax
p9953
g1
(g6
g7
g2037
tp9954
Rp9955
(dp9956
g12
g9953
sbsVIdList
p9957
g1
(g18
g19
(lp9958
g1
(g6
g7
S'748584734'
p9959
tp9960
Rp9961
(dp9962
g12
VId
p9963
sbag1
(g6
g7
S'582537688'
p9964
tp9965
Rp9966
(dp9967
g12
g9963
sbag1
(g6
g7
S'157736019'
p9968
tp9969
Rp9970
(dp9971
g12
g9963
sbag1
(g6
g7
S'330426841'
p9972
tp9973
Rp9974
(dp9975
g12
g9963
sbag1
(g6
g7
S'330426840'
p9976
tp9977
Rp9978
(dp9979
g12
g9963
sbag1
(g6
g7
S'223469625'
p9980
tp9981
Rp9982
(dp9983
g12
g9963
sbag1
(g6
g7
S'19850107'
p9984
tp9985
Rp9986
(dp9987
g12
g9963
sbag1
(g6
g7
S'139000552'
p9988
tp9989
Rp9990
(dp9991
g12
g9963
sbag1
(g6
g7
S'6491834'
p9992
tp9993
Rp9994
(dp9995
g12
g9963
sbatp9996
Rp9997
(dp9998
g12
g9957
sbsVTranslationStack
p9999
g1
(g18
g19
(lp10000
g1
(g2
g3
(dp10001
g9949
g1
(g6
g7
S'65'
p10002
tp10003
Rp10004
(dp10005
g12
g9949
sbsVField
p10006
g1
(g6
g7
S'Organism'
p10007
tp10008
Rp10009
(dp10010
g12
g10006
sbsVTerm
p10011
g1
(g6
g7
S'"Spicara maena"[Organism]'
p10012
tp10013
Rp10014
(dp10015
g12
g10011
sbsVExplode
p10016
g1
(g6
g7
g51
tp10017
Rp10018
(dp10019
g12
g10016
sbstp10020
Rp10021
(dp10022
g12
VTermSet
p10023
sbag1
(g2
g3
(dp10024
g9949
g1
(g6
g7
S'12666469'
p10025
tp10026
Rp10027
(dp10028
g12
g9949
sbsg10006
g1
(g6
g7
S'All Fields'
p10029
tp10030
Rp10031
(dp10032
g12
g10006
sbsg10011
g1
(g6
g7
S'16S[All Fields]'
p10033
tp10034
Rp10035
(dp10036
g12
g10011
sbsg10016
g1
(g6
g7
g72
tp10037
Rp10038
(dp10039
g12
g10016
sbstp10040
Rp10041
(dp10042
g12
g10023
sbag1
(g6
g7
S'AND'
p10043
tp10044
Rp10045
(dp10046
g12
VOP
p10047
sbatp10048
Rp10049
(dp10050
g12
g9999
sbsVErrorList
p10051
g1
(g88
g3
(dp10052
VFieldNotFound
p10053
(lp10054
g1
(g6
g7
S'definition'
p10055
tp10056
Rp10057
(dp10058
g12
VFieldNotFound
p10059
sbasVPhraseNotFound
p10060
(lp10061
stp10062
Rp10063
(dp10064
g12
g10051
sg102
(lp10065
g10060
ag10053
asbsVTranslationSet
p10066
g1
(g18
g19
(lp10067
g1
(g2
g3
(dp10068
VTo
p10069
g1
(g6
g7
S'"Spicara maena"[Organism]'
p10070
tp10071
Rp10072
(dp10073
g12
g10069
sbsVFrom
p10074
g1
(g6
g7
S'Spicara maena[organism]'
p10075
tp10076
Rp10077
(dp10078
g12
g10074
sbstp10079
Rp10080
(dp10081
g12
VTranslation
p10082
sbatp10083
Rp10084
(dp10085
g12
g10066
sbsVRetStart
p10086
g1
(g6
g7
g125
tp10087
Rp10088
(dp10089
g12
g10086
sbsVQueryTranslation
p10090
g1
(g6
g7
S'"Spicara maena"[Organism] AND 16S[All Fields]'
p10091
tp10092
Rp10093
(dp10094
g12
g10090
sbstp10095
Rp10096
(dp10097
g12
VeSearchResult
p10098
sbag1
(g2
g3
(dp10099
VCount
p10100
g1
(g6
g7
g3969
tp10101
Rp10102
(dp10103
g12
g10100
sbsVRetMax
p10104
g1
(g6
g7
g3969
tp10105
Rp10106
(dp10107
g12
g10104
sbsVIdList
p10108
g1
(g18
g19
(lp10109
g1
(g6
g7
S'544582220'
p10110
tp10111
Rp10112
(dp10113
g12
VId
p10114
sbag1
(g6
g7
S'582537685'
p10115
tp10116
Rp10117
(dp10118
g12
g10114
sbag1
(g6
g7
S'582537684'
p10119
tp10120
Rp10121
(dp10122
g12
g10114
sbag1
(g6
g7
S'330426844'
p10123
tp10124
Rp10125
(dp10126
g12
g10114
sbag1
(g6
g7
S'330426843'
p10127
tp10128
Rp10129
(dp10130
g12
g10114
sbag1
(g6
g7
S'330426842'
p10131
tp10132
Rp10133
(dp10134
g12
g10114
sbatp10135
Rp10136
(dp10137
g12
g10108
sbsVTranslationStack
p10138
g1
(g18
g19
(lp10139
g1
(g2
g3
(dp10140
g10100
g1
(g6
g7
S'59'
p10141
tp10142
Rp10143
(dp10144
g12
g10100
sbsVField
p10145
g1
(g6
g7
S'Organism'
p10146
tp10147
Rp10148
(dp10149
g12
g10145
sbsVTerm
p10150
g1
(g6
g7
S'"Spicara smaris"[Organism]'
p10151
tp10152
Rp10153
(dp10154
g12
g10150
sbsVExplode
p10155
g1
(g6
g7
g51
tp10156
Rp10157
(dp10158
g12
g10155
sbstp10159
Rp10160
(dp10161
g12
VTermSet
p10162
sbag1
(g2
g3
(dp10163
g10100
g1
(g6
g7
S'12666469'
p10164
tp10165
Rp10166
(dp10167
g12
g10100
sbsg10145
g1
(g6
g7
S'All Fields'
p10168
tp10169
Rp10170
(dp10171
g12
g10145
sbsg10150
g1
(g6
g7
S'16S[All Fields]'
p10172
tp10173
Rp10174
(dp10175
g12
g10150
sbsg10155
g1
(g6
g7
g72
tp10176
Rp10177
(dp10178
g12
g10155
sbstp10179
Rp10180
(dp10181
g12
g10162
sbag1
(g6
g7
S'AND'
p10182
tp10183
Rp10184
(dp10185
g12
VOP
p10186
sbatp10187
Rp10188
(dp10189
g12
g10138
sbsVErrorList
p10190
g1
(g88
g3
(dp10191
VFieldNotFound
p10192
(lp10193
g1
(g6
g7
S'definition'
p10194
tp10195
Rp10196
(dp10197
g12
VFieldNotFound
p10198
sbasVPhraseNotFound
p10199
(lp10200
stp10201
Rp10202
(dp10203
g12
g10190
sg102
(lp10204
g10199
ag10192
asbsVTranslationSet
p10205
g1
(g18
g19
(lp10206
g1
(g2
g3
(dp10207
VTo
p10208
g1
(g6
g7
S'"Spicara smaris"[Organism]'
p10209
tp10210
Rp10211
(dp10212
g12
g10208
sbsVFrom
p10213
g1
(g6
g7
S'Spicara smaris[organism]'
p10214
tp10215
Rp10216
(dp10217
g12
g10213
sbstp10218
Rp10219
(dp10220
g12
VTranslation
p10221
sbatp10222
Rp10223
(dp10224
g12
g10205
sbsVRetStart
p10225
g1
(g6
g7
g125
tp10226
Rp10227
(dp10228
g12
g10225
sbsVQueryTranslation
p10229
g1
(g6
g7
S'"Spicara smaris"[Organism] AND 16S[All Fields]'
p10230
tp10231
Rp10232
(dp10233
g12
g10229
sbstp10234
Rp10235
(dp10236
g12
VeSearchResult
p10237
sbag1
(g2
g3
(dp10238
VCount
p10239
g1
(g6
g7
g140
tp10240
Rp10241
(dp10242
g12
g10239
sbsVRetMax
p10243
g1
(g6
g7
g140
tp10244
Rp10245
(dp10246
g12
g10243
sbsVIdList
p10247
g1
(g18
g19
(lp10248
g1
(g6
g7
S'259121983'
p10249
tp10250
Rp10251
(dp10252
g12
VId
p10253
sbag1
(g6
g7
S'19850076'
p10254
tp10255
Rp10256
(dp10257
g12
g10253
sbag1
(g6
g7
S'6491833'
p10258
tp10259
Rp10260
(dp10261
g12
g10253
sbatp10262
Rp10263
(dp10264
g12
g10247
sbsVTranslationStack
p10265
g1
(g18
g19
(lp10266
g1
(g2
g3
(dp10267
g10239
g1
(g6
g7
S'131'
p10268
tp10269
Rp10270
(dp10271
g12
g10239
sbsVField
p10272
g1
(g6
g7
S'Organism'
p10273
tp10274
Rp10275
(dp10276
g12
g10272
sbsVTerm
p10277
g1
(g6
g7
S'"Spondyliosoma cantharus"[Organism]'
p10278
tp10279
Rp10280
(dp10281
g12
g10277
sbsVExplode
p10282
g1
(g6
g7
g51
tp10283
Rp10284
(dp10285
g12
g10282
sbstp10286
Rp10287
(dp10288
g12
VTermSet
p10289
sbag1
(g2
g3
(dp10290
g10239
g1
(g6
g7
S'12666469'
p10291
tp10292
Rp10293
(dp10294
g12
g10239
sbsg10272
g1
(g6
g7
S'All Fields'
p10295
tp10296
Rp10297
(dp10298
g12
g10272
sbsg10277
g1
(g6
g7
S'16S[All Fields]'
p10299
tp10300
Rp10301
(dp10302
g12
g10277
sbsg10282
g1
(g6
g7
g72
tp10303
Rp10304
(dp10305
g12
g10282
sbstp10306
Rp10307
(dp10308
g12
g10289
sbag1
(g6
g7
S'AND'
p10309
tp10310
Rp10311
(dp10312
g12
VOP
p10313
sbatp10314
Rp10315
(dp10316
g12
g10265
sbsVErrorList
p10317
g1
(g88
g3
(dp10318
VFieldNotFound
p10319
(lp10320
g1
(g6
g7
S'definition'
p10321
tp10322
Rp10323
(dp10324
g12
VFieldNotFound
p10325
sbasVPhraseNotFound
p10326
(lp10327
stp10328
Rp10329
(dp10330
g12
g10317
sg102
(lp10331
g10326
ag10319
asbsVTranslationSet
p10332
g1
(g18
g19
(lp10333
g1
(g2
g3
(dp10334
VTo
p10335
g1
(g6
g7
S'"Spondyliosoma cantharus"[Organism]'
p10336
tp10337
Rp10338
(dp10339
g12
g10335
sbsVFrom
p10340
g1
(g6
g7
S'Spondyliosoma cantharus[organism]'
p10341
tp10342
Rp10343
(dp10344
g12
g10340
sbstp10345
Rp10346
(dp10347
g12
VTranslation
p10348
sbatp10349
Rp10350
(dp10351
g12
g10332
sbsVRetStart
p10352
g1
(g6
g7
g125
tp10353
Rp10354
(dp10355
g12
g10352
sbsVQueryTranslation
p10356
g1
(g6
g7
S'"Spondyliosoma cantharus"[Organism] AND 16S[All Fields]'
p10357
tp10358
Rp10359
(dp10360
g12
g10356
sbstp10361
Rp10362
(dp10363
g12
VeSearchResult
p10364
sbag1
(g2
g3
(dp10365
VCount
p10366
g1
(g6
g7
g986
tp10367
Rp10368
(dp10369
g12
g10366
sbsVRetMax
p10370
g1
(g6
g7
g986
tp10371
Rp10372
(dp10373
g12
g10370
sbsVIdList
p10374
g1
(g18
g19
(lp10375
g1
(g6
g7
S'19850106'
p10376
tp10377
Rp10378
(dp10379
g12
VId
p10380
sbatp10381
Rp10382
(dp10383
g12
g10374
sbsVTranslationStack
p10384
g1
(g18
g19
(lp10385
g1
(g2
g3
(dp10386
g10366
g1
(g6
g7
S'44'
p10387
tp10388
Rp10389
(dp10390
g12
g10366
sbsVField
p10391
g1
(g6
g7
S'Organism'
p10392
tp10393
Rp10394
(dp10395
g12
g10391
sbsVTerm
p10396
g1
(g6
g7
S'"Stenotomus chrysops"[Organism]'
p10397
tp10398
Rp10399
(dp10400
g12
g10396
sbsVExplode
p10401
g1
(g6
g7
g51
tp10402
Rp10403
(dp10404
g12
g10401
sbstp10405
Rp10406
(dp10407
g12
VTermSet
p10408
sbag1
(g2
g3
(dp10409
g10366
g1
(g6
g7
S'12666469'
p10410
tp10411
Rp10412
(dp10413
g12
g10366
sbsg10391
g1
(g6
g7
S'All Fields'
p10414
tp10415
Rp10416
(dp10417
g12
g10391
sbsg10396
g1
(g6
g7
S'16S[All Fields]'
p10418
tp10419
Rp10420
(dp10421
g12
g10396
sbsg10401
g1
(g6
g7
g72
tp10422
Rp10423
(dp10424
g12
g10401
sbstp10425
Rp10426
(dp10427
g12
g10408
sbag1
(g6
g7
S'AND'
p10428
tp10429
Rp10430
(dp10431
g12
VOP
p10432
sbatp10433
Rp10434
(dp10435
g12
g10384
sbsVErrorList
p10436
g1
(g88
g3
(dp10437
VFieldNotFound
p10438
(lp10439
g1
(g6
g7
S'definition'
p10440
tp10441
Rp10442
(dp10443
g12
VFieldNotFound
p10444
sbasVPhraseNotFound
p10445
(lp10446
stp10447
Rp10448
(dp10449
g12
g10436
sg102
(lp10450
g10445
ag10438
asbsVTranslationSet
p10451
g1
(g18
g19
(lp10452
g1
(g2
g3
(dp10453
VTo
p10454
g1
(g6
g7
S'"Stenotomus chrysops"[Organism]'
p10455
tp10456
Rp10457
(dp10458
g12
g10454
sbsVFrom
p10459
g1
(g6
g7
S'Stenotomus chrysops[organism]'
p10460
tp10461
Rp10462
(dp10463
g12
g10459
sbstp10464
Rp10465
(dp10466
g12
VTranslation
p10467
sbatp10468
Rp10469
(dp10470
g12
g10451
sbsVRetStart
p10471
g1
(g6
g7
g125
tp10472
Rp10473
(dp10474
g12
g10471
sbsVQueryTranslation
p10475
g1
(g6
g7
S'"Stenotomus chrysops"[Organism] AND 16S[All Fields]'
p10476
tp10477
Rp10478
(dp10479
g12
g10475
sbstp10480
Rp10481
(dp10482
g12
VeSearchResult
p10483
sba.