(lp0
ccopy_reg
_reconstructor
p1
(cBio.Entrez.Parser
DictionaryElement
p2
c__builtin__
dict
p3
(dp4
VCount
p5
g1
(cBio.Entrez.Parser
StringElement
p6
c__builtin__
str
p7
S'1'
p8
tp9
Rp10
(dp11
S'tag'
p12
g5
sbsVRetMax
p13
g1
(g6
g7
g8
tp14
Rp15
(dp16
g12
g13
sbsVIdList
p17
g1
(cBio.Entrez.Parser
ListElement
p18
c__builtin__
list
p19
(lp20
g1
(g6
g7
S'251733240'
p21
tp22
Rp23
(dp24
g12
VId
p25
sbatp26
Rp27
(dp28
g12
g17
sbsVTranslationStack
p29
g1
(g18
g19
(lp30
g1
(g2
g3
(dp31
g5
g1
(g6
g7
S'26'
p32
tp33
Rp34
(dp35
g12
g5
sbsVField
p36
g1
(g6
g7
S'Organism'
p37
tp38
Rp39
(dp40
g12
g36
sbsVTerm
p41
g1
(g6
g7
S'"Acanthopagrus australis"[Organism]'
p42
tp43
Rp44
(dp45
g12
g41
sbsVExplode
p46
g1
(g6
g7
S'Y'
p47
tp48
Rp49
(dp50
g12
g46
sbstp51
Rp52
(dp53
g12
VTermSet
p54
sbag1
(g2
g3
(dp55
g5
g1
(g6
g7
S'430914'
p56
tp57
Rp58
(dp59
g12
g5
sbsg36
g1
(g6
g7
S'All Fields'
p60
tp61
Rp62
(dp63
g12
g36
sbsg41
g1
(g6
g7
S'Cytb[All Fields]'
p64
tp65
Rp66
(dp67
g12
g41
sbsg46
g1
(g6
g7
S'N'
p68
tp69
Rp70
(dp71
g12
g46
sbstp72
Rp73
(dp74
g12
g54
sbag1
(g6
g7
S'AND'
p75
tp76
Rp77
(dp78
g12
VOP
p79
sbatp80
Rp81
(dp82
g12
g29
sbsVErrorList
p83
g1
(cBio.Entrez.Parser
StructureElement
p84
g3
(dp85
VFieldNotFound
p86
(lp87
g1
(g6
g7
S'definition'
p88
tp89
Rp90
(dp91
g12
VFieldNotFound
p92
sbasVPhraseNotFound
p93
(lp94
stp95
Rp96
(dp97
g12
g83
sS'listkeys'
p98
(lp99
g93
ag86
asbsVTranslationSet
p100
g1
(g18
g19
(lp101
g1
(g2
g3
(dp102
VTo
p103
g1
(g6
g7
S'"Acanthopagrus australis"[Organism]'
p104
tp105
Rp106
(dp107
g12
g103
sbsVFrom
p108
g1
(g6
g7
S'Acanthopagrus australis[organism]'
p109
tp110
Rp111
(dp112
g12
g108
sbstp113
Rp114
(dp115
g12
VTranslation
p116
sbatp117
Rp118
(dp119
g12
g100
sbsVRetStart
p120
g1
(g6
g7
S'0'
p121
tp122
Rp123
(dp124
g12
g120
sbsVQueryTranslation
p125
g1
(g6
g7
S'"Acanthopagrus australis"[Organism] AND Cytb[All Fields]'
p126
tp127
Rp128
(dp129
g12
g125
sbstp130
Rp131
(dp132
g12
VeSearchResult
p133
sbag1
(g2
g3
(dp134
VCount
p135
g1
(g6
g7
S'21'
p136
tp137
Rp138
(dp139
g12
g135
sbsVRetMax
p140
g1
(g6
g7
S'20'
p141
tp142
Rp143
(dp144
g12
g140
sbsVIdList
p145
g1
(g18
g19
(lp146
g1
(g6
g7
S'1050990035'
p147
tp148
Rp149
(dp150
g12
VId
p151
sbag1
(g6
g7
S'1050990033'
p152
tp153
Rp154
(dp155
g12
g151
sbag1
(g6
g7
S'1050990031'
p156
tp157
Rp158
(dp159
g12
g151
sbag1
(g6
g7
S'13183212'
p160
tp161
Rp162
(dp163
g12
g151
sbag1
(g6
g7
S'251733242'
p164
tp165
Rp166
(dp167
g12
g151
sbag1
(g6
g7
S'300808425'
p168
tp169
Rp170
(dp171
g12
g151
sbag1
(g6
g7
S'300808423'
p172
tp173
Rp174
(dp175
g12
g151
sbag1
(g6
g7
S'300808421'
p176
tp177
Rp178
(dp179
g12
g151
sbag1
(g6
g7
S'300808419'
p180
tp181
Rp182
(dp183
g12
g151
sbag1
(g6
g7
S'300116383'
p184
tp185
Rp186
(dp187
g12
g151
sbag1
(g6
g7
S'300116381'
p188
tp189
Rp190
(dp191
g12
g151
sbag1
(g6
g7
S'300116379'
p192
tp193
Rp194
(dp195
g12
g151
sbag1
(g6
g7
S'300116377'
p196
tp197
Rp198
(dp199
g12
g151
sbag1
(g6
g7
S'300116375'
p200
tp201
Rp202
(dp203
g12
g151
sbag1
(g6
g7
S'300116373'
p204
tp205
Rp206
(dp207
g12
g151
sbag1
(g6
g7
S'300116371'
p208
tp209
Rp210
(dp211
g12
g151
sbag1
(g6
g7
S'300116369'
p212
tp213
Rp214
(dp215
g12
g151
sbag1
(g6
g7
S'300116367'
p216
tp217
Rp218
(dp219
g12
g151
sbag1
(g6
g7
S'300116365'
p220
tp221
Rp222
(dp223
g12
g151
sbag1
(g6
g7
S'300116363'
p224
tp225
Rp226
(dp227
g12
g151
sbatp228
Rp229
(dp230
g12
g145
sbsVTranslationStack
p231
g1
(g18
g19
(lp232
g1
(g2
g3
(dp233
g135
g1
(g6
g7
S'125'
p234
tp235
Rp236
(dp237
g12
g135
sbsVField
p238
g1
(g6
g7
S'Organism'
p239
tp240
Rp241
(dp242
g12
g238
sbsVTerm
p243
g1
(g6
g7
S'"Acanthopagrus berda"[Organism]'
p244
tp245
Rp246
(dp247
g12
g243
sbsVExplode
p248
g1
(g6
g7
g47
tp249
Rp250
(dp251
g12
g248
sbstp252
Rp253
(dp254
g12
VTermSet
p255
sbag1
(g2
g3
(dp256
g135
g1
(g6
g7
S'430914'
p257
tp258
Rp259
(dp260
g12
g135
sbsg238
g1
(g6
g7
S'All Fields'
p261
tp262
Rp263
(dp264
g12
g238
sbsg243
g1
(g6
g7
S'Cytb[All Fields]'
p265
tp266
Rp267
(dp268
g12
g243
sbsg248
g1
(g6
g7
g68
tp269
Rp270
(dp271
g12
g248
sbstp272
Rp273
(dp274
g12
g255
sbag1
(g6
g7
S'AND'
p275
tp276
Rp277
(dp278
g12
VOP
p279
sbatp280
Rp281
(dp282
g12
g231
sbsVErrorList
p283
g1
(g84
g3
(dp284
VFieldNotFound
p285
(lp286
g1
(g6
g7
S'definition'
p287
tp288
Rp289
(dp290
g12
VFieldNotFound
p291
sbasVPhraseNotFound
p292
(lp293
stp294
Rp295
(dp296
g12
g283
sg98
(lp297
g292
ag285
asbsVTranslationSet
p298
g1
(g18
g19
(lp299
g1
(g2
g3
(dp300
VTo
p301
g1
(g6
g7
S'"Acanthopagrus berda"[Organism]'
p302
tp303
Rp304
(dp305
g12
g301
sbsVFrom
p306
g1
(g6
g7
S'Acanthopagrus berda[organism]'
p307
tp308
Rp309
(dp310
g12
g306
sbstp311
Rp312
(dp313
g12
VTranslation
p314
sbatp315
Rp316
(dp317
g12
g298
sbsVRetStart
p318
g1
(g6
g7
g121
tp319
Rp320
(dp321
g12
g318
sbsVQueryTranslation
p322
g1
(g6
g7
S'"Acanthopagrus berda"[Organism] AND Cytb[All Fields]'
p323
tp324
Rp325
(dp326
g12
g322
sbstp327
Rp328
(dp329
g12
VeSearchResult
p330
sbag1
(g2
g3
(dp331
VCount
p332
g1
(g6
g7
g8
tp333
Rp334
(dp335
g12
g332
sbsVRetMax
p336
g1
(g6
g7
g8
tp337
Rp338
(dp339
g12
g336
sbsVIdList
p340
g1
(g18
g19
(lp341
g1
(g6
g7
S'298205527'
p342
tp343
Rp344
(dp345
g12
VId
p346
sbatp347
Rp348
(dp349
g12
g340
sbsVTranslationStack
p350
g1
(g18
g19
(lp351
g1
(g2
g3
(dp352
g332
g1
(g6
g7
S'8'
p353
tp354
Rp355
(dp356
g12
g332
sbsVField
p357
g1
(g6
g7
S'Organism'
p358
tp359
Rp360
(dp361
g12
g357
sbsVTerm
p362
g1
(g6
g7
S'"Acanthopagrus bifasciatus"[Organism]'
p363
tp364
Rp365
(dp366
g12
g362
sbsVExplode
p367
g1
(g6
g7
g47
tp368
Rp369
(dp370
g12
g367
sbstp371
Rp372
(dp373
g12
VTermSet
p374
sbag1
(g2
g3
(dp375
g332
g1
(g6
g7
S'430914'
p376
tp377
Rp378
(dp379
g12
g332
sbsg357
g1
(g6
g7
S'All Fields'
p380
tp381
Rp382
(dp383
g12
g357
sbsg362
g1
(g6
g7
S'Cytb[All Fields]'
p384
tp385
Rp386
(dp387
g12
g362
sbsg367
g1
(g6
g7
g68
tp388
Rp389
(dp390
g12
g367
sbstp391
Rp392
(dp393
g12
g374
sbag1
(g6
g7
S'AND'
p394
tp395
Rp396
(dp397
g12
VOP
p398
sbatp399
Rp400
(dp401
g12
g350
sbsVErrorList
p402
g1
(g84
g3
(dp403
VFieldNotFound
p404
(lp405
g1
(g6
g7
S'definition'
p406
tp407
Rp408
(dp409
g12
VFieldNotFound
p410
sbasVPhraseNotFound
p411
(lp412
stp413
Rp414
(dp415
g12
g402
sg98
(lp416
g411
ag404
asbsVTranslationSet
p417
g1
(g18
g19
(lp418
g1
(g2
g3
(dp419
VTo
p420
g1
(g6
g7
S'"Acanthopagrus bifasciatus"[Organism]'
p421
tp422
Rp423
(dp424
g12
g420
sbsVFrom
p425
g1
(g6
g7
S'Acanthopagrus bifasciatus[organism]'
p426
tp427
Rp428
(dp429
g12
g425
sbstp430
Rp431
(dp432
g12
VTranslation
p433
sbatp434
Rp435
(dp436
g12
g417
sbsVRetStart
p437
g1
(g6
g7
g121
tp438
Rp439
(dp440
g12
g437
sbsVQueryTranslation
p441
g1
(g6
g7
S'"Acanthopagrus bifasciatus"[Organism] AND Cytb[All Fields]'
p442
tp443
Rp444
(dp445
g12
g441
sbstp446
Rp447
(dp448
g12
VeSearchResult
p449
sbag1
(g2
g3
(dp450
VCount
p451
g1
(g6
g7
g8
tp452
Rp453
(dp454
g12
g451
sbsVRetMax
p455
g1
(g6
g7
g8
tp456
Rp457
(dp458
g12
g455
sbsVIdList
p459
g1
(g18
g19
(lp460
g1
(g6
g7
S'251733244'
p461
tp462
Rp463
(dp464
g12
VId
p465
sbatp466
Rp467
(dp468
g12
g459
sbsVTranslationStack
p469
g1
(g18
g19
(lp470
g1
(g2
g3
(dp471
g451
g1
(g6
g7
S'32'
p472
tp473
Rp474
(dp475
g12
g451
sbsVField
p476
g1
(g6
g7
S'Organism'
p477
tp478
Rp479
(dp480
g12
g476
sbsVTerm
p481
g1
(g6
g7
S'"Acanthopagrus butcheri"[Organism]'
p482
tp483
Rp484
(dp485
g12
g481
sbsVExplode
p486
g1
(g6
g7
g47
tp487
Rp488
(dp489
g12
g486
sbstp490
Rp491
(dp492
g12
VTermSet
p493
sbag1
(g2
g3
(dp494
g451
g1
(g6
g7
S'430914'
p495
tp496
Rp497
(dp498
g12
g451
sbsg476
g1
(g6
g7
S'All Fields'
p499
tp500
Rp501
(dp502
g12
g476
sbsg481
g1
(g6
g7
S'Cytb[All Fields]'
p503
tp504
Rp505
(dp506
g12
g481
sbsg486
g1
(g6
g7
g68
tp507
Rp508
(dp509
g12
g486
sbstp510
Rp511
(dp512
g12
g493
sbag1
(g6
g7
S'AND'
p513
tp514
Rp515
(dp516
g12
VOP
p517
sbatp518
Rp519
(dp520
g12
g469
sbsVErrorList
p521
g1
(g84
g3
(dp522
VFieldNotFound
p523
(lp524
g1
(g6
g7
S'definition'
p525
tp526
Rp527
(dp528
g12
VFieldNotFound
p529
sbasVPhraseNotFound
p530
(lp531
stp532
Rp533
(dp534
g12
g521
sg98
(lp535
g530
ag523
asbsVTranslationSet
p536
g1
(g18
g19
(lp537
g1
(g2
g3
(dp538
VTo
p539
g1
(g6
g7
S'"Acanthopagrus butcheri"[Organism]'
p540
tp541
Rp542
(dp543
g12
g539
sbsVFrom
p544
g1
(g6
g7
S'Acanthopagrus butcheri[organism]'
p545
tp546
Rp547
(dp548
g12
g544
sbstp549
Rp550
(dp551
g12
VTranslation
p552
sbatp553
Rp554
(dp555
g12
g536
sbsVRetStart
p556
g1
(g6
g7
g121
tp557
Rp558
(dp559
g12
g556
sbsVQueryTranslation
p560
g1
(g6
g7
S'"Acanthopagrus butcheri"[Organism] AND Cytb[All Fields]'
p561
tp562
Rp563
(dp564
g12
g560
sbstp565
Rp566
(dp567
g12
VeSearchResult
p568
sbag1
(g2
g3
(dp569
VCount
p570
g1
(g6
g7
g8
tp571
Rp572
(dp573
g12
g570
sbsVRetMax
p574
g1
(g6
g7
g8
tp575
Rp576
(dp577
g12
g574
sbsVIdList
p578
g1
(g18
g19
(lp579
g1
(g6
g7
S'959478938'
p580
tp581
Rp582
(dp583
g12
VId
p584
sbatp585
Rp586
(dp587
g12
g578
sbsVTranslationStack
p588
g1
(g18
g19
(lp589
g1
(g2
g3
(dp590
g570
g1
(g6
g7
S'14'
p591
tp592
Rp593
(dp594
g12
g570
sbsVField
p595
g1
(g6
g7
S'Organism'
p596
tp597
Rp598
(dp599
g12
g595
sbsVTerm
p600
g1
(g6
g7
S'"Acanthopagrus catenula"[Organism]'
p601
tp602
Rp603
(dp604
g12
g600
sbsVExplode
p605
g1
(g6
g7
g47
tp606
Rp607
(dp608
g12
g605
sbstp609
Rp610
(dp611
g12
VTermSet
p612
sbag1
(g2
g3
(dp613
g570
g1
(g6
g7
S'430914'
p614
tp615
Rp616
(dp617
g12
g570
sbsg595
g1
(g6
g7
S'All Fields'
p618
tp619
Rp620
(dp621
g12
g595
sbsg600
g1
(g6
g7
S'Cytb[All Fields]'
p622
tp623
Rp624
(dp625
g12
g600
sbsg605
g1
(g6
g7
g68
tp626
Rp627
(dp628
g12
g605
sbstp629
Rp630
(dp631
g12
g612
sbag1
(g6
g7
S'AND'
p632
tp633
Rp634
(dp635
g12
VOP
p636
sbatp637
Rp638
(dp639
g12
g588
sbsVErrorList
p640
g1
(g84
g3
(dp641
VFieldNotFound
p642
(lp643
g1
(g6
g7
S'definition'
p644
tp645
Rp646
(dp647
g12
VFieldNotFound
p648
sbasVPhraseNotFound
p649
(lp650
stp651
Rp652
(dp653
g12
g640
sg98
(lp654
g649
ag642
asbsVTranslationSet
p655
g1
(g18
g19
(lp656
g1
(g2
g3
(dp657
VTo
p658
g1
(g6
g7
S'"Acanthopagrus catenula"[Organism]'
p659
tp660
Rp661
(dp662
g12
g658
sbsVFrom
p663
g1
(g6
g7
S'Acanthopagrus catenula[organism]'
p664
tp665
Rp666
(dp667
g12
g663
sbstp668
Rp669
(dp670
g12
VTranslation
p671
sbatp672
Rp673
(dp674
g12
g655
sbsVRetStart
p675
g1
(g6
g7
g121
tp676
Rp677
(dp678
g12
g675
sbsVQueryTranslation
p679
g1
(g6
g7
S'"Acanthopagrus catenula"[Organism] AND Cytb[All Fields]'
p680
tp681
Rp682
(dp683
g12
g679
sbstp684
Rp685
(dp686
g12
VeSearchResult
p687
sbag1
(g2
g3
(dp688
VCount
p689
g1
(g6
g7
S'4'
p690
tp691
Rp692
(dp693
g12
g689
sbsVRetMax
p694
g1
(g6
g7
g690
tp695
Rp696
(dp697
g12
g694
sbsVIdList
p698
g1
(g18
g19
(lp699
g1
(g6
g7
S'251733252'
p700
tp701
Rp702
(dp703
g12
VId
p704
sbag1
(g6
g7
S'300808431'
p705
tp706
Rp707
(dp708
g12
g704
sbag1
(g6
g7
S'300808429'
p709
tp710
Rp711
(dp712
g12
g704
sbag1
(g6
g7
S'300808427'
p713
tp714
Rp715
(dp716
g12
g704
sbatp717
Rp718
(dp719
g12
g698
sbsVTranslationStack
p720
g1
(g18
g19
(lp721
g1
(g2
g3
(dp722
g689
g1
(g6
g7
g690
tp723
Rp724
(dp725
g12
g689
sbsVField
p726
g1
(g6
g7
S'Organism'
p727
tp728
Rp729
(dp730
g12
g726
sbsVTerm
p731
g1
(g6
g7
S'"Acanthopagrus chinshira"[Organism]'
p732
tp733
Rp734
(dp735
g12
g731
sbsVExplode
p736
g1
(g6
g7
g47
tp737
Rp738
(dp739
g12
g736
sbstp740
Rp741
(dp742
g12
VTermSet
p743
sbag1
(g2
g3
(dp744
g689
g1
(g6
g7
S'430914'
p745
tp746
Rp747
(dp748
g12
g689
sbsg726
g1
(g6
g7
S'All Fields'
p749
tp750
Rp751
(dp752
g12
g726
sbsg731
g1
(g6
g7
S'Cytb[All Fields]'
p753
tp754
Rp755
(dp756
g12
g731
sbsg736
g1
(g6
g7
g68
tp757
Rp758
(dp759
g12
g736
sbstp760
Rp761
(dp762
g12
g743
sbag1
(g6
g7
S'AND'
p763
tp764
Rp765
(dp766
g12
VOP
p767
sbatp768
Rp769
(dp770
g12
g720
sbsVErrorList
p771
g1
(g84
g3
(dp772
VFieldNotFound
p773
(lp774
g1
(g6
g7
S'definition'
p775
tp776
Rp777
(dp778
g12
VFieldNotFound
p779
sbasVPhraseNotFound
p780
(lp781
stp782
Rp783
(dp784
g12
g771
sg98
(lp785
g780
ag773
asbsVTranslationSet
p786
g1
(g18
g19
(lp787
g1
(g2
g3
(dp788
VTo
p789
g1
(g6
g7
S'"Acanthopagrus chinshira"[Organism]'
p790
tp791
Rp792
(dp793
g12
g789
sbsVFrom
p794
g1
(g6
g7
S'Acanthopagrus chinshira[organism]'
p795
tp796
Rp797
(dp798
g12
g794
sbstp799
Rp800
(dp801
g12
VTranslation
p802
sbatp803
Rp804
(dp805
g12
g786
sbsVRetStart
p806
g1
(g6
g7
g121
tp807
Rp808
(dp809
g12
g806
sbsVQueryTranslation
p810
g1
(g6
g7
S'"Acanthopagrus chinshira"[Organism] AND Cytb[All Fields]'
p811
tp812
Rp813
(dp814
g12
g810
sbstp815
Rp816
(dp817
g12
VeSearchResult
p818
sbag1
(g2
g3
(dp819
VCount
p820
g1
(g6
g7
S'10'
p821
tp822
Rp823
(dp824
g12
g820
sbsVRetMax
p825
g1
(g6
g7
S'10'
p826
tp827
Rp828
(dp829
g12
g825
sbsVIdList
p830
g1
(g18
g19
(lp831
g1
(g6
g7
S'263043648'
p832
tp833
Rp834
(dp835
g12
VId
p836
sbag1
(g6
g7
S'23395254'
p837
tp838
Rp839
(dp840
g12
g836
sbag1
(g6
g7
S'134153961'
p841
tp842
Rp843
(dp844
g12
g836
sbag1
(g6
g7
S'251733246'
p845
tp846
Rp847
(dp848
g12
g836
sbag1
(g6
g7
S'959478932'
p849
tp850
Rp851
(dp852
g12
g836
sbag1
(g6
g7
S'953298998'
p853
tp854
Rp855
(dp856
g12
g836
sbag1
(g6
g7
S'190349314'
p857
tp858
Rp859
(dp860
g12
g836
sbag1
(g6
g7
S'300808435'
p861
tp862
Rp863
(dp864
g12
g836
sbag1
(g6
g7
S'300808433'
p865
tp866
Rp867
(dp868
g12
g836
sbag1
(g6
g7
S'219937694'
p869
tp870
Rp871
(dp872
g12
g836
sbatp873
Rp874
(dp875
g12
g830
sbsVTranslationStack
p876
g1
(g18
g19
(lp877
g1
(g2
g3
(dp878
g820
g1
(g6
g7
S'326'
p879
tp880
Rp881
(dp882
g12
g820
sbsVField
p883
g1
(g6
g7
S'Organism'
p884
tp885
Rp886
(dp887
g12
g883
sbsVTerm
p888
g1
(g6
g7
S'"Acanthopagrus latus"[Organism]'
p889
tp890
Rp891
(dp892
g12
g888
sbsVExplode
p893
g1
(g6
g7
g47
tp894
Rp895
(dp896
g12
g893
sbstp897
Rp898
(dp899
g12
VTermSet
p900
sbag1
(g2
g3
(dp901
g820
g1
(g6
g7
S'430914'
p902
tp903
Rp904
(dp905
g12
g820
sbsg883
g1
(g6
g7
S'All Fields'
p906
tp907
Rp908
(dp909
g12
g883
sbsg888
g1
(g6
g7
S'Cytb[All Fields]'
p910
tp911
Rp912
(dp913
g12
g888
sbsg893
g1
(g6
g7
g68
tp914
Rp915
(dp916
g12
g893
sbstp917
Rp918
(dp919
g12
g900
sbag1
(g6
g7
S'AND'
p920
tp921
Rp922
(dp923
g12
VOP
p924
sbatp925
Rp926
(dp927
g12
g876
sbsVErrorList
p928
g1
(g84
g3
(dp929
VFieldNotFound
p930
(lp931
g1
(g6
g7
S'definition'
p932
tp933
Rp934
(dp935
g12
VFieldNotFound
p936
sbasVPhraseNotFound
p937
(lp938
stp939
Rp940
(dp941
g12
g928
sg98
(lp942
g937
ag930
asbsVTranslationSet
p943
g1
(g18
g19
(lp944
g1
(g2
g3
(dp945
VTo
p946
g1
(g6
g7
S'"Acanthopagrus latus"[Organism]'
p947
tp948
Rp949
(dp950
g12
g946
sbsVFrom
p951
g1
(g6
g7
S'Acanthopagrus latus[organism]'
p952
tp953
Rp954
(dp955
g12
g951
sbstp956
Rp957
(dp958
g12
VTranslation
p959
sbatp960
Rp961
(dp962
g12
g943
sbsVRetStart
p963
g1
(g6
g7
g121
tp964
Rp965
(dp966
g12
g963
sbsVQueryTranslation
p967
g1
(g6
g7
S'"Acanthopagrus latus"[Organism] AND Cytb[All Fields]'
p968
tp969
Rp970
(dp971
g12
g967
sbstp972
Rp973
(dp974
g12
VeSearchResult
p975
sbag1
(g2
g3
(dp976
VCount
p977
g1
(g6
g7
S'15'
p978
tp979
Rp980
(dp981
g12
g977
sbsVRetMax
p982
g1
(g6
g7
S'15'
p983
tp984
Rp985
(dp986
g12
g982
sbsVIdList
p987
g1
(g18
g19
(lp988
g1
(g6
g7
S'1050990037'
p989
tp990
Rp991
(dp992
g12
VId
p993
sbag1
(g6
g7
S'67772403'
p994
tp995
Rp996
(dp997
g12
g993
sbag1
(g6
g7
S'354551226'
p998
tp999
Rp1000
(dp1001
g12
g993
sbag1
(g6
g7
S'354551224'
p1002
tp1003
Rp1004
(dp1005
g12
g993
sbag1
(g6
g7
S'354551222'
p1006
tp1007
Rp1008
(dp1009
g12
g993
sbag1
(g6
g7
S'354551220'
p1010
tp1011
Rp1012
(dp1013
g12
g993
sbag1
(g6
g7
S'263043616'
p1014
tp1015
Rp1016
(dp1017
g12
g993
sbag1
(g6
g7
S'23395252'
p1018
tp1019
Rp1020
(dp1021
g12
g993
sbag1
(g6
g7
S'251733248'
p1022
tp1023
Rp1024
(dp1025
g12
g993
sbag1
(g6
g7
S'953298984'
p1026
tp1027
Rp1028
(dp1029
g12
g993
sbag1
(g6
g7
S'403531702'
p1030
tp1031
Rp1032
(dp1033
g12
g993
sbag1
(g6
g7
S'401465994'
p1034
tp1035
Rp1036
(dp1037
g12
g993
sbag1
(g6
g7
S'300808449'
p1038
tp1039
Rp1040
(dp1041
g12
g993
sbag1
(g6
g7
S'300808447'
p1042
tp1043
Rp1044
(dp1045
g12
g993
sbag1
(g6
g7
S'300808445'
p1046
tp1047
Rp1048
(dp1049
g12
g993
sbatp1050
Rp1051
(dp1052
g12
g987
sbsVTranslationStack
p1053
g1
(g18
g19
(lp1054
g1
(g2
g3
(dp1055
g977
g1
(g6
g7
S'415'
p1056
tp1057
Rp1058
(dp1059
g12
g977
sbsVField
p1060
g1
(g6
g7
S'Organism'
p1061
tp1062
Rp1063
(dp1064
g12
g1060
sbsVTerm
p1065
g1
(g6
g7
S'"Acanthopagrus schlegelii"[Organism]'
p1066
tp1067
Rp1068
(dp1069
g12
g1065
sbsVExplode
p1070
g1
(g6
g7
g47
tp1071
Rp1072
(dp1073
g12
g1070
sbstp1074
Rp1075
(dp1076
g12
VTermSet
p1077
sbag1
(g2
g3
(dp1078
g977
g1
(g6
g7
S'430914'
p1079
tp1080
Rp1081
(dp1082
g12
g977
sbsg1060
g1
(g6
g7
S'All Fields'
p1083
tp1084
Rp1085
(dp1086
g12
g1060
sbsg1065
g1
(g6
g7
S'Cytb[All Fields]'
p1087
tp1088
Rp1089
(dp1090
g12
g1065
sbsg1070
g1
(g6
g7
g68
tp1091
Rp1092
(dp1093
g12
g1070
sbstp1094
Rp1095
(dp1096
g12
g1077
sbag1
(g6
g7
S'AND'
p1097
tp1098
Rp1099
(dp1100
g12
VOP
p1101
sbatp1102
Rp1103
(dp1104
g12
g1053
sbsVErrorList
p1105
g1
(g84
g3
(dp1106
VFieldNotFound
p1107
(lp1108
g1
(g6
g7
S'definition'
p1109
tp1110
Rp1111
(dp1112
g12
VFieldNotFound
p1113
sbasVPhraseNotFound
p1114
(lp1115
stp1116
Rp1117
(dp1118
g12
g1105
sg98
(lp1119
g1114
ag1107
asbsVTranslationSet
p1120
g1
(g18
g19
(lp1121
g1
(g2
g3
(dp1122
VTo
p1123
g1
(g6
g7
S'"Acanthopagrus schlegelii"[Organism]'
p1124
tp1125
Rp1126
(dp1127
g12
g1123
sbsVFrom
p1128
g1
(g6
g7
S'Acanthopagrus schlegelii[organism]'
p1129
tp1130
Rp1131
(dp1132
g12
g1128
sbstp1133
Rp1134
(dp1135
g12
VTranslation
p1136
sbatp1137
Rp1138
(dp1139
g12
g1120
sbsVRetStart
p1140
g1
(g6
g7
g121
tp1141
Rp1142
(dp1143
g12
g1140
sbsVQueryTranslation
p1144
g1
(g6
g7
S'"Acanthopagrus schlegelii"[Organism] AND Cytb[All Fields]'
p1145
tp1146
Rp1147
(dp1148
g12
g1144
sbstp1149
Rp1150
(dp1151
g12
VeSearchResult
p1152
sbag1
(g2
g3
(dp1153
VCount
p1154
g1
(g6
g7
g690
tp1155
Rp1156
(dp1157
g12
g1154
sbsVRetMax
p1158
g1
(g6
g7
g690
tp1159
Rp1160
(dp1161
g12
g1158
sbsVIdList
p1162
g1
(g18
g19
(lp1163
g1
(g6
g7
S'251733250'
p1164
tp1165
Rp1166
(dp1167
g12
VId
p1168
sbag1
(g6
g7
S'300808441'
p1169
tp1170
Rp1171
(dp1172
g12
g1168
sbag1
(g6
g7
S'300808439'
p1173
tp1174
Rp1175
(dp1176
g12
g1168
sbag1
(g6
g7
S'300808437'
p1177
tp1178
Rp1179
(dp1180
g12
g1168
sbatp1181
Rp1182
(dp1183
g12
g1162
sbsVTranslationStack
p1184
g1
(g18
g19
(lp1185
g1
(g2
g3
(dp1186
g1154
g1
(g6
g7
S'9'
p1187
tp1188
Rp1189
(dp1190
g12
g1154
sbsVField
p1191
g1
(g6
g7
S'Organism'
p1192
tp1193
Rp1194
(dp1195
g12
g1191
sbsVTerm
p1196
g1
(g6
g7
S'"Acanthopagrus sivicolus"[Organism]'
p1197
tp1198
Rp1199
(dp1200
g12
g1196
sbsVExplode
p1201
g1
(g6
g7
g47
tp1202
Rp1203
(dp1204
g12
g1201
sbstp1205
Rp1206
(dp1207
g12
VTermSet
p1208
sbag1
(g2
g3
(dp1209
g1154
g1
(g6
g7
S'430914'
p1210
tp1211
Rp1212
(dp1213
g12
g1154
sbsg1191
g1
(g6
g7
S'All Fields'
p1214
tp1215
Rp1216
(dp1217
g12
g1191
sbsg1196
g1
(g6
g7
S'Cytb[All Fields]'
p1218
tp1219
Rp1220
(dp1221
g12
g1196
sbsg1201
g1
(g6
g7
g68
tp1222
Rp1223
(dp1224
g12
g1201
sbstp1225
Rp1226
(dp1227
g12
g1208
sbag1
(g6
g7
S'AND'
p1228
tp1229
Rp1230
(dp1231
g12
VOP
p1232
sbatp1233
Rp1234
(dp1235
g12
g1184
sbsVErrorList
p1236
g1
(g84
g3
(dp1237
VFieldNotFound
p1238
(lp1239
g1
(g6
g7
S'definition'
p1240
tp1241
Rp1242
(dp1243
g12
VFieldNotFound
p1244
sbasVPhraseNotFound
p1245
(lp1246
stp1247
Rp1248
(dp1249
g12
g1236
sg98
(lp1250
g1245
ag1238
asbsVTranslationSet
p1251
g1
(g18
g19
(lp1252
g1
(g2
g3
(dp1253
VTo
p1254
g1
(g6
g7
S'"Acanthopagrus sivicolus"[Organism]'
p1255
tp1256
Rp1257
(dp1258
g12
g1254
sbsVFrom
p1259
g1
(g6
g7
S'Acanthopagrus sivicolus[organism]'
p1260
tp1261
Rp1262
(dp1263
g12
g1259
sbstp1264
Rp1265
(dp1266
g12
VTranslation
p1267
sbatp1268
Rp1269
(dp1270
g12
g1251
sbsVRetStart
p1271
g1
(g6
g7
g121
tp1272
Rp1273
(dp1274
g12
g1271
sbsVQueryTranslation
p1275
g1
(g6
g7
S'"Acanthopagrus sivicolus"[Organism] AND Cytb[All Fields]'
p1276
tp1277
Rp1278
(dp1279
g12
g1275
sbstp1280
Rp1281
(dp1282
g12
VeSearchResult
p1283
sbag1
(g2
g3
(dp1284
VCount
p1285
g1
(g6
g7
S'15'
p1286
tp1287
Rp1288
(dp1289
g12
g1285
sbsVRetMax
p1290
g1
(g6
g7
S'15'
p1291
tp1292
Rp1293
(dp1294
g12
g1290
sbsVIdList
p1295
g1
(g18
g19
(lp1296
g1
(g6
g7
S'251733256'
p1297
tp1298
Rp1299
(dp1300
g12
VId
p1301
sbag1
(g6
g7
S'300808455'
p1302
tp1303
Rp1304
(dp1305
g12
g1301
sbag1
(g6
g7
S'300808453'
p1306
tp1307
Rp1308
(dp1309
g12
g1301
sbag1
(g6
g7
S'300808451'
p1310
tp1311
Rp1312
(dp1313
g12
g1301
sbag1
(g6
g7
S'300116361'
p1314
tp1315
Rp1316
(dp1317
g12
g1301
sbag1
(g6
g7
S'300116359'
p1318
tp1319
Rp1320
(dp1321
g12
g1301
sbag1
(g6
g7
S'300116357'
p1322
tp1323
Rp1324
(dp1325
g12
g1301
sbag1
(g6
g7
S'300116355'
p1326
tp1327
Rp1328
(dp1329
g12
g1301
sbag1
(g6
g7
S'300116353'
p1330
tp1331
Rp1332
(dp1333
g12
g1301
sbag1
(g6
g7
S'300116351'
p1334
tp1335
Rp1336
(dp1337
g12
g1301
sbag1
(g6
g7
S'300116349'
p1338
tp1339
Rp1340
(dp1341
g12
g1301
sbag1
(g6
g7
S'300116347'
p1342
tp1343
Rp1344
(dp1345
g12
g1301
sbag1
(g6
g7
S'300116345'
p1346
tp1347
Rp1348
(dp1349
g12
g1301
sbag1
(g6
g7
S'300116343'
p1350
tp1351
Rp1352
(dp1353
g12
g1301
sbag1
(g6
g7
S'300116341'
p1354
tp1355
Rp1356
(dp1357
g12
g1301
sbatp1358
Rp1359
(dp1360
g12
g1295
sbsVTranslationStack
p1361
g1
(g18
g19
(lp1362
g1
(g2
g3
(dp1363
g1285
g1
(g6
g7
S'15'
p1364
tp1365
Rp1366
(dp1367
g12
g1285
sbsVField
p1368
g1
(g6
g7
S'Organism'
p1369
tp1370
Rp1371
(dp1372
g12
g1368
sbsVTerm
p1373
g1
(g6
g7
S'"Acanthopagrus taiwanensis"[Organism]'
p1374
tp1375
Rp1376
(dp1377
g12
g1373
sbsVExplode
p1378
g1
(g6
g7
g47
tp1379
Rp1380
(dp1381
g12
g1378
sbstp1382
Rp1383
(dp1384
g12
VTermSet
p1385
sbag1
(g2
g3
(dp1386
g1285
g1
(g6
g7
S'430914'
p1387
tp1388
Rp1389
(dp1390
g12
g1285
sbsg1368
g1
(g6
g7
S'All Fields'
p1391
tp1392
Rp1393
(dp1394
g12
g1368
sbsg1373
g1
(g6
g7
S'Cytb[All Fields]'
p1395
tp1396
Rp1397
(dp1398
g12
g1373
sbsg1378
g1
(g6
g7
g68
tp1399
Rp1400
(dp1401
g12
g1378
sbstp1402
Rp1403
(dp1404
g12
g1385
sbag1
(g6
g7
S'AND'
p1405
tp1406
Rp1407
(dp1408
g12
VOP
p1409
sbatp1410
Rp1411
(dp1412
g12
g1361
sbsVErrorList
p1413
g1
(g84
g3
(dp1414
VFieldNotFound
p1415
(lp1416
g1
(g6
g7
S'definition'
p1417
tp1418
Rp1419
(dp1420
g12
VFieldNotFound
p1421
sbasVPhraseNotFound
p1422
(lp1423
stp1424
Rp1425
(dp1426
g12
g1413
sg98
(lp1427
g1422
ag1415
asbsVTranslationSet
p1428
g1
(g18
g19
(lp1429
g1
(g2
g3
(dp1430
VTo
p1431
g1
(g6
g7
S'"Acanthopagrus taiwanensis"[Organism]'
p1432
tp1433
Rp1434
(dp1435
g12
g1431
sbsVFrom
p1436
g1
(g6
g7
S'Acanthopagrus taiwanensis[organism]'
p1437
tp1438
Rp1439
(dp1440
g12
g1436
sbstp1441
Rp1442
(dp1443
g12
VTranslation
p1444
sbatp1445
Rp1446
(dp1447
g12
g1428
sbsVRetStart
p1448
g1
(g6
g7
g121
tp1449
Rp1450
(dp1451
g12
g1448
sbsVQueryTranslation
p1452
g1
(g6
g7
S'"Acanthopagrus taiwanensis"[Organism] AND Cytb[All Fields]'
p1453
tp1454
Rp1455
(dp1456
g12
g1452
sbstp1457
Rp1458
(dp1459
g12
VeSearchResult
p1460
sbag1
(g2
g3
(dp1461
VCount
p1462
g1
(g6
g7
g8
tp1463
Rp1464
(dp1465
g12
g1462
sbsVRetMax
p1466
g1
(g6
g7
g8
tp1467
Rp1468
(dp1469
g12
g1466
sbsVIdList
p1470
g1
(g18
g19
(lp1471
g1
(g6
g7
S'13183214'
p1472
tp1473
Rp1474
(dp1475
g12
VId
p1476
sbatp1477
Rp1478
(dp1479
g12
g1470
sbsVTranslationStack
p1480
g1
(g18
g19
(lp1481
g1
(g2
g3
(dp1482
g1462
g1
(g6
g7
S'252'
p1483
tp1484
Rp1485
(dp1486
g12
g1462
sbsVField
p1487
g1
(g6
g7
S'Organism'
p1488
tp1489
Rp1490
(dp1491
g12
g1487
sbsVTerm
p1492
g1
(g6
g7
S'"Archosargus probatocephalus"[Organism]'
p1493
tp1494
Rp1495
(dp1496
g12
g1492
sbsVExplode
p1497
g1
(g6
g7
g47
tp1498
Rp1499
(dp1500
g12
g1497
sbstp1501
Rp1502
(dp1503
g12
VTermSet
p1504
sbag1
(g2
g3
(dp1505
g1462
g1
(g6
g7
S'430914'
p1506
tp1507
Rp1508
(dp1509
g12
g1462
sbsg1487
g1
(g6
g7
S'All Fields'
p1510
tp1511
Rp1512
(dp1513
g12
g1487
sbsg1492
g1
(g6
g7
S'Cytb[All Fields]'
p1514
tp1515
Rp1516
(dp1517
g12
g1492
sbsg1497
g1
(g6
g7
g68
tp1518
Rp1519
(dp1520
g12
g1497
sbstp1521
Rp1522
(dp1523
g12
g1504
sbag1
(g6
g7
S'AND'
p1524
tp1525
Rp1526
(dp1527
g12
VOP
p1528
sbatp1529
Rp1530
(dp1531
g12
g1480
sbsVErrorList
p1532
g1
(g84
g3
(dp1533
VFieldNotFound
p1534
(lp1535
g1
(g6
g7
S'definition'
p1536
tp1537
Rp1538
(dp1539
g12
VFieldNotFound
p1540
sbasVPhraseNotFound
p1541
(lp1542
stp1543
Rp1544
(dp1545
g12
g1532
sg98
(lp1546
g1541
ag1534
asbsVTranslationSet
p1547
g1
(g18
g19
(lp1548
g1
(g2
g3
(dp1549
VTo
p1550
g1
(g6
g7
S'"Archosargus probatocephalus"[Organism]'
p1551
tp1552
Rp1553
(dp1554
g12
g1550
sbsVFrom
p1555
g1
(g6
g7
S'Archosargus probatocephalus[organism]'
p1556
tp1557
Rp1558
(dp1559
g12
g1555
sbstp1560
Rp1561
(dp1562
g12
VTranslation
p1563
sbatp1564
Rp1565
(dp1566
g12
g1547
sbsVRetStart
p1567
g1
(g6
g7
g121
tp1568
Rp1569
(dp1570
g12
g1567
sbsVQueryTranslation
p1571
g1
(g6
g7
S'"Archosargus probatocephalus"[Organism] AND Cytb[All Fields]'
p1572
tp1573
Rp1574
(dp1575
g12
g1571
sbstp1576
Rp1577
(dp1578
g12
VeSearchResult
p1579
sbag1
(g2
g3
(dp1580
VCount
p1581
g1
(g6
g7
S'2'
p1582
tp1583
Rp1584
(dp1585
g12
g1581
sbsVRetMax
p1586
g1
(g6
g7
g1582
tp1587
Rp1588
(dp1589
g12
g1586
sbsVIdList
p1590
g1
(g18
g19
(lp1591
g1
(g6
g7
S'251733272'
p1592
tp1593
Rp1594
(dp1595
g12
VId
p1596
sbag1
(g6
g7
S'300808443'
p1597
tp1598
Rp1599
(dp1600
g12
g1596
sbatp1601
Rp1602
(dp1603
g12
g1590
sbsVTranslationStack
p1604
g1
(g18
g19
(lp1605
g1
(g2
g3
(dp1606
g1581
g1
(g6
g7
S'7'
p1607
tp1608
Rp1609
(dp1610
g12
g1581
sbsVField
p1611
g1
(g6
g7
S'Organism'
p1612
tp1613
Rp1614
(dp1615
g12
g1611
sbsVTerm
p1616
g1
(g6
g7
S'"Argyrops bleekeri"[Organism]'
p1617
tp1618
Rp1619
(dp1620
g12
g1616
sbsVExplode
p1621
g1
(g6
g7
g47
tp1622
Rp1623
(dp1624
g12
g1621
sbstp1625
Rp1626
(dp1627
g12
VTermSet
p1628
sbag1
(g2
g3
(dp1629
g1581
g1
(g6
g7
S'430914'
p1630
tp1631
Rp1632
(dp1633
g12
g1581
sbsg1611
g1
(g6
g7
S'All Fields'
p1634
tp1635
Rp1636
(dp1637
g12
g1611
sbsg1616
g1
(g6
g7
S'Cytb[All Fields]'
p1638
tp1639
Rp1640
(dp1641
g12
g1616
sbsg1621
g1
(g6
g7
g68
tp1642
Rp1643
(dp1644
g12
g1621
sbstp1645
Rp1646
(dp1647
g12
g1628
sbag1
(g6
g7
S'AND'
p1648
tp1649
Rp1650
(dp1651
g12
VOP
p1652
sbatp1653
Rp1654
(dp1655
g12
g1604
sbsVErrorList
p1656
g1
(g84
g3
(dp1657
VFieldNotFound
p1658
(lp1659
g1
(g6
g7
S'definition'
p1660
tp1661
Rp1662
(dp1663
g12
VFieldNotFound
p1664
sbasVPhraseNotFound
p1665
(lp1666
stp1667
Rp1668
(dp1669
g12
g1656
sg98
(lp1670
g1665
ag1658
asbsVTranslationSet
p1671
g1
(g18
g19
(lp1672
g1
(g2
g3
(dp1673
VTo
p1674
g1
(g6
g7
S'"Argyrops bleekeri"[Organism]'
p1675
tp1676
Rp1677
(dp1678
g12
g1674
sbsVFrom
p1679
g1
(g6
g7
S'Argyrops bleekeri[organism]'
p1680
tp1681
Rp1682
(dp1683
g12
g1679
sbstp1684
Rp1685
(dp1686
g12
VTranslation
p1687
sbatp1688
Rp1689
(dp1690
g12
g1671
sbsVRetStart
p1691
g1
(g6
g7
g121
tp1692
Rp1693
(dp1694
g12
g1691
sbsVQueryTranslation
p1695
g1
(g6
g7
S'"Argyrops bleekeri"[Organism] AND Cytb[All Fields]'
p1696
tp1697
Rp1698
(dp1699
g12
g1695
sbstp1700
Rp1701
(dp1702
g12
VeSearchResult
p1703
sbag1
(g2
g3
(dp1704
VCount
p1705
g1
(g6
g7
S'3'
p1706
tp1707
Rp1708
(dp1709
g12
g1705
sbsVRetMax
p1710
g1
(g6
g7
g1706
tp1711
Rp1712
(dp1713
g12
g1710
sbsVIdList
p1714
g1
(g18
g19
(lp1715
g1
(g6
g7
S'13183216'
p1716
tp1717
Rp1718
(dp1719
g12
VId
p1720
sbag1
(g6
g7
S'959478958'
p1721
tp1722
Rp1723
(dp1724
g12
g1720
sbag1
(g6
g7
S'298205525'
p1725
tp1726
Rp1727
(dp1728
g12
g1720
sbatp1729
Rp1730
(dp1731
g12
g1714
sbsVTranslationStack
p1732
g1
(g18
g19
(lp1733
g1
(g2
g3
(dp1734
g1705
g1
(g6
g7
S'34'
p1735
tp1736
Rp1737
(dp1738
g12
g1705
sbsVField
p1739
g1
(g6
g7
S'Organism'
p1740
tp1741
Rp1742
(dp1743
g12
g1739
sbsVTerm
p1744
g1
(g6
g7
S'"Argyrops spinifer"[Organism]'
p1745
tp1746
Rp1747
(dp1748
g12
g1744
sbsVExplode
p1749
g1
(g6
g7
g47
tp1750
Rp1751
(dp1752
g12
g1749
sbstp1753
Rp1754
(dp1755
g12
VTermSet
p1756
sbag1
(g2
g3
(dp1757
g1705
g1
(g6
g7
S'430914'
p1758
tp1759
Rp1760
(dp1761
g12
g1705
sbsg1739
g1
(g6
g7
S'All Fields'
p1762
tp1763
Rp1764
(dp1765
g12
g1739
sbsg1744
g1
(g6
g7
S'Cytb[All Fields]'
p1766
tp1767
Rp1768
(dp1769
g12
g1744
sbsg1749
g1
(g6
g7
g68
tp1770
Rp1771
(dp1772
g12
g1749
sbstp1773
Rp1774
(dp1775
g12
g1756
sbag1
(g6
g7
S'AND'
p1776
tp1777
Rp1778
(dp1779
g12
VOP
p1780
sbatp1781
Rp1782
(dp1783
g12
g1732
sbsVErrorList
p1784
g1
(g84
g3
(dp1785
VFieldNotFound
p1786
(lp1787
g1
(g6
g7
S'definition'
p1788
tp1789
Rp1790
(dp1791
g12
VFieldNotFound
p1792
sbasVPhraseNotFound
p1793
(lp1794
stp1795
Rp1796
(dp1797
g12
g1784
sg98
(lp1798
g1793
ag1786
asbsVTranslationSet
p1799
g1
(g18
g19
(lp1800
g1
(g2
g3
(dp1801
VTo
p1802
g1
(g6
g7
S'"Argyrops spinifer"[Organism]'
p1803
tp1804
Rp1805
(dp1806
g12
g1802
sbsVFrom
p1807
g1
(g6
g7
S'Argyrops spinifer[organism]'
p1808
tp1809
Rp1810
(dp1811
g12
g1807
sbstp1812
Rp1813
(dp1814
g12
VTranslation
p1815
sbatp1816
Rp1817
(dp1818
g12
g1799
sbsVRetStart
p1819
g1
(g6
g7
g121
tp1820
Rp1821
(dp1822
g12
g1819
sbsVQueryTranslation
p1823
g1
(g6
g7
S'"Argyrops spinifer"[Organism] AND Cytb[All Fields]'
p1824
tp1825
Rp1826
(dp1827
g12
g1823
sbstp1828
Rp1829
(dp1830
g12
VeSearchResult
p1831
sbag1
(g2
g3
(dp1832
VCount
p1833
g1
(g6
g7
g8
tp1834
Rp1835
(dp1836
g12
g1833
sbsVRetMax
p1837
g1
(g6
g7
g8
tp1838
Rp1839
(dp1840
g12
g1837
sbsVIdList
p1841
g1
(g18
g19
(lp1842
g1
(g6
g7
S'13183194'
p1843
tp1844
Rp1845
(dp1846
g12
VId
p1847
sbatp1848
Rp1849
(dp1850
g12
g1841
sbsVTranslationStack
p1851
g1
(g18
g19
(lp1852
g1
(g2
g3
(dp1853
g1833
g1
(g6
g7
S'29'
p1854
tp1855
Rp1856
(dp1857
g12
g1833
sbsVField
p1858
g1
(g6
g7
S'Organism'
p1859
tp1860
Rp1861
(dp1862
g12
g1858
sbsVTerm
p1863
g1
(g6
g7
S'"Argyrozona argyrozona"[Organism]'
p1864
tp1865
Rp1866
(dp1867
g12
g1863
sbsVExplode
p1868
g1
(g6
g7
g47
tp1869
Rp1870
(dp1871
g12
g1868
sbstp1872
Rp1873
(dp1874
g12
VTermSet
p1875
sbag1
(g2
g3
(dp1876
g1833
g1
(g6
g7
S'430914'
p1877
tp1878
Rp1879
(dp1880
g12
g1833
sbsg1858
g1
(g6
g7
S'All Fields'
p1881
tp1882
Rp1883
(dp1884
g12
g1858
sbsg1863
g1
(g6
g7
S'Cytb[All Fields]'
p1885
tp1886
Rp1887
(dp1888
g12
g1863
sbsg1868
g1
(g6
g7
g68
tp1889
Rp1890
(dp1891
g12
g1868
sbstp1892
Rp1893
(dp1894
g12
g1875
sbag1
(g6
g7
S'AND'
p1895
tp1896
Rp1897
(dp1898
g12
VOP
p1899
sbatp1900
Rp1901
(dp1902
g12
g1851
sbsVErrorList
p1903
g1
(g84
g3
(dp1904
VFieldNotFound
p1905
(lp1906
g1
(g6
g7
S'definition'
p1907
tp1908
Rp1909
(dp1910
g12
VFieldNotFound
p1911
sbasVPhraseNotFound
p1912
(lp1913
stp1914
Rp1915
(dp1916
g12
g1903
sg98
(lp1917
g1912
ag1905
asbsVTranslationSet
p1918
g1
(g18
g19
(lp1919
g1
(g2
g3
(dp1920
VTo
p1921
g1
(g6
g7
S'"Argyrozona argyrozona"[Organism]'
p1922
tp1923
Rp1924
(dp1925
g12
g1921
sbsVFrom
p1926
g1
(g6
g7
S'Argyrozona argyrozona[organism]'
p1927
tp1928
Rp1929
(dp1930
g12
g1926
sbstp1931
Rp1932
(dp1933
g12
VTranslation
p1934
sbatp1935
Rp1936
(dp1937
g12
g1918
sbsVRetStart
p1938
g1
(g6
g7
g121
tp1939
Rp1940
(dp1941
g12
g1938
sbsVQueryTranslation
p1942
g1
(g6
g7
S'"Argyrozona argyrozona"[Organism] AND Cytb[All Fields]'
p1943
tp1944
Rp1945
(dp1946
g12
g1942
sbstp1947
Rp1948
(dp1949
g12
VeSearchResult
p1950
sbag1
(g2
g3
(dp1951
VCount
p1952
g1
(g6
g7
S'24'
p1953
tp1954
Rp1955
(dp1956
g12
g1952
sbsVRetMax
p1957
g1
(g6
g7
S'20'
p1958
tp1959
Rp1960
(dp1961
g12
g1957
sbsVIdList
p1962
g1
(g18
g19
(lp1963
g1
(g6
g7
S'159462057'
p1964
tp1965
Rp1966
(dp1967
g12
VId
p1968
sbag1
(g6
g7
S'159462055'
p1969
tp1970
Rp1971
(dp1972
g12
g1968
sbag1
(g6
g7
S'81007326'
p1973
tp1974
Rp1975
(dp1976
g12
g1968
sbag1
(g6
g7
S'239619134'
p1977
tp1978
Rp1979
(dp1980
g12
g1968
sbag1
(g6
g7
S'239619132'
p1981
tp1982
Rp1983
(dp1984
g12
g1968
sbag1
(g6
g7
S'154744881'
p1985
tp1986
Rp1987
(dp1988
g12
g1968
sbag1
(g6
g7
S'154744879'
p1989
tp1990
Rp1991
(dp1992
g12
g1968
sbag1
(g6
g7
S'133924208'
p1993
tp1994
Rp1995
(dp1996
g12
g1968
sbag1
(g6
g7
S'133924206'
p1997
tp1998
Rp1999
(dp2000
g12
g1968
sbag1
(g6
g7
S'133923590'
p2001
tp2002
Rp2003
(dp2004
g12
g1968
sbag1
(g6
g7
S'133923588'
p2005
tp2006
Rp2007
(dp2008
g12
g1968
sbag1
(g6
g7
S'129561651'
p2009
tp2010
Rp2011
(dp2012
g12
g1968
sbag1
(g6
g7
S'129561649'
p2013
tp2014
Rp2015
(dp2016
g12
g1968
sbag1
(g6
g7
S'959478934'
p2017
tp2018
Rp2019
(dp2020
g12
g1968
sbag1
(g6
g7
S'298205529'
p2021
tp2022
Rp2023
(dp2024
g12
g1968
sbag1
(g6
g7
S'307344257'
p2025
tp2026
Rp2027
(dp2028
g12
g1968
sbag1
(g6
g7
S'307344255'
p2029
tp2030
Rp2031
(dp2032
g12
g1968
sbag1
(g6
g7
S'307344253'
p2033
tp2034
Rp2035
(dp2036
g12
g1968
sbag1
(g6
g7
S'307344251'
p2037
tp2038
Rp2039
(dp2040
g12
g1968
sbag1
(g6
g7
S'307344249'
p2041
tp2042
Rp2043
(dp2044
g12
g1968
sbatp2045
Rp2046
(dp2047
g12
g1962
sbsVTranslationStack
p2048
g1
(g18
g19
(lp2049
g1
(g2
g3
(dp2050
g1952
g1
(g6
g7
S'157'
p2051
tp2052
Rp2053
(dp2054
g12
g1952
sbsVField
p2055
g1
(g6
g7
S'Organism'
p2056
tp2057
Rp2058
(dp2059
g12
g2055
sbsVTerm
p2060
g1
(g6
g7
S'"Boops boops"[Organism]'
p2061
tp2062
Rp2063
(dp2064
g12
g2060
sbsVExplode
p2065
g1
(g6
g7
g47
tp2066
Rp2067
(dp2068
g12
g2065
sbstp2069
Rp2070
(dp2071
g12
VTermSet
p2072
sbag1
(g2
g3
(dp2073
g1952
g1
(g6
g7
S'430914'
p2074
tp2075
Rp2076
(dp2077
g12
g1952
sbsg2055
g1
(g6
g7
S'All Fields'
p2078
tp2079
Rp2080
(dp2081
g12
g2055
sbsg2060
g1
(g6
g7
S'Cytb[All Fields]'
p2082
tp2083
Rp2084
(dp2085
g12
g2060
sbsg2065
g1
(g6
g7
g68
tp2086
Rp2087
(dp2088
g12
g2065
sbstp2089
Rp2090
(dp2091
g12
g2072
sbag1
(g6
g7
S'AND'
p2092
tp2093
Rp2094
(dp2095
g12
VOP
p2096
sbatp2097
Rp2098
(dp2099
g12
g2048
sbsVErrorList
p2100
g1
(g84
g3
(dp2101
VFieldNotFound
p2102
(lp2103
g1
(g6
g7
S'definition'
p2104
tp2105
Rp2106
(dp2107
g12
VFieldNotFound
p2108
sbasVPhraseNotFound
p2109
(lp2110
stp2111
Rp2112
(dp2113
g12
g2100
sg98
(lp2114
g2109
ag2102
asbsVTranslationSet
p2115
g1
(g18
g19
(lp2116
g1
(g2
g3
(dp2117
VTo
p2118
g1
(g6
g7
S'"Boops boops"[Organism]'
p2119
tp2120
Rp2121
(dp2122
g12
g2118
sbsVFrom
p2123
g1
(g6
g7
S'Boops boops[organism]'
p2124
tp2125
Rp2126
(dp2127
g12
g2123
sbstp2128
Rp2129
(dp2130
g12
VTranslation
p2131
sbatp2132
Rp2133
(dp2134
g12
g2115
sbsVRetStart
p2135
g1
(g6
g7
g121
tp2136
Rp2137
(dp2138
g12
g2135
sbsVQueryTranslation
p2139
g1
(g6
g7
S'"Boops boops"[Organism] AND Cytb[All Fields]'
p2140
tp2141
Rp2142
(dp2143
g12
g2139
sbstp2144
Rp2145
(dp2146
g12
VeSearchResult
p2147
sbag1
(g2
g3
(dp2148
VCount
p2149
g1
(g6
g7
g1582
tp2150
Rp2151
(dp2152
g12
g2149
sbsVRetMax
p2153
g1
(g6
g7
g1582
tp2154
Rp2155
(dp2156
g12
g2153
sbsVIdList
p2157
g1
(g18
g19
(lp2158
g1
(g6
g7
S'13183204'
p2159
tp2160
Rp2161
(dp2162
g12
VId
p2163
sbag1
(g6
g7
S'959478930'
p2164
tp2165
Rp2166
(dp2167
g12
g2163
sbatp2168
Rp2169
(dp2170
g12
g2157
sbsVTranslationStack
p2171
g1
(g18
g19
(lp2172
g1
(g2
g3
(dp2173
g2149
g1
(g6
g7
S'10'
p2174
tp2175
Rp2176
(dp2177
g12
g2149
sbsVField
p2178
g1
(g6
g7
S'Organism'
p2179
tp2180
Rp2181
(dp2182
g12
g2178
sbsVTerm
p2183
g1
(g6
g7
S'"Boopsoidea inornata"[Organism]'
p2184
tp2185
Rp2186
(dp2187
g12
g2183
sbsVExplode
p2188
g1
(g6
g7
g47
tp2189
Rp2190
(dp2191
g12
g2188
sbstp2192
Rp2193
(dp2194
g12
VTermSet
p2195
sbag1
(g2
g3
(dp2196
g2149
g1
(g6
g7
S'430914'
p2197
tp2198
Rp2199
(dp2200
g12
g2149
sbsg2178
g1
(g6
g7
S'All Fields'
p2201
tp2202
Rp2203
(dp2204
g12
g2178
sbsg2183
g1
(g6
g7
S'Cytb[All Fields]'
p2205
tp2206
Rp2207
(dp2208
g12
g2183
sbsg2188
g1
(g6
g7
g68
tp2209
Rp2210
(dp2211
g12
g2188
sbstp2212
Rp2213
(dp2214
g12
g2195
sbag1
(g6
g7
S'AND'
p2215
tp2216
Rp2217
(dp2218
g12
VOP
p2219
sbatp2220
Rp2221
(dp2222
g12
g2171
sbsVErrorList
p2223
g1
(g84
g3
(dp2224
VFieldNotFound
p2225
(lp2226
g1
(g6
g7
S'definition'
p2227
tp2228
Rp2229
(dp2230
g12
VFieldNotFound
p2231
sbasVPhraseNotFound
p2232
(lp2233
stp2234
Rp2235
(dp2236
g12
g2223
sg98
(lp2237
g2232
ag2225
asbsVTranslationSet
p2238
g1
(g18
g19
(lp2239
g1
(g2
g3
(dp2240
VTo
p2241
g1
(g6
g7
S'"Boopsoidea inornata"[Organism]'
p2242
tp2243
Rp2244
(dp2245
g12
g2241
sbsVFrom
p2246
g1
(g6
g7
S'Boopsoidea inornata[organism]'
p2247
tp2248
Rp2249
(dp2250
g12
g2246
sbstp2251
Rp2252
(dp2253
g12
VTranslation
p2254
sbatp2255
Rp2256
(dp2257
g12
g2238
sbsVRetStart
p2258
g1
(g6
g7
g121
tp2259
Rp2260
(dp2261
g12
g2258
sbsVQueryTranslation
p2262
g1
(g6
g7
S'"Boopsoidea inornata"[Organism] AND Cytb[All Fields]'
p2263
tp2264
Rp2265
(dp2266
g12
g2262
sbstp2267
Rp2268
(dp2269
g12
VeSearchResult
p2270
sbag1
(g2
g3
(dp2271
VCount
p2272
g1
(g6
g7
g8
tp2273
Rp2274
(dp2275
g12
g2272
sbsVRetMax
p2276
g1
(g6
g7
g8
tp2277
Rp2278
(dp2279
g12
g2276
sbsVIdList
p2280
g1
(g18
g19
(lp2281
g1
(g6
g7
S'386373538'
p2282
tp2283
Rp2284
(dp2285
g12
VId
p2286
sbatp2287
Rp2288
(dp2289
g12
g2280
sbsVTranslationStack
p2290
g1
(g18
g19
(lp2291
g1
(g2
g3
(dp2292
g2272
g1
(g6
g7
g1607
tp2293
Rp2294
(dp2295
g12
g2272
sbsVField
p2296
g1
(g6
g7
S'Organism'
p2297
tp2298
Rp2299
(dp2300
g12
g2296
sbsVTerm
p2301
g1
(g6
g7
S'"Calamus brachysomus"[Organism]'
p2302
tp2303
Rp2304
(dp2305
g12
g2301
sbsVExplode
p2306
g1
(g6
g7
g47
tp2307
Rp2308
(dp2309
g12
g2306
sbstp2310
Rp2311
(dp2312
g12
VTermSet
p2313
sbag1
(g2
g3
(dp2314
g2272
g1
(g6
g7
S'430914'
p2315
tp2316
Rp2317
(dp2318
g12
g2272
sbsg2296
g1
(g6
g7
S'All Fields'
p2319
tp2320
Rp2321
(dp2322
g12
g2296
sbsg2301
g1
(g6
g7
S'Cytb[All Fields]'
p2323
tp2324
Rp2325
(dp2326
g12
g2301
sbsg2306
g1
(g6
g7
g68
tp2327
Rp2328
(dp2329
g12
g2306
sbstp2330
Rp2331
(dp2332
g12
g2313
sbag1
(g6
g7
S'AND'
p2333
tp2334
Rp2335
(dp2336
g12
VOP
p2337
sbatp2338
Rp2339
(dp2340
g12
g2290
sbsVErrorList
p2341
g1
(g84
g3
(dp2342
VFieldNotFound
p2343
(lp2344
g1
(g6
g7
S'definition'
p2345
tp2346
Rp2347
(dp2348
g12
VFieldNotFound
p2349
sbasVPhraseNotFound
p2350
(lp2351
stp2352
Rp2353
(dp2354
g12
g2341
sg98
(lp2355
g2350
ag2343
asbsVTranslationSet
p2356
g1
(g18
g19
(lp2357
g1
(g2
g3
(dp2358
VTo
p2359
g1
(g6
g7
S'"Calamus brachysomus"[Organism]'
p2360
tp2361
Rp2362
(dp2363
g12
g2359
sbsVFrom
p2364
g1
(g6
g7
S'Calamus brachysomus[organism]'
p2365
tp2366
Rp2367
(dp2368
g12
g2364
sbstp2369
Rp2370
(dp2371
g12
VTranslation
p2372
sbatp2373
Rp2374
(dp2375
g12
g2356
sbsVRetStart
p2376
g1
(g6
g7
g121
tp2377
Rp2378
(dp2379
g12
g2376
sbsVQueryTranslation
p2380
g1
(g6
g7
S'"Calamus brachysomus"[Organism] AND Cytb[All Fields]'
p2381
tp2382
Rp2383
(dp2384
g12
g2380
sbstp2385
Rp2386
(dp2387
g12
VeSearchResult
p2388
sbag1
(g2
g3
(dp2389
VCount
p2390
g1
(g6
g7
g1582
tp2391
Rp2392
(dp2393
g12
g2390
sbsVRetMax
p2394
g1
(g6
g7
g1582
tp2395
Rp2396
(dp2397
g12
g2394
sbsVIdList
p2398
g1
(g18
g19
(lp2399
g1
(g6
g7
S'13183218'
p2400
tp2401
Rp2402
(dp2403
g12
VId
p2404
sbag1
(g6
g7
S'959478972'
p2405
tp2406
Rp2407
(dp2408
g12
g2404
sbatp2409
Rp2410
(dp2411
g12
g2398
sbsVTranslationStack
p2412
g1
(g18
g19
(lp2413
g1
(g2
g3
(dp2414
g2390
g1
(g6
g7
S'11'
p2415
tp2416
Rp2417
(dp2418
g12
g2390
sbsVField
p2419
g1
(g6
g7
S'Organism'
p2420
tp2421
Rp2422
(dp2423
g12
g2419
sbsVTerm
p2424
g1
(g6
g7
S'"Calamus nodosus"[Organism]'
p2425
tp2426
Rp2427
(dp2428
g12
g2424
sbsVExplode
p2429
g1
(g6
g7
g47
tp2430
Rp2431
(dp2432
g12
g2429
sbstp2433
Rp2434
(dp2435
g12
VTermSet
p2436
sbag1
(g2
g3
(dp2437
g2390
g1
(g6
g7
S'430914'
p2438
tp2439
Rp2440
(dp2441
g12
g2390
sbsg2419
g1
(g6
g7
S'All Fields'
p2442
tp2443
Rp2444
(dp2445
g12
g2419
sbsg2424
g1
(g6
g7
S'Cytb[All Fields]'
p2446
tp2447
Rp2448
(dp2449
g12
g2424
sbsg2429
g1
(g6
g7
g68
tp2450
Rp2451
(dp2452
g12
g2429
sbstp2453
Rp2454
(dp2455
g12
g2436
sbag1
(g6
g7
S'AND'
p2456
tp2457
Rp2458
(dp2459
g12
VOP
p2460
sbatp2461
Rp2462
(dp2463
g12
g2412
sbsVErrorList
p2464
g1
(g84
g3
(dp2465
VFieldNotFound
p2466
(lp2467
g1
(g6
g7
S'definition'
p2468
tp2469
Rp2470
(dp2471
g12
VFieldNotFound
p2472
sbasVPhraseNotFound
p2473
(lp2474
stp2475
Rp2476
(dp2477
g12
g2464
sg98
(lp2478
g2473
ag2466
asbsVTranslationSet
p2479
g1
(g18
g19
(lp2480
g1
(g2
g3
(dp2481
VTo
p2482
g1
(g6
g7
S'"Calamus nodosus"[Organism]'
p2483
tp2484
Rp2485
(dp2486
g12
g2482
sbsVFrom
p2487
g1
(g6
g7
S'Calamus nodosus[organism]'
p2488
tp2489
Rp2490
(dp2491
g12
g2487
sbstp2492
Rp2493
(dp2494
g12
VTranslation
p2495
sbatp2496
Rp2497
(dp2498
g12
g2479
sbsVRetStart
p2499
g1
(g6
g7
g121
tp2500
Rp2501
(dp2502
g12
g2499
sbsVQueryTranslation
p2503
g1
(g6
g7
S'"Calamus nodosus"[Organism] AND Cytb[All Fields]'
p2504
tp2505
Rp2506
(dp2507
g12
g2503
sbstp2508
Rp2509
(dp2510
g12
VeSearchResult
p2511
sbag1
(g2
g3
(dp2512
VCount
p2513
g1
(g6
g7
g1582
tp2514
Rp2515
(dp2516
g12
g2513
sbsVRetMax
p2517
g1
(g6
g7
g1582
tp2518
Rp2519
(dp2520
g12
g2517
sbsVIdList
p2521
g1
(g18
g19
(lp2522
g1
(g6
g7
S'302595226'
p2523
tp2524
Rp2525
(dp2526
g12
VId
p2527
sbag1
(g6
g7
S'302595224'
p2528
tp2529
Rp2530
(dp2531
g12
g2527
sbatp2532
Rp2533
(dp2534
g12
g2521
sbsVTranslationStack
p2535
g1
(g18
g19
(lp2536
g1
(g2
g3
(dp2537
g2513
g1
(g6
g7
S'15'
p2538
tp2539
Rp2540
(dp2541
g12
g2513
sbsVField
p2542
g1
(g6
g7
S'Organism'
p2543
tp2544
Rp2545
(dp2546
g12
g2542
sbsVTerm
p2547
g1
(g6
g7
S'"Centracanthus cirrus"[Organism]'
p2548
tp2549
Rp2550
(dp2551
g12
g2547
sbsVExplode
p2552
g1
(g6
g7
g47
tp2553
Rp2554
(dp2555
g12
g2552
sbstp2556
Rp2557
(dp2558
g12
VTermSet
p2559
sbag1
(g2
g3
(dp2560
g2513
g1
(g6
g7
S'430914'
p2561
tp2562
Rp2563
(dp2564
g12
g2513
sbsg2542
g1
(g6
g7
S'All Fields'
p2565
tp2566
Rp2567
(dp2568
g12
g2542
sbsg2547
g1
(g6
g7
S'Cytb[All Fields]'
p2569
tp2570
Rp2571
(dp2572
g12
g2547
sbsg2552
g1
(g6
g7
g68
tp2573
Rp2574
(dp2575
g12
g2552
sbstp2576
Rp2577
(dp2578
g12
g2559
sbag1
(g6
g7
S'AND'
p2579
tp2580
Rp2581
(dp2582
g12
VOP
p2583
sbatp2584
Rp2585
(dp2586
g12
g2535
sbsVErrorList
p2587
g1
(g84
g3
(dp2588
VFieldNotFound
p2589
(lp2590
g1
(g6
g7
S'definition'
p2591
tp2592
Rp2593
(dp2594
g12
VFieldNotFound
p2595
sbasVPhraseNotFound
p2596
(lp2597
stp2598
Rp2599
(dp2600
g12
g2587
sg98
(lp2601
g2596
ag2589
asbsVTranslationSet
p2602
g1
(g18
g19
(lp2603
g1
(g2
g3
(dp2604
VTo
p2605
g1
(g6
g7
S'"Centracanthus cirrus"[Organism]'
p2606
tp2607
Rp2608
(dp2609
g12
g2605
sbsVFrom
p2610
g1
(g6
g7
S'Centracanthus cirrus[organism]'
p2611
tp2612
Rp2613
(dp2614
g12
g2610
sbstp2615
Rp2616
(dp2617
g12
VTranslation
p2618
sbatp2619
Rp2620
(dp2621
g12
g2602
sbsVRetStart
p2622
g1
(g6
g7
g121
tp2623
Rp2624
(dp2625
g12
g2622
sbsVQueryTranslation
p2626
g1
(g6
g7
S'"Centracanthus cirrus"[Organism] AND Cytb[All Fields]'
p2627
tp2628
Rp2629
(dp2630
g12
g2626
sbstp2631
Rp2632
(dp2633
g12
VeSearchResult
p2634
sbag1
(g2
g3
(dp2635
VCount
p2636
g1
(g6
g7
g8
tp2637
Rp2638
(dp2639
g12
g2636
sbsVRetMax
p2640
g1
(g6
g7
g8
tp2641
Rp2642
(dp2643
g12
g2640
sbsVIdList
p2644
g1
(g18
g19
(lp2645
g1
(g6
g7
S'251733274'
p2646
tp2647
Rp2648
(dp2649
g12
VId
p2650
sbatp2651
Rp2652
(dp2653
g12
g2644
sbsVTranslationStack
p2654
g1
(g18
g19
(lp2655
g1
(g2
g3
(dp2656
g2636
g1
(g6
g7
g1582
tp2657
Rp2658
(dp2659
g12
g2636
sbsVField
p2660
g1
(g6
g7
S'Organism'
p2661
tp2662
Rp2663
(dp2664
g12
g2660
sbsVTerm
p2665
g1
(g6
g7
S'"Cheimerius matsubarai"[Organism]'
p2666
tp2667
Rp2668
(dp2669
g12
g2665
sbsVExplode
p2670
g1
(g6
g7
g47
tp2671
Rp2672
(dp2673
g12
g2670
sbstp2674
Rp2675
(dp2676
g12
VTermSet
p2677
sbag1
(g2
g3
(dp2678
g2636
g1
(g6
g7
S'430914'
p2679
tp2680
Rp2681
(dp2682
g12
g2636
sbsg2660
g1
(g6
g7
S'All Fields'
p2683
tp2684
Rp2685
(dp2686
g12
g2660
sbsg2665
g1
(g6
g7
S'Cytb[All Fields]'
p2687
tp2688
Rp2689
(dp2690
g12
g2665
sbsg2670
g1
(g6
g7
g68
tp2691
Rp2692
(dp2693
g12
g2670
sbstp2694
Rp2695
(dp2696
g12
g2677
sbag1
(g6
g7
S'AND'
p2697
tp2698
Rp2699
(dp2700
g12
VOP
p2701
sbatp2702
Rp2703
(dp2704
g12
g2654
sbsVErrorList
p2705
g1
(g84
g3
(dp2706
VFieldNotFound
p2707
(lp2708
g1
(g6
g7
S'definition'
p2709
tp2710
Rp2711
(dp2712
g12
VFieldNotFound
p2713
sbasVPhraseNotFound
p2714
(lp2715
stp2716
Rp2717
(dp2718
g12
g2705
sg98
(lp2719
g2714
ag2707
asbsVTranslationSet
p2720
g1
(g18
g19
(lp2721
g1
(g2
g3
(dp2722
VTo
p2723
g1
(g6
g7
S'"Cheimerius matsubarai"[Organism]'
p2724
tp2725
Rp2726
(dp2727
g12
g2723
sbsVFrom
p2728
g1
(g6
g7
S'Cheimerius matsubarai[organism]'
p2729
tp2730
Rp2731
(dp2732
g12
g2728
sbstp2733
Rp2734
(dp2735
g12
VTranslation
p2736
sbatp2737
Rp2738
(dp2739
g12
g2720
sbsVRetStart
p2740
g1
(g6
g7
g121
tp2741
Rp2742
(dp2743
g12
g2740
sbsVQueryTranslation
p2744
g1
(g6
g7
S'"Cheimerius matsubarai"[Organism] AND Cytb[All Fields]'
p2745
tp2746
Rp2747
(dp2748
g12
g2744
sbstp2749
Rp2750
(dp2751
g12
VeSearchResult
p2752
sbag1
(g2
g3
(dp2753
VCount
p2754
g1
(g6
g7
g1582
tp2755
Rp2756
(dp2757
g12
g2754
sbsVRetMax
p2758
g1
(g6
g7
g1582
tp2759
Rp2760
(dp2761
g12
g2758
sbsVIdList
p2762
g1
(g18
g19
(lp2763
g1
(g6
g7
S'13183196'
p2764
tp2765
Rp2766
(dp2767
g12
VId
p2768
sbag1
(g6
g7
S'959478960'
p2769
tp2770
Rp2771
(dp2772
g12
g2768
sbatp2773
Rp2774
(dp2775
g12
g2762
sbsVTranslationStack
p2776
g1
(g18
g19
(lp2777
g1
(g2
g3
(dp2778
g2754
g1
(g6
g7
S'27'
p2779
tp2780
Rp2781
(dp2782
g12
g2754
sbsVField
p2783
g1
(g6
g7
S'Organism'
p2784
tp2785
Rp2786
(dp2787
g12
g2783
sbsVTerm
p2788
g1
(g6
g7
S'"Cheimerius nufar"[Organism]'
p2789
tp2790
Rp2791
(dp2792
g12
g2788
sbsVExplode
p2793
g1
(g6
g7
g47
tp2794
Rp2795
(dp2796
g12
g2793
sbstp2797
Rp2798
(dp2799
g12
VTermSet
p2800
sbag1
(g2
g3
(dp2801
g2754
g1
(g6
g7
S'430914'
p2802
tp2803
Rp2804
(dp2805
g12
g2754
sbsg2783
g1
(g6
g7
S'All Fields'
p2806
tp2807
Rp2808
(dp2809
g12
g2783
sbsg2788
g1
(g6
g7
S'Cytb[All Fields]'
p2810
tp2811
Rp2812
(dp2813
g12
g2788
sbsg2793
g1
(g6
g7
g68
tp2814
Rp2815
(dp2816
g12
g2793
sbstp2817
Rp2818
(dp2819
g12
g2800
sbag1
(g6
g7
S'AND'
p2820
tp2821
Rp2822
(dp2823
g12
VOP
p2824
sbatp2825
Rp2826
(dp2827
g12
g2776
sbsVErrorList
p2828
g1
(g84
g3
(dp2829
VFieldNotFound
p2830
(lp2831
g1
(g6
g7
S'definition'
p2832
tp2833
Rp2834
(dp2835
g12
VFieldNotFound
p2836
sbasVPhraseNotFound
p2837
(lp2838
stp2839
Rp2840
(dp2841
g12
g2828
sg98
(lp2842
g2837
ag2830
asbsVTranslationSet
p2843
g1
(g18
g19
(lp2844
g1
(g2
g3
(dp2845
VTo
p2846
g1
(g6
g7
S'"Cheimerius nufar"[Organism]'
p2847
tp2848
Rp2849
(dp2850
g12
g2846
sbsVFrom
p2851
g1
(g6
g7
S'Cheimerius nufar[organism]'
p2852
tp2853
Rp2854
(dp2855
g12
g2851
sbstp2856
Rp2857
(dp2858
g12
VTranslation
p2859
sbatp2860
Rp2861
(dp2862
g12
g2843
sbsVRetStart
p2863
g1
(g6
g7
g121
tp2864
Rp2865
(dp2866
g12
g2863
sbsVQueryTranslation
p2867
g1
(g6
g7
S'"Cheimerius nufar"[Organism] AND Cytb[All Fields]'
p2868
tp2869
Rp2870
(dp2871
g12
g2867
sbstp2872
Rp2873
(dp2874
g12
VeSearchResult
p2875
sbag1
(g2
g3
(dp2876
VCount
p2877
g1
(g6
g7
g8
tp2878
Rp2879
(dp2880
g12
g2877
sbsVRetMax
p2881
g1
(g6
g7
g8
tp2882
Rp2883
(dp2884
g12
g2881
sbsVIdList
p2885
g1
(g18
g19
(lp2886
g1
(g6
g7
S'402810072'
p2887
tp2888
Rp2889
(dp2890
g12
VId
p2891
sbatp2892
Rp2893
(dp2894
g12
g2885
sbsVTranslationStack
p2895
g1
(g18
g19
(lp2896
g1
(g2
g3
(dp2897
g2877
g1
(g6
g7
S'21'
p2898
tp2899
Rp2900
(dp2901
g12
g2877
sbsVField
p2902
g1
(g6
g7
S'Organism'
p2903
tp2904
Rp2905
(dp2906
g12
g2902
sbsVTerm
p2907
g1
(g6
g7
S'"Chrysoblephus anglicus"[Organism]'
p2908
tp2909
Rp2910
(dp2911
g12
g2907
sbsVExplode
p2912
g1
(g6
g7
g47
tp2913
Rp2914
(dp2915
g12
g2912
sbstp2916
Rp2917
(dp2918
g12
VTermSet
p2919
sbag1
(g2
g3
(dp2920
g2877
g1
(g6
g7
S'430914'
p2921
tp2922
Rp2923
(dp2924
g12
g2877
sbsg2902
g1
(g6
g7
S'All Fields'
p2925
tp2926
Rp2927
(dp2928
g12
g2902
sbsg2907
g1
(g6
g7
S'Cytb[All Fields]'
p2929
tp2930
Rp2931
(dp2932
g12
g2907
sbsg2912
g1
(g6
g7
g68
tp2933
Rp2934
(dp2935
g12
g2912
sbstp2936
Rp2937
(dp2938
g12
g2919
sbag1
(g6
g7
S'AND'
p2939
tp2940
Rp2941
(dp2942
g12
VOP
p2943
sbatp2944
Rp2945
(dp2946
g12
g2895
sbsVErrorList
p2947
g1
(g84
g3
(dp2948
VFieldNotFound
p2949
(lp2950
g1
(g6
g7
S'definition'
p2951
tp2952
Rp2953
(dp2954
g12
VFieldNotFound
p2955
sbasVPhraseNotFound
p2956
(lp2957
stp2958
Rp2959
(dp2960
g12
g2947
sg98
(lp2961
g2956
ag2949
asbsVTranslationSet
p2962
g1
(g18
g19
(lp2963
g1
(g2
g3
(dp2964
VTo
p2965
g1
(g6
g7
S'"Chrysoblephus anglicus"[Organism]'
p2966
tp2967
Rp2968
(dp2969
g12
g2965
sbsVFrom
p2970
g1
(g6
g7
S'Chrysoblephus anglicus[organism]'
p2971
tp2972
Rp2973
(dp2974
g12
g2970
sbstp2975
Rp2976
(dp2977
g12
VTranslation
p2978
sbatp2979
Rp2980
(dp2981
g12
g2962
sbsVRetStart
p2982
g1
(g6
g7
g121
tp2983
Rp2984
(dp2985
g12
g2982
sbsVQueryTranslation
p2986
g1
(g6
g7
S'"Chrysoblephus anglicus"[Organism] AND Cytb[All Fields]'
p2987
tp2988
Rp2989
(dp2990
g12
g2986
sbstp2991
Rp2992
(dp2993
g12
VeSearchResult
p2994
sbag1
(g2
g3
(dp2995
VCount
p2996
g1
(g6
g7
g1582
tp2997
Rp2998
(dp2999
g12
g2996
sbsVRetMax
p3000
g1
(g6
g7
g1582
tp3001
Rp3002
(dp3003
g12
g3000
sbsVIdList
p3004
g1
(g18
g19
(lp3005
g1
(g6
g7
S'13183220'
p3006
tp3007
Rp3008
(dp3009
g12
VId
p3010
sbag1
(g6
g7
S'402810082'
p3011
tp3012
Rp3013
(dp3014
g12
g3010
sbatp3015
Rp3016
(dp3017
g12
g3004
sbsVTranslationStack
p3018
g1
(g18
g19
(lp3019
g1
(g2
g3
(dp3020
g2996
g1
(g6
g7
S'14'
p3021
tp3022
Rp3023
(dp3024
g12
g2996
sbsVField
p3025
g1
(g6
g7
S'Organism'
p3026
tp3027
Rp3028
(dp3029
g12
g3025
sbsVTerm
p3030
g1
(g6
g7
S'"Chrysoblephus cristiceps"[Organism]'
p3031
tp3032
Rp3033
(dp3034
g12
g3030
sbsVExplode
p3035
g1
(g6
g7
g47
tp3036
Rp3037
(dp3038
g12
g3035
sbstp3039
Rp3040
(dp3041
g12
VTermSet
p3042
sbag1
(g2
g3
(dp3043
g2996
g1
(g6
g7
S'430914'
p3044
tp3045
Rp3046
(dp3047
g12
g2996
sbsg3025
g1
(g6
g7
S'All Fields'
p3048
tp3049
Rp3050
(dp3051
g12
g3025
sbsg3030
g1
(g6
g7
S'Cytb[All Fields]'
p3052
tp3053
Rp3054
(dp3055
g12
g3030
sbsg3035
g1
(g6
g7
g68
tp3056
Rp3057
(dp3058
g12
g3035
sbstp3059
Rp3060
(dp3061
g12
g3042
sbag1
(g6
g7
S'AND'
p3062
tp3063
Rp3064
(dp3065
g12
VOP
p3066
sbatp3067
Rp3068
(dp3069
g12
g3018
sbsVErrorList
p3070
g1
(g84
g3
(dp3071
VFieldNotFound
p3072
(lp3073
g1
(g6
g7
S'definition'
p3074
tp3075
Rp3076
(dp3077
g12
VFieldNotFound
p3078
sbasVPhraseNotFound
p3079
(lp3080
stp3081
Rp3082
(dp3083
g12
g3070
sg98
(lp3084
g3079
ag3072
asbsVTranslationSet
p3085
g1
(g18
g19
(lp3086
g1
(g2
g3
(dp3087
VTo
p3088
g1
(g6
g7
S'"Chrysoblephus cristiceps"[Organism]'
p3089
tp3090
Rp3091
(dp3092
g12
g3088
sbsVFrom
p3093
g1
(g6
g7
S'Chrysoblephus cristiceps[organism]'
p3094
tp3095
Rp3096
(dp3097
g12
g3093
sbstp3098
Rp3099
(dp3100
g12
VTranslation
p3101
sbatp3102
Rp3103
(dp3104
g12
g3085
sbsVRetStart
p3105
g1
(g6
g7
g121
tp3106
Rp3107
(dp3108
g12
g3105
sbsVQueryTranslation
p3109
g1
(g6
g7
S'"Chrysoblephus cristiceps"[Organism] AND Cytb[All Fields]'
p3110
tp3111
Rp3112
(dp3113
g12
g3109
sbstp3114
Rp3115
(dp3116
g12
VeSearchResult
p3117
sbag1
(g2
g3
(dp3118
VCount
p3119
g1
(g6
g7
g8
tp3120
Rp3121
(dp3122
g12
g3119
sbsVRetMax
p3123
g1
(g6
g7
g8
tp3124
Rp3125
(dp3126
g12
g3123
sbsVIdList
p3127
g1
(g18
g19
(lp3128
g1
(g6
g7
S'402810086'
p3129
tp3130
Rp3131
(dp3132
g12
VId
p3133
sbatp3134
Rp3135
(dp3136
g12
g3127
sbsVTranslationStack
p3137
g1
(g18
g19
(lp3138
g1
(g2
g3
(dp3139
g3119
g1
(g6
g7
S'185'
p3140
tp3141
Rp3142
(dp3143
g12
g3119
sbsVField
p3144
g1
(g6
g7
S'Organism'
p3145
tp3146
Rp3147
(dp3148
g12
g3144
sbsVTerm
p3149
g1
(g6
g7
S'"Chrysoblephus laticeps"[Organism]'
p3150
tp3151
Rp3152
(dp3153
g12
g3149
sbsVExplode
p3154
g1
(g6
g7
g47
tp3155
Rp3156
(dp3157
g12
g3154
sbstp3158
Rp3159
(dp3160
g12
VTermSet
p3161
sbag1
(g2
g3
(dp3162
g3119
g1
(g6
g7
S'430914'
p3163
tp3164
Rp3165
(dp3166
g12
g3119
sbsg3144
g1
(g6
g7
S'All Fields'
p3167
tp3168
Rp3169
(dp3170
g12
g3144
sbsg3149
g1
(g6
g7
S'Cytb[All Fields]'
p3171
tp3172
Rp3173
(dp3174
g12
g3149
sbsg3154
g1
(g6
g7
g68
tp3175
Rp3176
(dp3177
g12
g3154
sbstp3178
Rp3179
(dp3180
g12
g3161
sbag1
(g6
g7
S'AND'
p3181
tp3182
Rp3183
(dp3184
g12
VOP
p3185
sbatp3186
Rp3187
(dp3188
g12
g3137
sbsVErrorList
p3189
g1
(g84
g3
(dp3190
VFieldNotFound
p3191
(lp3192
g1
(g6
g7
S'definition'
p3193
tp3194
Rp3195
(dp3196
g12
VFieldNotFound
p3197
sbasVPhraseNotFound
p3198
(lp3199
stp3200
Rp3201
(dp3202
g12
g3189
sg98
(lp3203
g3198
ag3191
asbsVTranslationSet
p3204
g1
(g18
g19
(lp3205
g1
(g2
g3
(dp3206
VTo
p3207
g1
(g6
g7
S'"Chrysoblephus laticeps"[Organism]'
p3208
tp3209
Rp3210
(dp3211
g12
g3207
sbsVFrom
p3212
g1
(g6
g7
S'Chrysoblephus laticeps[organism]'
p3213
tp3214
Rp3215
(dp3216
g12
g3212
sbstp3217
Rp3218
(dp3219
g12
VTranslation
p3220
sbatp3221
Rp3222
(dp3223
g12
g3204
sbsVRetStart
p3224
g1
(g6
g7
g121
tp3225
Rp3226
(dp3227
g12
g3224
sbsVQueryTranslation
p3228
g1
(g6
g7
S'"Chrysoblephus laticeps"[Organism] AND Cytb[All Fields]'
p3229
tp3230
Rp3231
(dp3232
g12
g3228
sbstp3233
Rp3234
(dp3235
g12
VeSearchResult
p3236
sbag1
(g2
g3
(dp3237
VCount
p3238
g1
(g6
g7
g8
tp3239
Rp3240
(dp3241
g12
g3238
sbsVRetMax
p3242
g1
(g6
g7
g8
tp3243
Rp3244
(dp3245
g12
g3242
sbsVIdList
p3246
g1
(g18
g19
(lp3247
g1
(g6
g7
S'402810080'
p3248
tp3249
Rp3250
(dp3251
g12
VId
p3252
sbatp3253
Rp3254
(dp3255
g12
g3246
sbsVTranslationStack
p3256
g1
(g18
g19
(lp3257
g1
(g2
g3
(dp3258
g3238
g1
(g6
g7
S'12'
p3259
tp3260
Rp3261
(dp3262
g12
g3238
sbsVField
p3263
g1
(g6
g7
S'Organism'
p3264
tp3265
Rp3266
(dp3267
g12
g3263
sbsVTerm
p3268
g1
(g6
g7
S'"Chrysoblephus lophus"[Organism]'
p3269
tp3270
Rp3271
(dp3272
g12
g3268
sbsVExplode
p3273
g1
(g6
g7
g47
tp3274
Rp3275
(dp3276
g12
g3273
sbstp3277
Rp3278
(dp3279
g12
VTermSet
p3280
sbag1
(g2
g3
(dp3281
g3238
g1
(g6
g7
S'430914'
p3282
tp3283
Rp3284
(dp3285
g12
g3238
sbsg3263
g1
(g6
g7
S'All Fields'
p3286
tp3287
Rp3288
(dp3289
g12
g3263
sbsg3268
g1
(g6
g7
S'Cytb[All Fields]'
p3290
tp3291
Rp3292
(dp3293
g12
g3268
sbsg3273
g1
(g6
g7
g68
tp3294
Rp3295
(dp3296
g12
g3273
sbstp3297
Rp3298
(dp3299
g12
g3280
sbag1
(g6
g7
S'AND'
p3300
tp3301
Rp3302
(dp3303
g12
VOP
p3304
sbatp3305
Rp3306
(dp3307
g12
g3256
sbsVErrorList
p3308
g1
(g84
g3
(dp3309
VFieldNotFound
p3310
(lp3311
g1
(g6
g7
S'definition'
p3312
tp3313
Rp3314
(dp3315
g12
VFieldNotFound
p3316
sbasVPhraseNotFound
p3317
(lp3318
stp3319
Rp3320
(dp3321
g12
g3308
sg98
(lp3322
g3317
ag3310
asbsVTranslationSet
p3323
g1
(g18
g19
(lp3324
g1
(g2
g3
(dp3325
VTo
p3326
g1
(g6
g7
S'"Chrysoblephus lophus"[Organism]'
p3327
tp3328
Rp3329
(dp3330
g12
g3326
sbsVFrom
p3331
g1
(g6
g7
S'Chrysoblephus lophus[organism]'
p3332
tp3333
Rp3334
(dp3335
g12
g3331
sbstp3336
Rp3337
(dp3338
g12
VTranslation
p3339
sbatp3340
Rp3341
(dp3342
g12
g3323
sbsVRetStart
p3343
g1
(g6
g7
g121
tp3344
Rp3345
(dp3346
g12
g3343
sbsVQueryTranslation
p3347
g1
(g6
g7
S'"Chrysoblephus lophus"[Organism] AND Cytb[All Fields]'
p3348
tp3349
Rp3350
(dp3351
g12
g3347
sbstp3352
Rp3353
(dp3354
g12
VeSearchResult
p3355
sbag1
(g2
g3
(dp3356
VCount
p3357
g1
(g6
g7
g8
tp3358
Rp3359
(dp3360
g12
g3357
sbsVRetMax
p3361
g1
(g6
g7
g8
tp3362
Rp3363
(dp3364
g12
g3361
sbsVIdList
p3365
g1
(g18
g19
(lp3366
g1
(g6
g7
S'402810078'
p3367
tp3368
Rp3369
(dp3370
g12
VId
p3371
sbatp3372
Rp3373
(dp3374
g12
g3365
sbsVTranslationStack
p3375
g1
(g18
g19
(lp3376
g1
(g2
g3
(dp3377
g3357
g1
(g6
g7
S'132'
p3378
tp3379
Rp3380
(dp3381
g12
g3357
sbsVField
p3382
g1
(g6
g7
S'Organism'
p3383
tp3384
Rp3385
(dp3386
g12
g3382
sbsVTerm
p3387
g1
(g6
g7
S'"Chrysoblephus puniceus"[Organism]'
p3388
tp3389
Rp3390
(dp3391
g12
g3387
sbsVExplode
p3392
g1
(g6
g7
g47
tp3393
Rp3394
(dp3395
g12
g3392
sbstp3396
Rp3397
(dp3398
g12
VTermSet
p3399
sbag1
(g2
g3
(dp3400
g3357
g1
(g6
g7
S'430914'
p3401
tp3402
Rp3403
(dp3404
g12
g3357
sbsg3382
g1
(g6
g7
S'All Fields'
p3405
tp3406
Rp3407
(dp3408
g12
g3382
sbsg3387
g1
(g6
g7
S'Cytb[All Fields]'
p3409
tp3410
Rp3411
(dp3412
g12
g3387
sbsg3392
g1
(g6
g7
g68
tp3413
Rp3414
(dp3415
g12
g3392
sbstp3416
Rp3417
(dp3418
g12
g3399
sbag1
(g6
g7
S'AND'
p3419
tp3420
Rp3421
(dp3422
g12
VOP
p3423
sbatp3424
Rp3425
(dp3426
g12
g3375
sbsVErrorList
p3427
g1
(g84
g3
(dp3428
VFieldNotFound
p3429
(lp3430
g1
(g6
g7
S'definition'
p3431
tp3432
Rp3433
(dp3434
g12
VFieldNotFound
p3435
sbasVPhraseNotFound
p3436
(lp3437
stp3438
Rp3439
(dp3440
g12
g3427
sg98
(lp3441
g3436
ag3429
asbsVTranslationSet
p3442
g1
(g18
g19
(lp3443
g1
(g2
g3
(dp3444
VTo
p3445
g1
(g6
g7
S'"Chrysoblephus puniceus"[Organism]'
p3446
tp3447
Rp3448
(dp3449
g12
g3445
sbsVFrom
p3450
g1
(g6
g7
S'Chrysoblephus puniceus[organism]'
p3451
tp3452
Rp3453
(dp3454
g12
g3450
sbstp3455
Rp3456
(dp3457
g12
VTranslation
p3458
sbatp3459
Rp3460
(dp3461
g12
g3442
sbsVRetStart
p3462
g1
(g6
g7
g121
tp3463
Rp3464
(dp3465
g12
g3462
sbsVQueryTranslation
p3466
g1
(g6
g7
S'"Chrysoblephus puniceus"[Organism] AND Cytb[All Fields]'
p3467
tp3468
Rp3469
(dp3470
g12
g3466
sbstp3471
Rp3472
(dp3473
g12
VeSearchResult
p3474
sbag1
(g2
g3
(dp3475
VCount
p3476
g1
(g6
g7
g1582
tp3477
Rp3478
(dp3479
g12
g3476
sbsVRetMax
p3480
g1
(g6
g7
g1582
tp3481
Rp3482
(dp3483
g12
g3480
sbsVIdList
p3484
g1
(g18
g19
(lp3485
g1
(g6
g7
S'13183180'
p3486
tp3487
Rp3488
(dp3489
g12
VId
p3490
sbag1
(g6
g7
S'959478948'
p3491
tp3492
Rp3493
(dp3494
g12
g3490
sbatp3495
Rp3496
(dp3497
g12
g3484
sbsVTranslationStack
p3498
g1
(g18
g19
(lp3499
g1
(g2
g3
(dp3500
g3476
g1
(g6
g7
S'15'
p3501
tp3502
Rp3503
(dp3504
g12
g3476
sbsVField
p3505
g1
(g6
g7
S'Organism'
p3506
tp3507
Rp3508
(dp3509
g12
g3505
sbsVTerm
p3510
g1
(g6
g7
S'"Crenidens crenidens"[Organism]'
p3511
tp3512
Rp3513
(dp3514
g12
g3510
sbsVExplode
p3515
g1
(g6
g7
g47
tp3516
Rp3517
(dp3518
g12
g3515
sbstp3519
Rp3520
(dp3521
g12
VTermSet
p3522
sbag1
(g2
g3
(dp3523
g3476
g1
(g6
g7
S'430914'
p3524
tp3525
Rp3526
(dp3527
g12
g3476
sbsg3505
g1
(g6
g7
S'All Fields'
p3528
tp3529
Rp3530
(dp3531
g12
g3505
sbsg3510
g1
(g6
g7
S'Cytb[All Fields]'
p3532
tp3533
Rp3534
(dp3535
g12
g3510
sbsg3515
g1
(g6
g7
g68
tp3536
Rp3537
(dp3538
g12
g3515
sbstp3539
Rp3540
(dp3541
g12
g3522
sbag1
(g6
g7
S'AND'
p3542
tp3543
Rp3544
(dp3545
g12
VOP
p3546
sbatp3547
Rp3548
(dp3549
g12
g3498
sbsVErrorList
p3550
g1
(g84
g3
(dp3551
VFieldNotFound
p3552
(lp3553
g1
(g6
g7
S'definition'
p3554
tp3555
Rp3556
(dp3557
g12
VFieldNotFound
p3558
sbasVPhraseNotFound
p3559
(lp3560
stp3561
Rp3562
(dp3563
g12
g3550
sg98
(lp3564
g3559
ag3552
asbsVTranslationSet
p3565
g1
(g18
g19
(lp3566
g1
(g2
g3
(dp3567
VTo
p3568
g1
(g6
g7
S'"Crenidens crenidens"[Organism]'
p3569
tp3570
Rp3571
(dp3572
g12
g3568
sbsVFrom
p3573
g1
(g6
g7
S'Crenidens crenidens[organism]'
p3574
tp3575
Rp3576
(dp3577
g12
g3573
sbstp3578
Rp3579
(dp3580
g12
VTranslation
p3581
sbatp3582
Rp3583
(dp3584
g12
g3565
sbsVRetStart
p3585
g1
(g6
g7
g121
tp3586
Rp3587
(dp3588
g12
g3585
sbsVQueryTranslation
p3589
g1
(g6
g7
S'"Crenidens crenidens"[Organism] AND Cytb[All Fields]'
p3590
tp3591
Rp3592
(dp3593
g12
g3589
sbstp3594
Rp3595
(dp3596
g12
VeSearchResult
p3597
sbag1
(g2
g3
(dp3598
VCount
p3599
g1
(g6
g7
g8
tp3600
Rp3601
(dp3602
g12
g3599
sbsVRetMax
p3603
g1
(g6
g7
g8
tp3604
Rp3605
(dp3606
g12
g3603
sbsVIdList
p3607
g1
(g18
g19
(lp3608
g1
(g6
g7
S'13183222'
p3609
tp3610
Rp3611
(dp3612
g12
VId
p3613
sbatp3614
Rp3615
(dp3616
g12
g3607
sbsVTranslationStack
p3617
g1
(g18
g19
(lp3618
g1
(g2
g3
(dp3619
g3599
g1
(g6
g7
S'560'
p3620
tp3621
Rp3622
(dp3623
g12
g3599
sbsVField
p3624
g1
(g6
g7
S'Organism'
p3625
tp3626
Rp3627
(dp3628
g12
g3624
sbsVTerm
p3629
g1
(g6
g7
S'"Cymatoceps nasutus"[Organism]'
p3630
tp3631
Rp3632
(dp3633
g12
g3629
sbsVExplode
p3634
g1
(g6
g7
g47
tp3635
Rp3636
(dp3637
g12
g3634
sbstp3638
Rp3639
(dp3640
g12
VTermSet
p3641
sbag1
(g2
g3
(dp3642
g3599
g1
(g6
g7
S'430914'
p3643
tp3644
Rp3645
(dp3646
g12
g3599
sbsg3624
g1
(g6
g7
S'All Fields'
p3647
tp3648
Rp3649
(dp3650
g12
g3624
sbsg3629
g1
(g6
g7
S'Cytb[All Fields]'
p3651
tp3652
Rp3653
(dp3654
g12
g3629
sbsg3634
g1
(g6
g7
g68
tp3655
Rp3656
(dp3657
g12
g3634
sbstp3658
Rp3659
(dp3660
g12
g3641
sbag1
(g6
g7
S'AND'
p3661
tp3662
Rp3663
(dp3664
g12
VOP
p3665
sbatp3666
Rp3667
(dp3668
g12
g3617
sbsVErrorList
p3669
g1
(g84
g3
(dp3670
VFieldNotFound
p3671
(lp3672
g1
(g6
g7
S'definition'
p3673
tp3674
Rp3675
(dp3676
g12
VFieldNotFound
p3677
sbasVPhraseNotFound
p3678
(lp3679
stp3680
Rp3681
(dp3682
g12
g3669
sg98
(lp3683
g3678
ag3671
asbsVTranslationSet
p3684
g1
(g18
g19
(lp3685
g1
(g2
g3
(dp3686
VTo
p3687
g1
(g6
g7
S'"Cymatoceps nasutus"[Organism]'
p3688
tp3689
Rp3690
(dp3691
g12
g3687
sbsVFrom
p3692
g1
(g6
g7
S'Cymatoceps nasutus[organism]'
p3693
tp3694
Rp3695
(dp3696
g12
g3692
sbstp3697
Rp3698
(dp3699
g12
VTranslation
p3700
sbatp3701
Rp3702
(dp3703
g12
g3684
sbsVRetStart
p3704
g1
(g6
g7
g121
tp3705
Rp3706
(dp3707
g12
g3704
sbsVQueryTranslation
p3708
g1
(g6
g7
S'"Cymatoceps nasutus"[Organism] AND Cytb[All Fields]'
p3709
tp3710
Rp3711
(dp3712
g12
g3708
sbstp3713
Rp3714
(dp3715
g12
VeSearchResult
p3716
sbag1
(g2
g3
(dp3717
VCount
p3718
g1
(g6
g7
g8
tp3719
Rp3720
(dp3721
g12
g3718
sbsVRetMax
p3722
g1
(g6
g7
g8
tp3723
Rp3724
(dp3725
g12
g3722
sbsVIdList
p3726
g1
(g18
g19
(lp3727
g1
(g6
g7
S'251733258'
p3728
tp3729
Rp3730
(dp3731
g12
VId
p3732
sbatp3733
Rp3734
(dp3735
g12
g3726
sbsVTranslationStack
p3736
g1
(g18
g19
(lp3737
g1
(g2
g3
(dp3738
g3718
g1
(g6
g7
g1706
tp3739
Rp3740
(dp3741
g12
g3718
sbsVField
p3742
g1
(g6
g7
S'Organism'
p3743
tp3744
Rp3745
(dp3746
g12
g3742
sbsVTerm
p3747
g1
(g6
g7
S'"Dentex abei"[Organism]'
p3748
tp3749
Rp3750
(dp3751
g12
g3747
sbsVExplode
p3752
g1
(g6
g7
g47
tp3753
Rp3754
(dp3755
g12
g3752
sbstp3756
Rp3757
(dp3758
g12
VTermSet
p3759
sbag1
(g2
g3
(dp3760
g3718
g1
(g6
g7
S'430914'
p3761
tp3762
Rp3763
(dp3764
g12
g3718
sbsg3742
g1
(g6
g7
S'All Fields'
p3765
tp3766
Rp3767
(dp3768
g12
g3742
sbsg3747
g1
(g6
g7
S'Cytb[All Fields]'
p3769
tp3770
Rp3771
(dp3772
g12
g3747
sbsg3752
g1
(g6
g7
g68
tp3773
Rp3774
(dp3775
g12
g3752
sbstp3776
Rp3777
(dp3778
g12
g3759
sbag1
(g6
g7
S'AND'
p3779
tp3780
Rp3781
(dp3782
g12
VOP
p3783
sbatp3784
Rp3785
(dp3786
g12
g3736
sbsVErrorList
p3787
g1
(g84
g3
(dp3788
VFieldNotFound
p3789
(lp3790
g1
(g6
g7
S'definition'
p3791
tp3792
Rp3793
(dp3794
g12
VFieldNotFound
p3795
sbasVPhraseNotFound
p3796
(lp3797
stp3798
Rp3799
(dp3800
g12
g3787
sg98
(lp3801
g3796
ag3789
asbsVTranslationSet
p3802
g1
(g18
g19
(lp3803
g1
(g2
g3
(dp3804
VTo
p3805
g1
(g6
g7
S'"Dentex abei"[Organism]'
p3806
tp3807
Rp3808
(dp3809
g12
g3805
sbsVFrom
p3810
g1
(g6
g7
S'Dentex abei[organism]'
p3811
tp3812
Rp3813
(dp3814
g12
g3810
sbstp3815
Rp3816
(dp3817
g12
VTranslation
p3818
sbatp3819
Rp3820
(dp3821
g12
g3802
sbsVRetStart
p3822
g1
(g6
g7
g121
tp3823
Rp3824
(dp3825
g12
g3822
sbsVQueryTranslation
p3826
g1
(g6
g7
S'"Dentex abei"[Organism] AND Cytb[All Fields]'
p3827
tp3828
Rp3829
(dp3830
g12
g3826
sbstp3831
Rp3832
(dp3833
g12
VeSearchResult
p3834
sbag1
(g2
g3
(dp3835
VCount
p3836
g1
(g6
g7
g8
tp3837
Rp3838
(dp3839
g12
g3836
sbsVRetMax
p3840
g1
(g6
g7
g8
tp3841
Rp3842
(dp3843
g12
g3840
sbsVIdList
p3844
g1
(g18
g19
(lp3845
g1
(g6
g7
S'81007340'
p3846
tp3847
Rp3848
(dp3849
g12
VId
p3850
sbatp3851
Rp3852
(dp3853
g12
g3844
sbsVTranslationStack
p3854
g1
(g18
g19
(lp3855
g1
(g2
g3
(dp3856
g3836
g1
(g6
g7
g1607
tp3857
Rp3858
(dp3859
g12
g3836
sbsVField
p3860
g1
(g6
g7
S'Organism'
p3861
tp3862
Rp3863
(dp3864
g12
g3860
sbsVTerm
p3865
g1
(g6
g7
S'"Dentex angolensis"[Organism]'
p3866
tp3867
Rp3868
(dp3869
g12
g3865
sbsVExplode
p3870
g1
(g6
g7
g47
tp3871
Rp3872
(dp3873
g12
g3870
sbstp3874
Rp3875
(dp3876
g12
VTermSet
p3877
sbag1
(g2
g3
(dp3878
g3836
g1
(g6
g7
S'430914'
p3879
tp3880
Rp3881
(dp3882
g12
g3836
sbsg3860
g1
(g6
g7
S'All Fields'
p3883
tp3884
Rp3885
(dp3886
g12
g3860
sbsg3865
g1
(g6
g7
S'Cytb[All Fields]'
p3887
tp3888
Rp3889
(dp3890
g12
g3865
sbsg3870
g1
(g6
g7
g68
tp3891
Rp3892
(dp3893
g12
g3870
sbstp3894
Rp3895
(dp3896
g12
g3877
sbag1
(g6
g7
S'AND'
p3897
tp3898
Rp3899
(dp3900
g12
VOP
p3901
sbatp3902
Rp3903
(dp3904
g12
g3854
sbsVErrorList
p3905
g1
(g84
g3
(dp3906
VFieldNotFound
p3907
(lp3908
g1
(g6
g7
S'definition'
p3909
tp3910
Rp3911
(dp3912
g12
VFieldNotFound
p3913
sbasVPhraseNotFound
p3914
(lp3915
stp3916
Rp3917
(dp3918
g12
g3905
sg98
(lp3919
g3914
ag3907
asbsVTranslationSet
p3920
g1
(g18
g19
(lp3921
g1
(g2
g3
(dp3922
VTo
p3923
g1
(g6
g7
S'"Dentex angolensis"[Organism]'
p3924
tp3925
Rp3926
(dp3927
g12
g3923
sbsVFrom
p3928
g1
(g6
g7
S'Dentex angolensis[organism]'
p3929
tp3930
Rp3931
(dp3932
g12
g3928
sbstp3933
Rp3934
(dp3935
g12
VTranslation
p3936
sbatp3937
Rp3938
(dp3939
g12
g3920
sbsVRetStart
p3940
g1
(g6
g7
g121
tp3941
Rp3942
(dp3943
g12
g3940
sbsVQueryTranslation
p3944
g1
(g6
g7
S'"Dentex angolensis"[Organism] AND Cytb[All Fields]'
p3945
tp3946
Rp3947
(dp3948
g12
g3944
sbstp3949
Rp3950
(dp3951
g12
VeSearchResult
p3952
sbag1
(g2
g3
(dp3953
VCount
p3954
g1
(g6
g7
g8
tp3955
Rp3956
(dp3957
g12
g3954
sbsVRetMax
p3958
g1
(g6
g7
g8
tp3959
Rp3960
(dp3961
g12
g3958
sbsVIdList
p3962
g1
(g18
g19
(lp3963
g1
(g6
g7
S'81007342'
p3964
tp3965
Rp3966
(dp3967
g12
VId
p3968
sbatp3969
Rp3970
(dp3971
g12
g3962
sbsVTranslationStack
p3972
g1
(g18
g19
(lp3973
g1
(g2
g3
(dp3974
g3954
g1
(g6
g7
S'14'
p3975
tp3976
Rp3977
(dp3978
g12
g3954
sbsVField
p3979
g1
(g6
g7
S'Organism'
p3980
tp3981
Rp3982
(dp3983
g12
g3979
sbsVTerm
p3984
g1
(g6
g7
S'"Dentex canariensis"[Organism]'
p3985
tp3986
Rp3987
(dp3988
g12
g3984
sbsVExplode
p3989
g1
(g6
g7
g47
tp3990
Rp3991
(dp3992
g12
g3989
sbstp3993
Rp3994
(dp3995
g12
VTermSet
p3996
sbag1
(g2
g3
(dp3997
g3954
g1
(g6
g7
S'430914'
p3998
tp3999
Rp4000
(dp4001
g12
g3954
sbsg3979
g1
(g6
g7
S'All Fields'
p4002
tp4003
Rp4004
(dp4005
g12
g3979
sbsg3984
g1
(g6
g7
S'Cytb[All Fields]'
p4006
tp4007
Rp4008
(dp4009
g12
g3984
sbsg3989
g1
(g6
g7
g68
tp4010
Rp4011
(dp4012
g12
g3989
sbstp4013
Rp4014
(dp4015
g12
g3996
sbag1
(g6
g7
S'AND'
p4016
tp4017
Rp4018
(dp4019
g12
VOP
p4020
sbatp4021
Rp4022
(dp4023
g12
g3972
sbsVErrorList
p4024
g1
(g84
g3
(dp4025
VFieldNotFound
p4026
(lp4027
g1
(g6
g7
S'definition'
p4028
tp4029
Rp4030
(dp4031
g12
VFieldNotFound
p4032
sbasVPhraseNotFound
p4033
(lp4034
stp4035
Rp4036
(dp4037
g12
g4024
sg98
(lp4038
g4033
ag4026
asbsVTranslationSet
p4039
g1
(g18
g19
(lp4040
g1
(g2
g3
(dp4041
VTo
p4042
g1
(g6
g7
S'"Dentex canariensis"[Organism]'
p4043
tp4044
Rp4045
(dp4046
g12
g4042
sbsVFrom
p4047
g1
(g6
g7
S'Dentex canariensis[organism]'
p4048
tp4049
Rp4050
(dp4051
g12
g4047
sbstp4052
Rp4053
(dp4054
g12
VTranslation
p4055
sbatp4056
Rp4057
(dp4058
g12
g4039
sbsVRetStart
p4059
g1
(g6
g7
g121
tp4060
Rp4061
(dp4062
g12
g4059
sbsVQueryTranslation
p4063
g1
(g6
g7
S'"Dentex canariensis"[Organism] AND Cytb[All Fields]'
p4064
tp4065
Rp4066
(dp4067
g12
g4063
sbstp4068
Rp4069
(dp4070
g12
VeSearchResult
p4071
sbag1
(g2
g3
(dp4072
VCount
p4073
g1
(g6
g7
g1187
tp4074
Rp4075
(dp4076
g12
g4073
sbsVRetMax
p4077
g1
(g6
g7
g1187
tp4078
Rp4079
(dp4080
g12
g4077
sbsVIdList
p4081
g1
(g18
g19
(lp4082
g1
(g6
g7
S'125631749'
p4083
tp4084
Rp4085
(dp4086
g12
VId
p4087
sbag1
(g6
g7
S'125631747'
p4088
tp4089
Rp4090
(dp4091
g12
g4087
sbag1
(g6
g7
S'154744885'
p4092
tp4093
Rp4094
(dp4095
g12
g4087
sbag1
(g6
g7
S'154744883'
p4096
tp4097
Rp4098
(dp4099
g12
g4087
sbag1
(g6
g7
S'133924242'
p4100
tp4101
Rp4102
(dp4103
g12
g4087
sbag1
(g6
g7
S'133924240'
p4104
tp4105
Rp4106
(dp4107
g12
g4087
sbag1
(g6
g7
S'959478956'
p4108
tp4109
Rp4110
(dp4111
g12
g4087
sbag1
(g6
g7
S'5070477'
p4112
tp4113
Rp4114
(dp4115
g12
g4087
sbag1
(g6
g7
S'15209390'
p4116
tp4117
Rp4118
(dp4119
g12
g4087
sbatp4120
Rp4121
(dp4122
g12
g4081
sbsVTranslationStack
p4123
g1
(g18
g19
(lp4124
g1
(g2
g3
(dp4125
g4073
g1
(g6
g7
S'126'
p4126
tp4127
Rp4128
(dp4129
g12
g4073
sbsVField
p4130
g1
(g6
g7
S'Organism'
p4131
tp4132
Rp4133
(dp4134
g12
g4130
sbsVTerm
p4135
g1
(g6
g7
S'"Dentex dentex"[Organism]'
p4136
tp4137
Rp4138
(dp4139
g12
g4135
sbsVExplode
p4140
g1
(g6
g7
g47
tp4141
Rp4142
(dp4143
g12
g4140
sbstp4144
Rp4145
(dp4146
g12
VTermSet
p4147
sbag1
(g2
g3
(dp4148
g4073
g1
(g6
g7
S'430914'
p4149
tp4150
Rp4151
(dp4152
g12
g4073
sbsg4130
g1
(g6
g7
S'All Fields'
p4153
tp4154
Rp4155
(dp4156
g12
g4130
sbsg4135
g1
(g6
g7
S'Cytb[All Fields]'
p4157
tp4158
Rp4159
(dp4160
g12
g4135
sbsg4140
g1
(g6
g7
g68
tp4161
Rp4162
(dp4163
g12
g4140
sbstp4164
Rp4165
(dp4166
g12
g4147
sbag1
(g6
g7
S'AND'
p4167
tp4168
Rp4169
(dp4170
g12
VOP
p4171
sbatp4172
Rp4173
(dp4174
g12
g4123
sbsVErrorList
p4175
g1
(g84
g3
(dp4176
VFieldNotFound
p4177
(lp4178
g1
(g6
g7
S'definition'
p4179
tp4180
Rp4181
(dp4182
g12
VFieldNotFound
p4183
sbasVPhraseNotFound
p4184
(lp4185
stp4186
Rp4187
(dp4188
g12
g4175
sg98
(lp4189
g4184
ag4177
asbsVTranslationSet
p4190
g1
(g18
g19
(lp4191
g1
(g2
g3
(dp4192
VTo
p4193
g1
(g6
g7
S'"Dentex dentex"[Organism]'
p4194
tp4195
Rp4196
(dp4197
g12
g4193
sbsVFrom
p4198
g1
(g6
g7
S'Dentex dentex[organism]'
p4199
tp4200
Rp4201
(dp4202
g12
g4198
sbstp4203
Rp4204
(dp4205
g12
VTranslation
p4206
sbatp4207
Rp4208
(dp4209
g12
g4190
sbsVRetStart
p4210
g1
(g6
g7
g121
tp4211
Rp4212
(dp4213
g12
g4210
sbsVQueryTranslation
p4214
g1
(g6
g7
S'"Dentex dentex"[Organism] AND Cytb[All Fields]'
p4215
tp4216
Rp4217
(dp4218
g12
g4214
sbstp4219
Rp4220
(dp4221
g12
VeSearchResult
p4222
sbag1
(g2
g3
(dp4223
VCount
p4224
g1
(g6
g7
g1706
tp4225
Rp4226
(dp4227
g12
g4224
sbsVRetMax
p4228
g1
(g6
g7
g1706
tp4229
Rp4230
(dp4231
g12
g4228
sbsVIdList
p4232
g1
(g18
g19
(lp4233
g1
(g6
g7
S'81007344'
p4234
tp4235
Rp4236
(dp4237
g12
VId
p4238
sbag1
(g6
g7
S'133923706'
p4239
tp4240
Rp4241
(dp4242
g12
g4238
sbag1
(g6
g7
S'133923602'
p4243
tp4244
Rp4245
(dp4246
g12
g4238
sbatp4247
Rp4248
(dp4249
g12
g4232
sbsVTranslationStack
p4250
g1
(g18
g19
(lp4251
g1
(g2
g3
(dp4252
g4224
g1
(g6
g7
S'13'
p4253
tp4254
Rp4255
(dp4256
g12
g4224
sbsVField
p4257
g1
(g6
g7
S'Organism'
p4258
tp4259
Rp4260
(dp4261
g12
g4257
sbsVTerm
p4262
g1
(g6
g7
S'"Dentex gibbosus"[Organism]'
p4263
tp4264
Rp4265
(dp4266
g12
g4262
sbsVExplode
p4267
g1
(g6
g7
g47
tp4268
Rp4269
(dp4270
g12
g4267
sbstp4271
Rp4272
(dp4273
g12
VTermSet
p4274
sbag1
(g2
g3
(dp4275
g4224
g1
(g6
g7
S'430914'
p4276
tp4277
Rp4278
(dp4279
g12
g4224
sbsg4257
g1
(g6
g7
S'All Fields'
p4280
tp4281
Rp4282
(dp4283
g12
g4257
sbsg4262
g1
(g6
g7
S'Cytb[All Fields]'
p4284
tp4285
Rp4286
(dp4287
g12
g4262
sbsg4267
g1
(g6
g7
g68
tp4288
Rp4289
(dp4290
g12
g4267
sbstp4291
Rp4292
(dp4293
g12
g4274
sbag1
(g6
g7
S'AND'
p4294
tp4295
Rp4296
(dp4297
g12
VOP
p4298
sbatp4299
Rp4300
(dp4301
g12
g4250
sbsVErrorList
p4302
g1
(g84
g3
(dp4303
VFieldNotFound
p4304
(lp4305
g1
(g6
g7
S'definition'
p4306
tp4307
Rp4308
(dp4309
g12
VFieldNotFound
p4310
sbasVPhraseNotFound
p4311
(lp4312
stp4313
Rp4314
(dp4315
g12
g4302
sg98
(lp4316
g4311
ag4304
asbsVTranslationSet
p4317
g1
(g18
g19
(lp4318
g1
(g2
g3
(dp4319
VTo
p4320
g1
(g6
g7
S'"Dentex gibbosus"[Organism]'
p4321
tp4322
Rp4323
(dp4324
g12
g4320
sbsVFrom
p4325
g1
(g6
g7
S'Dentex gibbosus[organism]'
p4326
tp4327
Rp4328
(dp4329
g12
g4325
sbstp4330
Rp4331
(dp4332
g12
VTranslation
p4333
sbatp4334
Rp4335
(dp4336
g12
g4317
sbsVRetStart
p4337
g1
(g6
g7
g121
tp4338
Rp4339
(dp4340
g12
g4337
sbsVQueryTranslation
p4341
g1
(g6
g7
S'"Dentex gibbosus"[Organism] AND Cytb[All Fields]'
p4342
tp4343
Rp4344
(dp4345
g12
g4341
sbstp4346
Rp4347
(dp4348
g12
VeSearchResult
p4349
sbag1
(g2
g3
(dp4350
VCount
p4351
g1
(g6
g7
g8
tp4352
Rp4353
(dp4354
g12
g4351
sbsVRetMax
p4355
g1
(g6
g7
g8
tp4356
Rp4357
(dp4358
g12
g4355
sbsVIdList
p4359
g1
(g18
g19
(lp4360
g1
(g6
g7
S'251733260'
p4361
tp4362
Rp4363
(dp4364
g12
VId
p4365
sbatp4366
Rp4367
(dp4368
g12
g4359
sbsVTranslationStack
p4369
g1
(g18
g19
(lp4370
g1
(g2
g3
(dp4371
g4351
g1
(g6
g7
S'15'
p4372
tp4373
Rp4374
(dp4375
g12
g4351
sbsVField
p4376
g1
(g6
g7
S'Organism'
p4377
tp4378
Rp4379
(dp4380
g12
g4376
sbsVTerm
p4381
g1
(g6
g7
S'"Dentex hypselosomus"[Organism]'
p4382
tp4383
Rp4384
(dp4385
g12
g4381
sbsVExplode
p4386
g1
(g6
g7
g47
tp4387
Rp4388
(dp4389
g12
g4386
sbstp4390
Rp4391
(dp4392
g12
VTermSet
p4393
sbag1
(g2
g3
(dp4394
g4351
g1
(g6
g7
S'430914'
p4395
tp4396
Rp4397
(dp4398
g12
g4351
sbsg4376
g1
(g6
g7
S'All Fields'
p4399
tp4400
Rp4401
(dp4402
g12
g4376
sbsg4381
g1
(g6
g7
S'Cytb[All Fields]'
p4403
tp4404
Rp4405
(dp4406
g12
g4381
sbsg4386
g1
(g6
g7
g68
tp4407
Rp4408
(dp4409
g12
g4386
sbstp4410
Rp4411
(dp4412
g12
g4393
sbag1
(g6
g7
S'AND'
p4413
tp4414
Rp4415
(dp4416
g12
VOP
p4417
sbatp4418
Rp4419
(dp4420
g12
g4369
sbsVErrorList
p4421
g1
(g84
g3
(dp4422
VFieldNotFound
p4423
(lp4424
g1
(g6
g7
S'definition'
p4425
tp4426
Rp4427
(dp4428
g12
VFieldNotFound
p4429
sbasVPhraseNotFound
p4430
(lp4431
stp4432
Rp4433
(dp4434
g12
g4421
sg98
(lp4435
g4430
ag4423
asbsVTranslationSet
p4436
g1
(g18
g19
(lp4437
g1
(g2
g3
(dp4438
VTo
p4439
g1
(g6
g7
S'"Dentex hypselosomus"[Organism]'
p4440
tp4441
Rp4442
(dp4443
g12
g4439
sbsVFrom
p4444
g1
(g6
g7
S'Dentex hypselosomus[organism]'
p4445
tp4446
Rp4447
(dp4448
g12
g4444
sbstp4449
Rp4450
(dp4451
g12
VTranslation
p4452
sbatp4453
Rp4454
(dp4455
g12
g4436
sbsVRetStart
p4456
g1
(g6
g7
g121
tp4457
Rp4458
(dp4459
g12
g4456
sbsVQueryTranslation
p4460
g1
(g6
g7
S'"Dentex hypselosomus"[Organism] AND Cytb[All Fields]'
p4461
tp4462
Rp4463
(dp4464
g12
g4460
sbstp4465
Rp4466
(dp4467
g12
VeSearchResult
p4468
sbag1
(g2
g3
(dp4469
VCount
p4470
g1
(g6
g7
g1706
tp4471
Rp4472
(dp4473
g12
g4470
sbsVRetMax
p4474
g1
(g6
g7
g1706
tp4475
Rp4476
(dp4477
g12
g4474
sbsVIdList
p4478
g1
(g18
g19
(lp4479
g1
(g6
g7
S'134154690'
p4480
tp4481
Rp4482
(dp4483
g12
VId
p4484
sbag1
(g6
g7
S'134154688'
p4485
tp4486
Rp4487
(dp4488
g12
g4484
sbag1
(g6
g7
S'125631751'
p4489
tp4490
Rp4491
(dp4492
g12
g4484
sbatp4493
Rp4494
(dp4495
g12
g4478
sbsVTranslationStack
p4496
g1
(g18
g19
(lp4497
g1
(g2
g3
(dp4498
g4470
g1
(g6
g7
S'37'
p4499
tp4500
Rp4501
(dp4502
g12
g4470
sbsVField
p4503
g1
(g6
g7
S'Organism'
p4504
tp4505
Rp4506
(dp4507
g12
g4503
sbsVTerm
p4508
g1
(g6
g7
S'"Dentex macrophthalmus"[Organism]'
p4509
tp4510
Rp4511
(dp4512
g12
g4508
sbsVExplode
p4513
g1
(g6
g7
g47
tp4514
Rp4515
(dp4516
g12
g4513
sbstp4517
Rp4518
(dp4519
g12
VTermSet
p4520
sbag1
(g2
g3
(dp4521
g4470
g1
(g6
g7
S'430914'
p4522
tp4523
Rp4524
(dp4525
g12
g4470
sbsg4503
g1
(g6
g7
S'All Fields'
p4526
tp4527
Rp4528
(dp4529
g12
g4503
sbsg4508
g1
(g6
g7
S'Cytb[All Fields]'
p4530
tp4531
Rp4532
(dp4533
g12
g4508
sbsg4513
g1
(g6
g7
g68
tp4534
Rp4535
(dp4536
g12
g4513
sbstp4537
Rp4538
(dp4539
g12
g4520
sbag1
(g6
g7
S'AND'
p4540
tp4541
Rp4542
(dp4543
g12
VOP
p4544
sbatp4545
Rp4546
(dp4547
g12
g4496
sbsVErrorList
p4548
g1
(g84
g3
(dp4549
VFieldNotFound
p4550
(lp4551
g1
(g6
g7
S'definition'
p4552
tp4553
Rp4554
(dp4555
g12
VFieldNotFound
p4556
sbasVPhraseNotFound
p4557
(lp4558
stp4559
Rp4560
(dp4561
g12
g4548
sg98
(lp4562
g4557
ag4550
asbsVTranslationSet
p4563
g1
(g18
g19
(lp4564
g1
(g2
g3
(dp4565
VTo
p4566
g1
(g6
g7
S'"Dentex macrophthalmus"[Organism]'
p4567
tp4568
Rp4569
(dp4570
g12
g4566
sbsVFrom
p4571
g1
(g6
g7
S'Dentex macrophthalmus[organism]'
p4572
tp4573
Rp4574
(dp4575
g12
g4571
sbstp4576
Rp4577
(dp4578
g12
VTranslation
p4579
sbatp4580
Rp4581
(dp4582
g12
g4563
sbsVRetStart
p4583
g1
(g6
g7
g121
tp4584
Rp4585
(dp4586
g12
g4583
sbsVQueryTranslation
p4587
g1
(g6
g7
S'"Dentex macrophthalmus"[Organism] AND Cytb[All Fields]'
p4588
tp4589
Rp4590
(dp4591
g12
g4587
sbstp4592
Rp4593
(dp4594
g12
VeSearchResult
p4595
sbag1
(g2
g3
(dp4596
VCount
p4597
g1
(g6
g7
g8
tp4598
Rp4599
(dp4600
g12
g4597
sbsVRetMax
p4601
g1
(g6
g7
g8
tp4602
Rp4603
(dp4604
g12
g4601
sbsVIdList
p4605
g1
(g18
g19
(lp4606
g1
(g6
g7
S'81007346'
p4607
tp4608
Rp4609
(dp4610
g12
VId
p4611
sbatp4612
Rp4613
(dp4614
g12
g4605
sbsVTranslationStack
p4615
g1
(g18
g19
(lp4616
g1
(g2
g3
(dp4617
g4597
g1
(g6
g7
S'6'
p4618
tp4619
Rp4620
(dp4621
g12
g4597
sbsVField
p4622
g1
(g6
g7
S'Organism'
p4623
tp4624
Rp4625
(dp4626
g12
g4622
sbsVTerm
p4627
g1
(g6
g7
S'"Dentex maroccanus"[Organism]'
p4628
tp4629
Rp4630
(dp4631
g12
g4627
sbsVExplode
p4632
g1
(g6
g7
g47
tp4633
Rp4634
(dp4635
g12
g4632
sbstp4636
Rp4637
(dp4638
g12
VTermSet
p4639
sbag1
(g2
g3
(dp4640
g4597
g1
(g6
g7
S'430914'
p4641
tp4642
Rp4643
(dp4644
g12
g4597
sbsg4622
g1
(g6
g7
S'All Fields'
p4645
tp4646
Rp4647
(dp4648
g12
g4622
sbsg4627
g1
(g6
g7
S'Cytb[All Fields]'
p4649
tp4650
Rp4651
(dp4652
g12
g4627
sbsg4632
g1
(g6
g7
g68
tp4653
Rp4654
(dp4655
g12
g4632
sbstp4656
Rp4657
(dp4658
g12
g4639
sbag1
(g6
g7
S'AND'
p4659
tp4660
Rp4661
(dp4662
g12
VOP
p4663
sbatp4664
Rp4665
(dp4666
g12
g4615
sbsVErrorList
p4667
g1
(g84
g3
(dp4668
VFieldNotFound
p4669
(lp4670
g1
(g6
g7
S'definition'
p4671
tp4672
Rp4673
(dp4674
g12
VFieldNotFound
p4675
sbasVPhraseNotFound
p4676
(lp4677
stp4678
Rp4679
(dp4680
g12
g4667
sg98
(lp4681
g4676
ag4669
asbsVTranslationSet
p4682
g1
(g18
g19
(lp4683
g1
(g2
g3
(dp4684
VTo
p4685
g1
(g6
g7
S'"Dentex maroccanus"[Organism]'
p4686
tp4687
Rp4688
(dp4689
g12
g4685
sbsVFrom
p4690
g1
(g6
g7
S'Dentex maroccanus[organism]'
p4691
tp4692
Rp4693
(dp4694
g12
g4690
sbstp4695
Rp4696
(dp4697
g12
VTranslation
p4698
sbatp4699
Rp4700
(dp4701
g12
g4682
sbsVRetStart
p4702
g1
(g6
g7
g121
tp4703
Rp4704
(dp4705
g12
g4702
sbsVQueryTranslation
p4706
g1
(g6
g7
S'"Dentex maroccanus"[Organism] AND Cytb[All Fields]'
p4707
tp4708
Rp4709
(dp4710
g12
g4706
sbstp4711
Rp4712
(dp4713
g12
VeSearchResult
p4714
sbag1
(g2
g3
(dp4715
VCount
p4716
g1
(g6
g7
S'16'
p4717
tp4718
Rp4719
(dp4720
g12
g4716
sbsVRetMax
p4721
g1
(g6
g7
S'16'
p4722
tp4723
Rp4724
(dp4725
g12
g4721
sbsVIdList
p4726
g1
(g18
g19
(lp4727
g1
(g6
g7
S'1050990017'
p4728
tp4729
Rp4730
(dp4731
g12
VId
p4732
sbag1
(g6
g7
S'1050990015'
p4733
tp4734
Rp4735
(dp4736
g12
g4732
sbag1
(g6
g7
S'1050990013'
p4737
tp4738
Rp4739
(dp4740
g12
g4732
sbag1
(g6
g7
S'1050990011'
p4741
tp4742
Rp4743
(dp4744
g12
g4732
sbag1
(g6
g7
S'1050990009'
p4745
tp4746
Rp4747
(dp4748
g12
g4732
sbag1
(g6
g7
S'1050990007'
p4749
tp4750
Rp4751
(dp4752
g12
g4732
sbag1
(g6
g7
S'1050990005'
p4753
tp4754
Rp4755
(dp4756
g12
g4732
sbag1
(g6
g7
S'1050990003'
p4757
tp4758
Rp4759
(dp4760
g12
g4732
sbag1
(g6
g7
S'1050990001'
p4761
tp4762
Rp4763
(dp4764
g12
g4732
sbag1
(g6
g7
S'1050989999'
p4765
tp4766
Rp4767
(dp4768
g12
g4732
sbag1
(g6
g7
S'1050989997'
p4769
tp4770
Rp4771
(dp4772
g12
g4732
sbag1
(g6
g7
S'13183232'
p4773
tp4774
Rp4775
(dp4776
g12
g4732
sbag1
(g6
g7
S'13183198'
p4777
tp4778
Rp4779
(dp4780
g12
g4732
sbag1
(g6
g7
S'251733262'
p4781
tp4782
Rp4783
(dp4784
g12
g4732
sbag1
(g6
g7
S'1002166019'
p4785
tp4786
Rp4787
(dp4788
g12
g4732
sbag1
(g6
g7
S'988047756'
p4789
tp4790
Rp4791
(dp4792
g12
g4732
sbatp4793
Rp4794
(dp4795
g12
g4726
sbsVTranslationStack
p4796
g1
(g18
g19
(lp4797
g1
(g2
g3
(dp4798
g4716
g1
(g6
g7
S'39'
p4799
tp4800
Rp4801
(dp4802
g12
g4716
sbsVField
p4803
g1
(g6
g7
S'Organism'
p4804
tp4805
Rp4806
(dp4807
g12
g4803
sbsVTerm
p4808
g1
(g6
g7
S'"Dentex tumifrons"[Organism]'
p4809
tp4810
Rp4811
(dp4812
g12
g4808
sbsVExplode
p4813
g1
(g6
g7
g47
tp4814
Rp4815
(dp4816
g12
g4813
sbstp4817
Rp4818
(dp4819
g12
VTermSet
p4820
sbag1
(g2
g3
(dp4821
g4716
g1
(g6
g7
S'430914'
p4822
tp4823
Rp4824
(dp4825
g12
g4716
sbsg4803
g1
(g6
g7
S'All Fields'
p4826
tp4827
Rp4828
(dp4829
g12
g4803
sbsg4808
g1
(g6
g7
S'Cytb[All Fields]'
p4830
tp4831
Rp4832
(dp4833
g12
g4808
sbsg4813
g1
(g6
g7
g68
tp4834
Rp4835
(dp4836
g12
g4813
sbstp4837
Rp4838
(dp4839
g12
g4820
sbag1
(g6
g7
S'AND'
p4840
tp4841
Rp4842
(dp4843
g12
VOP
p4844
sbatp4845
Rp4846
(dp4847
g12
g4796
sbsVErrorList
p4848
g1
(g84
g3
(dp4849
VFieldNotFound
p4850
(lp4851
g1
(g6
g7
S'definition'
p4852
tp4853
Rp4854
(dp4855
g12
VFieldNotFound
p4856
sbasVPhraseNotFound
p4857
(lp4858
stp4859
Rp4860
(dp4861
g12
g4848
sg98
(lp4862
g4857
ag4850
asbsVTranslationSet
p4863
g1
(g18
g19
(lp4864
g1
(g2
g3
(dp4865
VTo
p4866
g1
(g6
g7
S'"Dentex tumifrons"[Organism]'
p4867
tp4868
Rp4869
(dp4870
g12
g4866
sbsVFrom
p4871
g1
(g6
g7
S'Dentex tumifrons[organism]'
p4872
tp4873
Rp4874
(dp4875
g12
g4871
sbstp4876
Rp4877
(dp4878
g12
VTranslation
p4879
sbatp4880
Rp4881
(dp4882
g12
g4863
sbsVRetStart
p4883
g1
(g6
g7
g121
tp4884
Rp4885
(dp4886
g12
g4883
sbsVQueryTranslation
p4887
g1
(g6
g7
S'"Dentex tumifrons"[Organism] AND Cytb[All Fields]'
p4888
tp4889
Rp4890
(dp4891
g12
g4887
sbstp4892
Rp4893
(dp4894
g12
VeSearchResult
p4895
sbag1
(g2
g3
(dp4896
VCount
p4897
g1
(g6
g7
g353
tp4898
Rp4899
(dp4900
g12
g4897
sbsVRetMax
p4901
g1
(g6
g7
g353
tp4902
Rp4903
(dp4904
g12
g4901
sbsVIdList
p4905
g1
(g18
g19
(lp4906
g1
(g6
g7
S'125631755'
p4907
tp4908
Rp4909
(dp4910
g12
VId
p4911
sbag1
(g6
g7
S'125631753'
p4912
tp4913
Rp4914
(dp4915
g12
g4911
sbag1
(g6
g7
S'154744893'
p4916
tp4917
Rp4918
(dp4919
g12
g4911
sbag1
(g6
g7
S'154744891'
p4920
tp4921
Rp4922
(dp4923
g12
g4911
sbag1
(g6
g7
S'133924250'
p4924
tp4925
Rp4926
(dp4927
g12
g4911
sbag1
(g6
g7
S'133924248'
p4928
tp4929
Rp4930
(dp4931
g12
g4911
sbag1
(g6
g7
S'959478940'
p4932
tp4933
Rp4934
(dp4935
g12
g4911
sbag1
(g6
g7
S'10800811'
p4936
tp4937
Rp4938
(dp4939
g12
g4911
sbatp4940
Rp4941
(dp4942
g12
g4905
sbsVTranslationStack
p4943
g1
(g18
g19
(lp4944
g1
(g2
g3
(dp4945
g4897
g1
(g6
g7
S'74'
p4946
tp4947
Rp4948
(dp4949
g12
g4897
sbsVField
p4950
g1
(g6
g7
S'Organism'
p4951
tp4952
Rp4953
(dp4954
g12
g4950
sbsVTerm
p4955
g1
(g6
g7
S'"Diplodus annularis"[Organism]'
p4956
tp4957
Rp4958
(dp4959
g12
g4955
sbsVExplode
p4960
g1
(g6
g7
g47
tp4961
Rp4962
(dp4963
g12
g4960
sbstp4964
Rp4965
(dp4966
g12
VTermSet
p4967
sbag1
(g2
g3
(dp4968
g4897
g1
(g6
g7
S'430914'
p4969
tp4970
Rp4971
(dp4972
g12
g4897
sbsg4950
g1
(g6
g7
S'All Fields'
p4973
tp4974
Rp4975
(dp4976
g12
g4950
sbsg4955
g1
(g6
g7
S'Cytb[All Fields]'
p4977
tp4978
Rp4979
(dp4980
g12
g4955
sbsg4960
g1
(g6
g7
g68
tp4981
Rp4982
(dp4983
g12
g4960
sbstp4984
Rp4985
(dp4986
g12
g4967
sbag1
(g6
g7
S'AND'
p4987
tp4988
Rp4989
(dp4990
g12
VOP
p4991
sbatp4992
Rp4993
(dp4994
g12
g4943
sbsVErrorList
p4995
g1
(g84
g3
(dp4996
VFieldNotFound
p4997
(lp4998
g1
(g6
g7
S'definition'
p4999
tp5000
Rp5001
(dp5002
g12
VFieldNotFound
p5003
sbasVPhraseNotFound
p5004
(lp5005
stp5006
Rp5007
(dp5008
g12
g4995
sg98
(lp5009
g5004
ag4997
asbsVTranslationSet
p5010
g1
(g18
g19
(lp5011
g1
(g2
g3
(dp5012
VTo
p5013
g1
(g6
g7
S'"Diplodus annularis"[Organism]'
p5014
tp5015
Rp5016
(dp5017
g12
g5013
sbsVFrom
p5018
g1
(g6
g7
S'Diplodus annularis[organism]'
p5019
tp5020
Rp5021
(dp5022
g12
g5018
sbstp5023
Rp5024
(dp5025
g12
VTranslation
p5026
sbatp5027
Rp5028
(dp5029
g12
g5010
sbsVRetStart
p5030
g1
(g6
g7
g121
tp5031
Rp5032
(dp5033
g12
g5030
sbsVQueryTranslation
p5034
g1
(g6
g7
S'"Diplodus annularis"[Organism] AND Cytb[All Fields]'
p5035
tp5036
Rp5037
(dp5038
g12
g5034
sbstp5039
Rp5040
(dp5041
g12
VeSearchResult
p5042
sbag1
(g2
g3
(dp5043
VCount
p5044
g1
(g6
g7
g1582
tp5045
Rp5046
(dp5047
g12
g5044
sbsVRetMax
p5048
g1
(g6
g7
g1582
tp5049
Rp5050
(dp5051
g12
g5048
sbsVIdList
p5052
g1
(g18
g19
(lp5053
g1
(g6
g7
S'13183226'
p5054
tp5055
Rp5056
(dp5057
g12
VId
p5058
sbag1
(g6
g7
S'959478942'
p5059
tp5060
Rp5061
(dp5062
g12
g5058
sbatp5063
Rp5064
(dp5065
g12
g5052
sbsVTranslationStack
p5066
g1
(g18
g19
(lp5067
g1
(g2
g3
(dp5068
g5044
g1
(g6
g7
g1187
tp5069
Rp5070
(dp5071
g12
g5044
sbsVField
p5072
g1
(g6
g7
S'Organism'
p5073
tp5074
Rp5075
(dp5076
g12
g5072
sbsVTerm
p5077
g1
(g6
g7
S'"Diplodus bermudensis"[Organism]'
p5078
tp5079
Rp5080
(dp5081
g12
g5077
sbsVExplode
p5082
g1
(g6
g7
g47
tp5083
Rp5084
(dp5085
g12
g5082
sbstp5086
Rp5087
(dp5088
g12
VTermSet
p5089
sbag1
(g2
g3
(dp5090
g5044
g1
(g6
g7
S'430914'
p5091
tp5092
Rp5093
(dp5094
g12
g5044
sbsg5072
g1
(g6
g7
S'All Fields'
p5095
tp5096
Rp5097
(dp5098
g12
g5072
sbsg5077
g1
(g6
g7
S'Cytb[All Fields]'
p5099
tp5100
Rp5101
(dp5102
g12
g5077
sbsg5082
g1
(g6
g7
g68
tp5103
Rp5104
(dp5105
g12
g5082
sbstp5106
Rp5107
(dp5108
g12
g5089
sbag1
(g6
g7
S'AND'
p5109
tp5110
Rp5111
(dp5112
g12
VOP
p5113
sbatp5114
Rp5115
(dp5116
g12
g5066
sbsVErrorList
p5117
g1
(g84
g3
(dp5118
VFieldNotFound
p5119
(lp5120
g1
(g6
g7
S'definition'
p5121
tp5122
Rp5123
(dp5124
g12
VFieldNotFound
p5125
sbasVPhraseNotFound
p5126
(lp5127
stp5128
Rp5129
(dp5130
g12
g5117
sg98
(lp5131
g5126
ag5119
asbsVTranslationSet
p5132
g1
(g18
g19
(lp5133
g1
(g2
g3
(dp5134
VTo
p5135
g1
(g6
g7
S'"Diplodus bermudensis"[Organism]'
p5136
tp5137
Rp5138
(dp5139
g12
g5135
sbsVFrom
p5140
g1
(g6
g7
S'Diplodus bermudensis[organism]'
p5141
tp5142
Rp5143
(dp5144
g12
g5140
sbstp5145
Rp5146
(dp5147
g12
VTranslation
p5148
sbatp5149
Rp5150
(dp5151
g12
g5132
sbsVRetStart
p5152
g1
(g6
g7
g121
tp5153
Rp5154
(dp5155
g12
g5152
sbsVQueryTranslation
p5156
g1
(g6
g7
S'"Diplodus bermudensis"[Organism] AND Cytb[All Fields]'
p5157
tp5158
Rp5159
(dp5160
g12
g5156
sbstp5161
Rp5162
(dp5163
g12
VeSearchResult
p5164
sbag1
(g2
g3
(dp5165
VCount
p5166
g1
(g6
g7
g1187
tp5167
Rp5168
(dp5169
g12
g5166
sbsVRetMax
p5170
g1
(g6
g7
g1187
tp5171
Rp5172
(dp5173
g12
g5170
sbsVIdList
p5174
g1
(g18
g19
(lp5175
g1
(g6
g7
S'81007352'
p5176
tp5177
Rp5178
(dp5179
g12
VId
p5180
sbag1
(g6
g7
S'134154698'
p5181
tp5182
Rp5183
(dp5184
g12
g5180
sbag1
(g6
g7
S'134154696'
p5185
tp5186
Rp5187
(dp5188
g12
g5180
sbag1
(g6
g7
S'125631759'
p5189
tp5190
Rp5191
(dp5192
g12
g5180
sbag1
(g6
g7
S'125631757'
p5193
tp5194
Rp5195
(dp5196
g12
g5180
sbag1
(g6
g7
S'13183228'
p5197
tp5198
Rp5199
(dp5200
g12
g5180
sbag1
(g6
g7
S'133923606'
p5201
tp5202
Rp5203
(dp5204
g12
g5180
sbag1
(g6
g7
S'133923604'
p5205
tp5206
Rp5207
(dp5208
g12
g5180
sbag1
(g6
g7
S'10800825'
p5209
tp5210
Rp5211
(dp5212
g12
g5180
sbatp5213
Rp5214
(dp5215
g12
g5174
sbsVTranslationStack
p5216
g1
(g18
g19
(lp5217
g1
(g2
g3
(dp5218
g5166
g1
(g6
g7
S'52'
p5219
tp5220
Rp5221
(dp5222
g12
g5166
sbsVField
p5223
g1
(g6
g7
S'Organism'
p5224
tp5225
Rp5226
(dp5227
g12
g5223
sbsVTerm
p5228
g1
(g6
g7
S'"Diplodus cervinus"[Organism]'
p5229
tp5230
Rp5231
(dp5232
g12
g5228
sbsVExplode
p5233
g1
(g6
g7
g47
tp5234
Rp5235
(dp5236
g12
g5233
sbstp5237
Rp5238
(dp5239
g12
VTermSet
p5240
sbag1
(g2
g3
(dp5241
g5166
g1
(g6
g7
S'430914'
p5242
tp5243
Rp5244
(dp5245
g12
g5166
sbsg5223
g1
(g6
g7
S'All Fields'
p5246
tp5247
Rp5248
(dp5249
g12
g5223
sbsg5228
g1
(g6
g7
S'Cytb[All Fields]'
p5250
tp5251
Rp5252
(dp5253
g12
g5228
sbsg5233
g1
(g6
g7
g68
tp5254
Rp5255
(dp5256
g12
g5233
sbstp5257
Rp5258
(dp5259
g12
g5240
sbag1
(g6
g7
S'AND'
p5260
tp5261
Rp5262
(dp5263
g12
VOP
p5264
sbatp5265
Rp5266
(dp5267
g12
g5216
sbsVErrorList
p5268
g1
(g84
g3
(dp5269
VFieldNotFound
p5270
(lp5271
g1
(g6
g7
S'definition'
p5272
tp5273
Rp5274
(dp5275
g12
VFieldNotFound
p5276
sbasVPhraseNotFound
p5277
(lp5278
stp5279
Rp5280
(dp5281
g12
g5268
sg98
(lp5282
g5277
ag5270
asbsVTranslationSet
p5283
g1
(g18
g19
(lp5284
g1
(g2
g3
(dp5285
VTo
p5286
g1
(g6
g7
S'"Diplodus cervinus"[Organism]'
p5287
tp5288
Rp5289
(dp5290
g12
g5286
sbsVFrom
p5291
g1
(g6
g7
S'Diplodus cervinus[organism]'
p5292
tp5293
Rp5294
(dp5295
g12
g5291
sbstp5296
Rp5297
(dp5298
g12
VTranslation
p5299
sbatp5300
Rp5301
(dp5302
g12
g5283
sbsVRetStart
p5303
g1
(g6
g7
g121
tp5304
Rp5305
(dp5306
g12
g5303
sbsVQueryTranslation
p5307
g1
(g6
g7
S'"Diplodus cervinus"[Organism] AND Cytb[All Fields]'
p5308
tp5309
Rp5310
(dp5311
g12
g5307
sbstp5312
Rp5313
(dp5314
g12
VeSearchResult
p5315
sbag1
(g2
g3
(dp5316
VCount
p5317
g1
(g6
g7
g8
tp5318
Rp5319
(dp5320
g12
g5317
sbsVRetMax
p5321
g1
(g6
g7
g8
tp5322
Rp5323
(dp5324
g12
g5321
sbsVIdList
p5325
g1
(g18
g19
(lp5326
g1
(g6
g7
S'13183230'
p5327
tp5328
Rp5329
(dp5330
g12
VId
p5331
sbatp5332
Rp5333
(dp5334
g12
g5325
sbsVTranslationStack
p5335
g1
(g18
g19
(lp5336
g1
(g2
g3
(dp5337
g5317
g1
(g6
g7
S'16'
p5338
tp5339
Rp5340
(dp5341
g12
g5317
sbsVField
p5342
g1
(g6
g7
S'Organism'
p5343
tp5344
Rp5345
(dp5346
g12
g5342
sbsVTerm
p5347
g1
(g6
g7
S'"Diplodus holbrookii"[Organism]'
p5348
tp5349
Rp5350
(dp5351
g12
g5347
sbsVExplode
p5352
g1
(g6
g7
g47
tp5353
Rp5354
(dp5355
g12
g5352
sbstp5356
Rp5357
(dp5358
g12
VTermSet
p5359
sbag1
(g2
g3
(dp5360
g5317
g1
(g6
g7
S'430914'
p5361
tp5362
Rp5363
(dp5364
g12
g5317
sbsg5342
g1
(g6
g7
S'All Fields'
p5365
tp5366
Rp5367
(dp5368
g12
g5342
sbsg5347
g1
(g6
g7
S'Cytb[All Fields]'
p5369
tp5370
Rp5371
(dp5372
g12
g5347
sbsg5352
g1
(g6
g7
g68
tp5373
Rp5374
(dp5375
g12
g5352
sbstp5376
Rp5377
(dp5378
g12
g5359
sbag1
(g6
g7
S'AND'
p5379
tp5380
Rp5381
(dp5382
g12
VOP
p5383
sbatp5384
Rp5385
(dp5386
g12
g5335
sbsVErrorList
p5387
g1
(g84
g3
(dp5388
VFieldNotFound
p5389
(lp5390
g1
(g6
g7
S'definition'
p5391
tp5392
Rp5393
(dp5394
g12
VFieldNotFound
p5395
sbasVPhraseNotFound
p5396
(lp5397
stp5398
Rp5399
(dp5400
g12
g5387
sg98
(lp5401
g5396
ag5389
asbsVTranslationSet
p5402
g1
(g18
g19
(lp5403
g1
(g2
g3
(dp5404
VTo
p5405
g1
(g6
g7
S'"Diplodus holbrookii"[Organism]'
p5406
tp5407
Rp5408
(dp5409
g12
g5405
sbsVFrom
p5410
g1
(g6
g7
S'Diplodus holbrookii[organism]'
p5411
tp5412
Rp5413
(dp5414
g12
g5410
sbstp5415
Rp5416
(dp5417
g12
VTranslation
p5418
sbatp5419
Rp5420
(dp5421
g12
g5402
sbsVRetStart
p5422
g1
(g6
g7
g121
tp5423
Rp5424
(dp5425
g12
g5422
sbsVQueryTranslation
p5426
g1
(g6
g7
S'"Diplodus holbrookii"[Organism] AND Cytb[All Fields]'
p5427
tp5428
Rp5429
(dp5430
g12
g5426
sbstp5431
Rp5432
(dp5433
g12
VeSearchResult
p5434
sbag1
(g2
g3
(dp5435
VCount
p5436
g1
(g6
g7
g1607
tp5437
Rp5438
(dp5439
g12
g5436
sbsVRetMax
p5440
g1
(g6
g7
g1607
tp5441
Rp5442
(dp5443
g12
g5440
sbsVIdList
p5444
g1
(g18
g19
(lp5445
g1
(g6
g7
S'134154702'
p5446
tp5447
Rp5448
(dp5449
g12
VId
p5450
sbag1
(g6
g7
S'134154700'
p5451
tp5452
Rp5453
(dp5454
g12
g5450
sbag1
(g6
g7
S'125631763'
p5455
tp5456
Rp5457
(dp5458
g12
g5450
sbag1
(g6
g7
S'125631761'
p5459
tp5460
Rp5461
(dp5462
g12
g5450
sbag1
(g6
g7
S'154744897'
p5463
tp5464
Rp5465
(dp5466
g12
g5450
sbag1
(g6
g7
S'154744895'
p5467
tp5468
Rp5469
(dp5470
g12
g5450
sbag1
(g6
g7
S'10800827'
p5471
tp5472
Rp5473
(dp5474
g12
g5450
sbatp5475
Rp5476
(dp5477
g12
g5444
sbsVTranslationStack
p5478
g1
(g18
g19
(lp5479
g1
(g2
g3
(dp5480
g5436
g1
(g6
g7
S'163'
p5481
tp5482
Rp5483
(dp5484
g12
g5436
sbsVField
p5485
g1
(g6
g7
S'Organism'
p5486
tp5487
Rp5488
(dp5489
g12
g5485
sbsVTerm
p5490
g1
(g6
g7
S'"Diplodus puntazzo"[Organism]'
p5491
tp5492
Rp5493
(dp5494
g12
g5490
sbsVExplode
p5495
g1
(g6
g7
g47
tp5496
Rp5497
(dp5498
g12
g5495
sbstp5499
Rp5500
(dp5501
g12
VTermSet
p5502
sbag1
(g2
g3
(dp5503
g5436
g1
(g6
g7
S'430914'
p5504
tp5505
Rp5506
(dp5507
g12
g5436
sbsg5485
g1
(g6
g7
S'All Fields'
p5508
tp5509
Rp5510
(dp5511
g12
g5485
sbsg5490
g1
(g6
g7
S'Cytb[All Fields]'
p5512
tp5513
Rp5514
(dp5515
g12
g5490
sbsg5495
g1
(g6
g7
g68
tp5516
Rp5517
(dp5518
g12
g5495
sbstp5519
Rp5520
(dp5521
g12
g5502
sbag1
(g6
g7
S'AND'
p5522
tp5523
Rp5524
(dp5525
g12
VOP
p5526
sbatp5527
Rp5528
(dp5529
g12
g5478
sbsVErrorList
p5530
g1
(g84
g3
(dp5531
VFieldNotFound
p5532
(lp5533
g1
(g6
g7
S'definition'
p5534
tp5535
Rp5536
(dp5537
g12
VFieldNotFound
p5538
sbasVPhraseNotFound
p5539
(lp5540
stp5541
Rp5542
(dp5543
g12
g5530
sg98
(lp5544
g5539
ag5532
asbsVTranslationSet
p5545
g1
(g18
g19
(lp5546
g1
(g2
g3
(dp5547
VTo
p5548
g1
(g6
g7
S'"Diplodus puntazzo"[Organism]'
p5549
tp5550
Rp5551
(dp5552
g12
g5548
sbsVFrom
p5553
g1
(g6
g7
S'Diplodus puntazzo[organism]'
p5554
tp5555
Rp5556
(dp5557
g12
g5553
sbstp5558
Rp5559
(dp5560
g12
VTranslation
p5561
sbatp5562
Rp5563
(dp5564
g12
g5545
sbsVRetStart
p5565
g1
(g6
g7
g121
tp5566
Rp5567
(dp5568
g12
g5565
sbsVQueryTranslation
p5569
g1
(g6
g7
S'"Diplodus puntazzo"[Organism] AND Cytb[All Fields]'
p5570
tp5571
Rp5572
(dp5573
g12
g5569
sbstp5574
Rp5575
(dp5576
g12
VeSearchResult
p5577
sbag1
(g2
g3
(dp5578
VCount
p5579
g1
(g6
g7
g8
tp5580
Rp5581
(dp5582
g12
g5579
sbsVRetMax
p5583
g1
(g6
g7
g8
tp5584
Rp5585
(dp5586
g12
g5583
sbsVIdList
p5587
g1
(g18
g19
(lp5588
g1
(g6
g7
S'81007354'
p5589
tp5590
Rp5591
(dp5592
g12
VId
p5593
sbatp5594
Rp5595
(dp5596
g12
g5587
sbsVTranslationStack
p5597
g1
(g18
g19
(lp5598
g1
(g2
g3
(dp5599
g5579
g1
(g6
g7
g690
tp5600
Rp5601
(dp5602
g12
g5579
sbsVField
p5603
g1
(g6
g7
S'Organism'
p5604
tp5605
Rp5606
(dp5607
g12
g5603
sbsVTerm
p5608
g1
(g6
g7
S'"Diplodus sargus cadenati"[Organism]'
p5609
tp5610
Rp5611
(dp5612
g12
g5608
sbsVExplode
p5613
g1
(g6
g7
g47
tp5614
Rp5615
(dp5616
g12
g5613
sbstp5617
Rp5618
(dp5619
g12
VTermSet
p5620
sbag1
(g2
g3
(dp5621
g5579
g1
(g6
g7
S'430914'
p5622
tp5623
Rp5624
(dp5625
g12
g5579
sbsg5603
g1
(g6
g7
S'All Fields'
p5626
tp5627
Rp5628
(dp5629
g12
g5603
sbsg5608
g1
(g6
g7
S'Cytb[All Fields]'
p5630
tp5631
Rp5632
(dp5633
g12
g5608
sbsg5613
g1
(g6
g7
g68
tp5634
Rp5635
(dp5636
g12
g5613
sbstp5637
Rp5638
(dp5639
g12
g5620
sbag1
(g6
g7
S'AND'
p5640
tp5641
Rp5642
(dp5643
g12
VOP
p5644
sbatp5645
Rp5646
(dp5647
g12
g5597
sbsVErrorList
p5648
g1
(g84
g3
(dp5649
VFieldNotFound
p5650
(lp5651
g1
(g6
g7
S'definition'
p5652
tp5653
Rp5654
(dp5655
g12
VFieldNotFound
p5656
sbasVPhraseNotFound
p5657
(lp5658
stp5659
Rp5660
(dp5661
g12
g5648
sg98
(lp5662
g5657
ag5650
asbsVTranslationSet
p5663
g1
(g18
g19
(lp5664
g1
(g2
g3
(dp5665
VTo
p5666
g1
(g6
g7
S'"Diplodus sargus cadenati"[Organism]'
p5667
tp5668
Rp5669
(dp5670
g12
g5666
sbsVFrom
p5671
g1
(g6
g7
S'Diplodus sargus cadenati[organism]'
p5672
tp5673
Rp5674
(dp5675
g12
g5671
sbstp5676
Rp5677
(dp5678
g12
VTranslation
p5679
sbatp5680
Rp5681
(dp5682
g12
g5663
sbsVRetStart
p5683
g1
(g6
g7
g121
tp5684
Rp5685
(dp5686
g12
g5683
sbsVQueryTranslation
p5687
g1
(g6
g7
S'"Diplodus sargus cadenati"[Organism] AND Cytb[All Fields]'
p5688
tp5689
Rp5690
(dp5691
g12
g5687
sbstp5692
Rp5693
(dp5694
g12
VeSearchResult
p5695
sbag1
(g2
g3
(dp5696
VCount
p5697
g1
(g6
g7
g4618
tp5698
Rp5699
(dp5700
g12
g5697
sbsVRetMax
p5701
g1
(g6
g7
g4618
tp5702
Rp5703
(dp5704
g12
g5701
sbsVIdList
p5705
g1
(g18
g19
(lp5706
g1
(g6
g7
S'133924254'
p5707
tp5708
Rp5709
(dp5710
g12
VId
p5711
sbag1
(g6
g7
S'133924252'
p5712
tp5713
Rp5714
(dp5715
g12
g5711
sbag1
(g6
g7
S'133923610'
p5716
tp5717
Rp5718
(dp5719
g12
g5711
sbag1
(g6
g7
S'133923608'
p5720
tp5721
Rp5722
(dp5723
g12
g5711
sbag1
(g6
g7
S'129561679'
p5724
tp5725
Rp5726
(dp5727
g12
g5711
sbag1
(g6
g7
S'129561677'
p5728
tp5729
Rp5730
(dp5731
g12
g5711
sbatp5732
Rp5733
(dp5734
g12
g5705
sbsVTranslationStack
p5735
g1
(g18
g19
(lp5736
g1
(g2
g3
(dp5737
g5697
g1
(g6
g7
S'16'
p5738
tp5739
Rp5740
(dp5741
g12
g5697
sbsVField
p5742
g1
(g6
g7
S'Organism'
p5743
tp5744
Rp5745
(dp5746
g12
g5742
sbsVTerm
p5747
g1
(g6
g7
S'"Diplodus sargus sargus"[Organism]'
p5748
tp5749
Rp5750
(dp5751
g12
g5747
sbsVExplode
p5752
g1
(g6
g7
g47
tp5753
Rp5754
(dp5755
g12
g5752
sbstp5756
Rp5757
(dp5758
g12
VTermSet
p5759
sbag1
(g2
g3
(dp5760
g5697
g1
(g6
g7
S'430914'
p5761
tp5762
Rp5763
(dp5764
g12
g5697
sbsg5742
g1
(g6
g7
S'All Fields'
p5765
tp5766
Rp5767
(dp5768
g12
g5742
sbsg5747
g1
(g6
g7
S'Cytb[All Fields]'
p5769
tp5770
Rp5771
(dp5772
g12
g5747
sbsg5752
g1
(g6
g7
g68
tp5773
Rp5774
(dp5775
g12
g5752
sbstp5776
Rp5777
(dp5778
g12
g5759
sbag1
(g6
g7
S'AND'
p5779
tp5780
Rp5781
(dp5782
g12
VOP
p5783
sbatp5784
Rp5785
(dp5786
g12
g5735
sbsVErrorList
p5787
g1
(g84
g3
(dp5788
VFieldNotFound
p5789
(lp5790
g1
(g6
g7
S'definition'
p5791
tp5792
Rp5793
(dp5794
g12
VFieldNotFound
p5795
sbasVPhraseNotFound
p5796
(lp5797
stp5798
Rp5799
(dp5800
g12
g5787
sg98
(lp5801
g5796
ag5789
asbsVTranslationSet
p5802
g1
(g18
g19
(lp5803
g1
(g2
g3
(dp5804
VTo
p5805
g1
(g6
g7
S'"Diplodus sargus sargus"[Organism]'
p5806
tp5807
Rp5808
(dp5809
g12
g5805
sbsVFrom
p5810
g1
(g6
g7
S'Diplodus sargus sargus[organism]'
p5811
tp5812
Rp5813
(dp5814
g12
g5810
sbstp5815
Rp5816
(dp5817
g12
VTranslation
p5818
sbatp5819
Rp5820
(dp5821
g12
g5802
sbsVRetStart
p5822
g1
(g6
g7
g121
tp5823
Rp5824
(dp5825
g12
g5822
sbsVQueryTranslation
p5826
g1
(g6
g7
S'"Diplodus sargus sargus"[Organism] AND Cytb[All Fields]'
p5827
tp5828
Rp5829
(dp5830
g12
g5826
sbstp5831
Rp5832
(dp5833
g12
VeSearchResult
p5834
sbag1
(g2
g3
(dp5835
VCount
p5836
g1
(g6
g7
S'19'
p5837
tp5838
Rp5839
(dp5840
g12
g5836
sbsVRetMax
p5841
g1
(g6
g7
S'19'
p5842
tp5843
Rp5844
(dp5845
g12
g5841
sbsVIdList
p5846
g1
(g18
g19
(lp5847
g1
(g6
g7
S'81007356'
p5848
tp5849
Rp5850
(dp5851
g12
VId
p5852
sbag1
(g6
g7
S'125631767'
p5853
tp5854
Rp5855
(dp5856
g12
g5852
sbag1
(g6
g7
S'125631765'
p5857
tp5858
Rp5859
(dp5860
g12
g5852
sbag1
(g6
g7
S'154744905'
p5861
tp5862
Rp5863
(dp5864
g12
g5852
sbag1
(g6
g7
S'154744903'
p5865
tp5866
Rp5867
(dp5868
g12
g5852
sbag1
(g6
g7
S'133924258'
p5869
tp5870
Rp5871
(dp5872
g12
g5852
sbag1
(g6
g7
S'133924256'
p5873
tp5874
Rp5875
(dp5876
g12
g5852
sbag1
(g6
g7
S'133923614'
p5877
tp5878
Rp5879
(dp5880
g12
g5852
sbag1
(g6
g7
S'133923612'
p5881
tp5882
Rp5883
(dp5884
g12
g5852
sbag1
(g6
g7
S'129561683'
p5885
tp5886
Rp5887
(dp5888
g12
g5852
sbag1
(g6
g7
S'129561681'
p5889
tp5890
Rp5891
(dp5892
g12
g5852
sbag1
(g6
g7
S'307344309'
p5893
tp5894
Rp5895
(dp5896
g12
g5852
sbag1
(g6
g7
S'307344307'
p5897
tp5898
Rp5899
(dp5900
g12
g5852
sbag1
(g6
g7
S'307344305'
p5901
tp5902
Rp5903
(dp5904
g12
g5852
sbag1
(g6
g7
S'307344303'
p5905
tp5906
Rp5907
(dp5908
g12
g5852
sbag1
(g6
g7
S'307344301'
p5909
tp5910
Rp5911
(dp5912
g12
g5852
sbag1
(g6
g7
S'307344299'
p5913
tp5914
Rp5915
(dp5916
g12
g5852
sbag1
(g6
g7
S'307344297'
p5917
tp5918
Rp5919
(dp5920
g12
g5852
sbag1
(g6
g7
S'10800831'
p5921
tp5922
Rp5923
(dp5924
g12
g5852
sbatp5925
Rp5926
(dp5927
g12
g5846
sbsVTranslationStack
p5928
g1
(g18
g19
(lp5929
g1
(g2
g3
(dp5930
g5836
g1
(g6
g7
S'581'
p5931
tp5932
Rp5933
(dp5934
g12
g5836
sbsVField
p5935
g1
(g6
g7
S'Organism'
p5936
tp5937
Rp5938
(dp5939
g12
g5935
sbsVTerm
p5940
g1
(g6
g7
S'"Diplodus vulgaris"[Organism]'
p5941
tp5942
Rp5943
(dp5944
g12
g5940
sbsVExplode
p5945
g1
(g6
g7
g47
tp5946
Rp5947
(dp5948
g12
g5945
sbstp5949
Rp5950
(dp5951
g12
VTermSet
p5952
sbag1
(g2
g3
(dp5953
g5836
g1
(g6
g7
S'430914'
p5954
tp5955
Rp5956
(dp5957
g12
g5836
sbsg5935
g1
(g6
g7
S'All Fields'
p5958
tp5959
Rp5960
(dp5961
g12
g5935
sbsg5940
g1
(g6
g7
S'Cytb[All Fields]'
p5962
tp5963
Rp5964
(dp5965
g12
g5940
sbsg5945
g1
(g6
g7
g68
tp5966
Rp5967
(dp5968
g12
g5945
sbstp5969
Rp5970
(dp5971
g12
g5952
sbag1
(g6
g7
S'AND'
p5972
tp5973
Rp5974
(dp5975
g12
VOP
p5976
sbatp5977
Rp5978
(dp5979
g12
g5928
sbsVErrorList
p5980
g1
(g84
g3
(dp5981
VFieldNotFound
p5982
(lp5983
g1
(g6
g7
S'definition'
p5984
tp5985
Rp5986
(dp5987
g12
VFieldNotFound
p5988
sbasVPhraseNotFound
p5989
(lp5990
stp5991
Rp5992
(dp5993
g12
g5980
sg98
(lp5994
g5989
ag5982
asbsVTranslationSet
p5995
g1
(g18
g19
(lp5996
g1
(g2
g3
(dp5997
VTo
p5998
g1
(g6
g7
S'"Diplodus vulgaris"[Organism]'
p5999
tp6000
Rp6001
(dp6002
g12
g5998
sbsVFrom
p6003
g1
(g6
g7
S'Diplodus vulgaris[organism]'
p6004
tp6005
Rp6006
(dp6007
g12
g6003
sbstp6008
Rp6009
(dp6010
g12
VTranslation
p6011
sbatp6012
Rp6013
(dp6014
g12
g5995
sbsVRetStart
p6015
g1
(g6
g7
g121
tp6016
Rp6017
(dp6018
g12
g6015
sbsVQueryTranslation
p6019
g1
(g6
g7
S'"Diplodus vulgaris"[Organism] AND Cytb[All Fields]'
p6020
tp6021
Rp6022
(dp6023
g12
g6019
sbstp6024
Rp6025
(dp6026
g12
VeSearchResult
p6027
sbag1
(g2
g3
(dp6028
VCount
p6029
g1
(g6
g7
g1582
tp6030
Rp6031
(dp6032
g12
g6029
sbsVRetMax
p6033
g1
(g6
g7
g1582
tp6034
Rp6035
(dp6036
g12
g6033
sbsVIdList
p6037
g1
(g18
g19
(lp6038
g1
(g6
g7
S'13183182'
p6039
tp6040
Rp6041
(dp6042
g12
VId
p6043
sbag1
(g6
g7
S'402810088'
p6044
tp6045
Rp6046
(dp6047
g12
g6043
sbatp6048
Rp6049
(dp6050
g12
g6037
sbsVTranslationStack
p6051
g1
(g18
g19
(lp6052
g1
(g2
g3
(dp6053
g6029
g1
(g6
g7
S'13'
p6054
tp6055
Rp6056
(dp6057
g12
g6029
sbsVField
p6058
g1
(g6
g7
S'Organism'
p6059
tp6060
Rp6061
(dp6062
g12
g6058
sbsVTerm
p6063
g1
(g6
g7
S'"Gymnocrotaphus curvidens"[Organism]'
p6064
tp6065
Rp6066
(dp6067
g12
g6063
sbsVExplode
p6068
g1
(g6
g7
g47
tp6069
Rp6070
(dp6071
g12
g6068
sbstp6072
Rp6073
(dp6074
g12
VTermSet
p6075
sbag1
(g2
g3
(dp6076
g6029
g1
(g6
g7
S'430914'
p6077
tp6078
Rp6079
(dp6080
g12
g6029
sbsg6058
g1
(g6
g7
S'All Fields'
p6081
tp6082
Rp6083
(dp6084
g12
g6058
sbsg6063
g1
(g6
g7
S'Cytb[All Fields]'
p6085
tp6086
Rp6087
(dp6088
g12
g6063
sbsg6068
g1
(g6
g7
g68
tp6089
Rp6090
(dp6091
g12
g6068
sbstp6092
Rp6093
(dp6094
g12
g6075
sbag1
(g6
g7
S'AND'
p6095
tp6096
Rp6097
(dp6098
g12
VOP
p6099
sbatp6100
Rp6101
(dp6102
g12
g6051
sbsVErrorList
p6103
g1
(g84
g3
(dp6104
VFieldNotFound
p6105
(lp6106
g1
(g6
g7
S'definition'
p6107
tp6108
Rp6109
(dp6110
g12
VFieldNotFound
p6111
sbasVPhraseNotFound
p6112
(lp6113
stp6114
Rp6115
(dp6116
g12
g6103
sg98
(lp6117
g6112
ag6105
asbsVTranslationSet
p6118
g1
(g18
g19
(lp6119
g1
(g2
g3
(dp6120
VTo
p6121
g1
(g6
g7
S'"Gymnocrotaphus curvidens"[Organism]'
p6122
tp6123
Rp6124
(dp6125
g12
g6121
sbsVFrom
p6126
g1
(g6
g7
S'Gymnocrotaphus curvidens[organism]'
p6127
tp6128
Rp6129
(dp6130
g12
g6126
sbstp6131
Rp6132
(dp6133
g12
VTranslation
p6134
sbatp6135
Rp6136
(dp6137
g12
g6118
sbsVRetStart
p6138
g1
(g6
g7
g121
tp6139
Rp6140
(dp6141
g12
g6138
sbsVQueryTranslation
p6142
g1
(g6
g7
S'"Gymnocrotaphus curvidens"[Organism] AND Cytb[All Fields]'
p6143
tp6144
Rp6145
(dp6146
g12
g6142
sbstp6147
Rp6148
(dp6149
g12
VeSearchResult
p6150
sbag1
(g2
g3
(dp6151
VCount
p6152
g1
(g6
g7
g8
tp6153
Rp6154
(dp6155
g12
g6152
sbsVRetMax
p6156
g1
(g6
g7
g8
tp6157
Rp6158
(dp6159
g12
g6156
sbsVIdList
p6160
g1
(g18
g19
(lp6161
g1
(g6
g7
S'13183234'
p6162
tp6163
Rp6164
(dp6165
g12
VId
p6166
sbatp6167
Rp6168
(dp6169
g12
g6160
sbsVTranslationStack
p6170
g1
(g18
g19
(lp6171
g1
(g2
g3
(dp6172
g6152
g1
(g6
g7
S'56'
p6173
tp6174
Rp6175
(dp6176
g12
g6152
sbsVField
p6177
g1
(g6
g7
S'Organism'
p6178
tp6179
Rp6180
(dp6181
g12
g6177
sbsVTerm
p6182
g1
(g6
g7
S'"Lagodon rhomboides"[Organism]'
p6183
tp6184
Rp6185
(dp6186
g12
g6182
sbsVExplode
p6187
g1
(g6
g7
g47
tp6188
Rp6189
(dp6190
g12
g6187
sbstp6191
Rp6192
(dp6193
g12
VTermSet
p6194
sbag1
(g2
g3
(dp6195
g6152
g1
(g6
g7
S'430914'
p6196
tp6197
Rp6198
(dp6199
g12
g6152
sbsg6177
g1
(g6
g7
S'All Fields'
p6200
tp6201
Rp6202
(dp6203
g12
g6177
sbsg6182
g1
(g6
g7
S'Cytb[All Fields]'
p6204
tp6205
Rp6206
(dp6207
g12
g6182
sbsg6187
g1
(g6
g7
g68
tp6208
Rp6209
(dp6210
g12
g6187
sbstp6211
Rp6212
(dp6213
g12
g6194
sbag1
(g6
g7
S'AND'
p6214
tp6215
Rp6216
(dp6217
g12
VOP
p6218
sbatp6219
Rp6220
(dp6221
g12
g6170
sbsVErrorList
p6222
g1
(g84
g3
(dp6223
VFieldNotFound
p6224
(lp6225
g1
(g6
g7
S'definition'
p6226
tp6227
Rp6228
(dp6229
g12
VFieldNotFound
p6230
sbasVPhraseNotFound
p6231
(lp6232
stp6233
Rp6234
(dp6235
g12
g6222
sg98
(lp6236
g6231
ag6224
asbsVTranslationSet
p6237
g1
(g18
g19
(lp6238
g1
(g2
g3
(dp6239
VTo
p6240
g1
(g6
g7
S'"Lagodon rhomboides"[Organism]'
p6241
tp6242
Rp6243
(dp6244
g12
g6240
sbsVFrom
p6245
g1
(g6
g7
S'Lagodon rhomboides[organism]'
p6246
tp6247
Rp6248
(dp6249
g12
g6245
sbstp6250
Rp6251
(dp6252
g12
VTranslation
p6253
sbatp6254
Rp6255
(dp6256
g12
g6237
sbsVRetStart
p6257
g1
(g6
g7
g121
tp6258
Rp6259
(dp6260
g12
g6257
sbsVQueryTranslation
p6261
g1
(g6
g7
S'"Lagodon rhomboides"[Organism] AND Cytb[All Fields]'
p6262
tp6263
Rp6264
(dp6265
g12
g6261
sbstp6266
Rp6267
(dp6268
g12
VeSearchResult
p6269
sbag1
(g2
g3
(dp6270
VCount
p6271
g1
(g6
g7
g353
tp6272
Rp6273
(dp6274
g12
g6271
sbsVRetMax
p6275
g1
(g6
g7
g353
tp6276
Rp6277
(dp6278
g12
g6275
sbsVIdList
p6279
g1
(g18
g19
(lp6280
g1
(g6
g7
S'81007384'
p6281
tp6282
Rp6283
(dp6284
g12
VId
p6285
sbag1
(g6
g7
S'13183206'
p6286
tp6287
Rp6288
(dp6289
g12
g6285
sbag1
(g6
g7
S'154744925'
p6290
tp6291
Rp6292
(dp6293
g12
g6285
sbag1
(g6
g7
S'154744923'
p6294
tp6295
Rp6296
(dp6297
g12
g6285
sbag1
(g6
g7
S'133924286'
p6298
tp6299
Rp6300
(dp6301
g12
g6285
sbag1
(g6
g7
S'133924284'
p6302
tp6303
Rp6304
(dp6305
g12
g6285
sbag1
(g6
g7
S'959478974'
p6306
tp6307
Rp6308
(dp6309
g12
g6285
sbag1
(g6
g7
S'10800880'
p6310
tp6311
Rp6312
(dp6313
g12
g6285
sbatp6314
Rp6315
(dp6316
g12
g6279
sbsVTranslationStack
p6317
g1
(g18
g19
(lp6318
g1
(g2
g3
(dp6319
g6271
g1
(g6
g7
S'1699'
p6320
tp6321
Rp6322
(dp6323
g12
g6271
sbsVField
p6324
g1
(g6
g7
S'Organism'
p6325
tp6326
Rp6327
(dp6328
g12
g6324
sbsVTerm
p6329
g1
(g6
g7
S'"Lithognathus mormyrus"[Organism]'
p6330
tp6331
Rp6332
(dp6333
g12
g6329
sbsVExplode
p6334
g1
(g6
g7
g47
tp6335
Rp6336
(dp6337
g12
g6334
sbstp6338
Rp6339
(dp6340
g12
VTermSet
p6341
sbag1
(g2
g3
(dp6342
g6271
g1
(g6
g7
S'430914'
p6343
tp6344
Rp6345
(dp6346
g12
g6271
sbsg6324
g1
(g6
g7
S'All Fields'
p6347
tp6348
Rp6349
(dp6350
g12
g6324
sbsg6329
g1
(g6
g7
S'Cytb[All Fields]'
p6351
tp6352
Rp6353
(dp6354
g12
g6329
sbsg6334
g1
(g6
g7
g68
tp6355
Rp6356
(dp6357
g12
g6334
sbstp6358
Rp6359
(dp6360
g12
g6341
sbag1
(g6
g7
S'AND'
p6361
tp6362
Rp6363
(dp6364
g12
VOP
p6365
sbatp6366
Rp6367
(dp6368
g12
g6317
sbsVErrorList
p6369
g1
(g84
g3
(dp6370
VFieldNotFound
p6371
(lp6372
g1
(g6
g7
S'definition'
p6373
tp6374
Rp6375
(dp6376
g12
VFieldNotFound
p6377
sbasVPhraseNotFound
p6378
(lp6379
stp6380
Rp6381
(dp6382
g12
g6369
sg98
(lp6383
g6378
ag6371
asbsVTranslationSet
p6384
g1
(g18
g19
(lp6385
g1
(g2
g3
(dp6386
VTo
p6387
g1
(g6
g7
S'"Lithognathus mormyrus"[Organism]'
p6388
tp6389
Rp6390
(dp6391
g12
g6387
sbsVFrom
p6392
g1
(g6
g7
S'Lithognathus mormyrus[organism]'
p6393
tp6394
Rp6395
(dp6396
g12
g6392
sbstp6397
Rp6398
(dp6399
g12
VTranslation
p6400
sbatp6401
Rp6402
(dp6403
g12
g6384
sbsVRetStart
p6404
g1
(g6
g7
g121
tp6405
Rp6406
(dp6407
g12
g6404
sbsVQueryTranslation
p6408
g1
(g6
g7
S'"Lithognathus mormyrus"[Organism] AND Cytb[All Fields]'
p6409
tp6410
Rp6411
(dp6412
g12
g6408
sbstp6413
Rp6414
(dp6415
g12
VeSearchResult
p6416
sbag1
(g2
g3
(dp6417
VCount
p6418
g1
(g6
g7
g1187
tp6419
Rp6420
(dp6421
g12
g6418
sbsVRetMax
p6422
g1
(g6
g7
g1187
tp6423
Rp6424
(dp6425
g12
g6422
sbsVIdList
p6426
g1
(g18
g19
(lp6427
g1
(g6
g7
S'134154728'
p6428
tp6429
Rp6430
(dp6431
g12
VId
p6432
sbag1
(g6
g7
S'134154726'
p6433
tp6434
Rp6435
(dp6436
g12
g6432
sbag1
(g6
g7
S'13183184'
p6437
tp6438
Rp6439
(dp6440
g12
g6432
sbag1
(g6
g7
S'154744947'
p6441
tp6442
Rp6443
(dp6444
g12
g6432
sbag1
(g6
g7
S'154744945'
p6445
tp6446
Rp6447
(dp6448
g12
g6432
sbag1
(g6
g7
S'133924320'
p6449
tp6450
Rp6451
(dp6452
g12
g6432
sbag1
(g6
g7
S'133924318'
p6453
tp6454
Rp6455
(dp6456
g12
g6432
sbag1
(g6
g7
S'959478944'
p6457
tp6458
Rp6459
(dp6460
g12
g6432
sbag1
(g6
g7
S'15209388'
p6461
tp6462
Rp6463
(dp6464
g12
g6432
sbatp6465
Rp6466
(dp6467
g12
g6426
sbsVTranslationStack
p6468
g1
(g18
g19
(lp6469
g1
(g2
g3
(dp6470
g6418
g1
(g6
g7
S'95'
p6471
tp6472
Rp6473
(dp6474
g12
g6418
sbsVField
p6475
g1
(g6
g7
S'Organism'
p6476
tp6477
Rp6478
(dp6479
g12
g6475
sbsVTerm
p6480
g1
(g6
g7
S'"Oblada melanura"[Organism]'
p6481
tp6482
Rp6483
(dp6484
g12
g6480
sbsVExplode
p6485
g1
(g6
g7
g47
tp6486
Rp6487
(dp6488
g12
g6485
sbstp6489
Rp6490
(dp6491
g12
VTermSet
p6492
sbag1
(g2
g3
(dp6493
g6418
g1
(g6
g7
S'430914'
p6494
tp6495
Rp6496
(dp6497
g12
g6418
sbsg6475
g1
(g6
g7
S'All Fields'
p6498
tp6499
Rp6500
(dp6501
g12
g6475
sbsg6480
g1
(g6
g7
S'Cytb[All Fields]'
p6502
tp6503
Rp6504
(dp6505
g12
g6480
sbsg6485
g1
(g6
g7
g68
tp6506
Rp6507
(dp6508
g12
g6485
sbstp6509
Rp6510
(dp6511
g12
g6492
sbag1
(g6
g7
S'AND'
p6512
tp6513
Rp6514
(dp6515
g12
VOP
p6516
sbatp6517
Rp6518
(dp6519
g12
g6468
sbsVErrorList
p6520
g1
(g84
g3
(dp6521
VFieldNotFound
p6522
(lp6523
g1
(g6
g7
S'definition'
p6524
tp6525
Rp6526
(dp6527
g12
VFieldNotFound
p6528
sbasVPhraseNotFound
p6529
(lp6530
stp6531
Rp6532
(dp6533
g12
g6520
sg98
(lp6534
g6529
ag6522
asbsVTranslationSet
p6535
g1
(g18
g19
(lp6536
g1
(g2
g3
(dp6537
VTo
p6538
g1
(g6
g7
S'"Oblada melanura"[Organism]'
p6539
tp6540
Rp6541
(dp6542
g12
g6538
sbsVFrom
p6543
g1
(g6
g7
S'Oblada melanura[organism]'
p6544
tp6545
Rp6546
(dp6547
g12
g6543
sbstp6548
Rp6549
(dp6550
g12
VTranslation
p6551
sbatp6552
Rp6553
(dp6554
g12
g6535
sbsVRetStart
p6555
g1
(g6
g7
g121
tp6556
Rp6557
(dp6558
g12
g6555
sbsVQueryTranslation
p6559
g1
(g6
g7
S'"Oblada melanura"[Organism] AND Cytb[All Fields]'
p6560
tp6561
Rp6562
(dp6563
g12
g6559
sbstp6564
Rp6565
(dp6566
g12
VeSearchResult
p6567
sbag1
(g2
g3
(dp6568
VCount
p6569
g1
(g6
g7
g8
tp6570
Rp6571
(dp6572
g12
g6569
sbsVRetMax
p6573
g1
(g6
g7
g8
tp6574
Rp6575
(dp6576
g12
g6573
sbsVIdList
p6577
g1
(g18
g19
(lp6578
g1
(g6
g7
S'13183186'
p6579
tp6580
Rp6581
(dp6582
g12
VId
p6583
sbatp6584
Rp6585
(dp6586
g12
g6577
sbsVTranslationStack
p6587
g1
(g18
g19
(lp6588
g1
(g2
g3
(dp6589
g6569
g1
(g6
g7
S'12'
p6590
tp6591
Rp6592
(dp6593
g12
g6569
sbsVField
p6594
g1
(g6
g7
S'Organism'
p6595
tp6596
Rp6597
(dp6598
g12
g6594
sbsVTerm
p6599
g1
(g6
g7
S'"Pachymetopon aeneum"[Organism]'
p6600
tp6601
Rp6602
(dp6603
g12
g6599
sbsVExplode
p6604
g1
(g6
g7
g47
tp6605
Rp6606
(dp6607
g12
g6604
sbstp6608
Rp6609
(dp6610
g12
VTermSet
p6611
sbag1
(g2
g3
(dp6612
g6569
g1
(g6
g7
S'430914'
p6613
tp6614
Rp6615
(dp6616
g12
g6569
sbsg6594
g1
(g6
g7
S'All Fields'
p6617
tp6618
Rp6619
(dp6620
g12
g6594
sbsg6599
g1
(g6
g7
S'Cytb[All Fields]'
p6621
tp6622
Rp6623
(dp6624
g12
g6599
sbsg6604
g1
(g6
g7
g68
tp6625
Rp6626
(dp6627
g12
g6604
sbstp6628
Rp6629
(dp6630
g12
g6611
sbag1
(g6
g7
S'AND'
p6631
tp6632
Rp6633
(dp6634
g12
VOP
p6635
sbatp6636
Rp6637
(dp6638
g12
g6587
sbsVErrorList
p6639
g1
(g84
g3
(dp6640
VFieldNotFound
p6641
(lp6642
g1
(g6
g7
S'definition'
p6643
tp6644
Rp6645
(dp6646
g12
VFieldNotFound
p6647
sbasVPhraseNotFound
p6648
(lp6649
stp6650
Rp6651
(dp6652
g12
g6639
sg98
(lp6653
g6648
ag6641
asbsVTranslationSet
p6654
g1
(g18
g19
(lp6655
g1
(g2
g3
(dp6656
VTo
p6657
g1
(g6
g7
S'"Pachymetopon aeneum"[Organism]'
p6658
tp6659
Rp6660
(dp6661
g12
g6657
sbsVFrom
p6662
g1
(g6
g7
S'Pachymetopon aeneum[organism]'
p6663
tp6664
Rp6665
(dp6666
g12
g6662
sbstp6667
Rp6668
(dp6669
g12
VTranslation
p6670
sbatp6671
Rp6672
(dp6673
g12
g6654
sbsVRetStart
p6674
g1
(g6
g7
g121
tp6675
Rp6676
(dp6677
g12
g6674
sbsVQueryTranslation
p6678
g1
(g6
g7
S'"Pachymetopon aeneum"[Organism] AND Cytb[All Fields]'
p6679
tp6680
Rp6681
(dp6682
g12
g6678
sbstp6683
Rp6684
(dp6685
g12
VeSearchResult
p6686
sbag1
(g2
g3
(dp6687
VCount
p6688
g1
(g6
g7
g8
tp6689
Rp6690
(dp6691
g12
g6688
sbsVRetMax
p6692
g1
(g6
g7
g8
tp6693
Rp6694
(dp6695
g12
g6692
sbsVIdList
p6696
g1
(g18
g19
(lp6697
g1
(g6
g7
S'402810092'
p6698
tp6699
Rp6700
(dp6701
g12
VId
p6702
sbatp6703
Rp6704
(dp6705
g12
g6696
sbsVTranslationStack
p6706
g1
(g18
g19
(lp6707
g1
(g2
g3
(dp6708
g6688
g1
(g6
g7
S'28'
p6709
tp6710
Rp6711
(dp6712
g12
g6688
sbsVField
p6713
g1
(g6
g7
S'Organism'
p6714
tp6715
Rp6716
(dp6717
g12
g6713
sbsVTerm
p6718
g1
(g6
g7
S'"Pachymetopon blochii"[Organism]'
p6719
tp6720
Rp6721
(dp6722
g12
g6718
sbsVExplode
p6723
g1
(g6
g7
g47
tp6724
Rp6725
(dp6726
g12
g6723
sbstp6727
Rp6728
(dp6729
g12
VTermSet
p6730
sbag1
(g2
g3
(dp6731
g6688
g1
(g6
g7
S'430914'
p6732
tp6733
Rp6734
(dp6735
g12
g6688
sbsg6713
g1
(g6
g7
S'All Fields'
p6736
tp6737
Rp6738
(dp6739
g12
g6713
sbsg6718
g1
(g6
g7
S'Cytb[All Fields]'
p6740
tp6741
Rp6742
(dp6743
g12
g6718
sbsg6723
g1
(g6
g7
g68
tp6744
Rp6745
(dp6746
g12
g6723
sbstp6747
Rp6748
(dp6749
g12
g6730
sbag1
(g6
g7
S'AND'
p6750
tp6751
Rp6752
(dp6753
g12
VOP
p6754
sbatp6755
Rp6756
(dp6757
g12
g6706
sbsVErrorList
p6758
g1
(g84
g3
(dp6759
VFieldNotFound
p6760
(lp6761
g1
(g6
g7
S'definition'
p6762
tp6763
Rp6764
(dp6765
g12
VFieldNotFound
p6766
sbasVPhraseNotFound
p6767
(lp6768
stp6769
Rp6770
(dp6771
g12
g6758
sg98
(lp6772
g6767
ag6760
asbsVTranslationSet
p6773
g1
(g18
g19
(lp6774
g1
(g2
g3
(dp6775
VTo
p6776
g1
(g6
g7
S'"Pachymetopon blochii"[Organism]'
p6777
tp6778
Rp6779
(dp6780
g12
g6776
sbsVFrom
p6781
g1
(g6
g7
S'Pachymetopon blochii[organism]'
p6782
tp6783
Rp6784
(dp6785
g12
g6781
sbstp6786
Rp6787
(dp6788
g12
VTranslation
p6789
sbatp6790
Rp6791
(dp6792
g12
g6773
sbsVRetStart
p6793
g1
(g6
g7
g121
tp6794
Rp6795
(dp6796
g12
g6793
sbsVQueryTranslation
p6797
g1
(g6
g7
S'"Pachymetopon blochii"[Organism] AND Cytb[All Fields]'
p6798
tp6799
Rp6800
(dp6801
g12
g6797
sbstp6802
Rp6803
(dp6804
g12
VeSearchResult
p6805
sbag1
(g2
g3
(dp6806
VCount
p6807
g1
(g6
g7
S'19'
p6808
tp6809
Rp6810
(dp6811
g12
g6807
sbsVRetMax
p6812
g1
(g6
g7
S'19'
p6813
tp6814
Rp6815
(dp6816
g12
g6812
sbsVIdList
p6817
g1
(g18
g19
(lp6818
g1
(g6
g7
S'81007402'
p6819
tp6820
Rp6821
(dp6822
g12
VId
p6823
sbag1
(g6
g7
S'13183208'
p6824
tp6825
Rp6826
(dp6827
g12
g6823
sbag1
(g6
g7
S'133924324'
p6828
tp6829
Rp6830
(dp6831
g12
g6823
sbag1
(g6
g7
S'133924322'
p6832
tp6833
Rp6834
(dp6835
g12
g6823
sbag1
(g6
g7
S'133923630'
p6836
tp6837
Rp6838
(dp6839
g12
g6823
sbag1
(g6
g7
S'133923628'
p6840
tp6841
Rp6842
(dp6843
g12
g6823
sbag1
(g6
g7
S'129561743'
p6844
tp6845
Rp6846
(dp6847
g12
g6823
sbag1
(g6
g7
S'129561741'
p6848
tp6849
Rp6850
(dp6851
g12
g6823
sbag1
(g6
g7
S'307344489'
p6852
tp6853
Rp6854
(dp6855
g12
g6823
sbag1
(g6
g7
S'307344487'
p6856
tp6857
Rp6858
(dp6859
g12
g6823
sbag1
(g6
g7
S'307344485'
p6860
tp6861
Rp6862
(dp6863
g12
g6823
sbag1
(g6
g7
S'307344483'
p6864
tp6865
Rp6866
(dp6867
g12
g6823
sbag1
(g6
g7
S'307344481'
p6868
tp6869
Rp6870
(dp6871
g12
g6823
sbag1
(g6
g7
S'307344479'
p6872
tp6873
Rp6874
(dp6875
g12
g6823
sbag1
(g6
g7
S'307344477'
p6876
tp6877
Rp6878
(dp6879
g12
g6823
sbag1
(g6
g7
S'307344475'
p6880
tp6881
Rp6882
(dp6883
g12
g6823
sbag1
(g6
g7
S'307344473'
p6884
tp6885
Rp6886
(dp6887
g12
g6823
sbag1
(g6
g7
S'15209396'
p6888
tp6889
Rp6890
(dp6891
g12
g6823
sbag1
(g6
g7
S'8977970'
p6892
tp6893
Rp6894
(dp6895
g12
g6823
sbatp6896
Rp6897
(dp6898
g12
g6817
sbsVTranslationStack
p6899
g1
(g18
g19
(lp6900
g1
(g2
g3
(dp6901
g6807
g1
(g6
g7
S'93'
p6902
tp6903
Rp6904
(dp6905
g12
g6807
sbsVField
p6906
g1
(g6
g7
S'Organism'
p6907
tp6908
Rp6909
(dp6910
g12
g6906
sbsVTerm
p6911
g1
(g6
g7
S'"Pagellus acarne"[Organism]'
p6912
tp6913
Rp6914
(dp6915
g12
g6911
sbsVExplode
p6916
g1
(g6
g7
g47
tp6917
Rp6918
(dp6919
g12
g6916
sbstp6920
Rp6921
(dp6922
g12
VTermSet
p6923
sbag1
(g2
g3
(dp6924
g6807
g1
(g6
g7
S'430914'
p6925
tp6926
Rp6927
(dp6928
g12
g6807
sbsg6906
g1
(g6
g7
S'All Fields'
p6929
tp6930
Rp6931
(dp6932
g12
g6906
sbsg6911
g1
(g6
g7
S'Cytb[All Fields]'
p6933
tp6934
Rp6935
(dp6936
g12
g6911
sbsg6916
g1
(g6
g7
g68
tp6937
Rp6938
(dp6939
g12
g6916
sbstp6940
Rp6941
(dp6942
g12
g6923
sbag1
(g6
g7
S'AND'
p6943
tp6944
Rp6945
(dp6946
g12
VOP
p6947
sbatp6948
Rp6949
(dp6950
g12
g6899
sbsVErrorList
p6951
g1
(g84
g3
(dp6952
VFieldNotFound
p6953
(lp6954
g1
(g6
g7
S'definition'
p6955
tp6956
Rp6957
(dp6958
g12
VFieldNotFound
p6959
sbasVPhraseNotFound
p6960
(lp6961
stp6962
Rp6963
(dp6964
g12
g6951
sg98
(lp6965
g6960
ag6953
asbsVTranslationSet
p6966
g1
(g18
g19
(lp6967
g1
(g2
g3
(dp6968
VTo
p6969
g1
(g6
g7
S'"Pagellus acarne"[Organism]'
p6970
tp6971
Rp6972
(dp6973
g12
g6969
sbsVFrom
p6974
g1
(g6
g7
S'Pagellus acarne[organism]'
p6975
tp6976
Rp6977
(dp6978
g12
g6974
sbstp6979
Rp6980
(dp6981
g12
VTranslation
p6982
sbatp6983
Rp6984
(dp6985
g12
g6966
sbsVRetStart
p6986
g1
(g6
g7
g121
tp6987
Rp6988
(dp6989
g12
g6986
sbsVQueryTranslation
p6990
g1
(g6
g7
S'"Pagellus acarne"[Organism] AND Cytb[All Fields]'
p6991
tp6992
Rp6993
(dp6994
g12
g6990
sbstp6995
Rp6996
(dp6997
g12
VeSearchResult
p6998
sbag1
(g2
g3
(dp6999
VCount
p7000
g1
(g6
g7
g8
tp7001
Rp7002
(dp7003
g12
g7000
sbsVRetMax
p7004
g1
(g6
g7
g8
tp7005
Rp7006
(dp7007
g12
g7004
sbsVIdList
p7008
g1
(g18
g19
(lp7009
g1
(g6
g7
S'959478968'
p7010
tp7011
Rp7012
(dp7013
g12
VId
p7014
sbatp7015
Rp7016
(dp7017
g12
g7008
sbsVTranslationStack
p7018
g1
(g18
g19
(lp7019
g1
(g2
g3
(dp7020
g7000
g1
(g6
g7
g690
tp7021
Rp7022
(dp7023
g12
g7000
sbsVField
p7024
g1
(g6
g7
S'Organism'
p7025
tp7026
Rp7027
(dp7028
g12
g7024
sbsVTerm
p7029
g1
(g6
g7
S'"Pagellus affinis"[Organism]'
p7030
tp7031
Rp7032
(dp7033
g12
g7029
sbsVExplode
p7034
g1
(g6
g7
g47
tp7035
Rp7036
(dp7037
g12
g7034
sbstp7038
Rp7039
(dp7040
g12
VTermSet
p7041
sbag1
(g2
g3
(dp7042
g7000
g1
(g6
g7
S'430914'
p7043
tp7044
Rp7045
(dp7046
g12
g7000
sbsg7024
g1
(g6
g7
S'All Fields'
p7047
tp7048
Rp7049
(dp7050
g12
g7024
sbsg7029
g1
(g6
g7
S'Cytb[All Fields]'
p7051
tp7052
Rp7053
(dp7054
g12
g7029
sbsg7034
g1
(g6
g7
g68
tp7055
Rp7056
(dp7057
g12
g7034
sbstp7058
Rp7059
(dp7060
g12
g7041
sbag1
(g6
g7
S'AND'
p7061
tp7062
Rp7063
(dp7064
g12
VOP
p7065
sbatp7066
Rp7067
(dp7068
g12
g7018
sbsVErrorList
p7069
g1
(g84
g3
(dp7070
VFieldNotFound
p7071
(lp7072
g1
(g6
g7
S'definition'
p7073
tp7074
Rp7075
(dp7076
g12
VFieldNotFound
p7077
sbasVPhraseNotFound
p7078
(lp7079
stp7080
Rp7081
(dp7082
g12
g7069
sg98
(lp7083
g7078
ag7071
asbsVTranslationSet
p7084
g1
(g18
g19
(lp7085
g1
(g2
g3
(dp7086
VTo
p7087
g1
(g6
g7
S'"Pagellus affinis"[Organism]'
p7088
tp7089
Rp7090
(dp7091
g12
g7087
sbsVFrom
p7092
g1
(g6
g7
S'Pagellus affinis[organism]'
p7093
tp7094
Rp7095
(dp7096
g12
g7092
sbstp7097
Rp7098
(dp7099
g12
VTranslation
p7100
sbatp7101
Rp7102
(dp7103
g12
g7084
sbsVRetStart
p7104
g1
(g6
g7
g121
tp7105
Rp7106
(dp7107
g12
g7104
sbsVQueryTranslation
p7108
g1
(g6
g7
S'"Pagellus affinis"[Organism] AND Cytb[All Fields]'
p7109
tp7110
Rp7111
(dp7112
g12
g7108
sbstp7113
Rp7114
(dp7115
g12
VeSearchResult
p7116
sbag1
(g2
g3
(dp7117
VCount
p7118
g1
(g6
g7
g4618
tp7119
Rp7120
(dp7121
g12
g7118
sbsVRetMax
p7122
g1
(g6
g7
g4618
tp7123
Rp7124
(dp7125
g12
g7122
sbsVIdList
p7126
g1
(g18
g19
(lp7127
g1
(g6
g7
S'81007404'
p7128
tp7129
Rp7130
(dp7131
g12
VId
p7132
sbag1
(g6
g7
S'134154732'
p7133
tp7134
Rp7135
(dp7136
g12
g7132
sbag1
(g6
g7
S'134154730'
p7137
tp7138
Rp7139
(dp7140
g12
g7132
sbag1
(g6
g7
S'125631795'
p7141
tp7142
Rp7143
(dp7144
g12
g7132
sbag1
(g6
g7
S'125631793'
p7145
tp7146
Rp7147
(dp7148
g12
g7132
sbag1
(g6
g7
S'13183210'
p7149
tp7150
Rp7151
(dp7152
g12
g7132
sbatp7153
Rp7154
(dp7155
g12
g7126
sbsVTranslationStack
p7156
g1
(g18
g19
(lp7157
g1
(g2
g3
(dp7158
g7118
g1
(g6
g7
S'19'
p7159
tp7160
Rp7161
(dp7162
g12
g7118
sbsVField
p7163
g1
(g6
g7
S'Organism'
p7164
tp7165
Rp7166
(dp7167
g12
g7163
sbsVTerm
p7168
g1
(g6
g7
S'"Pagellus bellottii"[Organism]'
p7169
tp7170
Rp7171
(dp7172
g12
g7168
sbsVExplode
p7173
g1
(g6
g7
g47
tp7174
Rp7175
(dp7176
g12
g7173
sbstp7177
Rp7178
(dp7179
g12
VTermSet
p7180
sbag1
(g2
g3
(dp7181
g7118
g1
(g6
g7
S'430914'
p7182
tp7183
Rp7184
(dp7185
g12
g7118
sbsg7163
g1
(g6
g7
S'All Fields'
p7186
tp7187
Rp7188
(dp7189
g12
g7163
sbsg7168
g1
(g6
g7
S'Cytb[All Fields]'
p7190
tp7191
Rp7192
(dp7193
g12
g7168
sbsg7173
g1
(g6
g7
g68
tp7194
Rp7195
(dp7196
g12
g7173
sbstp7197
Rp7198
(dp7199
g12
g7180
sbag1
(g6
g7
S'AND'
p7200
tp7201
Rp7202
(dp7203
g12
VOP
p7204
sbatp7205
Rp7206
(dp7207
g12
g7156
sbsVErrorList
p7208
g1
(g84
g3
(dp7209
VFieldNotFound
p7210
(lp7211
g1
(g6
g7
S'definition'
p7212
tp7213
Rp7214
(dp7215
g12
VFieldNotFound
p7216
sbasVPhraseNotFound
p7217
(lp7218
stp7219
Rp7220
(dp7221
g12
g7208
sg98
(lp7222
g7217
ag7210
asbsVTranslationSet
p7223
g1
(g18
g19
(lp7224
g1
(g2
g3
(dp7225
VTo
p7226
g1
(g6
g7
S'"Pagellus bellottii"[Organism]'
p7227
tp7228
Rp7229
(dp7230
g12
g7226
sbsVFrom
p7231
g1
(g6
g7
S'Pagellus bellottii[organism]'
p7232
tp7233
Rp7234
(dp7235
g12
g7231
sbstp7236
Rp7237
(dp7238
g12
VTranslation
p7239
sbatp7240
Rp7241
(dp7242
g12
g7223
sbsVRetStart
p7243
g1
(g6
g7
g121
tp7244
Rp7245
(dp7246
g12
g7243
sbsVQueryTranslation
p7247
g1
(g6
g7
S'"Pagellus bellottii"[Organism] AND Cytb[All Fields]'
p7248
tp7249
Rp7250
(dp7251
g12
g7247
sbstp7252
Rp7253
(dp7254
g12
VeSearchResult
p7255
sbag1
(g2
g3
(dp7256
VCount
p7257
g1
(g6
g7
S'17'
p7258
tp7259
Rp7260
(dp7261
g12
g7257
sbsVRetMax
p7262
g1
(g6
g7
S'17'
p7263
tp7264
Rp7265
(dp7266
g12
g7262
sbsVIdList
p7267
g1
(g18
g19
(lp7268
g1
(g6
g7
S'159462095'
p7269
tp7270
Rp7271
(dp7272
g12
VId
p7273
sbag1
(g6
g7
S'159462093'
p7274
tp7275
Rp7276
(dp7277
g12
g7273
sbag1
(g6
g7
S'81007406'
p7278
tp7279
Rp7280
(dp7281
g12
g7273
sbag1
(g6
g7
S'1015567480'
p7282
tp7283
Rp7284
(dp7285
g12
g7273
sbag1
(g6
g7
S'154744951'
p7286
tp7287
Rp7288
(dp7289
g12
g7273
sbag1
(g6
g7
S'154744949'
p7290
tp7291
Rp7292
(dp7293
g12
g7273
sbag1
(g6
g7
S'133924328'
p7294
tp7295
Rp7296
(dp7297
g12
g7273
sbag1
(g6
g7
S'133924326'
p7298
tp7299
Rp7300
(dp7301
g12
g7273
sbag1
(g6
g7
S'133923634'
p7302
tp7303
Rp7304
(dp7305
g12
g7273
sbag1
(g6
g7
S'133923632'
p7306
tp7307
Rp7308
(dp7309
g12
g7273
sbag1
(g6
g7
S'129561747'
p7310
tp7311
Rp7312
(dp7313
g12
g7273
sbag1
(g6
g7
S'129561745'
p7314
tp7315
Rp7316
(dp7317
g12
g7273
sbag1
(g6
g7
S'298205523'
p7318
tp7319
Rp7320
(dp7321
g12
g7273
sbag1
(g6
g7
S'148368793'
p7322
tp7323
Rp7324
(dp7325
g12
g7273
sbag1
(g6
g7
S'148356934'
p7326
tp7327
Rp7328
(dp7329
g12
g7273
sbag1
(g6
g7
S'15209398'
p7330
tp7331
Rp7332
(dp7333
g12
g7273
sbag1
(g6
g7
S'8977972'
p7334
tp7335
Rp7336
(dp7337
g12
g7273
sbatp7338
Rp7339
(dp7340
g12
g7267
sbsVTranslationStack
p7341
g1
(g18
g19
(lp7342
g1
(g2
g3
(dp7343
g7257
g1
(g6
g7
S'106'
p7344
tp7345
Rp7346
(dp7347
g12
g7257
sbsVField
p7348
g1
(g6
g7
S'Organism'
p7349
tp7350
Rp7351
(dp7352
g12
g7348
sbsVTerm
p7353
g1
(g6
g7
S'"Pagellus bogaraveo"[Organism]'
p7354
tp7355
Rp7356
(dp7357
g12
g7353
sbsVExplode
p7358
g1
(g6
g7
g47
tp7359
Rp7360
(dp7361
g12
g7358
sbstp7362
Rp7363
(dp7364
g12
VTermSet
p7365
sbag1
(g2
g3
(dp7366
g7257
g1
(g6
g7
S'430914'
p7367
tp7368
Rp7369
(dp7370
g12
g7257
sbsg7348
g1
(g6
g7
S'All Fields'
p7371
tp7372
Rp7373
(dp7374
g12
g7348
sbsg7353
g1
(g6
g7
S'Cytb[All Fields]'
p7375
tp7376
Rp7377
(dp7378
g12
g7353
sbsg7358
g1
(g6
g7
g68
tp7379
Rp7380
(dp7381
g12
g7358
sbstp7382
Rp7383
(dp7384
g12
g7365
sbag1
(g6
g7
S'AND'
p7385
tp7386
Rp7387
(dp7388
g12
VOP
p7389
sbatp7390
Rp7391
(dp7392
g12
g7341
sbsVErrorList
p7393
g1
(g84
g3
(dp7394
VFieldNotFound
p7395
(lp7396
g1
(g6
g7
S'definition'
p7397
tp7398
Rp7399
(dp7400
g12
VFieldNotFound
p7401
sbasVPhraseNotFound
p7402
(lp7403
stp7404
Rp7405
(dp7406
g12
g7393
sg98
(lp7407
g7402
ag7395
asbsVTranslationSet
p7408
g1
(g18
g19
(lp7409
g1
(g2
g3
(dp7410
VTo
p7411
g1
(g6
g7
S'"Pagellus bogaraveo"[Organism]'
p7412
tp7413
Rp7414
(dp7415
g12
g7411
sbsVFrom
p7416
g1
(g6
g7
S'Pagellus bogaraveo[organism]'
p7417
tp7418
Rp7419
(dp7420
g12
g7416
sbstp7421
Rp7422
(dp7423
g12
VTranslation
p7424
sbatp7425
Rp7426
(dp7427
g12
g7408
sbsVRetStart
p7428
g1
(g6
g7
g121
tp7429
Rp7430
(dp7431
g12
g7428
sbsVQueryTranslation
p7432
g1
(g6
g7
S'"Pagellus bogaraveo"[Organism] AND Cytb[All Fields]'
p7433
tp7434
Rp7435
(dp7436
g12
g7432
sbstp7437
Rp7438
(dp7439
g12
VeSearchResult
p7440
sbag1
(g2
g3
(dp7441
VCount
p7442
g1
(g6
g7
S'33'
p7443
tp7444
Rp7445
(dp7446
g12
g7442
sbsVRetMax
p7447
g1
(g6
g7
S'20'
p7448
tp7449
Rp7450
(dp7451
g12
g7447
sbsVIdList
p7452
g1
(g18
g19
(lp7453
g1
(g6
g7
S'159462007'
p7454
tp7455
Rp7456
(dp7457
g12
VId
p7458
sbag1
(g6
g7
S'81007408'
p7459
tp7460
Rp7461
(dp7462
g12
g7458
sbag1
(g6
g7
S'154744961'
p7463
tp7464
Rp7465
(dp7466
g12
g7458
sbag1
(g6
g7
S'154744959'
p7467
tp7468
Rp7469
(dp7470
g12
g7458
sbag1
(g6
g7
S'154744957'
p7471
tp7472
Rp7473
(dp7474
g12
g7458
sbag1
(g6
g7
S'154744955'
p7475
tp7476
Rp7477
(dp7478
g12
g7458
sbag1
(g6
g7
S'154744953'
p7479
tp7480
Rp7481
(dp7482
g12
g7458
sbag1
(g6
g7
S'133924332'
p7483
tp7484
Rp7485
(dp7486
g12
g7458
sbag1
(g6
g7
S'133924330'
p7487
tp7488
Rp7489
(dp7490
g12
g7458
sbag1
(g6
g7
S'133923638'
p7491
tp7492
Rp7493
(dp7494
g12
g7458
sbag1
(g6
g7
S'133923636'
p7495
tp7496
Rp7497
(dp7498
g12
g7458
sbag1
(g6
g7
S'693268813'
p7499
tp7500
Rp7501
(dp7502
g12
g7458
sbag1
(g6
g7
S'693268811'
p7503
tp7504
Rp7505
(dp7506
g12
g7458
sbag1
(g6
g7
S'693268809'
p7507
tp7508
Rp7509
(dp7510
g12
g7458
sbag1
(g6
g7
S'693268807'
p7511
tp7512
Rp7513
(dp7514
g12
g7458
sbag1
(g6
g7
S'693268805'
p7515
tp7516
Rp7517
(dp7518
g12
g7458
sbag1
(g6
g7
S'693268803'
p7519
tp7520
Rp7521
(dp7522
g12
g7458
sbag1
(g6
g7
S'693268801'
p7523
tp7524
Rp7525
(dp7526
g12
g7458
sbag1
(g6
g7
S'693268799'
p7527
tp7528
Rp7529
(dp7530
g12
g7458
sbag1
(g6
g7
S'693268797'
p7531
tp7532
Rp7533
(dp7534
g12
g7458
sbatp7535
Rp7536
(dp7537
g12
g7452
sbsVTranslationStack
p7538
g1
(g18
g19
(lp7539
g1
(g2
g3
(dp7540
g7442
g1
(g6
g7
S'282'
p7541
tp7542
Rp7543
(dp7544
g12
g7442
sbsVField
p7545
g1
(g6
g7
S'Organism'
p7546
tp7547
Rp7548
(dp7549
g12
g7545
sbsVTerm
p7550
g1
(g6
g7
S'"Pagellus erythrinus"[Organism]'
p7551
tp7552
Rp7553
(dp7554
g12
g7550
sbsVExplode
p7555
g1
(g6
g7
g47
tp7556
Rp7557
(dp7558
g12
g7555
sbstp7559
Rp7560
(dp7561
g12
VTermSet
p7562
sbag1
(g2
g3
(dp7563
g7442
g1
(g6
g7
S'430914'
p7564
tp7565
Rp7566
(dp7567
g12
g7442
sbsg7545
g1
(g6
g7
S'All Fields'
p7568
tp7569
Rp7570
(dp7571
g12
g7545
sbsg7550
g1
(g6
g7
S'Cytb[All Fields]'
p7572
tp7573
Rp7574
(dp7575
g12
g7550
sbsg7555
g1
(g6
g7
g68
tp7576
Rp7577
(dp7578
g12
g7555
sbstp7579
Rp7580
(dp7581
g12
g7562
sbag1
(g6
g7
S'AND'
p7582
tp7583
Rp7584
(dp7585
g12
VOP
p7586
sbatp7587
Rp7588
(dp7589
g12
g7538
sbsVErrorList
p7590
g1
(g84
g3
(dp7591
VFieldNotFound
p7592
(lp7593
g1
(g6
g7
S'definition'
p7594
tp7595
Rp7596
(dp7597
g12
VFieldNotFound
p7598
sbasVPhraseNotFound
p7599
(lp7600
stp7601
Rp7602
(dp7603
g12
g7590
sg98
(lp7604
g7599
ag7592
asbsVTranslationSet
p7605
g1
(g18
g19
(lp7606
g1
(g2
g3
(dp7607
VTo
p7608
g1
(g6
g7
S'"Pagellus erythrinus"[Organism]'
p7609
tp7610
Rp7611
(dp7612
g12
g7608
sbsVFrom
p7613
g1
(g6
g7
S'Pagellus erythrinus[organism]'
p7614
tp7615
Rp7616
(dp7617
g12
g7613
sbstp7618
Rp7619
(dp7620
g12
VTranslation
p7621
sbatp7622
Rp7623
(dp7624
g12
g7605
sbsVRetStart
p7625
g1
(g6
g7
g121
tp7626
Rp7627
(dp7628
g12
g7625
sbsVQueryTranslation
p7629
g1
(g6
g7
S'"Pagellus erythrinus"[Organism] AND Cytb[All Fields]'
p7630
tp7631
Rp7632
(dp7633
g12
g7629
sbstp7634
Rp7635
(dp7636
g12
VeSearchResult
p7637
sbag1
(g2
g3
(dp7638
VCount
p7639
g1
(g6
g7
g8
tp7640
Rp7641
(dp7642
g12
g7639
sbsVRetMax
p7643
g1
(g6
g7
g8
tp7644
Rp7645
(dp7646
g12
g7643
sbsVIdList
p7647
g1
(g18
g19
(lp7648
g1
(g6
g7
S'13183236'
p7649
tp7650
Rp7651
(dp7652
g12
VId
p7653
sbatp7654
Rp7655
(dp7656
g12
g7647
sbsVTranslationStack
p7657
g1
(g18
g19
(lp7658
g1
(g2
g3
(dp7659
g7639
g1
(g6
g7
S'140'
p7660
tp7661
Rp7662
(dp7663
g12
g7639
sbsVField
p7664
g1
(g6
g7
S'Organism'
p7665
tp7666
Rp7667
(dp7668
g12
g7664
sbsVTerm
p7669
g1
(g6
g7
S'"Pagrus auratus"[Organism]'
p7670
tp7671
Rp7672
(dp7673
g12
g7669
sbsVExplode
p7674
g1
(g6
g7
g47
tp7675
Rp7676
(dp7677
g12
g7674
sbstp7678
Rp7679
(dp7680
g12
VTermSet
p7681
sbag1
(g2
g3
(dp7682
g7639
g1
(g6
g7
S'430914'
p7683
tp7684
Rp7685
(dp7686
g12
g7639
sbsg7664
g1
(g6
g7
S'All Fields'
p7687
tp7688
Rp7689
(dp7690
g12
g7664
sbsg7669
g1
(g6
g7
S'Cytb[All Fields]'
p7691
tp7692
Rp7693
(dp7694
g12
g7669
sbsg7674
g1
(g6
g7
g68
tp7695
Rp7696
(dp7697
g12
g7674
sbstp7698
Rp7699
(dp7700
g12
g7681
sbag1
(g6
g7
S'AND'
p7701
tp7702
Rp7703
(dp7704
g12
VOP
p7705
sbatp7706
Rp7707
(dp7708
g12
g7657
sbsVErrorList
p7709
g1
(g84
g3
(dp7710
VFieldNotFound
p7711
(lp7712
g1
(g6
g7
S'definition'
p7713
tp7714
Rp7715
(dp7716
g12
VFieldNotFound
p7717
sbasVPhraseNotFound
p7718
(lp7719
stp7720
Rp7721
(dp7722
g12
g7709
sg98
(lp7723
g7718
ag7711
asbsVTranslationSet
p7724
g1
(g18
g19
(lp7725
g1
(g2
g3
(dp7726
VTo
p7727
g1
(g6
g7
S'"Pagrus auratus"[Organism]'
p7728
tp7729
Rp7730
(dp7731
g12
g7727
sbsVFrom
p7732
g1
(g6
g7
S'Pagrus auratus[organism]'
p7733
tp7734
Rp7735
(dp7736
g12
g7732
sbstp7737
Rp7738
(dp7739
g12
VTranslation
p7740
sbatp7741
Rp7742
(dp7743
g12
g7724
sbsVRetStart
p7744
g1
(g6
g7
g121
tp7745
Rp7746
(dp7747
g12
g7744
sbsVQueryTranslation
p7748
g1
(g6
g7
S'"Pagrus auratus"[Organism] AND Cytb[All Fields]'
p7749
tp7750
Rp7751
(dp7752
g12
g7748
sbstp7753
Rp7754
(dp7755
g12
VeSearchResult
p7756
sbag1
(g2
g3
(dp7757
VCount
p7758
g1
(g6
g7
g690
tp7759
Rp7760
(dp7761
g12
g7758
sbsVRetMax
p7762
g1
(g6
g7
g690
tp7763
Rp7764
(dp7765
g12
g7762
sbsVIdList
p7766
g1
(g18
g19
(lp7767
g1
(g6
g7
S'81007410'
p7768
tp7769
Rp7770
(dp7771
g12
VId
p7772
sbag1
(g6
g7
S'13183238'
p7773
tp7774
Rp7775
(dp7776
g12
g7772
sbag1
(g6
g7
S'38018046'
p7777
tp7778
Rp7779
(dp7780
g12
g7772
sbag1
(g6
g7
S'37896782'
p7781
tp7782
Rp7783
(dp7784
g12
g7772
sbatp7785
Rp7786
(dp7787
g12
g7766
sbsVTranslationStack
p7788
g1
(g18
g19
(lp7789
g1
(g2
g3
(dp7790
g7758
g1
(g6
g7
S'95'
p7791
tp7792
Rp7793
(dp7794
g12
g7758
sbsVField
p7795
g1
(g6
g7
S'Organism'
p7796
tp7797
Rp7798
(dp7799
g12
g7795
sbsVTerm
p7800
g1
(g6
g7
S'"Pagrus auriga"[Organism]'
p7801
tp7802
Rp7803
(dp7804
g12
g7800
sbsVExplode
p7805
g1
(g6
g7
g47
tp7806
Rp7807
(dp7808
g12
g7805
sbstp7809
Rp7810
(dp7811
g12
VTermSet
p7812
sbag1
(g2
g3
(dp7813
g7758
g1
(g6
g7
S'430914'
p7814
tp7815
Rp7816
(dp7817
g12
g7758
sbsg7795
g1
(g6
g7
S'All Fields'
p7818
tp7819
Rp7820
(dp7821
g12
g7795
sbsg7800
g1
(g6
g7
S'Cytb[All Fields]'
p7822
tp7823
Rp7824
(dp7825
g12
g7800
sbsg7805
g1
(g6
g7
g68
tp7826
Rp7827
(dp7828
g12
g7805
sbstp7829
Rp7830
(dp7831
g12
g7812
sbag1
(g6
g7
S'AND'
p7832
tp7833
Rp7834
(dp7835
g12
VOP
p7836
sbatp7837
Rp7838
(dp7839
g12
g7788
sbsVErrorList
p7840
g1
(g84
g3
(dp7841
VFieldNotFound
p7842
(lp7843
g1
(g6
g7
S'definition'
p7844
tp7845
Rp7846
(dp7847
g12
VFieldNotFound
p7848
sbasVPhraseNotFound
p7849
(lp7850
stp7851
Rp7852
(dp7853
g12
g7840
sg98
(lp7854
g7849
ag7842
asbsVTranslationSet
p7855
g1
(g18
g19
(lp7856
g1
(g2
g3
(dp7857
VTo
p7858
g1
(g6
g7
S'"Pagrus auriga"[Organism]'
p7859
tp7860
Rp7861
(dp7862
g12
g7858
sbsVFrom
p7863
g1
(g6
g7
S'Pagrus auriga[organism]'
p7864
tp7865
Rp7866
(dp7867
g12
g7863
sbstp7868
Rp7869
(dp7870
g12
VTranslation
p7871
sbatp7872
Rp7873
(dp7874
g12
g7855
sbsVRetStart
p7875
g1
(g6
g7
g121
tp7876
Rp7877
(dp7878
g12
g7875
sbsVQueryTranslation
p7879
g1
(g6
g7
S'"Pagrus auriga"[Organism] AND Cytb[All Fields]'
p7880
tp7881
Rp7882
(dp7883
g12
g7879
sbstp7884
Rp7885
(dp7886
g12
VeSearchResult
p7887
sbag1
(g2
g3
(dp7888
VCount
p7889
g1
(g6
g7
g1582
tp7890
Rp7891
(dp7892
g12
g7889
sbsVRetMax
p7893
g1
(g6
g7
g1582
tp7894
Rp7895
(dp7896
g12
g7893
sbsVIdList
p7897
g1
(g18
g19
(lp7898
g1
(g6
g7
S'81007412'
p7899
tp7900
Rp7901
(dp7902
g12
VId
p7903
sbag1
(g6
g7
S'298205535'
p7904
tp7905
Rp7906
(dp7907
g12
g7903
sbatp7908
Rp7909
(dp7910
g12
g7897
sbsVTranslationStack
p7911
g1
(g18
g19
(lp7912
g1
(g2
g3
(dp7913
g7889
g1
(g6
g7
S'33'
p7914
tp7915
Rp7916
(dp7917
g12
g7889
sbsVField
p7918
g1
(g6
g7
S'Organism'
p7919
tp7920
Rp7921
(dp7922
g12
g7918
sbsVTerm
p7923
g1
(g6
g7
S'"Pagrus caeruleostictus"[Organism]'
p7924
tp7925
Rp7926
(dp7927
g12
g7923
sbsVExplode
p7928
g1
(g6
g7
g47
tp7929
Rp7930
(dp7931
g12
g7928
sbstp7932
Rp7933
(dp7934
g12
VTermSet
p7935
sbag1
(g2
g3
(dp7936
g7889
g1
(g6
g7
S'430914'
p7937
tp7938
Rp7939
(dp7940
g12
g7889
sbsg7918
g1
(g6
g7
S'All Fields'
p7941
tp7942
Rp7943
(dp7944
g12
g7918
sbsg7923
g1
(g6
g7
S'Cytb[All Fields]'
p7945
tp7946
Rp7947
(dp7948
g12
g7923
sbsg7928
g1
(g6
g7
g68
tp7949
Rp7950
(dp7951
g12
g7928
sbstp7952
Rp7953
(dp7954
g12
g7935
sbag1
(g6
g7
S'AND'
p7955
tp7956
Rp7957
(dp7958
g12
VOP
p7959
sbatp7960
Rp7961
(dp7962
g12
g7911
sbsVErrorList
p7963
g1
(g84
g3
(dp7964
VFieldNotFound
p7965
(lp7966
g1
(g6
g7
S'definition'
p7967
tp7968
Rp7969
(dp7970
g12
VFieldNotFound
p7971
sbasVPhraseNotFound
p7972
(lp7973
stp7974
Rp7975
(dp7976
g12
g7963
sg98
(lp7977
g7972
ag7965
asbsVTranslationSet
p7978
g1
(g18
g19
(lp7979
g1
(g2
g3
(dp7980
VTo
p7981
g1
(g6
g7
S'"Pagrus caeruleostictus"[Organism]'
p7982
tp7983
Rp7984
(dp7985
g12
g7981
sbsVFrom
p7986
g1
(g6
g7
S'Pagrus caeruleostictus[organism]'
p7987
tp7988
Rp7989
(dp7990
g12
g7986
sbstp7991
Rp7992
(dp7993
g12
VTranslation
p7994
sbatp7995
Rp7996
(dp7997
g12
g7978
sbsVRetStart
p7998
g1
(g6
g7
g121
tp7999
Rp8000
(dp8001
g12
g7998
sbsVQueryTranslation
p8002
g1
(g6
g7
S'"Pagrus caeruleostictus"[Organism] AND Cytb[All Fields]'
p8003
tp8004
Rp8005
(dp8006
g12
g8002
sbstp8007
Rp8008
(dp8009
g12
VeSearchResult
p8010
sbag1
(g2
g3
(dp8011
VCount
p8012
g1
(g6
g7
g353
tp8013
Rp8014
(dp8015
g12
g8012
sbsVRetMax
p8016
g1
(g6
g7
g353
tp8017
Rp8018
(dp8019
g12
g8016
sbsVIdList
p8020
g1
(g18
g19
(lp8021
g1
(g6
g7
S'1050201369'
p8022
tp8023
Rp8024
(dp8025
g12
VId
p8026
sbag1
(g6
g7
S'263043582'
p8027
tp8028
Rp8029
(dp8030
g12
g8026
sbag1
(g6
g7
S'224459217'
p8031
tp8032
Rp8033
(dp8034
g12
g8026
sbag1
(g6
g7
S'224459215'
p8035
tp8036
Rp8037
(dp8038
g12
g8026
sbag1
(g6
g7
S'23395249'
p8039
tp8040
Rp8041
(dp8042
g12
g8026
sbag1
(g6
g7
S'16357430'
p8043
tp8044
Rp8045
(dp8046
g12
g8026
sbag1
(g6
g7
S'219937704'
p8047
tp8048
Rp8049
(dp8050
g12
g8026
sbag1
(g6
g7
S'16267298'
p8051
tp8052
Rp8053
(dp8054
g12
g8026
sbatp8055
Rp8056
(dp8057
g12
g8020
sbsVTranslationStack
p8058
g1
(g18
g19
(lp8059
g1
(g2
g3
(dp8060
g8012
g1
(g6
g7
S'974'
p8061
tp8062
Rp8063
(dp8064
g12
g8012
sbsVField
p8065
g1
(g6
g7
S'Organism'
p8066
tp8067
Rp8068
(dp8069
g12
g8065
sbsVTerm
p8070
g1
(g6
g7
S'"Pagrus major"[Organism]'
p8071
tp8072
Rp8073
(dp8074
g12
g8070
sbsVExplode
p8075
g1
(g6
g7
g47
tp8076
Rp8077
(dp8078
g12
g8075
sbstp8079
Rp8080
(dp8081
g12
VTermSet
p8082
sbag1
(g2
g3
(dp8083
g8012
g1
(g6
g7
S'430914'
p8084
tp8085
Rp8086
(dp8087
g12
g8012
sbsg8065
g1
(g6
g7
S'All Fields'
p8088
tp8089
Rp8090
(dp8091
g12
g8065
sbsg8070
g1
(g6
g7
S'Cytb[All Fields]'
p8092
tp8093
Rp8094
(dp8095
g12
g8070
sbsg8075
g1
(g6
g7
g68
tp8096
Rp8097
(dp8098
g12
g8075
sbstp8099
Rp8100
(dp8101
g12
g8082
sbag1
(g6
g7
S'AND'
p8102
tp8103
Rp8104
(dp8105
g12
VOP
p8106
sbatp8107
Rp8108
(dp8109
g12
g8058
sbsVErrorList
p8110
g1
(g84
g3
(dp8111
VFieldNotFound
p8112
(lp8113
g1
(g6
g7
S'definition'
p8114
tp8115
Rp8116
(dp8117
g12
VFieldNotFound
p8118
sbasVPhraseNotFound
p8119
(lp8120
stp8121
Rp8122
(dp8123
g12
g8110
sg98
(lp8124
g8119
ag8112
asbsVTranslationSet
p8125
g1
(g18
g19
(lp8126
g1
(g2
g3
(dp8127
VTo
p8128
g1
(g6
g7
S'"Pagrus major"[Organism]'
p8129
tp8130
Rp8131
(dp8132
g12
g8128
sbsVFrom
p8133
g1
(g6
g7
S'Pagrus major[organism]'
p8134
tp8135
Rp8136
(dp8137
g12
g8133
sbstp8138
Rp8139
(dp8140
g12
VTranslation
p8141
sbatp8142
Rp8143
(dp8144
g12
g8125
sbsVRetStart
p8145
g1
(g6
g7
g121
tp8146
Rp8147
(dp8148
g12
g8145
sbsVQueryTranslation
p8149
g1
(g6
g7
S'"Pagrus major"[Organism] AND Cytb[All Fields]'
p8150
tp8151
Rp8152
(dp8153
g12
g8149
sbstp8154
Rp8155
(dp8156
g12
VeSearchResult
p8157
sbag1
(g2
g3
(dp8158
VCount
p8159
g1
(g6
g7
S'13'
p8160
tp8161
Rp8162
(dp8163
g12
g8159
sbsVRetMax
p8164
g1
(g6
g7
S'13'
p8165
tp8166
Rp8167
(dp8168
g12
g8164
sbsVIdList
p8169
g1
(g18
g19
(lp8170
g1
(g6
g7
S'81007414'
p8171
tp8172
Rp8173
(dp8174
g12
VId
p8175
sbag1
(g6
g7
S'13183240'
p8176
tp8177
Rp8178
(dp8179
g12
g8175
sbag1
(g6
g7
S'154744971'
p8180
tp8181
Rp8182
(dp8183
g12
g8175
sbag1
(g6
g7
S'154744969'
p8184
tp8185
Rp8186
(dp8187
g12
g8175
sbag1
(g6
g7
S'154744967'
p8188
tp8189
Rp8190
(dp8191
g12
g8175
sbag1
(g6
g7
S'154744965'
p8192
tp8193
Rp8194
(dp8195
g12
g8175
sbag1
(g6
g7
S'154744963'
p8196
tp8197
Rp8198
(dp8199
g12
g8175
sbag1
(g6
g7
S'133924336'
p8200
tp8201
Rp8202
(dp8203
g12
g8175
sbag1
(g6
g7
S'133924334'
p8204
tp8205
Rp8206
(dp8207
g12
g8175
sbag1
(g6
g7
S'133923642'
p8208
tp8209
Rp8210
(dp8211
g12
g8175
sbag1
(g6
g7
S'133923640'
p8212
tp8213
Rp8214
(dp8215
g12
g8175
sbag1
(g6
g7
S'5070476'
p8216
tp8217
Rp8218
(dp8219
g12
g8175
sbag1
(g6
g7
S'15209392'
p8220
tp8221
Rp8222
(dp8223
g12
g8175
sbatp8224
Rp8225
(dp8226
g12
g8169
sbsVTranslationStack
p8227
g1
(g18
g19
(lp8228
g1
(g2
g3
(dp8229
g8159
g1
(g6
g7
S'187'
p8230
tp8231
Rp8232
(dp8233
g12
g8159
sbsVField
p8234
g1
(g6
g7
S'Organism'
p8235
tp8236
Rp8237
(dp8238
g12
g8234
sbsVTerm
p8239
g1
(g6
g7
S'"Pagrus pagrus"[Organism]'
p8240
tp8241
Rp8242
(dp8243
g12
g8239
sbsVExplode
p8244
g1
(g6
g7
g47
tp8245
Rp8246
(dp8247
g12
g8244
sbstp8248
Rp8249
(dp8250
g12
VTermSet
p8251
sbag1
(g2
g3
(dp8252
g8159
g1
(g6
g7
S'430914'
p8253
tp8254
Rp8255
(dp8256
g12
g8159
sbsg8234
g1
(g6
g7
S'All Fields'
p8257
tp8258
Rp8259
(dp8260
g12
g8234
sbsg8239
g1
(g6
g7
S'Cytb[All Fields]'
p8261
tp8262
Rp8263
(dp8264
g12
g8239
sbsg8244
g1
(g6
g7
g68
tp8265
Rp8266
(dp8267
g12
g8244
sbstp8268
Rp8269
(dp8270
g12
g8251
sbag1
(g6
g7
S'AND'
p8271
tp8272
Rp8273
(dp8274
g12
VOP
p8275
sbatp8276
Rp8277
(dp8278
g12
g8227
sbsVErrorList
p8279
g1
(g84
g3
(dp8280
VFieldNotFound
p8281
(lp8282
g1
(g6
g7
S'definition'
p8283
tp8284
Rp8285
(dp8286
g12
VFieldNotFound
p8287
sbasVPhraseNotFound
p8288
(lp8289
stp8290
Rp8291
(dp8292
g12
g8279
sg98
(lp8293
g8288
ag8281
asbsVTranslationSet
p8294
g1
(g18
g19
(lp8295
g1
(g2
g3
(dp8296
VTo
p8297
g1
(g6
g7
S'"Pagrus pagrus"[Organism]'
p8298
tp8299
Rp8300
(dp8301
g12
g8297
sbsVFrom
p8302
g1
(g6
g7
S'Pagrus pagrus[organism]'
p8303
tp8304
Rp8305
(dp8306
g12
g8302
sbstp8307
Rp8308
(dp8309
g12
VTranslation
p8310
sbatp8311
Rp8312
(dp8313
g12
g8294
sbsVRetStart
p8314
g1
(g6
g7
g121
tp8315
Rp8316
(dp8317
g12
g8314
sbsVQueryTranslation
p8318
g1
(g6
g7
S'"Pagrus pagrus"[Organism] AND Cytb[All Fields]'
p8319
tp8320
Rp8321
(dp8322
g12
g8318
sbstp8323
Rp8324
(dp8325
g12
VeSearchResult
p8326
sbag1
(g2
g3
(dp8327
VCount
p8328
g1
(g6
g7
S'21'
p8329
tp8330
Rp8331
(dp8332
g12
g8328
sbsVRetMax
p8333
g1
(g6
g7
S'20'
p8334
tp8335
Rp8336
(dp8337
g12
g8333
sbsVIdList
p8338
g1
(g18
g19
(lp8339
g1
(g6
g7
S'1050990067'
p8340
tp8341
Rp8342
(dp8343
g12
VId
p8344
sbag1
(g6
g7
S'1050990065'
p8345
tp8346
Rp8347
(dp8348
g12
g8344
sbag1
(g6
g7
S'1050990063'
p8349
tp8350
Rp8351
(dp8352
g12
g8344
sbag1
(g6
g7
S'1050990061'
p8353
tp8354
Rp8355
(dp8356
g12
g8344
sbag1
(g6
g7
S'1050990059'
p8357
tp8358
Rp8359
(dp8360
g12
g8344
sbag1
(g6
g7
S'1050990057'
p8361
tp8362
Rp8363
(dp8364
g12
g8344
sbag1
(g6
g7
S'1050990055'
p8365
tp8366
Rp8367
(dp8368
g12
g8344
sbag1
(g6
g7
S'1050990053'
p8369
tp8370
Rp8371
(dp8372
g12
g8344
sbag1
(g6
g7
S'1050990051'
p8373
tp8374
Rp8375
(dp8376
g12
g8344
sbag1
(g6
g7
S'1050990049'
p8377
tp8378
Rp8379
(dp8380
g12
g8344
sbag1
(g6
g7
S'1050990047'
p8381
tp8382
Rp8383
(dp8384
g12
g8344
sbag1
(g6
g7
S'1050990045'
p8385
tp8386
Rp8387
(dp8388
g12
g8344
sbag1
(g6
g7
S'1050990043'
p8389
tp8390
Rp8391
(dp8392
g12
g8344
sbag1
(g6
g7
S'1050990041'
p8393
tp8394
Rp8395
(dp8396
g12
g8344
sbag1
(g6
g7
S'1050990039'
p8397
tp8398
Rp8399
(dp8400
g12
g8344
sbag1
(g6
g7
S'44887621'
p8401
tp8402
Rp8403
(dp8404
g12
g8344
sbag1
(g6
g7
S'44887619'
p8405
tp8406
Rp8407
(dp8408
g12
g8344
sbag1
(g6
g7
S'38678789'
p8409
tp8410
Rp8411
(dp8412
g12
g8344
sbag1
(g6
g7
S'263043684'
p8413
tp8414
Rp8415
(dp8416
g12
g8344
sbag1
(g6
g7
S'117937791'
p8417
tp8418
Rp8419
(dp8420
g12
g8344
sbatp8421
Rp8422
(dp8423
g12
g8338
sbsVTranslationStack
p8424
g1
(g18
g19
(lp8425
g1
(g2
g3
(dp8426
g8328
g1
(g6
g7
S'183'
p8427
tp8428
Rp8429
(dp8430
g12
g8328
sbsVField
p8431
g1
(g6
g7
S'Organism'
p8432
tp8433
Rp8434
(dp8435
g12
g8431
sbsVTerm
p8436
g1
(g6
g7
S'"Parargyrops edita"[Organism]'
p8437
tp8438
Rp8439
(dp8440
g12
g8436
sbsVExplode
p8441
g1
(g6
g7
g47
tp8442
Rp8443
(dp8444
g12
g8441
sbstp8445
Rp8446
(dp8447
g12
VTermSet
p8448
sbag1
(g2
g3
(dp8449
g8328
g1
(g6
g7
S'430914'
p8450
tp8451
Rp8452
(dp8453
g12
g8328
sbsg8431
g1
(g6
g7
S'All Fields'
p8454
tp8455
Rp8456
(dp8457
g12
g8431
sbsg8436
g1
(g6
g7
S'Cytb[All Fields]'
p8458
tp8459
Rp8460
(dp8461
g12
g8436
sbsg8441
g1
(g6
g7
g68
tp8462
Rp8463
(dp8464
g12
g8441
sbstp8465
Rp8466
(dp8467
g12
g8448
sbag1
(g6
g7
S'AND'
p8468
tp8469
Rp8470
(dp8471
g12
VOP
p8472
sbatp8473
Rp8474
(dp8475
g12
g8424
sbsVErrorList
p8476
g1
(g84
g3
(dp8477
VFieldNotFound
p8478
(lp8479
g1
(g6
g7
S'definition'
p8480
tp8481
Rp8482
(dp8483
g12
VFieldNotFound
p8484
sbasVPhraseNotFound
p8485
(lp8486
stp8487
Rp8488
(dp8489
g12
g8476
sg98
(lp8490
g8485
ag8478
asbsVTranslationSet
p8491
g1
(g18
g19
(lp8492
g1
(g2
g3
(dp8493
VTo
p8494
g1
(g6
g7
S'"Parargyrops edita"[Organism]'
p8495
tp8496
Rp8497
(dp8498
g12
g8494
sbsVFrom
p8499
g1
(g6
g7
S'Parargyrops edita[organism]'
p8500
tp8501
Rp8502
(dp8503
g12
g8499
sbstp8504
Rp8505
(dp8506
g12
VTranslation
p8507
sbatp8508
Rp8509
(dp8510
g12
g8491
sbsVRetStart
p8511
g1
(g6
g7
g121
tp8512
Rp8513
(dp8514
g12
g8511
sbsVQueryTranslation
p8515
g1
(g6
g7
S'"Parargyrops edita"[Organism] AND Cytb[All Fields]'
p8516
tp8517
Rp8518
(dp8519
g12
g8515
sbstp8520
Rp8521
(dp8522
g12
VeSearchResult
p8523
sbag1
(g2
g3
(dp8524
VCount
p8525
g1
(g6
g7
g1582
tp8526
Rp8527
(dp8528
g12
g8525
sbsVRetMax
p8529
g1
(g6
g7
g1582
tp8530
Rp8531
(dp8532
g12
g8529
sbsVIdList
p8533
g1
(g18
g19
(lp8534
g1
(g6
g7
S'13183200'
p8535
tp8536
Rp8537
(dp8538
g12
VId
p8539
sbag1
(g6
g7
S'402810090'
p8540
tp8541
Rp8542
(dp8543
g12
g8539
sbatp8544
Rp8545
(dp8546
g12
g8533
sbsVTranslationStack
p8547
g1
(g18
g19
(lp8548
g1
(g2
g3
(dp8549
g8525
g1
(g6
g7
S'10'
p8550
tp8551
Rp8552
(dp8553
g12
g8525
sbsVField
p8554
g1
(g6
g7
S'Organism'
p8555
tp8556
Rp8557
(dp8558
g12
g8554
sbsVTerm
p8559
g1
(g6
g7
S'"Petrus rupestris"[Organism]'
p8560
tp8561
Rp8562
(dp8563
g12
g8559
sbsVExplode
p8564
g1
(g6
g7
g47
tp8565
Rp8566
(dp8567
g12
g8564
sbstp8568
Rp8569
(dp8570
g12
VTermSet
p8571
sbag1
(g2
g3
(dp8572
g8525
g1
(g6
g7
S'430914'
p8573
tp8574
Rp8575
(dp8576
g12
g8525
sbsg8554
g1
(g6
g7
S'All Fields'
p8577
tp8578
Rp8579
(dp8580
g12
g8554
sbsg8559
g1
(g6
g7
S'Cytb[All Fields]'
p8581
tp8582
Rp8583
(dp8584
g12
g8559
sbsg8564
g1
(g6
g7
g68
tp8585
Rp8586
(dp8587
g12
g8564
sbstp8588
Rp8589
(dp8590
g12
g8571
sbag1
(g6
g7
S'AND'
p8591
tp8592
Rp8593
(dp8594
g12
VOP
p8595
sbatp8596
Rp8597
(dp8598
g12
g8547
sbsVErrorList
p8599
g1
(g84
g3
(dp8600
VFieldNotFound
p8601
(lp8602
g1
(g6
g7
S'definition'
p8603
tp8604
Rp8605
(dp8606
g12
VFieldNotFound
p8607
sbasVPhraseNotFound
p8608
(lp8609
stp8610
Rp8611
(dp8612
g12
g8599
sg98
(lp8613
g8608
ag8601
asbsVTranslationSet
p8614
g1
(g18
g19
(lp8615
g1
(g2
g3
(dp8616
VTo
p8617
g1
(g6
g7
S'"Petrus rupestris"[Organism]'
p8618
tp8619
Rp8620
(dp8621
g12
g8617
sbsVFrom
p8622
g1
(g6
g7
S'Petrus rupestris[organism]'
p8623
tp8624
Rp8625
(dp8626
g12
g8622
sbstp8627
Rp8628
(dp8629
g12
VTranslation
p8630
sbatp8631
Rp8632
(dp8633
g12
g8614
sbsVRetStart
p8634
g1
(g6
g7
g121
tp8635
Rp8636
(dp8637
g12
g8634
sbsVQueryTranslation
p8638
g1
(g6
g7
S'"Petrus rupestris"[Organism] AND Cytb[All Fields]'
p8639
tp8640
Rp8641
(dp8642
g12
g8638
sbstp8643
Rp8644
(dp8645
g12
VeSearchResult
p8646
sbag1
(g2
g3
(dp8647
VCount
p8648
g1
(g6
g7
g8
tp8649
Rp8650
(dp8651
g12
g8648
sbsVRetMax
p8652
g1
(g6
g7
g8
tp8653
Rp8654
(dp8655
g12
g8652
sbsVIdList
p8656
g1
(g18
g19
(lp8657
g1
(g6
g7
S'13183188'
p8658
tp8659
Rp8660
(dp8661
g12
VId
p8662
sbatp8663
Rp8664
(dp8665
g12
g8656
sbsVTranslationStack
p8666
g1
(g18
g19
(lp8667
g1
(g2
g3
(dp8668
g8648
g1
(g6
g7
g1607
tp8669
Rp8670
(dp8671
g12
g8648
sbsVField
p8672
g1
(g6
g7
S'Organism'
p8673
tp8674
Rp8675
(dp8676
g12
g8672
sbsVTerm
p8677
g1
(g6
g7
S'"Polyamblyodon germanum"[Organism]'
p8678
tp8679
Rp8680
(dp8681
g12
g8677
sbsVExplode
p8682
g1
(g6
g7
g47
tp8683
Rp8684
(dp8685
g12
g8682
sbstp8686
Rp8687
(dp8688
g12
VTermSet
p8689
sbag1
(g2
g3
(dp8690
g8648
g1
(g6
g7
S'430914'
p8691
tp8692
Rp8693
(dp8694
g12
g8648
sbsg8672
g1
(g6
g7
S'All Fields'
p8695
tp8696
Rp8697
(dp8698
g12
g8672
sbsg8677
g1
(g6
g7
S'Cytb[All Fields]'
p8699
tp8700
Rp8701
(dp8702
g12
g8677
sbsg8682
g1
(g6
g7
g68
tp8703
Rp8704
(dp8705
g12
g8682
sbstp8706
Rp8707
(dp8708
g12
g8689
sbag1
(g6
g7
S'AND'
p8709
tp8710
Rp8711
(dp8712
g12
VOP
p8713
sbatp8714
Rp8715
(dp8716
g12
g8666
sbsVErrorList
p8717
g1
(g84
g3
(dp8718
VFieldNotFound
p8719
(lp8720
g1
(g6
g7
S'definition'
p8721
tp8722
Rp8723
(dp8724
g12
VFieldNotFound
p8725
sbasVPhraseNotFound
p8726
(lp8727
stp8728
Rp8729
(dp8730
g12
g8717
sg98
(lp8731
g8726
ag8719
asbsVTranslationSet
p8732
g1
(g18
g19
(lp8733
g1
(g2
g3
(dp8734
VTo
p8735
g1
(g6
g7
S'"Polyamblyodon germanum"[Organism]'
p8736
tp8737
Rp8738
(dp8739
g12
g8735
sbsVFrom
p8740
g1
(g6
g7
S'Polyamblyodon germanum[organism]'
p8741
tp8742
Rp8743
(dp8744
g12
g8740
sbstp8745
Rp8746
(dp8747
g12
VTranslation
p8748
sbatp8749
Rp8750
(dp8751
g12
g8732
sbsVRetStart
p8752
g1
(g6
g7
g121
tp8753
Rp8754
(dp8755
g12
g8752
sbsVQueryTranslation
p8756
g1
(g6
g7
S'"Polyamblyodon germanum"[Organism] AND Cytb[All Fields]'
p8757
tp8758
Rp8759
(dp8760
g12
g8756
sbstp8761
Rp8762
(dp8763
g12
VeSearchResult
p8764
sbag1
(g2
g3
(dp8765
VCount
p8766
g1
(g6
g7
g8
tp8767
Rp8768
(dp8769
g12
g8766
sbsVRetMax
p8770
g1
(g6
g7
g8
tp8771
Rp8772
(dp8773
g12
g8770
sbsVIdList
p8774
g1
(g18
g19
(lp8775
g1
(g6
g7
S'1061795568'
p8776
tp8777
Rp8778
(dp8779
g12
VId
p8780
sbatp8781
Rp8782
(dp8783
g12
g8774
sbsVTranslationStack
p8784
g1
(g18
g19
(lp8785
g1
(g2
g3
(dp8786
g8766
g1
(g6
g7
g4618
tp8787
Rp8788
(dp8789
g12
g8766
sbsVField
p8790
g1
(g6
g7
S'Organism'
p8791
tp8792
Rp8793
(dp8794
g12
g8790
sbsVTerm
p8795
g1
(g6
g7
S'"Polysteganus coeruleopunctatus"[Organism]'
p8796
tp8797
Rp8798
(dp8799
g12
g8795
sbsVExplode
p8800
g1
(g6
g7
g47
tp8801
Rp8802
(dp8803
g12
g8800
sbstp8804
Rp8805
(dp8806
g12
VTermSet
p8807
sbag1
(g2
g3
(dp8808
g8766
g1
(g6
g7
S'430914'
p8809
tp8810
Rp8811
(dp8812
g12
g8766
sbsg8790
g1
(g6
g7
S'All Fields'
p8813
tp8814
Rp8815
(dp8816
g12
g8790
sbsg8795
g1
(g6
g7
S'Cytb[All Fields]'
p8817
tp8818
Rp8819
(dp8820
g12
g8795
sbsg8800
g1
(g6
g7
g68
tp8821
Rp8822
(dp8823
g12
g8800
sbstp8824
Rp8825
(dp8826
g12
g8807
sbag1
(g6
g7
S'AND'
p8827
tp8828
Rp8829
(dp8830
g12
VOP
p8831
sbatp8832
Rp8833
(dp8834
g12
g8784
sbsVErrorList
p8835
g1
(g84
g3
(dp8836
VFieldNotFound
p8837
(lp8838
g1
(g6
g7
S'definition'
p8839
tp8840
Rp8841
(dp8842
g12
VFieldNotFound
p8843
sbasVPhraseNotFound
p8844
(lp8845
stp8846
Rp8847
(dp8848
g12
g8835
sg98
(lp8849
g8844
ag8837
asbsVTranslationSet
p8850
g1
(g18
g19
(lp8851
g1
(g2
g3
(dp8852
VTo
p8853
g1
(g6
g7
S'"Polysteganus coeruleopunctatus"[Organism]'
p8854
tp8855
Rp8856
(dp8857
g12
g8853
sbsVFrom
p8858
g1
(g6
g7
S'Polysteganus coeruleopunctatus[organism]'
p8859
tp8860
Rp8861
(dp8862
g12
g8858
sbstp8863
Rp8864
(dp8865
g12
VTranslation
p8866
sbatp8867
Rp8868
(dp8869
g12
g8850
sbsVRetStart
p8870
g1
(g6
g7
g121
tp8871
Rp8872
(dp8873
g12
g8870
sbsVQueryTranslation
p8874
g1
(g6
g7
S'"Polysteganus coeruleopunctatus"[Organism] AND Cytb[All Fields]'
p8875
tp8876
Rp8877
(dp8878
g12
g8874
sbstp8879
Rp8880
(dp8881
g12
VeSearchResult
p8882
sbag1
(g2
g3
(dp8883
VCount
p8884
g1
(g6
g7
g8
tp8885
Rp8886
(dp8887
g12
g8884
sbsVRetMax
p8888
g1
(g6
g7
g8
tp8889
Rp8890
(dp8891
g12
g8888
sbsVIdList
p8892
g1
(g18
g19
(lp8893
g1
(g6
g7
S'1061795557'
p8894
tp8895
Rp8896
(dp8897
g12
VId
p8898
sbatp8899
Rp8900
(dp8901
g12
g8892
sbsVTranslationStack
p8902
g1
(g18
g19
(lp8903
g1
(g2
g3
(dp8904
g8884
g1
(g6
g7
g8
tp8905
Rp8906
(dp8907
g12
g8884
sbsVField
p8908
g1
(g6
g7
S'organism'
p8909
tp8910
Rp8911
(dp8912
g12
g8908
sbsVTerm
p8913
g1
(g6
g7
S'Polysteganus mascarenensis[organism]'
p8914
tp8915
Rp8916
(dp8917
g12
g8913
sbsVExplode
p8918
g1
(g6
g7
g47
tp8919
Rp8920
(dp8921
g12
g8918
sbstp8922
Rp8923
(dp8924
g12
VTermSet
p8925
sbag1
(g2
g3
(dp8926
g8884
g1
(g6
g7
S'430914'
p8927
tp8928
Rp8929
(dp8930
g12
g8884
sbsg8908
g1
(g6
g7
S'All Fields'
p8931
tp8932
Rp8933
(dp8934
g12
g8908
sbsg8913
g1
(g6
g7
S'Cytb[All Fields]'
p8935
tp8936
Rp8937
(dp8938
g12
g8913
sbsg8918
g1
(g6
g7
g68
tp8939
Rp8940
(dp8941
g12
g8918
sbstp8942
Rp8943
(dp8944
g12
g8925
sbag1
(g6
g7
S'AND'
p8945
tp8946
Rp8947
(dp8948
g12
VOP
p8949
sbatp8950
Rp8951
(dp8952
g12
g8902
sbsVErrorList
p8953
g1
(g84
g3
(dp8954
VFieldNotFound
p8955
(lp8956
g1
(g6
g7
S'definition'
p8957
tp8958
Rp8959
(dp8960
g12
VFieldNotFound
p8961
sbasVPhraseNotFound
p8962
(lp8963
stp8964
Rp8965
(dp8966
g12
g8953
sg98
(lp8967
g8962
ag8955
asbsVTranslationSet
p8968
g1
(g18
g19
(lp8969
tp8970
Rp8971
(dp8972
g12
g8968
sbsVRetStart
p8973
g1
(g6
g7
g121
tp8974
Rp8975
(dp8976
g12
g8973
sbsVQueryTranslation
p8977
g1
(g6
g7
S'Polysteganus mascarenensis[organism] AND Cytb[All Fields]'
p8978
tp8979
Rp8980
(dp8981
g12
g8977
sbstp8982
Rp8983
(dp8984
g12
VeSearchResult
p8985
sbag1
(g2
g3
(dp8986
VCount
p8987
g1
(g6
g7
g8
tp8988
Rp8989
(dp8990
g12
g8987
sbsVRetMax
p8991
g1
(g6
g7
g8
tp8992
Rp8993
(dp8994
g12
g8991
sbsVIdList
p8995
g1
(g18
g19
(lp8996
g1
(g6
g7
S'13183202'
p8997
tp8998
Rp8999
(dp9000
g12
VId
p9001
sbatp9002
Rp9003
(dp9004
g12
g8995
sbsVTranslationStack
p9005
g1
(g18
g19
(lp9006
g1
(g2
g3
(dp9007
g8987
g1
(g6
g7
g1607
tp9008
Rp9009
(dp9010
g12
g8987
sbsVField
p9011
g1
(g6
g7
S'Organism'
p9012
tp9013
Rp9014
(dp9015
g12
g9011
sbsVTerm
p9016
g1
(g6
g7
S'"Polysteganus praeorbitalis"[Organism]'
p9017
tp9018
Rp9019
(dp9020
g12
g9016
sbsVExplode
p9021
g1
(g6
g7
g47
tp9022
Rp9023
(dp9024
g12
g9021
sbstp9025
Rp9026
(dp9027
g12
VTermSet
p9028
sbag1
(g2
g3
(dp9029
g8987
g1
(g6
g7
S'430914'
p9030
tp9031
Rp9032
(dp9033
g12
g8987
sbsg9011
g1
(g6
g7
S'All Fields'
p9034
tp9035
Rp9036
(dp9037
g12
g9011
sbsg9016
g1
(g6
g7
S'Cytb[All Fields]'
p9038
tp9039
Rp9040
(dp9041
g12
g9016
sbsg9021
g1
(g6
g7
g68
tp9042
Rp9043
(dp9044
g12
g9021
sbstp9045
Rp9046
(dp9047
g12
g9028
sbag1
(g6
g7
S'AND'
p9048
tp9049
Rp9050
(dp9051
g12
VOP
p9052
sbatp9053
Rp9054
(dp9055
g12
g9005
sbsVErrorList
p9056
g1
(g84
g3
(dp9057
VFieldNotFound
p9058
(lp9059
g1
(g6
g7
S'definition'
p9060
tp9061
Rp9062
(dp9063
g12
VFieldNotFound
p9064
sbasVPhraseNotFound
p9065
(lp9066
stp9067
Rp9068
(dp9069
g12
g9056
sg98
(lp9070
g9065
ag9058
asbsVTranslationSet
p9071
g1
(g18
g19
(lp9072
g1
(g2
g3
(dp9073
VTo
p9074
g1
(g6
g7
S'"Polysteganus praeorbitalis"[Organism]'
p9075
tp9076
Rp9077
(dp9078
g12
g9074
sbsVFrom
p9079
g1
(g6
g7
S'Polysteganus praeorbitalis[organism]'
p9080
tp9081
Rp9082
(dp9083
g12
g9079
sbstp9084
Rp9085
(dp9086
g12
VTranslation
p9087
sbatp9088
Rp9089
(dp9090
g12
g9071
sbsVRetStart
p9091
g1
(g6
g7
g121
tp9092
Rp9093
(dp9094
g12
g9091
sbsVQueryTranslation
p9095
g1
(g6
g7
S'"Polysteganus praeorbitalis"[Organism] AND Cytb[All Fields]'
p9096
tp9097
Rp9098
(dp9099
g12
g9095
sbstp9100
Rp9101
(dp9102
g12
VeSearchResult
p9103
sbag1
(g2
g3
(dp9104
VCount
p9105
g1
(g6
g7
g1706
tp9106
Rp9107
(dp9108
g12
g9105
sbsVRetMax
p9109
g1
(g6
g7
g1706
tp9110
Rp9111
(dp9112
g12
g9109
sbsVIdList
p9113
g1
(g18
g19
(lp9114
g1
(g6
g7
S'13183242'
p9115
tp9116
Rp9117
(dp9118
g12
VId
p9119
sbag1
(g6
g7
S'959478964'
p9120
tp9121
Rp9122
(dp9123
g12
g9119
sbag1
(g6
g7
S'402810076'
p9124
tp9125
Rp9126
(dp9127
g12
g9119
sbatp9128
Rp9129
(dp9130
g12
g9113
sbsVTranslationStack
p9131
g1
(g18
g19
(lp9132
g1
(g2
g3
(dp9133
g9105
g1
(g6
g7
S'17'
p9134
tp9135
Rp9136
(dp9137
g12
g9105
sbsVField
p9138
g1
(g6
g7
S'Organism'
p9139
tp9140
Rp9141
(dp9142
g12
g9138
sbsVTerm
p9143
g1
(g6
g7
S'"Porcostoma dentata"[Organism]'
p9144
tp9145
Rp9146
(dp9147
g12
g9143
sbsVExplode
p9148
g1
(g6
g7
g47
tp9149
Rp9150
(dp9151
g12
g9148
sbstp9152
Rp9153
(dp9154
g12
VTermSet
p9155
sbag1
(g2
g3
(dp9156
g9105
g1
(g6
g7
S'430914'
p9157
tp9158
Rp9159
(dp9160
g12
g9105
sbsg9138
g1
(g6
g7
S'All Fields'
p9161
tp9162
Rp9163
(dp9164
g12
g9138
sbsg9143
g1
(g6
g7
S'Cytb[All Fields]'
p9165
tp9166
Rp9167
(dp9168
g12
g9143
sbsg9148
g1
(g6
g7
g68
tp9169
Rp9170
(dp9171
g12
g9148
sbstp9172
Rp9173
(dp9174
g12
g9155
sbag1
(g6
g7
S'AND'
p9175
tp9176
Rp9177
(dp9178
g12
VOP
p9179
sbatp9180
Rp9181
(dp9182
g12
g9131
sbsVErrorList
p9183
g1
(g84
g3
(dp9184
VFieldNotFound
p9185
(lp9186
g1
(g6
g7
S'definition'
p9187
tp9188
Rp9189
(dp9190
g12
VFieldNotFound
p9191
sbasVPhraseNotFound
p9192
(lp9193
stp9194
Rp9195
(dp9196
g12
g9183
sg98
(lp9197
g9192
ag9185
asbsVTranslationSet
p9198
g1
(g18
g19
(lp9199
g1
(g2
g3
(dp9200
VTo
p9201
g1
(g6
g7
S'"Porcostoma dentata"[Organism]'
p9202
tp9203
Rp9204
(dp9205
g12
g9201
sbsVFrom
p9206
g1
(g6
g7
S'Porcostoma dentata[organism]'
p9207
tp9208
Rp9209
(dp9210
g12
g9206
sbstp9211
Rp9212
(dp9213
g12
VTranslation
p9214
sbatp9215
Rp9216
(dp9217
g12
g9198
sbsVRetStart
p9218
g1
(g6
g7
g121
tp9219
Rp9220
(dp9221
g12
g9218
sbsVQueryTranslation
p9222
g1
(g6
g7
S'"Porcostoma dentata"[Organism] AND Cytb[All Fields]'
p9223
tp9224
Rp9225
(dp9226
g12
g9222
sbstp9227
Rp9228
(dp9229
g12
VeSearchResult
p9230
sbag1
(g2
g3
(dp9231
VCount
p9232
g1
(g6
g7
g8
tp9233
Rp9234
(dp9235
g12
g9232
sbsVRetMax
p9236
g1
(g6
g7
g8
tp9237
Rp9238
(dp9239
g12
g9236
sbsVIdList
p9240
g1
(g18
g19
(lp9241
g1
(g6
g7
S'13183244'
p9242
tp9243
Rp9244
(dp9245
g12
VId
p9246
sbatp9247
Rp9248
(dp9249
g12
g9240
sbsVTranslationStack
p9250
g1
(g18
g19
(lp9251
g1
(g2
g3
(dp9252
g9232
g1
(g6
g7
S'20'
p9253
tp9254
Rp9255
(dp9256
g12
g9232
sbsVField
p9257
g1
(g6
g7
S'Organism'
p9258
tp9259
Rp9260
(dp9261
g12
g9257
sbsVTerm
p9262
g1
(g6
g7
S'"Pterogymnus laniarius"[Organism]'
p9263
tp9264
Rp9265
(dp9266
g12
g9262
sbsVExplode
p9267
g1
(g6
g7
g47
tp9268
Rp9269
(dp9270
g12
g9267
sbstp9271
Rp9272
(dp9273
g12
VTermSet
p9274
sbag1
(g2
g3
(dp9275
g9232
g1
(g6
g7
S'430914'
p9276
tp9277
Rp9278
(dp9279
g12
g9232
sbsg9257
g1
(g6
g7
S'All Fields'
p9280
tp9281
Rp9282
(dp9283
g12
g9257
sbsg9262
g1
(g6
g7
S'Cytb[All Fields]'
p9284
tp9285
Rp9286
(dp9287
g12
g9262
sbsg9267
g1
(g6
g7
g68
tp9288
Rp9289
(dp9290
g12
g9267
sbstp9291
Rp9292
(dp9293
g12
g9274
sbag1
(g6
g7
S'AND'
p9294
tp9295
Rp9296
(dp9297
g12
VOP
p9298
sbatp9299
Rp9300
(dp9301
g12
g9250
sbsVErrorList
p9302
g1
(g84
g3
(dp9303
VFieldNotFound
p9304
(lp9305
g1
(g6
g7
S'definition'
p9306
tp9307
Rp9308
(dp9309
g12
VFieldNotFound
p9310
sbasVPhraseNotFound
p9311
(lp9312
stp9313
Rp9314
(dp9315
g12
g9302
sg98
(lp9316
g9311
ag9304
asbsVTranslationSet
p9317
g1
(g18
g19
(lp9318
g1
(g2
g3
(dp9319
VTo
p9320
g1
(g6
g7
S'"Pterogymnus laniarius"[Organism]'
p9321
tp9322
Rp9323
(dp9324
g12
g9320
sbsVFrom
p9325
g1
(g6
g7
S'Pterogymnus laniarius[organism]'
p9326
tp9327
Rp9328
(dp9329
g12
g9325
sbstp9330
Rp9331
(dp9332
g12
VTranslation
p9333
sbatp9334
Rp9335
(dp9336
g12
g9317
sbsVRetStart
p9337
g1
(g6
g7
g121
tp9338
Rp9339
(dp9340
g12
g9337
sbsVQueryTranslation
p9341
g1
(g6
g7
S'"Pterogymnus laniarius"[Organism] AND Cytb[All Fields]'
p9342
tp9343
Rp9344
(dp9345
g12
g9341
sbstp9346
Rp9347
(dp9348
g12
VeSearchResult
p9349
sbag1
(g2
g3
(dp9350
VCount
p9351
g1
(g6
g7
S'13'
p9352
tp9353
Rp9354
(dp9355
g12
g9351
sbsVRetMax
p9356
g1
(g6
g7
S'13'
p9357
tp9358
Rp9359
(dp9360
g12
g9356
sbsVIdList
p9361
g1
(g18
g19
(lp9362
g1
(g6
g7
S'1050990029'
p9363
tp9364
Rp9365
(dp9366
g12
VId
p9367
sbag1
(g6
g7
S'1050990027'
p9368
tp9369
Rp9370
(dp9371
g12
g9367
sbag1
(g6
g7
S'1050990025'
p9372
tp9373
Rp9374
(dp9375
g12
g9367
sbag1
(g6
g7
S'1050990023'
p9376
tp9377
Rp9378
(dp9379
g12
g9367
sbag1
(g6
g7
S'1050990021'
p9380
tp9381
Rp9382
(dp9383
g12
g9367
sbag1
(g6
g7
S'1050990019'
p9384
tp9385
Rp9386
(dp9387
g12
g9367
sbag1
(g6
g7
S'23395247'
p9388
tp9389
Rp9390
(dp9391
g12
g9367
sbag1
(g6
g7
S'251733270'
p9392
tp9393
Rp9394
(dp9395
g12
g9367
sbag1
(g6
g7
S'251733268'
p9396
tp9397
Rp9398
(dp9399
g12
g9367
sbag1
(g6
g7
S'251733266'
p9400
tp9401
Rp9402
(dp9403
g12
g9367
sbag1
(g6
g7
S'251733264'
p9404
tp9405
Rp9406
(dp9407
g12
g9367
sbag1
(g6
g7
S'699256677'
p9408
tp9409
Rp9410
(dp9411
g12
g9367
sbag1
(g6
g7
S'690196210'
p9412
tp9413
Rp9414
(dp9415
g12
g9367
sbatp9416
Rp9417
(dp9418
g12
g9361
sbsVTranslationStack
p9419
g1
(g18
g19
(lp9420
g1
(g2
g3
(dp9421
g9351
g1
(g6
g7
S'116'
p9422
tp9423
Rp9424
(dp9425
g12
g9351
sbsVField
p9426
g1
(g6
g7
S'Organism'
p9427
tp9428
Rp9429
(dp9430
g12
g9426
sbsVTerm
p9431
g1
(g6
g7
S'"Rhabdosargus sarba"[Organism]'
p9432
tp9433
Rp9434
(dp9435
g12
g9431
sbsVExplode
p9436
g1
(g6
g7
g47
tp9437
Rp9438
(dp9439
g12
g9436
sbstp9440
Rp9441
(dp9442
g12
VTermSet
p9443
sbag1
(g2
g3
(dp9444
g9351
g1
(g6
g7
S'430914'
p9445
tp9446
Rp9447
(dp9448
g12
g9351
sbsg9426
g1
(g6
g7
S'All Fields'
p9449
tp9450
Rp9451
(dp9452
g12
g9426
sbsg9431
g1
(g6
g7
S'Cytb[All Fields]'
p9453
tp9454
Rp9455
(dp9456
g12
g9431
sbsg9436
g1
(g6
g7
g68
tp9457
Rp9458
(dp9459
g12
g9436
sbstp9460
Rp9461
(dp9462
g12
g9443
sbag1
(g6
g7
S'AND'
p9463
tp9464
Rp9465
(dp9466
g12
VOP
p9467
sbatp9468
Rp9469
(dp9470
g12
g9419
sbsVErrorList
p9471
g1
(g84
g3
(dp9472
VFieldNotFound
p9473
(lp9474
g1
(g6
g7
S'definition'
p9475
tp9476
Rp9477
(dp9478
g12
VFieldNotFound
p9479
sbasVPhraseNotFound
p9480
(lp9481
stp9482
Rp9483
(dp9484
g12
g9471
sg98
(lp9485
g9480
ag9473
asbsVTranslationSet
p9486
g1
(g18
g19
(lp9487
g1
(g2
g3
(dp9488
VTo
p9489
g1
(g6
g7
S'"Rhabdosargus sarba"[Organism]'
p9490
tp9491
Rp9492
(dp9493
g12
g9489
sbsVFrom
p9494
g1
(g6
g7
S'Rhabdosargus sarba[organism]'
p9495
tp9496
Rp9497
(dp9498
g12
g9494
sbstp9499
Rp9500
(dp9501
g12
VTranslation
p9502
sbatp9503
Rp9504
(dp9505
g12
g9486
sbsVRetStart
p9506
g1
(g6
g7
g121
tp9507
Rp9508
(dp9509
g12
g9506
sbsVQueryTranslation
p9510
g1
(g6
g7
S'"Rhabdosargus sarba"[Organism] AND Cytb[All Fields]'
p9511
tp9512
Rp9513
(dp9514
g12
g9510
sbstp9515
Rp9516
(dp9517
g12
VeSearchResult
p9518
sbag1
(g2
g3
(dp9519
VCount
p9520
g1
(g6
g7
g8
tp9521
Rp9522
(dp9523
g12
g9520
sbsVRetMax
p9524
g1
(g6
g7
g8
tp9525
Rp9526
(dp9527
g12
g9524
sbsVIdList
p9528
g1
(g18
g19
(lp9529
g1
(g6
g7
S'13183246'
p9530
tp9531
Rp9532
(dp9533
g12
VId
p9534
sbatp9535
Rp9536
(dp9537
g12
g9528
sbsVTranslationStack
p9538
g1
(g18
g19
(lp9539
g1
(g2
g3
(dp9540
g9520
g1
(g6
g7
g353
tp9541
Rp9542
(dp9543
g12
g9520
sbsVField
p9544
g1
(g6
g7
S'Organism'
p9545
tp9546
Rp9547
(dp9548
g12
g9544
sbsVTerm
p9549
g1
(g6
g7
S'"Rhabdosargus thorpei"[Organism]'
p9550
tp9551
Rp9552
(dp9553
g12
g9549
sbsVExplode
p9554
g1
(g6
g7
g47
tp9555
Rp9556
(dp9557
g12
g9554
sbstp9558
Rp9559
(dp9560
g12
VTermSet
p9561
sbag1
(g2
g3
(dp9562
g9520
g1
(g6
g7
S'430914'
p9563
tp9564
Rp9565
(dp9566
g12
g9520
sbsg9544
g1
(g6
g7
S'All Fields'
p9567
tp9568
Rp9569
(dp9570
g12
g9544
sbsg9549
g1
(g6
g7
S'Cytb[All Fields]'
p9571
tp9572
Rp9573
(dp9574
g12
g9549
sbsg9554
g1
(g6
g7
g68
tp9575
Rp9576
(dp9577
g12
g9554
sbstp9578
Rp9579
(dp9580
g12
g9561
sbag1
(g6
g7
S'AND'
p9581
tp9582
Rp9583
(dp9584
g12
VOP
p9585
sbatp9586
Rp9587
(dp9588
g12
g9538
sbsVErrorList
p9589
g1
(g84
g3
(dp9590
VFieldNotFound
p9591
(lp9592
g1
(g6
g7
S'definition'
p9593
tp9594
Rp9595
(dp9596
g12
VFieldNotFound
p9597
sbasVPhraseNotFound
p9598
(lp9599
stp9600
Rp9601
(dp9602
g12
g9589
sg98
(lp9603
g9598
ag9591
asbsVTranslationSet
p9604
g1
(g18
g19
(lp9605
g1
(g2
g3
(dp9606
VTo
p9607
g1
(g6
g7
S'"Rhabdosargus thorpei"[Organism]'
p9608
tp9609
Rp9610
(dp9611
g12
g9607
sbsVFrom
p9612
g1
(g6
g7
S'Rhabdosargus thorpei[organism]'
p9613
tp9614
Rp9615
(dp9616
g12
g9612
sbstp9617
Rp9618
(dp9619
g12
VTranslation
p9620
sbatp9621
Rp9622
(dp9623
g12
g9604
sbsVRetStart
p9624
g1
(g6
g7
g121
tp9625
Rp9626
(dp9627
g12
g9624
sbsVQueryTranslation
p9628
g1
(g6
g7
S'"Rhabdosargus thorpei"[Organism] AND Cytb[All Fields]'
p9629
tp9630
Rp9631
(dp9632
g12
g9628
sbstp9633
Rp9634
(dp9635
g12
VeSearchResult
p9636
sbag1
(g2
g3
(dp9637
VCount
p9638
g1
(g6
g7
S'11'
p9639
tp9640
Rp9641
(dp9642
g12
g9638
sbsVRetMax
p9643
g1
(g6
g7
S'11'
p9644
tp9645
Rp9646
(dp9647
g12
g9643
sbsVIdList
p9648
g1
(g18
g19
(lp9649
g1
(g6
g7
S'81007446'
p9650
tp9651
Rp9652
(dp9653
g12
VId
p9654
sbag1
(g6
g7
S'339518331'
p9655
tp9656
Rp9657
(dp9658
g12
g9654
sbag1
(g6
g7
S'13183190'
p9659
tp9660
Rp9661
(dp9662
g12
g9654
sbag1
(g6
g7
S'154744999'
p9663
tp9664
Rp9665
(dp9666
g12
g9654
sbag1
(g6
g7
S'154744997'
p9667
tp9668
Rp9669
(dp9670
g12
g9654
sbag1
(g6
g7
S'133924352'
p9671
tp9672
Rp9673
(dp9674
g12
g9654
sbag1
(g6
g7
S'133924350'
p9675
tp9676
Rp9677
(dp9678
g12
g9654
sbag1
(g6
g7
S'133923660'
p9679
tp9680
Rp9681
(dp9682
g12
g9654
sbag1
(g6
g7
S'133923658'
p9683
tp9684
Rp9685
(dp9686
g12
g9654
sbag1
(g6
g7
S'402810084'
p9687
tp9688
Rp9689
(dp9690
g12
g9654
sbag1
(g6
g7
S'15209386'
p9691
tp9692
Rp9693
(dp9694
g12
g9654
sbatp9695
Rp9696
(dp9697
g12
g9648
sbsVTranslationStack
p9698
g1
(g18
g19
(lp9699
g1
(g2
g3
(dp9700
g9638
g1
(g6
g7
S'225'
p9701
tp9702
Rp9703
(dp9704
g12
g9638
sbsVField
p9705
g1
(g6
g7
S'Organism'
p9706
tp9707
Rp9708
(dp9709
g12
g9705
sbsVTerm
p9710
g1
(g6
g7
S'"Sarpa salpa"[Organism]'
p9711
tp9712
Rp9713
(dp9714
g12
g9710
sbsVExplode
p9715
g1
(g6
g7
g47
tp9716
Rp9717
(dp9718
g12
g9715
sbstp9719
Rp9720
(dp9721
g12
VTermSet
p9722
sbag1
(g2
g3
(dp9723
g9638
g1
(g6
g7
S'430914'
p9724
tp9725
Rp9726
(dp9727
g12
g9638
sbsg9705
g1
(g6
g7
S'All Fields'
p9728
tp9729
Rp9730
(dp9731
g12
g9705
sbsg9710
g1
(g6
g7
S'Cytb[All Fields]'
p9732
tp9733
Rp9734
(dp9735
g12
g9710
sbsg9715
g1
(g6
g7
g68
tp9736
Rp9737
(dp9738
g12
g9715
sbstp9739
Rp9740
(dp9741
g12
g9722
sbag1
(g6
g7
S'AND'
p9742
tp9743
Rp9744
(dp9745
g12
VOP
p9746
sbatp9747
Rp9748
(dp9749
g12
g9698
sbsVErrorList
p9750
g1
(g84
g3
(dp9751
VFieldNotFound
p9752
(lp9753
g1
(g6
g7
S'definition'
p9754
tp9755
Rp9756
(dp9757
g12
VFieldNotFound
p9758
sbasVPhraseNotFound
p9759
(lp9760
stp9761
Rp9762
(dp9763
g12
g9750
sg98
(lp9764
g9759
ag9752
asbsVTranslationSet
p9765
g1
(g18
g19
(lp9766
g1
(g2
g3
(dp9767
VTo
p9768
g1
(g6
g7
S'"Sarpa salpa"[Organism]'
p9769
tp9770
Rp9771
(dp9772
g12
g9768
sbsVFrom
p9773
g1
(g6
g7
S'Sarpa salpa[organism]'
p9774
tp9775
Rp9776
(dp9777
g12
g9773
sbstp9778
Rp9779
(dp9780
g12
VTranslation
p9781
sbatp9782
Rp9783
(dp9784
g12
g9765
sbsVRetStart
p9785
g1
(g6
g7
g121
tp9786
Rp9787
(dp9788
g12
g9785
sbsVQueryTranslation
p9789
g1
(g6
g7
S'"Sarpa salpa"[Organism] AND Cytb[All Fields]'
p9790
tp9791
Rp9792
(dp9793
g12
g9789
sbstp9794
Rp9795
(dp9796
g12
VeSearchResult
p9797
sbag1
(g2
g3
(dp9798
VCount
p9799
g1
(g6
g7
g1582
tp9800
Rp9801
(dp9802
g12
g9799
sbsVRetMax
p9803
g1
(g6
g7
g1582
tp9804
Rp9805
(dp9806
g12
g9803
sbsVIdList
p9807
g1
(g18
g19
(lp9808
g1
(g6
g7
S'13183250'
p9809
tp9810
Rp9811
(dp9812
g12
VId
p9813
sbag1
(g6
g7
S'959478936'
p9814
tp9815
Rp9816
(dp9817
g12
g9813
sbatp9818
Rp9819
(dp9820
g12
g9807
sbsVTranslationStack
p9821
g1
(g18
g19
(lp9822
g1
(g2
g3
(dp9823
g9799
g1
(g6
g7
S'13'
p9824
tp9825
Rp9826
(dp9827
g12
g9799
sbsVField
p9828
g1
(g6
g7
S'Organism'
p9829
tp9830
Rp9831
(dp9832
g12
g9828
sbsVTerm
p9833
g1
(g6
g7
S'"Sparidentex hasta"[Organism]'
p9834
tp9835
Rp9836
(dp9837
g12
g9833
sbsVExplode
p9838
g1
(g6
g7
g47
tp9839
Rp9840
(dp9841
g12
g9838
sbstp9842
Rp9843
(dp9844
g12
VTermSet
p9845
sbag1
(g2
g3
(dp9846
g9799
g1
(g6
g7
S'430914'
p9847
tp9848
Rp9849
(dp9850
g12
g9799
sbsg9828
g1
(g6
g7
S'All Fields'
p9851
tp9852
Rp9853
(dp9854
g12
g9828
sbsg9833
g1
(g6
g7
S'Cytb[All Fields]'
p9855
tp9856
Rp9857
(dp9858
g12
g9833
sbsg9838
g1
(g6
g7
g68
tp9859
Rp9860
(dp9861
g12
g9838
sbstp9862
Rp9863
(dp9864
g12
g9845
sbag1
(g6
g7
S'AND'
p9865
tp9866
Rp9867
(dp9868
g12
VOP
p9869
sbatp9870
Rp9871
(dp9872
g12
g9821
sbsVErrorList
p9873
g1
(g84
g3
(dp9874
VFieldNotFound
p9875
(lp9876
g1
(g6
g7
S'definition'
p9877
tp9878
Rp9879
(dp9880
g12
VFieldNotFound
p9881
sbasVPhraseNotFound
p9882
(lp9883
stp9884
Rp9885
(dp9886
g12
g9873
sg98
(lp9887
g9882
ag9875
asbsVTranslationSet
p9888
g1
(g18
g19
(lp9889
g1
(g2
g3
(dp9890
VTo
p9891
g1
(g6
g7
S'"Sparidentex hasta"[Organism]'
p9892
tp9893
Rp9894
(dp9895
g12
g9891
sbsVFrom
p9896
g1
(g6
g7
S'Sparidentex hasta[organism]'
p9897
tp9898
Rp9899
(dp9900
g12
g9896
sbstp9901
Rp9902
(dp9903
g12
VTranslation
p9904
sbatp9905
Rp9906
(dp9907
g12
g9888
sbsVRetStart
p9908
g1
(g6
g7
g121
tp9909
Rp9910
(dp9911
g12
g9908
sbsVQueryTranslation
p9912
g1
(g6
g7
S'"Sparidentex hasta"[Organism] AND Cytb[All Fields]'
p9913
tp9914
Rp9915
(dp9916
g12
g9912
sbstp9917
Rp9918
(dp9919
g12
VeSearchResult
p9920
sbag1
(g2
g3
(dp9921
VCount
p9922
g1
(g6
g7
g8
tp9923
Rp9924
(dp9925
g12
g9922
sbsVRetMax
p9926
g1
(g6
g7
g8
tp9927
Rp9928
(dp9929
g12
g9926
sbsVIdList
p9930
g1
(g18
g19
(lp9931
g1
(g6
g7
S'13183248'
p9932
tp9933
Rp9934
(dp9935
g12
VId
p9936
sbatp9937
Rp9938
(dp9939
g12
g9930
sbsVTranslationStack
p9940
g1
(g18
g19
(lp9941
g1
(g2
g3
(dp9942
g9922
g1
(g6
g7
g1607
tp9943
Rp9944
(dp9945
g12
g9922
sbsVField
p9946
g1
(g6
g7
S'Organism'
p9947
tp9948
Rp9949
(dp9950
g12
g9946
sbsVTerm
p9951
g1
(g6
g7
S'"Sparodon durbanensis"[Organism]'
p9952
tp9953
Rp9954
(dp9955
g12
g9951
sbsVExplode
p9956
g1
(g6
g7
g47
tp9957
Rp9958
(dp9959
g12
g9956
sbstp9960
Rp9961
(dp9962
g12
VTermSet
p9963
sbag1
(g2
g3
(dp9964
g9922
g1
(g6
g7
S'430914'
p9965
tp9966
Rp9967
(dp9968
g12
g9922
sbsg9946
g1
(g6
g7
S'All Fields'
p9969
tp9970
Rp9971
(dp9972
g12
g9946
sbsg9951
g1
(g6
g7
S'Cytb[All Fields]'
p9973
tp9974
Rp9975
(dp9976
g12
g9951
sbsg9956
g1
(g6
g7
g68
tp9977
Rp9978
(dp9979
g12
g9956
sbstp9980
Rp9981
(dp9982
g12
g9963
sbag1
(g6
g7
S'AND'
p9983
tp9984
Rp9985
(dp9986
g12
VOP
p9987
sbatp9988
Rp9989
(dp9990
g12
g9940
sbsVErrorList
p9991
g1
(g84
g3
(dp9992
VFieldNotFound
p9993
(lp9994
g1
(g6
g7
S'definition'
p9995
tp9996
Rp9997
(dp9998
g12
VFieldNotFound
p9999
sbasVPhraseNotFound
p10000
(lp10001
stp10002
Rp10003
(dp10004
g12
g9991
sg98
(lp10005
g10000
ag9993
asbsVTranslationSet
p10006
g1
(g18
g19
(lp10007
g1
(g2
g3
(dp10008
VTo
p10009
g1
(g6
g7
S'"Sparodon durbanensis"[Organism]'
p10010
tp10011
Rp10012
(dp10013
g12
g10009
sbsVFrom
p10014
g1
(g6
g7
S'Sparodon durbanensis[organism]'
p10015
tp10016
Rp10017
(dp10018
g12
g10014
sbstp10019
Rp10020
(dp10021
g12
VTranslation
p10022
sbatp10023
Rp10024
(dp10025
g12
g10006
sbsVRetStart
p10026
g1
(g6
g7
g121
tp10027
Rp10028
(dp10029
g12
g10026
sbsVQueryTranslation
p10030
g1
(g6
g7
S'"Sparodon durbanensis"[Organism] AND Cytb[All Fields]'
p10031
tp10032
Rp10033
(dp10034
g12
g10030
sbstp10035
Rp10036
(dp10037
g12
VeSearchResult
p10038
sbag1
(g2
g3
(dp10039
VCount
p10040
g1
(g6
g7
S'41'
p10041
tp10042
Rp10043
(dp10044
g12
g10040
sbsVRetMax
p10045
g1
(g6
g7
S'20'
p10046
tp10047
Rp10048
(dp10049
g12
g10045
sbsVIdList
p10050
g1
(g18
g19
(lp10051
g1
(g6
g7
S'166092071'
p10052
tp10053
Rp10054
(dp10055
g12
VId
p10056
sbag1
(g6
g7
S'166092069'
p10057
tp10058
Rp10059
(dp10060
g12
g10056
sbag1
(g6
g7
S'166092067'
p10061
tp10062
Rp10063
(dp10064
g12
g10056
sbag1
(g6
g7
S'166092065'
p10065
tp10066
Rp10067
(dp10068
g12
g10056
sbag1
(g6
g7
S'166092063'
p10069
tp10070
Rp10071
(dp10072
g12
g10056
sbag1
(g6
g7
S'166092061'
p10073
tp10074
Rp10075
(dp10076
g12
g10056
sbag1
(g6
g7
S'166092059'
p10077
tp10078
Rp10079
(dp10080
g12
g10056
sbag1
(g6
g7
S'166092057'
p10081
tp10082
Rp10083
(dp10084
g12
g10056
sbag1
(g6
g7
S'166092055'
p10085
tp10086
Rp10087
(dp10088
g12
g10056
sbag1
(g6
g7
S'166092053'
p10089
tp10090
Rp10091
(dp10092
g12
g10056
sbag1
(g6
g7
S'166092051'
p10093
tp10094
Rp10095
(dp10096
g12
g10056
sbag1
(g6
g7
S'166092049'
p10097
tp10098
Rp10099
(dp10100
g12
g10056
sbag1
(g6
g7
S'166092047'
p10101
tp10102
Rp10103
(dp10104
g12
g10056
sbag1
(g6
g7
S'166092045'
p10105
tp10106
Rp10107
(dp10108
g12
g10056
sbag1
(g6
g7
S'166092043'
p10109
tp10110
Rp10111
(dp10112
g12
g10056
sbag1
(g6
g7
S'166092041'
p10113
tp10114
Rp10115
(dp10116
g12
g10056
sbag1
(g6
g7
S'166092039'
p10117
tp10118
Rp10119
(dp10120
g12
g10056
sbag1
(g6
g7
S'166092037'
p10121
tp10122
Rp10123
(dp10124
g12
g10056
sbag1
(g6
g7
S'166092035'
p10125
tp10126
Rp10127
(dp10128
g12
g10056
sbag1
(g6
g7
S'166092033'
p10129
tp10130
Rp10131
(dp10132
g12
g10056
sbatp10133
Rp10134
(dp10135
g12
g10050
sbsVTranslationStack
p10136
g1
(g18
g19
(lp10137
g1
(g2
g3
(dp10138
g10040
g1
(g6
g7
S'2062'
p10139
tp10140
Rp10141
(dp10142
g12
g10040
sbsVField
p10143
g1
(g6
g7
S'Organism'
p10144
tp10145
Rp10146
(dp10147
g12
g10143
sbsVTerm
p10148
g1
(g6
g7
S'"Sparus aurata"[Organism]'
p10149
tp10150
Rp10151
(dp10152
g12
g10148
sbsVExplode
p10153
g1
(g6
g7
g47
tp10154
Rp10155
(dp10156
g12
g10153
sbstp10157
Rp10158
(dp10159
g12
VTermSet
p10160
sbag1
(g2
g3
(dp10161
g10040
g1
(g6
g7
S'430914'
p10162
tp10163
Rp10164
(dp10165
g12
g10040
sbsg10143
g1
(g6
g7
S'All Fields'
p10166
tp10167
Rp10168
(dp10169
g12
g10143
sbsg10148
g1
(g6
g7
S'Cytb[All Fields]'
p10170
tp10171
Rp10172
(dp10173
g12
g10148
sbsg10153
g1
(g6
g7
g68
tp10174
Rp10175
(dp10176
g12
g10153
sbstp10177
Rp10178
(dp10179
g12
g10160
sbag1
(g6
g7
S'AND'
p10180
tp10181
Rp10182
(dp10183
g12
VOP
p10184
sbatp10185
Rp10186
(dp10187
g12
g10136
sbsVErrorList
p10188
g1
(g84
g3
(dp10189
VFieldNotFound
p10190
(lp10191
g1
(g6
g7
S'definition'
p10192
tp10193
Rp10194
(dp10195
g12
VFieldNotFound
p10196
sbasVPhraseNotFound
p10197
(lp10198
stp10199
Rp10200
(dp10201
g12
g10188
sg98
(lp10202
g10197
ag10190
asbsVTranslationSet
p10203
g1
(g18
g19
(lp10204
g1
(g2
g3
(dp10205
VTo
p10206
g1
(g6
g7
S'"Sparus aurata"[Organism]'
p10207
tp10208
Rp10209
(dp10210
g12
g10206
sbsVFrom
p10211
g1
(g6
g7
S'Sparus aurata[organism]'
p10212
tp10213
Rp10214
(dp10215
g12
g10211
sbstp10216
Rp10217
(dp10218
g12
VTranslation
p10219
sbatp10220
Rp10221
(dp10222
g12
g10203
sbsVRetStart
p10223
g1
(g6
g7
g121
tp10224
Rp10225
(dp10226
g12
g10223
sbsVQueryTranslation
p10227
g1
(g6
g7
S'"Sparus aurata"[Organism] AND Cytb[All Fields]'
p10228
tp10229
Rp10230
(dp10231
g12
g10227
sbstp10232
Rp10233
(dp10234
g12
VeSearchResult
p10235
sbag1
(g2
g3
(dp10236
VCount
p10237
g1
(g6
g7
g1582
tp10238
Rp10239
(dp10240
g12
g10237
sbsVRetMax
p10241
g1
(g6
g7
g1582
tp10242
Rp10243
(dp10244
g12
g10241
sbsVIdList
p10245
g1
(g18
g19
(lp10246
g1
(g6
g7
S'13183258'
p10247
tp10248
Rp10249
(dp10250
g12
VId
p10251
sbag1
(g6
g7
S'959478970'
p10252
tp10253
Rp10254
(dp10255
g12
g10251
sbatp10256
Rp10257
(dp10258
g12
g10245
sbsVTranslationStack
p10259
g1
(g18
g19
(lp10260
g1
(g2
g3
(dp10261
g10237
g1
(g6
g7
S'11'
p10262
tp10263
Rp10264
(dp10265
g12
g10237
sbsVField
p10266
g1
(g6
g7
S'Organism'
p10267
tp10268
Rp10269
(dp10270
g12
g10266
sbsVTerm
p10271
g1
(g6
g7
S'"Spicara alta"[Organism]'
p10272
tp10273
Rp10274
(dp10275
g12
g10271
sbsVExplode
p10276
g1
(g6
g7
g47
tp10277
Rp10278
(dp10279
g12
g10276
sbstp10280
Rp10281
(dp10282
g12
VTermSet
p10283
sbag1
(g2
g3
(dp10284
g10237
g1
(g6
g7
S'430914'
p10285
tp10286
Rp10287
(dp10288
g12
g10237
sbsg10266
g1
(g6
g7
S'All Fields'
p10289
tp10290
Rp10291
(dp10292
g12
g10266
sbsg10271
g1
(g6
g7
S'Cytb[All Fields]'
p10293
tp10294
Rp10295
(dp10296
g12
g10271
sbsg10276
g1
(g6
g7
g68
tp10297
Rp10298
(dp10299
g12
g10276
sbstp10300
Rp10301
(dp10302
g12
g10283
sbag1
(g6
g7
S'AND'
p10303
tp10304
Rp10305
(dp10306
g12
VOP
p10307
sbatp10308
Rp10309
(dp10310
g12
g10259
sbsVErrorList
p10311
g1
(g84
g3
(dp10312
VFieldNotFound
p10313
(lp10314
g1
(g6
g7
S'definition'
p10315
tp10316
Rp10317
(dp10318
g12
VFieldNotFound
p10319
sbasVPhraseNotFound
p10320
(lp10321
stp10322
Rp10323
(dp10324
g12
g10311
sg98
(lp10325
g10320
ag10313
asbsVTranslationSet
p10326
g1
(g18
g19
(lp10327
g1
(g2
g3
(dp10328
VTo
p10329
g1
(g6
g7
S'"Spicara alta"[Organism]'
p10330
tp10331
Rp10332
(dp10333
g12
g10329
sbsVFrom
p10334
g1
(g6
g7
S'Spicara alta[organism]'
p10335
tp10336
Rp10337
(dp10338
g12
g10334
sbstp10339
Rp10340
(dp10341
g12
VTranslation
p10342
sbatp10343
Rp10344
(dp10345
g12
g10326
sbsVRetStart
p10346
g1
(g6
g7
g121
tp10347
Rp10348
(dp10349
g12
g10346
sbsVQueryTranslation
p10350
g1
(g6
g7
S'"Spicara alta"[Organism] AND Cytb[All Fields]'
p10351
tp10352
Rp10353
(dp10354
g12
g10350
sbstp10355
Rp10356
(dp10357
g12
VeSearchResult
p10358
sbag1
(g2
g3
(dp10359
VCount
p10360
g1
(g6
g7
S'12'
p10361
tp10362
Rp10363
(dp10364
g12
g10360
sbsVRetMax
p10365
g1
(g6
g7
S'12'
p10366
tp10367
Rp10368
(dp10369
g12
g10365
sbsVIdList
p10370
g1
(g18
g19
(lp10371
g1
(g6
g7
S'302595238'
p10372
tp10373
Rp10374
(dp10375
g12
VId
p10376
sbag1
(g6
g7
S'302595236'
p10377
tp10378
Rp10379
(dp10380
g12
g10376
sbag1
(g6
g7
S'302595234'
p10381
tp10382
Rp10383
(dp10384
g12
g10376
sbag1
(g6
g7
S'302595232'
p10385
tp10386
Rp10387
(dp10388
g12
g10376
sbag1
(g6
g7
S'13183256'
p10389
tp10390
Rp10391
(dp10392
g12
g10376
sbag1
(g6
g7
S'154745039'
p10393
tp10394
Rp10395
(dp10396
g12
g10376
sbag1
(g6
g7
S'154745037'
p10397
tp10398
Rp10399
(dp10400
g12
g10376
sbag1
(g6
g7
S'133924404'
p10401
tp10402
Rp10403
(dp10404
g12
g10376
sbag1
(g6
g7
S'959478950'
p10405
tp10406
Rp10407
(dp10408
g12
g10376
sbag1
(g6
g7
S'748584734'
p10409
tp10410
Rp10411
(dp10412
g12
g10376
sbag1
(g6
g7
S'157736019'
p10413
tp10414
Rp10415
(dp10416
g12
g10376
sbag1
(g6
g7
S'139000552'
p10417
tp10418
Rp10419
(dp10420
g12
g10376
sbatp10421
Rp10422
(dp10423
g12
g10370
sbsVTranslationStack
p10424
g1
(g18
g19
(lp10425
g1
(g2
g3
(dp10426
g10360
g1
(g6
g7
S'65'
p10427
tp10428
Rp10429
(dp10430
g12
g10360
sbsVField
p10431
g1
(g6
g7
S'Organism'
p10432
tp10433
Rp10434
(dp10435
g12
g10431
sbsVTerm
p10436
g1
(g6
g7
S'"Spicara maena"[Organism]'
p10437
tp10438
Rp10439
(dp10440
g12
g10436
sbsVExplode
p10441
g1
(g6
g7
g47
tp10442
Rp10443
(dp10444
g12
g10441
sbstp10445
Rp10446
(dp10447
g12
VTermSet
p10448
sbag1
(g2
g3
(dp10449
g10360
g1
(g6
g7
S'430914'
p10450
tp10451
Rp10452
(dp10453
g12
g10360
sbsg10431
g1
(g6
g7
S'All Fields'
p10454
tp10455
Rp10456
(dp10457
g12
g10431
sbsg10436
g1
(g6
g7
S'Cytb[All Fields]'
p10458
tp10459
Rp10460
(dp10461
g12
g10436
sbsg10441
g1
(g6
g7
g68
tp10462
Rp10463
(dp10464
g12
g10441
sbstp10465
Rp10466
(dp10467
g12
g10448
sbag1
(g6
g7
S'AND'
p10468
tp10469
Rp10470
(dp10471
g12
VOP
p10472
sbatp10473
Rp10474
(dp10475
g12
g10424
sbsVErrorList
p10476
g1
(g84
g3
(dp10477
VFieldNotFound
p10478
(lp10479
g1
(g6
g7
S'definition'
p10480
tp10481
Rp10482
(dp10483
g12
VFieldNotFound
p10484
sbasVPhraseNotFound
p10485
(lp10486
stp10487
Rp10488
(dp10489
g12
g10476
sg98
(lp10490
g10485
ag10478
asbsVTranslationSet
p10491
g1
(g18
g19
(lp10492
g1
(g2
g3
(dp10493
VTo
p10494
g1
(g6
g7
S'"Spicara maena"[Organism]'
p10495
tp10496
Rp10497
(dp10498
g12
g10494
sbsVFrom
p10499
g1
(g6
g7
S'Spicara maena[organism]'
p10500
tp10501
Rp10502
(dp10503
g12
g10499
sbstp10504
Rp10505
(dp10506
g12
VTranslation
p10507
sbatp10508
Rp10509
(dp10510
g12
g10491
sbsVRetStart
p10511
g1
(g6
g7
g121
tp10512
Rp10513
(dp10514
g12
g10511
sbsVQueryTranslation
p10515
g1
(g6
g7
S'"Spicara maena"[Organism] AND Cytb[All Fields]'
p10516
tp10517
Rp10518
(dp10519
g12
g10515
sbstp10520
Rp10521
(dp10522
g12
VeSearchResult
p10523
sbag1
(g2
g3
(dp10524
VCount
p10525
g1
(g6
g7
g353
tp10526
Rp10527
(dp10528
g12
g10525
sbsVRetMax
p10529
g1
(g6
g7
g353
tp10530
Rp10531
(dp10532
g12
g10529
sbsVIdList
p10533
g1
(g18
g19
(lp10534
g1
(g6
g7
S'302595242'
p10535
tp10536
Rp10537
(dp10538
g12
VId
p10539
sbag1
(g6
g7
S'302595240'
p10540
tp10541
Rp10542
(dp10543
g12
g10539
sbag1
(g6
g7
S'302595230'
p10544
tp10545
Rp10546
(dp10547
g12
g10539
sbag1
(g6
g7
S'154745043'
p10548
tp10549
Rp10550
(dp10551
g12
g10539
sbag1
(g6
g7
S'154745041'
p10552
tp10553
Rp10554
(dp10555
g12
g10539
sbag1
(g6
g7
S'133924408'
p10556
tp10557
Rp10558
(dp10559
g12
g10539
sbag1
(g6
g7
S'133924406'
p10560
tp10561
Rp10562
(dp10563
g12
g10539
sbag1
(g6
g7
S'959478952'
p10564
tp10565
Rp10566
(dp10567
g12
g10539
sbatp10568
Rp10569
(dp10570
g12
g10533
sbsVTranslationStack
p10571
g1
(g18
g19
(lp10572
g1
(g2
g3
(dp10573
g10525
g1
(g6
g7
S'59'
p10574
tp10575
Rp10576
(dp10577
g12
g10525
sbsVField
p10578
g1
(g6
g7
S'Organism'
p10579
tp10580
Rp10581
(dp10582
g12
g10578
sbsVTerm
p10583
g1
(g6
g7
S'"Spicara smaris"[Organism]'
p10584
tp10585
Rp10586
(dp10587
g12
g10583
sbsVExplode
p10588
g1
(g6
g7
g47
tp10589
Rp10590
(dp10591
g12
g10588
sbstp10592
Rp10593
(dp10594
g12
VTermSet
p10595
sbag1
(g2
g3
(dp10596
g10525
g1
(g6
g7
S'430914'
p10597
tp10598
Rp10599
(dp10600
g12
g10525
sbsg10578
g1
(g6
g7
S'All Fields'
p10601
tp10602
Rp10603
(dp10604
g12
g10578
sbsg10583
g1
(g6
g7
S'Cytb[All Fields]'
p10605
tp10606
Rp10607
(dp10608
g12
g10583
sbsg10588
g1
(g6
g7
g68
tp10609
Rp10610
(dp10611
g12
g10588
sbstp10612
Rp10613
(dp10614
g12
g10595
sbag1
(g6
g7
S'AND'
p10615
tp10616
Rp10617
(dp10618
g12
VOP
p10619
sbatp10620
Rp10621
(dp10622
g12
g10571
sbsVErrorList
p10623
g1
(g84
g3
(dp10624
VFieldNotFound
p10625
(lp10626
g1
(g6
g7
S'definition'
p10627
tp10628
Rp10629
(dp10630
g12
VFieldNotFound
p10631
sbasVPhraseNotFound
p10632
(lp10633
stp10634
Rp10635
(dp10636
g12
g10623
sg98
(lp10637
g10632
ag10625
asbsVTranslationSet
p10638
g1
(g18
g19
(lp10639
g1
(g2
g3
(dp10640
VTo
p10641
g1
(g6
g7
S'"Spicara smaris"[Organism]'
p10642
tp10643
Rp10644
(dp10645
g12
g10641
sbsVFrom
p10646
g1
(g6
g7
S'Spicara smaris[organism]'
p10647
tp10648
Rp10649
(dp10650
g12
g10646
sbstp10651
Rp10652
(dp10653
g12
VTranslation
p10654
sbatp10655
Rp10656
(dp10657
g12
g10638
sbsVRetStart
p10658
g1
(g6
g7
g121
tp10659
Rp10660
(dp10661
g12
g10658
sbsVQueryTranslation
p10662
g1
(g6
g7
S'"Spicara smaris"[Organism] AND Cytb[All Fields]'
p10663
tp10664
Rp10665
(dp10666
g12
g10662
sbstp10667
Rp10668
(dp10669
g12
VeSearchResult
p10670
sbag1
(g2
g3
(dp10671
VCount
p10672
g1
(g6
g7
S'14'
p10673
tp10674
Rp10675
(dp10676
g12
g10672
sbsVRetMax
p10677
g1
(g6
g7
S'14'
p10678
tp10679
Rp10680
(dp10681
g12
g10677
sbsVIdList
p10682
g1
(g18
g19
(lp10683
g1
(g6
g7
S'159462125'
p10684
tp10685
Rp10686
(dp10687
g12
VId
p10688
sbag1
(g6
g7
S'159462123'
p10689
tp10690
Rp10691
(dp10692
g12
g10688
sbag1
(g6
g7
S'81007476'
p10693
tp10694
Rp10695
(dp10696
g12
g10688
sbag1
(g6
g7
S'13183192'
p10697
tp10698
Rp10699
(dp10700
g12
g10688
sbag1
(g6
g7
S'154745047'
p10701
tp10702
Rp10703
(dp10704
g12
g10688
sbag1
(g6
g7
S'154745045'
p10705
tp10706
Rp10707
(dp10708
g12
g10688
sbag1
(g6
g7
S'133924412'
p10709
tp10710
Rp10711
(dp10712
g12
g10688
sbag1
(g6
g7
S'133924410'
p10713
tp10714
Rp10715
(dp10716
g12
g10688
sbag1
(g6
g7
S'133923682'
p10717
tp10718
Rp10719
(dp10720
g12
g10688
sbag1
(g6
g7
S'129561785'
p10721
tp10722
Rp10723
(dp10724
g12
g10688
sbag1
(g6
g7
S'129561783'
p10725
tp10726
Rp10727
(dp10728
g12
g10688
sbag1
(g6
g7
S'959478954'
p10729
tp10730
Rp10731
(dp10732
g12
g10688
sbag1
(g6
g7
S'298205533'
p10733
tp10734
Rp10735
(dp10736
g12
g10688
sbag1
(g6
g7
S'15209384'
p10737
tp10738
Rp10739
(dp10740
g12
g10688
sbatp10741
Rp10742
(dp10743
g12
g10682
sbsVTranslationStack
p10744
g1
(g18
g19
(lp10745
g1
(g2
g3
(dp10746
g10672
g1
(g6
g7
S'131'
p10747
tp10748
Rp10749
(dp10750
g12
g10672
sbsVField
p10751
g1
(g6
g7
S'Organism'
p10752
tp10753
Rp10754
(dp10755
g12
g10751
sbsVTerm
p10756
g1
(g6
g7
S'"Spondyliosoma cantharus"[Organism]'
p10757
tp10758
Rp10759
(dp10760
g12
g10756
sbsVExplode
p10761
g1
(g6
g7
g47
tp10762
Rp10763
(dp10764
g12
g10761
sbstp10765
Rp10766
(dp10767
g12
VTermSet
p10768
sbag1
(g2
g3
(dp10769
g10672
g1
(g6
g7
S'430914'
p10770
tp10771
Rp10772
(dp10773
g12
g10672
sbsg10751
g1
(g6
g7
S'All Fields'
p10774
tp10775
Rp10776
(dp10777
g12
g10751
sbsg10756
g1
(g6
g7
S'Cytb[All Fields]'
p10778
tp10779
Rp10780
(dp10781
g12
g10756
sbsg10761
g1
(g6
g7
g68
tp10782
Rp10783
(dp10784
g12
g10761
sbstp10785
Rp10786
(dp10787
g12
g10768
sbag1
(g6
g7
S'AND'
p10788
tp10789
Rp10790
(dp10791
g12
VOP
p10792
sbatp10793
Rp10794
(dp10795
g12
g10744
sbsVErrorList
p10796
g1
(g84
g3
(dp10797
VFieldNotFound
p10798
(lp10799
g1
(g6
g7
S'definition'
p10800
tp10801
Rp10802
(dp10803
g12
VFieldNotFound
p10804
sbasVPhraseNotFound
p10805
(lp10806
stp10807
Rp10808
(dp10809
g12
g10796
sg98
(lp10810
g10805
ag10798
asbsVTranslationSet
p10811
g1
(g18
g19
(lp10812
g1
(g2
g3
(dp10813
VTo
p10814
g1
(g6
g7
S'"Spondyliosoma cantharus"[Organism]'
p10815
tp10816
Rp10817
(dp10818
g12
g10814
sbsVFrom
p10819
g1
(g6
g7
S'Spondyliosoma cantharus[organism]'
p10820
tp10821
Rp10822
(dp10823
g12
g10819
sbstp10824
Rp10825
(dp10826
g12
VTranslation
p10827
sbatp10828
Rp10829
(dp10830
g12
g10811
sbsVRetStart
p10831
g1
(g6
g7
g121
tp10832
Rp10833
(dp10834
g12
g10831
sbsVQueryTranslation
p10835
g1
(g6
g7
S'"Spondyliosoma cantharus"[Organism] AND Cytb[All Fields]'
p10836
tp10837
Rp10838
(dp10839
g12
g10835
sbstp10840
Rp10841
(dp10842
g12
VeSearchResult
p10843
sbag1
(g2
g3
(dp10844
VCount
p10845
g1
(g6
g7
g8
tp10846
Rp10847
(dp10848
g12
g10845
sbsVRetMax
p10849
g1
(g6
g7
g8
tp10850
Rp10851
(dp10852
g12
g10849
sbsVIdList
p10853
g1
(g18
g19
(lp10854
g1
(g6
g7
S'13183254'
p10855
tp10856
Rp10857
(dp10858
g12
VId
p10859
sbatp10860
Rp10861
(dp10862
g12
g10853
sbsVTranslationStack
p10863
g1
(g18
g19
(lp10864
g1
(g2
g3
(dp10865
g10845
g1
(g6
g7
S'44'
p10866
tp10867
Rp10868
(dp10869
g12
g10845
sbsVField
p10870
g1
(g6
g7
S'Organism'
p10871
tp10872
Rp10873
(dp10874
g12
g10870
sbsVTerm
p10875
g1
(g6
g7
S'"Stenotomus chrysops"[Organism]'
p10876
tp10877
Rp10878
(dp10879
g12
g10875
sbsVExplode
p10880
g1
(g6
g7
g47
tp10881
Rp10882
(dp10883
g12
g10880
sbstp10884
Rp10885
(dp10886
g12
VTermSet
p10887
sbag1
(g2
g3
(dp10888
g10845
g1
(g6
g7
S'430914'
p10889
tp10890
Rp10891
(dp10892
g12
g10845
sbsg10870
g1
(g6
g7
S'All Fields'
p10893
tp10894
Rp10895
(dp10896
g12
g10870
sbsg10875
g1
(g6
g7
S'Cytb[All Fields]'
p10897
tp10898
Rp10899
(dp10900
g12
g10875
sbsg10880
g1
(g6
g7
g68
tp10901
Rp10902
(dp10903
g12
g10880
sbstp10904
Rp10905
(dp10906
g12
g10887
sbag1
(g6
g7
S'AND'
p10907
tp10908
Rp10909
(dp10910
g12
VOP
p10911
sbatp10912
Rp10913
(dp10914
g12
g10863
sbsVErrorList
p10915
g1
(g84
g3
(dp10916
VFieldNotFound
p10917
(lp10918
g1
(g6
g7
S'definition'
p10919
tp10920
Rp10921
(dp10922
g12
VFieldNotFound
p10923
sbasVPhraseNotFound
p10924
(lp10925
stp10926
Rp10927
(dp10928
g12
g10915
sg98
(lp10929
g10924
ag10917
asbsVTranslationSet
p10930
g1
(g18
g19
(lp10931
g1
(g2
g3
(dp10932
VTo
p10933
g1
(g6
g7
S'"Stenotomus chrysops"[Organism]'
p10934
tp10935
Rp10936
(dp10937
g12
g10933
sbsVFrom
p10938
g1
(g6
g7
S'Stenotomus chrysops[organism]'
p10939
tp10940
Rp10941
(dp10942
g12
g10938
sbstp10943
Rp10944
(dp10945
g12
VTranslation
p10946
sbatp10947
Rp10948
(dp10949
g12
g10930
sbsVRetStart
p10950
g1
(g6
g7
g121
tp10951
Rp10952
(dp10953
g12
g10950
sbsVQueryTranslation
p10954
g1
(g6
g7
S'"Stenotomus chrysops"[Organism] AND Cytb[All Fields]'
p10955
tp10956
Rp10957
(dp10958
g12
g10954
sbstp10959
Rp10960
(dp10961
g12
VeSearchResult
p10962
sbag1
(g2
g3
(dp10963
VCount
p10964
g1
(g6
g7
g8
tp10965
Rp10966
(dp10967
g12
g10964
sbsVRetMax
p10968
g1
(g6
g7
g8
tp10969
Rp10970
(dp10971
g12
g10968
sbsVIdList
p10972
g1
(g18
g19
(lp10973
g1
(g6
g7
S'959478962'
p10974
tp10975
Rp10976
(dp10977
g12
VId
p10978
sbatp10979
Rp10980
(dp10981
g12
g10972
sbsVTranslationStack
p10982
g1
(g18
g19
(lp10983
g1
(g2
g3
(dp10984
g10964
g1
(g6
g7
g353
tp10985
Rp10986
(dp10987
g12
g10964
sbsVField
p10988
g1
(g6
g7
S'Organism'
p10989
tp10990
Rp10991
(dp10992
g12
g10988
sbsVTerm
p10993
g1
(g6
g7
S'"Virididentex acromegalus"[Organism]'
p10994
tp10995
Rp10996
(dp10997
g12
g10993
sbsVExplode
p10998
g1
(g6
g7
g47
tp10999
Rp11000
(dp11001
g12
g10998
sbstp11002
Rp11003
(dp11004
g12
VTermSet
p11005
sbag1
(g2
g3
(dp11006
g10964
g1
(g6
g7
S'430914'
p11007
tp11008
Rp11009
(dp11010
g12
g10964
sbsg10988
g1
(g6
g7
S'All Fields'
p11011
tp11012
Rp11013
(dp11014
g12
g10988
sbsg10993
g1
(g6
g7
S'Cytb[All Fields]'
p11015
tp11016
Rp11017
(dp11018
g12
g10993
sbsg10998
g1
(g6
g7
g68
tp11019
Rp11020
(dp11021
g12
g10998
sbstp11022
Rp11023
(dp11024
g12
g11005
sbag1
(g6
g7
S'AND'
p11025
tp11026
Rp11027
(dp11028
g12
VOP
p11029
sbatp11030
Rp11031
(dp11032
g12
g10982
sbsVErrorList
p11033
g1
(g84
g3
(dp11034
VFieldNotFound
p11035
(lp11036
g1
(g6
g7
S'definition'
p11037
tp11038
Rp11039
(dp11040
g12
VFieldNotFound
p11041
sbasVPhraseNotFound
p11042
(lp11043
stp11044
Rp11045
(dp11046
g12
g11033
sg98
(lp11047
g11042
ag11035
asbsVTranslationSet
p11048
g1
(g18
g19
(lp11049
g1
(g2
g3
(dp11050
VTo
p11051
g1
(g6
g7
S'"Virididentex acromegalus"[Organism]'
p11052
tp11053
Rp11054
(dp11055
g12
g11051
sbsVFrom
p11056
g1
(g6
g7
S'Virididentex acromegalus[organism]'
p11057
tp11058
Rp11059
(dp11060
g12
g11056
sbstp11061
Rp11062
(dp11063
g12
VTranslation
p11064
sbatp11065
Rp11066
(dp11067
g12
g11048
sbsVRetStart
p11068
g1
(g6
g7
g121
tp11069
Rp11070
(dp11071
g12
g11068
sbsVQueryTranslation
p11072
g1
(g6
g7
S'"Virididentex acromegalus"[Organism] AND Cytb[All Fields]'
p11073
tp11074
Rp11075
(dp11076
g12
g11072
sbstp11077
Rp11078
(dp11079
g12
VeSearchResult
p11080
sba.