(lp0
ccopy_reg
_reconstructor
p1
(cBio.Entrez.Parser
DictionaryElement
p2
c__builtin__
dict
p3
(dp4
VCount
p5
g1
(cBio.Entrez.Parser
StringElement
p6
c__builtin__
str
p7
S'7'
p8
tp9
Rp10
(dp11
S'tag'
p12
g5
sbsVRetMax
p13
g1
(g6
g7
g8
tp14
Rp15
(dp16
g12
g13
sbsVIdList
p17
g1
(cBio.Entrez.Parser
ListElement
p18
c__builtin__
list
p19
(lp20
g1
(g6
g7
S'339518345'
p21
tp22
Rp23
(dp24
g12
VId
p25
sbag1
(g6
g7
S'1041927442'
p26
tp27
Rp28
(dp29
g12
g25
sbag1
(g6
g7
S'1041927218'
p30
tp31
Rp32
(dp33
g12
g25
sbag1
(g6
g7
S'381278506'
p34
tp35
Rp36
(dp37
g12
g25
sbag1
(g6
g7
S'381278504'
p38
tp39
Rp40
(dp41
g12
g25
sbag1
(g6
g7
S'381278502'
p42
tp43
Rp44
(dp45
g12
g25
sbag1
(g6
g7
S'381278500'
p46
tp47
Rp48
(dp49
g12
g25
sbatp50
Rp51
(dp52
g12
g17
sbsVQueryTranslation
p53
g1
(g6
g7
S'Aphareus furca[PORG] AND COI[title]'
p54
tp55
Rp56
(dp57
g12
g53
sbsVTranslationStack
p58
g1
(g18
g19
(lp59
g1
(g2
g3
(dp60
g5
g1
(g6
g7
S'26'
p61
tp62
Rp63
(dp64
g12
g5
sbsVField
p65
g1
(g6
g7
S'PORG'
p66
tp67
Rp68
(dp69
g12
g65
sbsVTerm
p70
g1
(g6
g7
S'Aphareus furca[PORG]'
p71
tp72
Rp73
(dp74
g12
g70
sbsVExplode
p75
g1
(g6
g7
S'Y'
p76
tp77
Rp78
(dp79
g12
g75
sbstp80
Rp81
(dp82
g12
VTermSet
p83
sbag1
(g2
g3
(dp84
g5
g1
(g6
g7
S'2155368'
p85
tp86
Rp87
(dp88
g12
g5
sbsg65
g1
(g6
g7
S'title'
p89
tp90
Rp91
(dp92
g12
g65
sbsg70
g1
(g6
g7
S'COI[title]'
p93
tp94
Rp95
(dp96
g12
g70
sbsg75
g1
(g6
g7
S'N'
p97
tp98
Rp99
(dp100
g12
g75
sbstp101
Rp102
(dp103
g12
g83
sbag1
(g6
g7
S'AND'
p104
tp105
Rp106
(dp107
g12
VOP
p108
sbatp109
Rp110
(dp111
g12
g58
sbsVRetStart
p112
g1
(g6
g7
S'0'
p113
tp114
Rp115
(dp116
g12
g112
sbsVTranslationSet
p117
g1
(g18
g19
(lp118
tp119
Rp120
(dp121
g12
g117
sbstp122
Rp123
(dp124
g12
VeSearchResult
p125
sbag1
(g2
g3
(dp126
VCount
p127
g1
(g6
g7
S'8'
p128
tp129
Rp130
(dp131
g12
g127
sbsVRetMax
p132
g1
(g6
g7
g128
tp133
Rp134
(dp135
g12
g132
sbsVIdList
p136
g1
(g18
g19
(lp137
g1
(g6
g7
S'328484130'
p138
tp139
Rp140
(dp141
g12
VId
p142
sbag1
(g6
g7
S'328484128'
p143
tp144
Rp145
(dp146
g12
g142
sbag1
(g6
g7
S'312841771'
p147
tp148
Rp149
(dp150
g12
g142
sbag1
(g6
g7
S'1020877959'
p151
tp152
Rp153
(dp154
g12
g142
sbag1
(g6
g7
S'554791771'
p155
tp156
Rp157
(dp158
g12
g142
sbag1
(g6
g7
S'554791769'
p159
tp160
Rp161
(dp162
g12
g142
sbag1
(g6
g7
S'557955398'
p163
tp164
Rp165
(dp166
g12
g142
sbag1
(g6
g7
S'148373777'
p167
tp168
Rp169
(dp170
g12
g142
sbatp171
Rp172
(dp173
g12
g136
sbsVQueryTranslation
p174
g1
(g6
g7
S'Aphareus rutilans[PORG] AND COI[title]'
p175
tp176
Rp177
(dp178
g12
g174
sbsVTranslationStack
p179
g1
(g18
g19
(lp180
g1
(g2
g3
(dp181
g127
g1
(g6
g7
S'12'
p182
tp183
Rp184
(dp185
g12
g127
sbsVField
p186
g1
(g6
g7
S'PORG'
p187
tp188
Rp189
(dp190
g12
g186
sbsVTerm
p191
g1
(g6
g7
S'Aphareus rutilans[PORG]'
p192
tp193
Rp194
(dp195
g12
g191
sbsVExplode
p196
g1
(g6
g7
g76
tp197
Rp198
(dp199
g12
g196
sbstp200
Rp201
(dp202
g12
VTermSet
p203
sbag1
(g2
g3
(dp204
g127
g1
(g6
g7
S'2155368'
p205
tp206
Rp207
(dp208
g12
g127
sbsg186
g1
(g6
g7
S'title'
p209
tp210
Rp211
(dp212
g12
g186
sbsg191
g1
(g6
g7
S'COI[title]'
p213
tp214
Rp215
(dp216
g12
g191
sbsg196
g1
(g6
g7
g97
tp217
Rp218
(dp219
g12
g196
sbstp220
Rp221
(dp222
g12
g203
sbag1
(g6
g7
S'AND'
p223
tp224
Rp225
(dp226
g12
VOP
p227
sbatp228
Rp229
(dp230
g12
g179
sbsVRetStart
p231
g1
(g6
g7
g113
tp232
Rp233
(dp234
g12
g231
sbsVTranslationSet
p235
g1
(g18
g19
(lp236
tp237
Rp238
(dp239
g12
g235
sbstp240
Rp241
(dp242
g12
VeSearchResult
p243
sbag1
(g2
g3
(dp244
VCount
p245
g1
(g6
g7
S'9'
p246
tp247
Rp248
(dp249
g12
g245
sbsVRetMax
p250
g1
(g6
g7
g246
tp251
Rp252
(dp253
g12
g250
sbsVIdList
p254
g1
(g18
g19
(lp255
g1
(g6
g7
S'328484188'
p256
tp257
Rp258
(dp259
g12
VId
p260
sbag1
(g6
g7
S'328484186'
p261
tp262
Rp263
(dp264
g12
g260
sbag1
(g6
g7
S'328484184'
p265
tp266
Rp267
(dp268
g12
g260
sbag1
(g6
g7
S'328484182'
p269
tp270
Rp271
(dp272
g12
g260
sbag1
(g6
g7
S'816376313'
p273
tp274
Rp275
(dp276
g12
g260
sbag1
(g6
g7
S'816375769'
p277
tp278
Rp279
(dp280
g12
g260
sbag1
(g6
g7
S'557955402'
p281
tp282
Rp283
(dp284
g12
g260
sbag1
(g6
g7
S'557955400'
p285
tp286
Rp287
(dp288
g12
g260
sbag1
(g6
g7
S'381278572'
p289
tp290
Rp291
(dp292
g12
g260
sbatp293
Rp294
(dp295
g12
g254
sbsVQueryTranslation
p296
g1
(g6
g7
S'Aprion virescens[PORG] AND COI[title]'
p297
tp298
Rp299
(dp300
g12
g296
sbsVTranslationStack
p301
g1
(g18
g19
(lp302
g1
(g2
g3
(dp303
g245
g1
(g6
g7
S'19'
p304
tp305
Rp306
(dp307
g12
g245
sbsVField
p308
g1
(g6
g7
S'PORG'
p309
tp310
Rp311
(dp312
g12
g308
sbsVTerm
p313
g1
(g6
g7
S'Aprion virescens[PORG]'
p314
tp315
Rp316
(dp317
g12
g313
sbsVExplode
p318
g1
(g6
g7
g76
tp319
Rp320
(dp321
g12
g318
sbstp322
Rp323
(dp324
g12
VTermSet
p325
sbag1
(g2
g3
(dp326
g245
g1
(g6
g7
S'2155368'
p327
tp328
Rp329
(dp330
g12
g245
sbsg308
g1
(g6
g7
S'title'
p331
tp332
Rp333
(dp334
g12
g308
sbsg313
g1
(g6
g7
S'COI[title]'
p335
tp336
Rp337
(dp338
g12
g313
sbsg318
g1
(g6
g7
g97
tp339
Rp340
(dp341
g12
g318
sbstp342
Rp343
(dp344
g12
g325
sbag1
(g6
g7
S'AND'
p345
tp346
Rp347
(dp348
g12
VOP
p349
sbatp350
Rp351
(dp352
g12
g301
sbsVRetStart
p353
g1
(g6
g7
g113
tp354
Rp355
(dp356
g12
g353
sbsVTranslationSet
p357
g1
(g18
g19
(lp358
tp359
Rp360
(dp361
g12
g357
sbstp362
Rp363
(dp364
g12
VeSearchResult
p365
sbag1
(g2
g3
(dp366
VCount
p367
g1
(g6
g7
S'4'
p368
tp369
Rp370
(dp371
g12
g367
sbsVRetMax
p372
g1
(g6
g7
g368
tp373
Rp374
(dp375
g12
g372
sbsVIdList
p376
g1
(g18
g19
(lp377
g1
(g6
g7
S'320578811'
p378
tp379
Rp380
(dp381
g12
VId
p382
sbag1
(g6
g7
S'320578809'
p383
tp384
Rp385
(dp386
g12
g382
sbag1
(g6
g7
S'320578807'
p387
tp388
Rp389
(dp390
g12
g382
sbag1
(g6
g7
S'393004770'
p391
tp392
Rp393
(dp394
g12
g382
sbatp395
Rp396
(dp397
g12
g376
sbsVQueryTranslation
p398
g1
(g6
g7
S'Apsilus dentatus[PORG] AND COI[title]'
p399
tp400
Rp401
(dp402
g12
g398
sbsVTranslationStack
p403
g1
(g18
g19
(lp404
g1
(g2
g3
(dp405
g367
g1
(g6
g7
S'19'
p406
tp407
Rp408
(dp409
g12
g367
sbsVField
p410
g1
(g6
g7
S'PORG'
p411
tp412
Rp413
(dp414
g12
g410
sbsVTerm
p415
g1
(g6
g7
S'Apsilus dentatus[PORG]'
p416
tp417
Rp418
(dp419
g12
g415
sbsVExplode
p420
g1
(g6
g7
g76
tp421
Rp422
(dp423
g12
g420
sbstp424
Rp425
(dp426
g12
VTermSet
p427
sbag1
(g2
g3
(dp428
g367
g1
(g6
g7
S'2155368'
p429
tp430
Rp431
(dp432
g12
g367
sbsg410
g1
(g6
g7
S'title'
p433
tp434
Rp435
(dp436
g12
g410
sbsg415
g1
(g6
g7
S'COI[title]'
p437
tp438
Rp439
(dp440
g12
g415
sbsg420
g1
(g6
g7
g97
tp441
Rp442
(dp443
g12
g420
sbstp444
Rp445
(dp446
g12
g427
sbag1
(g6
g7
S'AND'
p447
tp448
Rp449
(dp450
g12
VOP
p451
sbatp452
Rp453
(dp454
g12
g403
sbsVRetStart
p455
g1
(g6
g7
g113
tp456
Rp457
(dp458
g12
g455
sbsVTranslationSet
p459
g1
(g18
g19
(lp460
tp461
Rp462
(dp463
g12
g459
sbstp464
Rp465
(dp466
g12
VeSearchResult
p467
sbag1
(g2
g3
(dp468
VCount
p469
g1
(g6
g7
g113
tp470
Rp471
(dp472
g12
g469
sbsVRetMax
p473
g1
(g6
g7
g113
tp474
Rp475
(dp476
g12
g473
sbsVIdList
p477
g1
(g18
g19
(lp478
tp479
Rp480
(dp481
g12
g477
sbsVQueryTranslation
p482
g1
(g6
g7
S'Apsilus fuscus[PORG] AND COI[title]'
p483
tp484
Rp485
(dp486
g12
g482
sbsVTranslationStack
p487
g1
(g18
g19
(lp488
g1
(g2
g3
(dp489
g469
g1
(g6
g7
S'3'
p490
tp491
Rp492
(dp493
g12
g469
sbsVField
p494
g1
(g6
g7
S'PORG'
p495
tp496
Rp497
(dp498
g12
g494
sbsVTerm
p499
g1
(g6
g7
S'Apsilus fuscus[PORG]'
p500
tp501
Rp502
(dp503
g12
g499
sbsVExplode
p504
g1
(g6
g7
g76
tp505
Rp506
(dp507
g12
g504
sbstp508
Rp509
(dp510
g12
VTermSet
p511
sbag1
(g2
g3
(dp512
g469
g1
(g6
g7
S'2155368'
p513
tp514
Rp515
(dp516
g12
g469
sbsg494
g1
(g6
g7
S'title'
p517
tp518
Rp519
(dp520
g12
g494
sbsg499
g1
(g6
g7
S'COI[title]'
p521
tp522
Rp523
(dp524
g12
g499
sbsg504
g1
(g6
g7
g97
tp525
Rp526
(dp527
g12
g504
sbstp528
Rp529
(dp530
g12
g511
sbag1
(g6
g7
S'AND'
p531
tp532
Rp533
(dp534
g12
VOP
p535
sbatp536
Rp537
(dp538
g12
g487
sbsVRetStart
p539
g1
(g6
g7
g113
tp540
Rp541
(dp542
g12
g539
sbsVTranslationSet
p543
g1
(g18
g19
(lp544
tp545
Rp546
(dp547
g12
g543
sbstp548
Rp549
(dp550
g12
VeSearchResult
p551
sbag1
(g2
g3
(dp552
VCount
p553
g1
(g6
g7
S'11'
p554
tp555
Rp556
(dp557
g12
g553
sbsVRetMax
p558
g1
(g6
g7
S'11'
p559
tp560
Rp561
(dp562
g12
g558
sbsVIdList
p563
g1
(g18
g19
(lp564
g1
(g6
g7
S'339431525'
p565
tp566
Rp567
(dp568
g12
VId
p569
sbag1
(g6
g7
S'1020877971'
p570
tp571
Rp572
(dp573
g12
g569
sbag1
(g6
g7
S'1020877969'
p574
tp575
Rp576
(dp577
g12
g569
sbag1
(g6
g7
S'1020877967'
p578
tp579
Rp580
(dp581
g12
g569
sbag1
(g6
g7
S'1020877965'
p582
tp583
Rp584
(dp585
g12
g569
sbag1
(g6
g7
S'1020877963'
p586
tp587
Rp588
(dp589
g12
g569
sbag1
(g6
g7
S'1020877961'
p590
tp591
Rp592
(dp593
g12
g569
sbag1
(g6
g7
S'554791969'
p594
tp595
Rp596
(dp597
g12
g569
sbag1
(g6
g7
S'554791967'
p598
tp599
Rp600
(dp601
g12
g569
sbag1
(g6
g7
S'381279110'
p602
tp603
Rp604
(dp605
g12
g569
sbag1
(g6
g7
S'148373913'
p606
tp607
Rp608
(dp609
g12
g569
sbatp610
Rp611
(dp612
g12
g563
sbsVQueryTranslation
p613
g1
(g6
g7
S'Etelis carbunculus[PORG] AND COI[title]'
p614
tp615
Rp616
(dp617
g12
g613
sbsVTranslationStack
p618
g1
(g18
g19
(lp619
g1
(g2
g3
(dp620
g553
g1
(g6
g7
S'100'
p621
tp622
Rp623
(dp624
g12
g553
sbsVField
p625
g1
(g6
g7
S'PORG'
p626
tp627
Rp628
(dp629
g12
g625
sbsVTerm
p630
g1
(g6
g7
S'Etelis carbunculus[PORG]'
p631
tp632
Rp633
(dp634
g12
g630
sbsVExplode
p635
g1
(g6
g7
g76
tp636
Rp637
(dp638
g12
g635
sbstp639
Rp640
(dp641
g12
VTermSet
p642
sbag1
(g2
g3
(dp643
g553
g1
(g6
g7
S'2155368'
p644
tp645
Rp646
(dp647
g12
g553
sbsg625
g1
(g6
g7
S'title'
p648
tp649
Rp650
(dp651
g12
g625
sbsg630
g1
(g6
g7
S'COI[title]'
p652
tp653
Rp654
(dp655
g12
g630
sbsg635
g1
(g6
g7
g97
tp656
Rp657
(dp658
g12
g635
sbstp659
Rp660
(dp661
g12
g642
sbag1
(g6
g7
S'AND'
p662
tp663
Rp664
(dp665
g12
VOP
p666
sbatp667
Rp668
(dp669
g12
g618
sbsVRetStart
p670
g1
(g6
g7
g113
tp671
Rp672
(dp673
g12
g670
sbsVTranslationSet
p674
g1
(g18
g19
(lp675
tp676
Rp677
(dp678
g12
g674
sbstp679
Rp680
(dp681
g12
VeSearchResult
p682
sbag1
(g2
g3
(dp683
VCount
p684
g1
(g6
g7
S'12'
p685
tp686
Rp687
(dp688
g12
g684
sbsVRetMax
p689
g1
(g6
g7
S'12'
p690
tp691
Rp692
(dp693
g12
g689
sbsVIdList
p694
g1
(g18
g19
(lp695
g1
(g6
g7
S'328485382'
p696
tp697
Rp698
(dp699
g12
VId
p700
sbag1
(g6
g7
S'328485380'
p701
tp702
Rp703
(dp704
g12
g700
sbag1
(g6
g7
S'328485378'
p705
tp706
Rp707
(dp708
g12
g700
sbag1
(g6
g7
S'328485376'
p709
tp710
Rp711
(dp712
g12
g700
sbag1
(g6
g7
S'328485374'
p713
tp714
Rp715
(dp716
g12
g700
sbag1
(g6
g7
S'1020877995'
p717
tp718
Rp719
(dp720
g12
g700
sbag1
(g6
g7
S'1020877993'
p721
tp722
Rp723
(dp724
g12
g700
sbag1
(g6
g7
S'1020877991'
p725
tp726
Rp727
(dp728
g12
g700
sbag1
(g6
g7
S'1020877989'
p729
tp730
Rp731
(dp732
g12
g700
sbag1
(g6
g7
S'1020877987'
p733
tp734
Rp735
(dp736
g12
g700
sbag1
(g6
g7
S'1020877985'
p737
tp738
Rp739
(dp740
g12
g700
sbag1
(g6
g7
S'554791971'
p741
tp742
Rp743
(dp744
g12
g700
sbatp745
Rp746
(dp747
g12
g694
sbsVQueryTranslation
p748
g1
(g6
g7
S'Etelis coruscans[PORG] AND COI[title]'
p749
tp750
Rp751
(dp752
g12
g748
sbsVTranslationStack
p753
g1
(g18
g19
(lp754
g1
(g2
g3
(dp755
g684
g1
(g6
g7
S'138'
p756
tp757
Rp758
(dp759
g12
g684
sbsVField
p760
g1
(g6
g7
S'PORG'
p761
tp762
Rp763
(dp764
g12
g760
sbsVTerm
p765
g1
(g6
g7
S'Etelis coruscans[PORG]'
p766
tp767
Rp768
(dp769
g12
g765
sbsVExplode
p770
g1
(g6
g7
g76
tp771
Rp772
(dp773
g12
g770
sbstp774
Rp775
(dp776
g12
VTermSet
p777
sbag1
(g2
g3
(dp778
g684
g1
(g6
g7
S'2155368'
p779
tp780
Rp781
(dp782
g12
g684
sbsg760
g1
(g6
g7
S'title'
p783
tp784
Rp785
(dp786
g12
g760
sbsg765
g1
(g6
g7
S'COI[title]'
p787
tp788
Rp789
(dp790
g12
g765
sbsg770
g1
(g6
g7
g97
tp791
Rp792
(dp793
g12
g770
sbstp794
Rp795
(dp796
g12
g777
sbag1
(g6
g7
S'AND'
p797
tp798
Rp799
(dp800
g12
VOP
p801
sbatp802
Rp803
(dp804
g12
g753
sbsVRetStart
p805
g1
(g6
g7
g113
tp806
Rp807
(dp808
g12
g805
sbsVTranslationSet
p809
g1
(g18
g19
(lp810
tp811
Rp812
(dp813
g12
g809
sbstp814
Rp815
(dp816
g12
VeSearchResult
p817
sbag1
(g2
g3
(dp818
VCount
p819
g1
(g6
g7
g128
tp820
Rp821
(dp822
g12
g819
sbsVRetMax
p823
g1
(g6
g7
g128
tp824
Rp825
(dp826
g12
g823
sbsVIdList
p827
g1
(g18
g19
(lp828
g1
(g6
g7
S'320578731'
p829
tp830
Rp831
(dp832
g12
VId
p833
sbag1
(g6
g7
S'320578729'
p834
tp835
Rp836
(dp837
g12
g833
sbag1
(g6
g7
S'291163682'
p838
tp839
Rp840
(dp841
g12
g833
sbag1
(g6
g7
S'1020878005'
p842
tp843
Rp844
(dp845
g12
g833
sbag1
(g6
g7
S'1020878003'
p846
tp847
Rp848
(dp849
g12
g833
sbag1
(g6
g7
S'1020878001'
p850
tp851
Rp852
(dp853
g12
g833
sbag1
(g6
g7
S'1020877999'
p854
tp855
Rp856
(dp857
g12
g833
sbag1
(g6
g7
S'1020877997'
p858
tp859
Rp860
(dp861
g12
g833
sbatp862
Rp863
(dp864
g12
g827
sbsVQueryTranslation
p865
g1
(g6
g7
S'Etelis oculatus[PORG] AND COI[title]'
p866
tp867
Rp868
(dp869
g12
g865
sbsVTranslationStack
p870
g1
(g18
g19
(lp871
g1
(g2
g3
(dp872
g819
g1
(g6
g7
S'34'
p873
tp874
Rp875
(dp876
g12
g819
sbsVField
p877
g1
(g6
g7
S'PORG'
p878
tp879
Rp880
(dp881
g12
g877
sbsVTerm
p882
g1
(g6
g7
S'Etelis oculatus[PORG]'
p883
tp884
Rp885
(dp886
g12
g882
sbsVExplode
p887
g1
(g6
g7
g76
tp888
Rp889
(dp890
g12
g887
sbstp891
Rp892
(dp893
g12
VTermSet
p894
sbag1
(g2
g3
(dp895
g819
g1
(g6
g7
S'2155368'
p896
tp897
Rp898
(dp899
g12
g819
sbsg877
g1
(g6
g7
S'title'
p900
tp901
Rp902
(dp903
g12
g877
sbsg882
g1
(g6
g7
S'COI[title]'
p904
tp905
Rp906
(dp907
g12
g882
sbsg887
g1
(g6
g7
g97
tp908
Rp909
(dp910
g12
g887
sbstp911
Rp912
(dp913
g12
g894
sbag1
(g6
g7
S'AND'
p914
tp915
Rp916
(dp917
g12
VOP
p918
sbatp919
Rp920
(dp921
g12
g870
sbsVRetStart
p922
g1
(g6
g7
g113
tp923
Rp924
(dp925
g12
g922
sbsVTranslationSet
p926
g1
(g18
g19
(lp927
tp928
Rp929
(dp930
g12
g926
sbstp931
Rp932
(dp933
g12
VeSearchResult
p934
sbag1
(g2
g3
(dp935
VCount
p936
g1
(g6
g7
g8
tp937
Rp938
(dp939
g12
g936
sbsVRetMax
p940
g1
(g6
g7
g8
tp941
Rp942
(dp943
g12
g940
sbsVIdList
p944
g1
(g18
g19
(lp945
g1
(g6
g7
S'1020878019'
p946
tp947
Rp948
(dp949
g12
VId
p950
sbag1
(g6
g7
S'1020878017'
p951
tp952
Rp953
(dp954
g12
g950
sbag1
(g6
g7
S'1020878015'
p955
tp956
Rp957
(dp958
g12
g950
sbag1
(g6
g7
S'1020878013'
p959
tp960
Rp961
(dp962
g12
g950
sbag1
(g6
g7
S'1020878011'
p963
tp964
Rp965
(dp966
g12
g950
sbag1
(g6
g7
S'1020878009'
p967
tp968
Rp969
(dp970
g12
g950
sbag1
(g6
g7
S'1020878007'
p971
tp972
Rp973
(dp974
g12
g950
sbatp975
Rp976
(dp977
g12
g944
sbsVQueryTranslation
p978
g1
(g6
g7
S'Etelis radiosus[PORG] AND COI[title]'
p979
tp980
Rp981
(dp982
g12
g978
sbsVTranslationStack
p983
g1
(g18
g19
(lp984
g1
(g2
g3
(dp985
g936
g1
(g6
g7
S'43'
p986
tp987
Rp988
(dp989
g12
g936
sbsVField
p990
g1
(g6
g7
S'PORG'
p991
tp992
Rp993
(dp994
g12
g990
sbsVTerm
p995
g1
(g6
g7
S'Etelis radiosus[PORG]'
p996
tp997
Rp998
(dp999
g12
g995
sbsVExplode
p1000
g1
(g6
g7
g76
tp1001
Rp1002
(dp1003
g12
g1000
sbstp1004
Rp1005
(dp1006
g12
VTermSet
p1007
sbag1
(g2
g3
(dp1008
g936
g1
(g6
g7
S'2155368'
p1009
tp1010
Rp1011
(dp1012
g12
g936
sbsg990
g1
(g6
g7
S'title'
p1013
tp1014
Rp1015
(dp1016
g12
g990
sbsg995
g1
(g6
g7
S'COI[title]'
p1017
tp1018
Rp1019
(dp1020
g12
g995
sbsg1000
g1
(g6
g7
g97
tp1021
Rp1022
(dp1023
g12
g1000
sbstp1024
Rp1025
(dp1026
g12
g1007
sbag1
(g6
g7
S'AND'
p1027
tp1028
Rp1029
(dp1030
g12
VOP
p1031
sbatp1032
Rp1033
(dp1034
g12
g983
sbsVRetStart
p1035
g1
(g6
g7
g113
tp1036
Rp1037
(dp1038
g12
g1035
sbsVTranslationSet
p1039
g1
(g18
g19
(lp1040
tp1041
Rp1042
(dp1043
g12
g1039
sbstp1044
Rp1045
(dp1046
g12
VeSearchResult
p1047
sbag1
(g2
g3
(dp1048
VCount
p1049
g1
(g6
g7
g490
tp1050
Rp1051
(dp1052
g12
g1049
sbsVRetMax
p1053
g1
(g6
g7
g490
tp1054
Rp1055
(dp1056
g12
g1053
sbsVIdList
p1057
g1
(g18
g19
(lp1058
g1
(g6
g7
S'662357712'
p1059
tp1060
Rp1061
(dp1062
g12
VId
p1063
sbag1
(g6
g7
S'662357710'
p1064
tp1065
Rp1066
(dp1067
g12
g1063
sbag1
(g6
g7
S'662357708'
p1068
tp1069
Rp1070
(dp1071
g12
g1063
sbatp1072
Rp1073
(dp1074
g12
g1057
sbsVQueryTranslation
p1075
g1
(g6
g7
S'Hoplopagrus guentherii[PORG] AND COI[title]'
p1076
tp1077
Rp1078
(dp1079
g12
g1075
sbsVTranslationStack
p1080
g1
(g18
g19
(lp1081
g1
(g2
g3
(dp1082
g1049
g1
(g6
g7
g246
tp1083
Rp1084
(dp1085
g12
g1049
sbsVField
p1086
g1
(g6
g7
S'PORG'
p1087
tp1088
Rp1089
(dp1090
g12
g1086
sbsVTerm
p1091
g1
(g6
g7
S'Hoplopagrus guentherii[PORG]'
p1092
tp1093
Rp1094
(dp1095
g12
g1091
sbsVExplode
p1096
g1
(g6
g7
g76
tp1097
Rp1098
(dp1099
g12
g1096
sbstp1100
Rp1101
(dp1102
g12
VTermSet
p1103
sbag1
(g2
g3
(dp1104
g1049
g1
(g6
g7
S'2155368'
p1105
tp1106
Rp1107
(dp1108
g12
g1049
sbsg1086
g1
(g6
g7
S'title'
p1109
tp1110
Rp1111
(dp1112
g12
g1086
sbsg1091
g1
(g6
g7
S'COI[title]'
p1113
tp1114
Rp1115
(dp1116
g12
g1091
sbsg1096
g1
(g6
g7
g97
tp1117
Rp1118
(dp1119
g12
g1096
sbstp1120
Rp1121
(dp1122
g12
g1103
sbag1
(g6
g7
S'AND'
p1123
tp1124
Rp1125
(dp1126
g12
VOP
p1127
sbatp1128
Rp1129
(dp1130
g12
g1080
sbsVRetStart
p1131
g1
(g6
g7
g113
tp1132
Rp1133
(dp1134
g12
g1131
sbsVTranslationSet
p1135
g1
(g18
g19
(lp1136
tp1137
Rp1138
(dp1139
g12
g1135
sbstp1140
Rp1141
(dp1142
g12
VeSearchResult
p1143
sbag1
(g2
g3
(dp1144
VCount
p1145
g1
(g6
g7
g113
tp1146
Rp1147
(dp1148
g12
g1145
sbsVRetMax
p1149
g1
(g6
g7
g113
tp1150
Rp1151
(dp1152
g12
g1149
sbsVIdList
p1153
g1
(g18
g19
(lp1154
tp1155
Rp1156
(dp1157
g12
g1153
sbsVQueryTranslation
p1158
g1
(g6
g7
S'Lipocheilus carnolabrum[PORG] AND COI[title]'
p1159
tp1160
Rp1161
(dp1162
g12
g1158
sbsVTranslationStack
p1163
g1
(g18
g19
(lp1164
g1
(g2
g3
(dp1165
g1145
g1
(g6
g7
S'1'
p1166
tp1167
Rp1168
(dp1169
g12
g1145
sbsVField
p1170
g1
(g6
g7
S'PORG'
p1171
tp1172
Rp1173
(dp1174
g12
g1170
sbsVTerm
p1175
g1
(g6
g7
S'Lipocheilus carnolabrum[PORG]'
p1176
tp1177
Rp1178
(dp1179
g12
g1175
sbsVExplode
p1180
g1
(g6
g7
g76
tp1181
Rp1182
(dp1183
g12
g1180
sbstp1184
Rp1185
(dp1186
g12
VTermSet
p1187
sbag1
(g2
g3
(dp1188
g1145
g1
(g6
g7
S'2155368'
p1189
tp1190
Rp1191
(dp1192
g12
g1145
sbsg1170
g1
(g6
g7
S'title'
p1193
tp1194
Rp1195
(dp1196
g12
g1170
sbsg1175
g1
(g6
g7
S'COI[title]'
p1197
tp1198
Rp1199
(dp1200
g12
g1175
sbsg1180
g1
(g6
g7
g97
tp1201
Rp1202
(dp1203
g12
g1180
sbstp1204
Rp1205
(dp1206
g12
g1187
sbag1
(g6
g7
S'AND'
p1207
tp1208
Rp1209
(dp1210
g12
VOP
p1211
sbatp1212
Rp1213
(dp1214
g12
g1163
sbsVRetStart
p1215
g1
(g6
g7
g113
tp1216
Rp1217
(dp1218
g12
g1215
sbsVTranslationSet
p1219
g1
(g18
g19
(lp1220
tp1221
Rp1222
(dp1223
g12
g1219
sbstp1224
Rp1225
(dp1226
g12
VeSearchResult
p1227
sbag1
(g2
g3
(dp1228
VCount
p1229
g1
(g6
g7
g1166
tp1230
Rp1231
(dp1232
g12
g1229
sbsVRetMax
p1233
g1
(g6
g7
g1166
tp1234
Rp1235
(dp1236
g12
g1233
sbsVIdList
p1237
g1
(g18
g19
(lp1238
g1
(g6
g7
S'148373993'
p1239
tp1240
Rp1241
(dp1242
g12
VId
p1243
sbatp1244
Rp1245
(dp1246
g12
g1237
sbsVQueryTranslation
p1247
g1
(g6
g7
S'Lutjanus adetii[PORG] AND COI[title]'
p1248
tp1249
Rp1250
(dp1251
g12
g1247
sbsVTranslationStack
p1252
g1
(g18
g19
(lp1253
g1
(g2
g3
(dp1254
g1229
g1
(g6
g7
g368
tp1255
Rp1256
(dp1257
g12
g1229
sbsVField
p1258
g1
(g6
g7
S'PORG'
p1259
tp1260
Rp1261
(dp1262
g12
g1258
sbsVTerm
p1263
g1
(g6
g7
S'Lutjanus adetii[PORG]'
p1264
tp1265
Rp1266
(dp1267
g12
g1263
sbsVExplode
p1268
g1
(g6
g7
g76
tp1269
Rp1270
(dp1271
g12
g1268
sbstp1272
Rp1273
(dp1274
g12
VTermSet
p1275
sbag1
(g2
g3
(dp1276
g1229
g1
(g6
g7
S'2155368'
p1277
tp1278
Rp1279
(dp1280
g12
g1229
sbsg1258
g1
(g6
g7
S'title'
p1281
tp1282
Rp1283
(dp1284
g12
g1258
sbsg1263
g1
(g6
g7
S'COI[title]'
p1285
tp1286
Rp1287
(dp1288
g12
g1263
sbsg1268
g1
(g6
g7
g97
tp1289
Rp1290
(dp1291
g12
g1268
sbstp1292
Rp1293
(dp1294
g12
g1275
sbag1
(g6
g7
S'AND'
p1295
tp1296
Rp1297
(dp1298
g12
VOP
p1299
sbatp1300
Rp1301
(dp1302
g12
g1252
sbsVRetStart
p1303
g1
(g6
g7
g113
tp1304
Rp1305
(dp1306
g12
g1303
sbsVTranslationSet
p1307
g1
(g18
g19
(lp1308
tp1309
Rp1310
(dp1311
g12
g1307
sbstp1312
Rp1313
(dp1314
g12
VeSearchResult
p1315
sbag1
(g2
g3
(dp1316
VCount
p1317
g1
(g6
g7
g113
tp1318
Rp1319
(dp1320
g12
g1317
sbsVRetMax
p1321
g1
(g6
g7
g113
tp1322
Rp1323
(dp1324
g12
g1321
sbsVIdList
p1325
g1
(g18
g19
(lp1326
tp1327
Rp1328
(dp1329
g12
g1325
sbsVRetStart
p1330
g1
(g6
g7
g113
tp1331
Rp1332
(dp1333
g12
g1330
sbsVErrorList
p1334
g1
(cBio.Entrez.Parser
StructureElement
p1335
g3
(dp1336
VFieldNotFound
p1337
(lp1338
sVPhraseNotFound
p1339
(lp1340
g1
(g6
g7
S'Lutjanus agennes[PORG]'
p1341
tp1342
Rp1343
(dp1344
g12
VPhraseNotFound
p1345
sbastp1346
Rp1347
(dp1348
g12
g1334
sS'listkeys'
p1349
(lp1350
g1339
ag1337
asbsVTranslationSet
p1351
g1
(g18
g19
(lp1352
tp1353
Rp1354
(dp1355
g12
g1351
sbsVWarningList
p1356
g1
(g1335
g3
(dp1357
VOutputMessage
p1358
(lp1359
g1
(g6
g7
S'No items found.'
p1360
tp1361
Rp1362
(dp1363
g12
VOutputMessage
p1364
sbasVPhraseIgnored
p1365
(lp1366
sVQuotedPhraseNotFound
p1367
(lp1368
stp1369
Rp1370
(dp1371
g12
g1356
sg1349
(lp1372
g1365
ag1367
ag1358
asbsVQueryTranslation
p1373
g1
(g6
g7
S'Lutjanus agennes[PORG] AND COI[title]'
p1374
tp1375
Rp1376
(dp1377
g12
g1373
sbstp1378
Rp1379
(dp1380
g12
VeSearchResult
p1381
sbag1
(g2
g3
(dp1382
VCount
p1383
g1
(g6
g7
g113
tp1384
Rp1385
(dp1386
g12
g1383
sbsVRetMax
p1387
g1
(g6
g7
g113
tp1388
Rp1389
(dp1390
g12
g1387
sbsVIdList
p1391
g1
(g18
g19
(lp1392
tp1393
Rp1394
(dp1395
g12
g1391
sbsVRetStart
p1396
g1
(g6
g7
g113
tp1397
Rp1398
(dp1399
g12
g1396
sbsVErrorList
p1400
g1
(g1335
g3
(dp1401
VFieldNotFound
p1402
(lp1403
sVPhraseNotFound
p1404
(lp1405
g1
(g6
g7
S'Lutjanus alexandrei[PORG]'
p1406
tp1407
Rp1408
(dp1409
g12
VPhraseNotFound
p1410
sbastp1411
Rp1412
(dp1413
g12
g1400
sg1349
(lp1414
g1404
ag1402
asbsVTranslationSet
p1415
g1
(g18
g19
(lp1416
tp1417
Rp1418
(dp1419
g12
g1415
sbsVWarningList
p1420
g1
(g1335
g3
(dp1421
VOutputMessage
p1422
(lp1423
g1
(g6
g7
S'No items found.'
p1424
tp1425
Rp1426
(dp1427
g12
VOutputMessage
p1428
sbasVPhraseIgnored
p1429
(lp1430
sVQuotedPhraseNotFound
p1431
(lp1432
stp1433
Rp1434
(dp1435
g12
g1420
sg1349
(lp1436
g1429
ag1431
ag1422
asbsVQueryTranslation
p1437
g1
(g6
g7
S'Lutjanus alexandrei[PORG] AND COI[title]'
p1438
tp1439
Rp1440
(dp1441
g12
g1437
sbstp1442
Rp1443
(dp1444
g12
VeSearchResult
p1445
sbag1
(g2
g3
(dp1446
VCount
p1447
g1
(g6
g7
g113
tp1448
Rp1449
(dp1450
g12
g1447
sbsVRetMax
p1451
g1
(g6
g7
g113
tp1452
Rp1453
(dp1454
g12
g1451
sbsVIdList
p1455
g1
(g18
g19
(lp1456
tp1457
Rp1458
(dp1459
g12
g1455
sbsVRetStart
p1460
g1
(g6
g7
g113
tp1461
Rp1462
(dp1463
g12
g1460
sbsVErrorList
p1464
g1
(g1335
g3
(dp1465
VFieldNotFound
p1466
(lp1467
sVPhraseNotFound
p1468
(lp1469
g1
(g6
g7
S'Lutjanus ambiguus[PORG]'
p1470
tp1471
Rp1472
(dp1473
g12
VPhraseNotFound
p1474
sbastp1475
Rp1476
(dp1477
g12
g1464
sg1349
(lp1478
g1468
ag1466
asbsVTranslationSet
p1479
g1
(g18
g19
(lp1480
tp1481
Rp1482
(dp1483
g12
g1479
sbsVWarningList
p1484
g1
(g1335
g3
(dp1485
VOutputMessage
p1486
(lp1487
g1
(g6
g7
S'No items found.'
p1488
tp1489
Rp1490
(dp1491
g12
VOutputMessage
p1492
sbasVPhraseIgnored
p1493
(lp1494
sVQuotedPhraseNotFound
p1495
(lp1496
stp1497
Rp1498
(dp1499
g12
g1484
sg1349
(lp1500
g1493
ag1495
ag1486
asbsVQueryTranslation
p1501
g1
(g6
g7
S'Lutjanus ambiguus[PORG] AND COI[title]'
p1502
tp1503
Rp1504
(dp1505
g12
g1501
sbstp1506
Rp1507
(dp1508
g12
VeSearchResult
p1509
sbag1
(g2
g3
(dp1510
VCount
p1511
g1
(g6
g7
S'49'
p1512
tp1513
Rp1514
(dp1515
g12
g1511
sbsVRetMax
p1516
g1
(g6
g7
S'20'
p1517
tp1518
Rp1519
(dp1520
g12
g1516
sbsVIdList
p1521
g1
(g18
g19
(lp1522
g1
(g6
g7
S'321480733'
p1523
tp1524
Rp1525
(dp1526
g12
VId
p1527
sbag1
(g6
g7
S'320578743'
p1528
tp1529
Rp1530
(dp1531
g12
g1527
sbag1
(g6
g7
S'320578741'
p1532
tp1533
Rp1534
(dp1535
g12
g1527
sbag1
(g6
g7
S'320578739'
p1536
tp1537
Rp1538
(dp1539
g12
g1527
sbag1
(g6
g7
S'291163982'
p1540
tp1541
Rp1542
(dp1543
g12
g1527
sbag1
(g6
g7
S'291163980'
p1544
tp1545
Rp1546
(dp1547
g12
g1527
sbag1
(g6
g7
S'291163978'
p1548
tp1549
Rp1550
(dp1551
g12
g1527
sbag1
(g6
g7
S'291163976'
p1552
tp1553
Rp1554
(dp1555
g12
g1527
sbag1
(g6
g7
S'238551198'
p1556
tp1557
Rp1558
(dp1559
g12
g1527
sbag1
(g6
g7
S'238551196'
p1560
tp1561
Rp1562
(dp1563
g12
g1527
sbag1
(g6
g7
S'238551194'
p1564
tp1565
Rp1566
(dp1567
g12
g1527
sbag1
(g6
g7
S'238551192'
p1568
tp1569
Rp1570
(dp1571
g12
g1527
sbag1
(g6
g7
S'558500894'
p1572
tp1573
Rp1574
(dp1575
g12
g1527
sbag1
(g6
g7
S'558500892'
p1576
tp1577
Rp1578
(dp1579
g12
g1527
sbag1
(g6
g7
S'558500890'
p1580
tp1581
Rp1582
(dp1583
g12
g1527
sbag1
(g6
g7
S'558500888'
p1584
tp1585
Rp1586
(dp1587
g12
g1527
sbag1
(g6
g7
S'558500886'
p1588
tp1589
Rp1590
(dp1591
g12
g1527
sbag1
(g6
g7
S'558500884'
p1592
tp1593
Rp1594
(dp1595
g12
g1527
sbag1
(g6
g7
S'558500882'
p1596
tp1597
Rp1598
(dp1599
g12
g1527
sbag1
(g6
g7
S'558500880'
p1600
tp1601
Rp1602
(dp1603
g12
g1527
sbatp1604
Rp1605
(dp1606
g12
g1521
sbsVQueryTranslation
p1607
g1
(g6
g7
S'Lutjanus analis[PORG] AND COI[title]'
p1608
tp1609
Rp1610
(dp1611
g12
g1607
sbsVTranslationStack
p1612
g1
(g18
g19
(lp1613
g1
(g2
g3
(dp1614
g1511
g1
(g6
g7
S'175'
p1615
tp1616
Rp1617
(dp1618
g12
g1511
sbsVField
p1619
g1
(g6
g7
S'PORG'
p1620
tp1621
Rp1622
(dp1623
g12
g1619
sbsVTerm
p1624
g1
(g6
g7
S'Lutjanus analis[PORG]'
p1625
tp1626
Rp1627
(dp1628
g12
g1624
sbsVExplode
p1629
g1
(g6
g7
g76
tp1630
Rp1631
(dp1632
g12
g1629
sbstp1633
Rp1634
(dp1635
g12
VTermSet
p1636
sbag1
(g2
g3
(dp1637
g1511
g1
(g6
g7
S'2155368'
p1638
tp1639
Rp1640
(dp1641
g12
g1511
sbsg1619
g1
(g6
g7
S'title'
p1642
tp1643
Rp1644
(dp1645
g12
g1619
sbsg1624
g1
(g6
g7
S'COI[title]'
p1646
tp1647
Rp1648
(dp1649
g12
g1624
sbsg1629
g1
(g6
g7
g97
tp1650
Rp1651
(dp1652
g12
g1629
sbstp1653
Rp1654
(dp1655
g12
g1636
sbag1
(g6
g7
S'AND'
p1656
tp1657
Rp1658
(dp1659
g12
VOP
p1660
sbatp1661
Rp1662
(dp1663
g12
g1612
sbsVRetStart
p1664
g1
(g6
g7
g113
tp1665
Rp1666
(dp1667
g12
g1664
sbsVTranslationSet
p1668
g1
(g18
g19
(lp1669
tp1670
Rp1671
(dp1672
g12
g1668
sbstp1673
Rp1674
(dp1675
g12
VeSearchResult
p1676
sbag1
(g2
g3
(dp1677
VCount
p1678
g1
(g6
g7
S'51'
p1679
tp1680
Rp1681
(dp1682
g12
g1678
sbsVRetMax
p1683
g1
(g6
g7
S'20'
p1684
tp1685
Rp1686
(dp1687
g12
g1683
sbsVIdList
p1688
g1
(g18
g19
(lp1689
g1
(g6
g7
S'189165546'
p1690
tp1691
Rp1692
(dp1693
g12
VId
p1694
sbag1
(g6
g7
S'189165544'
p1695
tp1696
Rp1697
(dp1698
g12
g1694
sbag1
(g6
g7
S'320578749'
p1699
tp1700
Rp1701
(dp1702
g12
g1694
sbag1
(g6
g7
S'320578747'
p1703
tp1704
Rp1705
(dp1706
g12
g1694
sbag1
(g6
g7
S'320578745'
p1707
tp1708
Rp1709
(dp1710
g12
g1694
sbag1
(g6
g7
S'297525476'
p1711
tp1712
Rp1713
(dp1714
g12
g1694
sbag1
(g6
g7
S'297525474'
p1715
tp1716
Rp1717
(dp1718
g12
g1694
sbag1
(g6
g7
S'297525472'
p1719
tp1720
Rp1721
(dp1722
g12
g1694
sbag1
(g6
g7
S'297525470'
p1723
tp1724
Rp1725
(dp1726
g12
g1694
sbag1
(g6
g7
S'297525468'
p1727
tp1728
Rp1729
(dp1730
g12
g1694
sbag1
(g6
g7
S'297525466'
p1731
tp1732
Rp1733
(dp1734
g12
g1694
sbag1
(g6
g7
S'297525464'
p1735
tp1736
Rp1737
(dp1738
g12
g1694
sbag1
(g6
g7
S'297525462'
p1739
tp1740
Rp1741
(dp1742
g12
g1694
sbag1
(g6
g7
S'297525460'
p1743
tp1744
Rp1745
(dp1746
g12
g1694
sbag1
(g6
g7
S'297525458'
p1747
tp1748
Rp1749
(dp1750
g12
g1694
sbag1
(g6
g7
S'297525456'
p1751
tp1752
Rp1753
(dp1754
g12
g1694
sbag1
(g6
g7
S'297525454'
p1755
tp1756
Rp1757
(dp1758
g12
g1694
sbag1
(g6
g7
S'297525452'
p1759
tp1760
Rp1761
(dp1762
g12
g1694
sbag1
(g6
g7
S'297525450'
p1763
tp1764
Rp1765
(dp1766
g12
g1694
sbag1
(g6
g7
S'297525448'
p1767
tp1768
Rp1769
(dp1770
g12
g1694
sbatp1771
Rp1772
(dp1773
g12
g1688
sbsVQueryTranslation
p1774
g1
(g6
g7
S'Lutjanus apodus[PORG] AND COI[title]'
p1775
tp1776
Rp1777
(dp1778
g12
g1774
sbsVTranslationStack
p1779
g1
(g18
g19
(lp1780
g1
(g2
g3
(dp1781
g1678
g1
(g6
g7
S'68'
p1782
tp1783
Rp1784
(dp1785
g12
g1678
sbsVField
p1786
g1
(g6
g7
S'PORG'
p1787
tp1788
Rp1789
(dp1790
g12
g1786
sbsVTerm
p1791
g1
(g6
g7
S'Lutjanus apodus[PORG]'
p1792
tp1793
Rp1794
(dp1795
g12
g1791
sbsVExplode
p1796
g1
(g6
g7
g76
tp1797
Rp1798
(dp1799
g12
g1796
sbstp1800
Rp1801
(dp1802
g12
VTermSet
p1803
sbag1
(g2
g3
(dp1804
g1678
g1
(g6
g7
S'2155368'
p1805
tp1806
Rp1807
(dp1808
g12
g1678
sbsg1786
g1
(g6
g7
S'title'
p1809
tp1810
Rp1811
(dp1812
g12
g1786
sbsg1791
g1
(g6
g7
S'COI[title]'
p1813
tp1814
Rp1815
(dp1816
g12
g1791
sbsg1796
g1
(g6
g7
g97
tp1817
Rp1818
(dp1819
g12
g1796
sbstp1820
Rp1821
(dp1822
g12
g1803
sbag1
(g6
g7
S'AND'
p1823
tp1824
Rp1825
(dp1826
g12
VOP
p1827
sbatp1828
Rp1829
(dp1830
g12
g1779
sbsVRetStart
p1831
g1
(g6
g7
g113
tp1832
Rp1833
(dp1834
g12
g1831
sbsVTranslationSet
p1835
g1
(g18
g19
(lp1836
tp1837
Rp1838
(dp1839
g12
g1835
sbstp1840
Rp1841
(dp1842
g12
VeSearchResult
p1843
sbag1
(g2
g3
(dp1844
VCount
p1845
g1
(g6
g7
g490
tp1846
Rp1847
(dp1848
g12
g1845
sbsVRetMax
p1849
g1
(g6
g7
g490
tp1850
Rp1851
(dp1852
g12
g1849
sbsVIdList
p1853
g1
(g18
g19
(lp1854
g1
(g6
g7
S'662357700'
p1855
tp1856
Rp1857
(dp1858
g12
VId
p1859
sbag1
(g6
g7
S'662357698'
p1860
tp1861
Rp1862
(dp1863
g12
g1859
sbag1
(g6
g7
S'662357696'
p1864
tp1865
Rp1866
(dp1867
g12
g1859
sbatp1868
Rp1869
(dp1870
g12
g1853
sbsVQueryTranslation
p1871
g1
(g6
g7
S'Lutjanus aratus[PORG] AND COI[title]'
p1872
tp1873
Rp1874
(dp1875
g12
g1871
sbsVTranslationStack
p1876
g1
(g18
g19
(lp1877
g1
(g2
g3
(dp1878
g1845
g1
(g6
g7
g246
tp1879
Rp1880
(dp1881
g12
g1845
sbsVField
p1882
g1
(g6
g7
S'PORG'
p1883
tp1884
Rp1885
(dp1886
g12
g1882
sbsVTerm
p1887
g1
(g6
g7
S'Lutjanus aratus[PORG]'
p1888
tp1889
Rp1890
(dp1891
g12
g1887
sbsVExplode
p1892
g1
(g6
g7
g76
tp1893
Rp1894
(dp1895
g12
g1892
sbstp1896
Rp1897
(dp1898
g12
VTermSet
p1899
sbag1
(g2
g3
(dp1900
g1845
g1
(g6
g7
S'2155368'
p1901
tp1902
Rp1903
(dp1904
g12
g1845
sbsg1882
g1
(g6
g7
S'title'
p1905
tp1906
Rp1907
(dp1908
g12
g1882
sbsg1887
g1
(g6
g7
S'COI[title]'
p1909
tp1910
Rp1911
(dp1912
g12
g1887
sbsg1892
g1
(g6
g7
g97
tp1913
Rp1914
(dp1915
g12
g1892
sbstp1916
Rp1917
(dp1918
g12
g1899
sbag1
(g6
g7
S'AND'
p1919
tp1920
Rp1921
(dp1922
g12
VOP
p1923
sbatp1924
Rp1925
(dp1926
g12
g1876
sbsVRetStart
p1927
g1
(g6
g7
g113
tp1928
Rp1929
(dp1930
g12
g1927
sbsVTranslationSet
p1931
g1
(g18
g19
(lp1932
tp1933
Rp1934
(dp1935
g12
g1931
sbstp1936
Rp1937
(dp1938
g12
VeSearchResult
p1939
sbag1
(g2
g3
(dp1940
VCount
p1941
g1
(g6
g7
S'30'
p1942
tp1943
Rp1944
(dp1945
g12
g1941
sbsVRetMax
p1946
g1
(g6
g7
S'20'
p1947
tp1948
Rp1949
(dp1950
g12
g1946
sbsVIdList
p1951
g1
(g18
g19
(lp1952
g1
(g6
g7
S'190608693'
p1953
tp1954
Rp1955
(dp1956
g12
VId
p1957
sbag1
(g6
g7
S'190608691'
p1958
tp1959
Rp1960
(dp1961
g12
g1957
sbag1
(g6
g7
S'190608689'
p1962
tp1963
Rp1964
(dp1965
g12
g1957
sbag1
(g6
g7
S'190608687'
p1966
tp1967
Rp1968
(dp1969
g12
g1957
sbag1
(g6
g7
S'339716836'
p1970
tp1971
Rp1972
(dp1973
g12
g1957
sbag1
(g6
g7
S'339716834'
p1974
tp1975
Rp1976
(dp1977
g12
g1957
sbag1
(g6
g7
S'328486090'
p1978
tp1979
Rp1980
(dp1981
g12
g1957
sbag1
(g6
g7
S'227935771'
p1982
tp1983
Rp1984
(dp1985
g12
g1957
sbag1
(g6
g7
S'227935769'
p1986
tp1987
Rp1988
(dp1989
g12
g1957
sbag1
(g6
g7
S'116608003'
p1990
tp1991
Rp1992
(dp1993
g12
g1957
sbag1
(g6
g7
S'116608001'
p1994
tp1995
Rp1996
(dp1997
g12
g1957
sbag1
(g6
g7
S'954001173'
p1998
tp1999
Rp2000
(dp2001
g12
g1957
sbag1
(g6
g7
S'1018444388'
p2002
tp2003
Rp2004
(dp2005
g12
g1957
sbag1
(g6
g7
S'816376919'
p2006
tp2007
Rp2008
(dp2009
g12
g1957
sbag1
(g6
g7
S'807197911'
p2010
tp2011
Rp2012
(dp2013
g12
g1957
sbag1
(g6
g7
S'807197854'
p2014
tp2015
Rp2016
(dp2017
g12
g1957
sbag1
(g6
g7
S'573464251'
p2018
tp2019
Rp2020
(dp2021
g12
g1957
sbag1
(g6
g7
S'573464249'
p2022
tp2023
Rp2024
(dp2025
g12
g1957
sbag1
(g6
g7
S'573464247'
p2026
tp2027
Rp2028
(dp2029
g12
g1957
sbag1
(g6
g7
S'557955482'
p2030
tp2031
Rp2032
(dp2033
g12
g1957
sbatp2034
Rp2035
(dp2036
g12
g1951
sbsVQueryTranslation
p2037
g1
(g6
g7
S'Lutjanus argentimaculatus[PORG] AND COI[title]'
p2038
tp2039
Rp2040
(dp2041
g12
g2037
sbsVTranslationStack
p2042
g1
(g18
g19
(lp2043
g1
(g2
g3
(dp2044
g1941
g1
(g6
g7
S'177'
p2045
tp2046
Rp2047
(dp2048
g12
g1941
sbsVField
p2049
g1
(g6
g7
S'PORG'
p2050
tp2051
Rp2052
(dp2053
g12
g2049
sbsVTerm
p2054
g1
(g6
g7
S'Lutjanus argentimaculatus[PORG]'
p2055
tp2056
Rp2057
(dp2058
g12
g2054
sbsVExplode
p2059
g1
(g6
g7
g76
tp2060
Rp2061
(dp2062
g12
g2059
sbstp2063
Rp2064
(dp2065
g12
VTermSet
p2066
sbag1
(g2
g3
(dp2067
g1941
g1
(g6
g7
S'2155368'
p2068
tp2069
Rp2070
(dp2071
g12
g1941
sbsg2049
g1
(g6
g7
S'title'
p2072
tp2073
Rp2074
(dp2075
g12
g2049
sbsg2054
g1
(g6
g7
S'COI[title]'
p2076
tp2077
Rp2078
(dp2079
g12
g2054
sbsg2059
g1
(g6
g7
g97
tp2080
Rp2081
(dp2082
g12
g2059
sbstp2083
Rp2084
(dp2085
g12
g2066
sbag1
(g6
g7
S'AND'
p2086
tp2087
Rp2088
(dp2089
g12
VOP
p2090
sbatp2091
Rp2092
(dp2093
g12
g2042
sbsVRetStart
p2094
g1
(g6
g7
g113
tp2095
Rp2096
(dp2097
g12
g2094
sbsVTranslationSet
p2098
g1
(g18
g19
(lp2099
tp2100
Rp2101
(dp2102
g12
g2098
sbstp2103
Rp2104
(dp2105
g12
VeSearchResult
p2106
sbag1
(g2
g3
(dp2107
VCount
p2108
g1
(g6
g7
S'5'
p2109
tp2110
Rp2111
(dp2112
g12
g2108
sbsVRetMax
p2113
g1
(g6
g7
g2109
tp2114
Rp2115
(dp2116
g12
g2113
sbsVIdList
p2117
g1
(g18
g19
(lp2118
g1
(g6
g7
S'171850680'
p2119
tp2120
Rp2121
(dp2122
g12
VId
p2123
sbag1
(g6
g7
S'294989094'
p2124
tp2125
Rp2126
(dp2127
g12
g2123
sbag1
(g6
g7
S'662357682'
p2128
tp2129
Rp2130
(dp2131
g12
g2123
sbag1
(g6
g7
S'662357680'
p2132
tp2133
Rp2134
(dp2135
g12
g2123
sbag1
(g6
g7
S'662357678'
p2136
tp2137
Rp2138
(dp2139
g12
g2123
sbatp2140
Rp2141
(dp2142
g12
g2117
sbsVQueryTranslation
p2143
g1
(g6
g7
S'Lutjanus argentiventris[PORG] AND COI[title]'
p2144
tp2145
Rp2146
(dp2147
g12
g2143
sbsVTranslationStack
p2148
g1
(g18
g19
(lp2149
g1
(g2
g3
(dp2150
g2108
g1
(g6
g7
S'27'
p2151
tp2152
Rp2153
(dp2154
g12
g2108
sbsVField
p2155
g1
(g6
g7
S'PORG'
p2156
tp2157
Rp2158
(dp2159
g12
g2155
sbsVTerm
p2160
g1
(g6
g7
S'Lutjanus argentiventris[PORG]'
p2161
tp2162
Rp2163
(dp2164
g12
g2160
sbsVExplode
p2165
g1
(g6
g7
g76
tp2166
Rp2167
(dp2168
g12
g2165
sbstp2169
Rp2170
(dp2171
g12
VTermSet
p2172
sbag1
(g2
g3
(dp2173
g2108
g1
(g6
g7
S'2155368'
p2174
tp2175
Rp2176
(dp2177
g12
g2108
sbsg2155
g1
(g6
g7
S'title'
p2178
tp2179
Rp2180
(dp2181
g12
g2155
sbsg2160
g1
(g6
g7
S'COI[title]'
p2182
tp2183
Rp2184
(dp2185
g12
g2160
sbsg2165
g1
(g6
g7
g97
tp2186
Rp2187
(dp2188
g12
g2165
sbstp2189
Rp2190
(dp2191
g12
g2172
sbag1
(g6
g7
S'AND'
p2192
tp2193
Rp2194
(dp2195
g12
VOP
p2196
sbatp2197
Rp2198
(dp2199
g12
g2148
sbsVRetStart
p2200
g1
(g6
g7
g113
tp2201
Rp2202
(dp2203
g12
g2200
sbsVTranslationSet
p2204
g1
(g18
g19
(lp2205
tp2206
Rp2207
(dp2208
g12
g2204
sbstp2209
Rp2210
(dp2211
g12
VeSearchResult
p2212
sbag1
(g2
g3
(dp2213
VCount
p2214
g1
(g6
g7
S'10'
p2215
tp2216
Rp2217
(dp2218
g12
g2214
sbsVRetMax
p2219
g1
(g6
g7
S'10'
p2220
tp2221
Rp2222
(dp2223
g12
g2219
sbsVIdList
p2224
g1
(g18
g19
(lp2225
g1
(g6
g7
S'1049013555'
p2226
tp2227
Rp2228
(dp2229
g12
VId
p2230
sbag1
(g6
g7
S'190608707'
p2231
tp2232
Rp2233
(dp2234
g12
g2230
sbag1
(g6
g7
S'190608705'
p2235
tp2236
Rp2237
(dp2238
g12
g2230
sbag1
(g6
g7
S'190608703'
p2239
tp2240
Rp2241
(dp2242
g12
g2230
sbag1
(g6
g7
S'328486092'
p2243
tp2244
Rp2245
(dp2246
g12
g2230
sbag1
(g6
g7
S'312841841'
p2247
tp2248
Rp2249
(dp2250
g12
g2230
sbag1
(g6
g7
S'312841791'
p2251
tp2252
Rp2253
(dp2254
g12
g2230
sbag1
(g6
g7
S'296746841'
p2255
tp2256
Rp2257
(dp2258
g12
g2230
sbag1
(g6
g7
S'296746839'
p2259
tp2260
Rp2261
(dp2262
g12
g2230
sbag1
(g6
g7
S'584296142'
p2263
tp2264
Rp2265
(dp2266
g12
g2230
sbatp2267
Rp2268
(dp2269
g12
g2224
sbsVQueryTranslation
p2270
g1
(g6
g7
S'Lutjanus bengalensis[PORG] AND COI[title]'
p2271
tp2272
Rp2273
(dp2274
g12
g2270
sbsVTranslationStack
p2275
g1
(g18
g19
(lp2276
g1
(g2
g3
(dp2277
g2214
g1
(g6
g7
S'33'
p2278
tp2279
Rp2280
(dp2281
g12
g2214
sbsVField
p2282
g1
(g6
g7
S'PORG'
p2283
tp2284
Rp2285
(dp2286
g12
g2282
sbsVTerm
p2287
g1
(g6
g7
S'Lutjanus bengalensis[PORG]'
p2288
tp2289
Rp2290
(dp2291
g12
g2287
sbsVExplode
p2292
g1
(g6
g7
g76
tp2293
Rp2294
(dp2295
g12
g2292
sbstp2296
Rp2297
(dp2298
g12
VTermSet
p2299
sbag1
(g2
g3
(dp2300
g2214
g1
(g6
g7
S'2155368'
p2301
tp2302
Rp2303
(dp2304
g12
g2214
sbsg2282
g1
(g6
g7
S'title'
p2305
tp2306
Rp2307
(dp2308
g12
g2282
sbsg2287
g1
(g6
g7
S'COI[title]'
p2309
tp2310
Rp2311
(dp2312
g12
g2287
sbsg2292
g1
(g6
g7
g97
tp2313
Rp2314
(dp2315
g12
g2292
sbstp2316
Rp2317
(dp2318
g12
g2299
sbag1
(g6
g7
S'AND'
p2319
tp2320
Rp2321
(dp2322
g12
VOP
p2323
sbatp2324
Rp2325
(dp2326
g12
g2275
sbsVRetStart
p2327
g1
(g6
g7
g113
tp2328
Rp2329
(dp2330
g12
g2327
sbsVTranslationSet
p2331
g1
(g18
g19
(lp2332
tp2333
Rp2334
(dp2335
g12
g2331
sbstp2336
Rp2337
(dp2338
g12
VeSearchResult
p2339
sbag1
(g2
g3
(dp2340
VCount
p2341
g1
(g6
g7
g1166
tp2342
Rp2343
(dp2344
g12
g2341
sbsVRetMax
p2345
g1
(g6
g7
g1166
tp2346
Rp2347
(dp2348
g12
g2345
sbsVIdList
p2349
g1
(g18
g19
(lp2350
g1
(g6
g7
S'557955484'
p2351
tp2352
Rp2353
(dp2354
g12
VId
p2355
sbatp2356
Rp2357
(dp2358
g12
g2349
sbsVQueryTranslation
p2359
g1
(g6
g7
S'Lutjanus biguttatus[PORG] AND COI[title]'
p2360
tp2361
Rp2362
(dp2363
g12
g2359
sbsVTranslationStack
p2364
g1
(g18
g19
(lp2365
g1
(g2
g3
(dp2366
g2341
g1
(g6
g7
S'16'
p2367
tp2368
Rp2369
(dp2370
g12
g2341
sbsVField
p2371
g1
(g6
g7
S'PORG'
p2372
tp2373
Rp2374
(dp2375
g12
g2371
sbsVTerm
p2376
g1
(g6
g7
S'Lutjanus biguttatus[PORG]'
p2377
tp2378
Rp2379
(dp2380
g12
g2376
sbsVExplode
p2381
g1
(g6
g7
g76
tp2382
Rp2383
(dp2384
g12
g2381
sbstp2385
Rp2386
(dp2387
g12
VTermSet
p2388
sbag1
(g2
g3
(dp2389
g2341
g1
(g6
g7
S'2155368'
p2390
tp2391
Rp2392
(dp2393
g12
g2341
sbsg2371
g1
(g6
g7
S'title'
p2394
tp2395
Rp2396
(dp2397
g12
g2371
sbsg2376
g1
(g6
g7
S'COI[title]'
p2398
tp2399
Rp2400
(dp2401
g12
g2376
sbsg2381
g1
(g6
g7
g97
tp2402
Rp2403
(dp2404
g12
g2381
sbstp2405
Rp2406
(dp2407
g12
g2388
sbag1
(g6
g7
S'AND'
p2408
tp2409
Rp2410
(dp2411
g12
VOP
p2412
sbatp2413
Rp2414
(dp2415
g12
g2364
sbsVRetStart
p2416
g1
(g6
g7
g113
tp2417
Rp2418
(dp2419
g12
g2416
sbsVTranslationSet
p2420
g1
(g18
g19
(lp2421
tp2422
Rp2423
(dp2424
g12
g2420
sbstp2425
Rp2426
(dp2427
g12
VeSearchResult
p2428
sbag1
(g2
g3
(dp2429
VCount
p2430
g1
(g6
g7
g2109
tp2431
Rp2432
(dp2433
g12
g2430
sbsVRetMax
p2434
g1
(g6
g7
g2109
tp2435
Rp2436
(dp2437
g12
g2434
sbsVIdList
p2438
g1
(g18
g19
(lp2439
g1
(g6
g7
S'429128488'
p2440
tp2441
Rp2442
(dp2443
g12
VId
p2444
sbag1
(g6
g7
S'429128466'
p2445
tp2446
Rp2447
(dp2448
g12
g2444
sbag1
(g6
g7
S'429128456'
p2449
tp2450
Rp2451
(dp2452
g12
g2444
sbag1
(g6
g7
S'429128454'
p2453
tp2454
Rp2455
(dp2456
g12
g2444
sbag1
(g6
g7
S'429128452'
p2457
tp2458
Rp2459
(dp2460
g12
g2444
sbatp2461
Rp2462
(dp2463
g12
g2438
sbsVQueryTranslation
p2464
g1
(g6
g7
S'Lutjanus bitaeniatus[PORG] AND COI[title]'
p2465
tp2466
Rp2467
(dp2468
g12
g2464
sbsVTranslationStack
p2469
g1
(g18
g19
(lp2470
g1
(g2
g3
(dp2471
g2430
g1
(g6
g7
g2109
tp2472
Rp2473
(dp2474
g12
g2430
sbsVField
p2475
g1
(g6
g7
S'PORG'
p2476
tp2477
Rp2478
(dp2479
g12
g2475
sbsVTerm
p2480
g1
(g6
g7
S'Lutjanus bitaeniatus[PORG]'
p2481
tp2482
Rp2483
(dp2484
g12
g2480
sbsVExplode
p2485
g1
(g6
g7
g76
tp2486
Rp2487
(dp2488
g12
g2485
sbstp2489
Rp2490
(dp2491
g12
VTermSet
p2492
sbag1
(g2
g3
(dp2493
g2430
g1
(g6
g7
S'2155368'
p2494
tp2495
Rp2496
(dp2497
g12
g2430
sbsg2475
g1
(g6
g7
S'title'
p2498
tp2499
Rp2500
(dp2501
g12
g2475
sbsg2480
g1
(g6
g7
S'COI[title]'
p2502
tp2503
Rp2504
(dp2505
g12
g2480
sbsg2485
g1
(g6
g7
g97
tp2506
Rp2507
(dp2508
g12
g2485
sbstp2509
Rp2510
(dp2511
g12
g2492
sbag1
(g6
g7
S'AND'
p2512
tp2513
Rp2514
(dp2515
g12
VOP
p2516
sbatp2517
Rp2518
(dp2519
g12
g2469
sbsVRetStart
p2520
g1
(g6
g7
g113
tp2521
Rp2522
(dp2523
g12
g2520
sbsVTranslationSet
p2524
g1
(g18
g19
(lp2525
tp2526
Rp2527
(dp2528
g12
g2524
sbstp2529
Rp2530
(dp2531
g12
VeSearchResult
p2532
sbag1
(g2
g3
(dp2533
VCount
p2534
g1
(g6
g7
S'12'
p2535
tp2536
Rp2537
(dp2538
g12
g2534
sbsVRetMax
p2539
g1
(g6
g7
S'12'
p2540
tp2541
Rp2542
(dp2543
g12
g2539
sbsVIdList
p2544
g1
(g18
g19
(lp2545
g1
(g6
g7
S'194738624'
p2546
tp2547
Rp2548
(dp2549
g12
VId
p2550
sbag1
(g6
g7
S'190608695'
p2551
tp2552
Rp2553
(dp2554
g12
g2550
sbag1
(g6
g7
S'339431636'
p2555
tp2556
Rp2557
(dp2558
g12
g2550
sbag1
(g6
g7
S'328486094'
p2559
tp2560
Rp2561
(dp2562
g12
g2550
sbag1
(g6
g7
S'296747009'
p2563
tp2564
Rp2565
(dp2566
g12
g2550
sbag1
(g6
g7
S'227935773'
p2567
tp2568
Rp2569
(dp2570
g12
g2550
sbag1
(g6
g7
S'816376455'
p2571
tp2572
Rp2573
(dp2574
g12
g2550
sbag1
(g6
g7
S'531992179'
p2575
tp2576
Rp2577
(dp2578
g12
g2550
sbag1
(g6
g7
S'584296144'
p2579
tp2580
Rp2581
(dp2582
g12
g2550
sbag1
(g6
g7
S'381279442'
p2583
tp2584
Rp2585
(dp2586
g12
g2550
sbag1
(g6
g7
S'381279440'
p2587
tp2588
Rp2589
(dp2590
g12
g2550
sbag1
(g6
g7
S'148373995'
p2591
tp2592
Rp2593
(dp2594
g12
g2550
sbatp2595
Rp2596
(dp2597
g12
g2544
sbsVQueryTranslation
p2598
g1
(g6
g7
S'Lutjanus bohar[PORG] AND COI[title]'
p2599
tp2600
Rp2601
(dp2602
g12
g2598
sbsVTranslationStack
p2603
g1
(g18
g19
(lp2604
g1
(g2
g3
(dp2605
g2534
g1
(g6
g7
S'17'
p2606
tp2607
Rp2608
(dp2609
g12
g2534
sbsVField
p2610
g1
(g6
g7
S'PORG'
p2611
tp2612
Rp2613
(dp2614
g12
g2610
sbsVTerm
p2615
g1
(g6
g7
S'Lutjanus bohar[PORG]'
p2616
tp2617
Rp2618
(dp2619
g12
g2615
sbsVExplode
p2620
g1
(g6
g7
g76
tp2621
Rp2622
(dp2623
g12
g2620
sbstp2624
Rp2625
(dp2626
g12
VTermSet
p2627
sbag1
(g2
g3
(dp2628
g2534
g1
(g6
g7
S'2155368'
p2629
tp2630
Rp2631
(dp2632
g12
g2534
sbsg2610
g1
(g6
g7
S'title'
p2633
tp2634
Rp2635
(dp2636
g12
g2610
sbsg2615
g1
(g6
g7
S'COI[title]'
p2637
tp2638
Rp2639
(dp2640
g12
g2615
sbsg2620
g1
(g6
g7
g97
tp2641
Rp2642
(dp2643
g12
g2620
sbstp2644
Rp2645
(dp2646
g12
g2627
sbag1
(g6
g7
S'AND'
p2647
tp2648
Rp2649
(dp2650
g12
VOP
p2651
sbatp2652
Rp2653
(dp2654
g12
g2603
sbsVRetStart
p2655
g1
(g6
g7
g113
tp2656
Rp2657
(dp2658
g12
g2655
sbsVTranslationSet
p2659
g1
(g18
g19
(lp2660
tp2661
Rp2662
(dp2663
g12
g2659
sbstp2664
Rp2665
(dp2666
g12
VeSearchResult
p2667
sbag1
(g2
g3
(dp2668
VCount
p2669
g1
(g6
g7
g1166
tp2670
Rp2671
(dp2672
g12
g2669
sbsVRetMax
p2673
g1
(g6
g7
g1166
tp2674
Rp2675
(dp2676
g12
g2673
sbsVIdList
p2677
g1
(g18
g19
(lp2678
g1
(g6
g7
S'1002677599'
p2679
tp2680
Rp2681
(dp2682
g12
VId
p2683
sbatp2684
Rp2685
(dp2686
g12
g2677
sbsVQueryTranslation
p2687
g1
(g6
g7
S'Lutjanus boutton[PORG] AND COI[title]'
p2688
tp2689
Rp2690
(dp2691
g12
g2687
sbsVTranslationStack
p2692
g1
(g18
g19
(lp2693
g1
(g2
g3
(dp2694
g2669
g1
(g6
g7
g1166
tp2695
Rp2696
(dp2697
g12
g2669
sbsVField
p2698
g1
(g6
g7
S'PORG'
p2699
tp2700
Rp2701
(dp2702
g12
g2698
sbsVTerm
p2703
g1
(g6
g7
S'Lutjanus boutton[PORG]'
p2704
tp2705
Rp2706
(dp2707
g12
g2703
sbsVExplode
p2708
g1
(g6
g7
g76
tp2709
Rp2710
(dp2711
g12
g2708
sbstp2712
Rp2713
(dp2714
g12
VTermSet
p2715
sbag1
(g2
g3
(dp2716
g2669
g1
(g6
g7
S'2155368'
p2717
tp2718
Rp2719
(dp2720
g12
g2669
sbsg2698
g1
(g6
g7
S'title'
p2721
tp2722
Rp2723
(dp2724
g12
g2698
sbsg2703
g1
(g6
g7
S'COI[title]'
p2725
tp2726
Rp2727
(dp2728
g12
g2703
sbsg2708
g1
(g6
g7
g97
tp2729
Rp2730
(dp2731
g12
g2708
sbstp2732
Rp2733
(dp2734
g12
g2715
sbag1
(g6
g7
S'AND'
p2735
tp2736
Rp2737
(dp2738
g12
VOP
p2739
sbatp2740
Rp2741
(dp2742
g12
g2692
sbsVRetStart
p2743
g1
(g6
g7
g113
tp2744
Rp2745
(dp2746
g12
g2743
sbsVTranslationSet
p2747
g1
(g18
g19
(lp2748
tp2749
Rp2750
(dp2751
g12
g2747
sbstp2752
Rp2753
(dp2754
g12
VeSearchResult
p2755
sbag1
(g2
g3
(dp2756
VCount
p2757
g1
(g6
g7
S'11'
p2758
tp2759
Rp2760
(dp2761
g12
g2757
sbsVRetMax
p2762
g1
(g6
g7
S'11'
p2763
tp2764
Rp2765
(dp2766
g12
g2762
sbsVIdList
p2767
g1
(g18
g19
(lp2768
g1
(g6
g7
S'320578755'
p2769
tp2770
Rp2771
(dp2772
g12
VId
p2773
sbag1
(g6
g7
S'320578753'
p2774
tp2775
Rp2776
(dp2777
g12
g2773
sbag1
(g6
g7
S'320578751'
p2778
tp2779
Rp2780
(dp2781
g12
g2773
sbag1
(g6
g7
S'291163994'
p2782
tp2783
Rp2784
(dp2785
g12
g2773
sbag1
(g6
g7
S'238551214'
p2786
tp2787
Rp2788
(dp2789
g12
g2773
sbag1
(g6
g7
S'238551212'
p2790
tp2791
Rp2792
(dp2793
g12
g2773
sbag1
(g6
g7
S'238551210'
p2794
tp2795
Rp2796
(dp2797
g12
g2773
sbag1
(g6
g7
S'238551208'
p2798
tp2799
Rp2800
(dp2801
g12
g2773
sbag1
(g6
g7
S'558500936'
p2802
tp2803
Rp2804
(dp2805
g12
g2773
sbag1
(g6
g7
S'558500934'
p2806
tp2807
Rp2808
(dp2809
g12
g2773
sbag1
(g6
g7
S'386647212'
p2810
tp2811
Rp2812
(dp2813
g12
g2773
sbatp2814
Rp2815
(dp2816
g12
g2767
sbsVQueryTranslation
p2817
g1
(g6
g7
S'Lutjanus buccanella[PORG] AND COI[title]'
p2818
tp2819
Rp2820
(dp2821
g12
g2817
sbsVTranslationStack
p2822
g1
(g18
g19
(lp2823
g1
(g2
g3
(dp2824
g2757
g1
(g6
g7
S'18'
p2825
tp2826
Rp2827
(dp2828
g12
g2757
sbsVField
p2829
g1
(g6
g7
S'PORG'
p2830
tp2831
Rp2832
(dp2833
g12
g2829
sbsVTerm
p2834
g1
(g6
g7
S'Lutjanus buccanella[PORG]'
p2835
tp2836
Rp2837
(dp2838
g12
g2834
sbsVExplode
p2839
g1
(g6
g7
g76
tp2840
Rp2841
(dp2842
g12
g2839
sbstp2843
Rp2844
(dp2845
g12
VTermSet
p2846
sbag1
(g2
g3
(dp2847
g2757
g1
(g6
g7
S'2155368'
p2848
tp2849
Rp2850
(dp2851
g12
g2757
sbsg2829
g1
(g6
g7
S'title'
p2852
tp2853
Rp2854
(dp2855
g12
g2829
sbsg2834
g1
(g6
g7
S'COI[title]'
p2856
tp2857
Rp2858
(dp2859
g12
g2834
sbsg2839
g1
(g6
g7
g97
tp2860
Rp2861
(dp2862
g12
g2839
sbstp2863
Rp2864
(dp2865
g12
g2846
sbag1
(g6
g7
S'AND'
p2866
tp2867
Rp2868
(dp2869
g12
VOP
p2870
sbatp2871
Rp2872
(dp2873
g12
g2822
sbsVRetStart
p2874
g1
(g6
g7
g113
tp2875
Rp2876
(dp2877
g12
g2874
sbsVTranslationSet
p2878
g1
(g18
g19
(lp2879
tp2880
Rp2881
(dp2882
g12
g2878
sbstp2883
Rp2884
(dp2885
g12
VeSearchResult
p2886
sbag1
(g2
g3
(dp2887
VCount
p2888
g1
(g6
g7
S'10'
p2889
tp2890
Rp2891
(dp2892
g12
g2888
sbsVRetMax
p2893
g1
(g6
g7
S'10'
p2894
tp2895
Rp2896
(dp2897
g12
g2893
sbsVIdList
p2898
g1
(g18
g19
(lp2899
g1
(g6
g7
S'189165552'
p2900
tp2901
Rp2902
(dp2903
g12
VId
p2904
sbag1
(g6
g7
S'189165550'
p2905
tp2906
Rp2907
(dp2908
g12
g2904
sbag1
(g6
g7
S'189165548'
p2909
tp2910
Rp2911
(dp2912
g12
g2904
sbag1
(g6
g7
S'340034745'
p2913
tp2914
Rp2915
(dp2916
g12
g2904
sbag1
(g6
g7
S'320578737'
p2917
tp2918
Rp2919
(dp2920
g12
g2904
sbag1
(g6
g7
S'320578735'
p2921
tp2922
Rp2923
(dp2924
g12
g2904
sbag1
(g6
g7
S'320578733'
p2925
tp2926
Rp2927
(dp2928
g12
g2904
sbag1
(g6
g7
S'238551216'
p2929
tp2930
Rp2931
(dp2932
g12
g2904
sbag1
(g6
g7
S'554521346'
p2933
tp2934
Rp2935
(dp2936
g12
g2904
sbag1
(g6
g7
S'554521344'
p2937
tp2938
Rp2939
(dp2940
g12
g2904
sbatp2941
Rp2942
(dp2943
g12
g2898
sbsVQueryTranslation
p2944
g1
(g6
g7
S'Lutjanus campechanus[PORG] AND COI[title]'
p2945
tp2946
Rp2947
(dp2948
g12
g2944
sbsVTranslationStack
p2949
g1
(g18
g19
(lp2950
g1
(g2
g3
(dp2951
g2888
g1
(g6
g7
S'449'
p2952
tp2953
Rp2954
(dp2955
g12
g2888
sbsVField
p2956
g1
(g6
g7
S'PORG'
p2957
tp2958
Rp2959
(dp2960
g12
g2956
sbsVTerm
p2961
g1
(g6
g7
S'Lutjanus campechanus[PORG]'
p2962
tp2963
Rp2964
(dp2965
g12
g2961
sbsVExplode
p2966
g1
(g6
g7
g76
tp2967
Rp2968
(dp2969
g12
g2966
sbstp2970
Rp2971
(dp2972
g12
VTermSet
p2973
sbag1
(g2
g3
(dp2974
g2888
g1
(g6
g7
S'2155368'
p2975
tp2976
Rp2977
(dp2978
g12
g2888
sbsg2956
g1
(g6
g7
S'title'
p2979
tp2980
Rp2981
(dp2982
g12
g2956
sbsg2961
g1
(g6
g7
S'COI[title]'
p2983
tp2984
Rp2985
(dp2986
g12
g2961
sbsg2966
g1
(g6
g7
g97
tp2987
Rp2988
(dp2989
g12
g2966
sbstp2990
Rp2991
(dp2992
g12
g2973
sbag1
(g6
g7
S'AND'
p2993
tp2994
Rp2995
(dp2996
g12
VOP
p2997
sbatp2998
Rp2999
(dp3000
g12
g2949
sbsVRetStart
p3001
g1
(g6
g7
g113
tp3002
Rp3003
(dp3004
g12
g3001
sbsVTranslationSet
p3005
g1
(g18
g19
(lp3006
tp3007
Rp3008
(dp3009
g12
g3005
sbstp3010
Rp3011
(dp3012
g12
VeSearchResult
p3013
sbag1
(g2
g3
(dp3014
VCount
p3015
g1
(g6
g7
g8
tp3016
Rp3017
(dp3018
g12
g3015
sbsVRetMax
p3019
g1
(g6
g7
g8
tp3020
Rp3021
(dp3022
g12
g3019
sbsVIdList
p3023
g1
(g18
g19
(lp3024
g1
(g6
g7
S'816377323'
p3025
tp3026
Rp3027
(dp3028
g12
VId
p3029
sbag1
(g6
g7
S'816376649'
p3030
tp3031
Rp3032
(dp3033
g12
g3029
sbag1
(g6
g7
S'816376191'
p3034
tp3035
Rp3036
(dp3037
g12
g3029
sbag1
(g6
g7
S'429128482'
p3038
tp3039
Rp3040
(dp3041
g12
g3029
sbag1
(g6
g7
S'429128470'
p3042
tp3043
Rp3044
(dp3045
g12
g3029
sbag1
(g6
g7
S'429128462'
p3046
tp3047
Rp3048
(dp3049
g12
g3029
sbag1
(g6
g7
S'148373997'
p3050
tp3051
Rp3052
(dp3053
g12
g3029
sbatp3054
Rp3055
(dp3056
g12
g3023
sbsVQueryTranslation
p3057
g1
(g6
g7
S'Lutjanus carponotatus[PORG] AND COI[title]'
p3058
tp3059
Rp3060
(dp3061
g12
g3057
sbsVTranslationStack
p3062
g1
(g18
g19
(lp3063
g1
(g2
g3
(dp3064
g3015
g1
(g6
g7
S'223'
p3065
tp3066
Rp3067
(dp3068
g12
g3015
sbsVField
p3069
g1
(g6
g7
S'PORG'
p3070
tp3071
Rp3072
(dp3073
g12
g3069
sbsVTerm
p3074
g1
(g6
g7
S'Lutjanus carponotatus[PORG]'
p3075
tp3076
Rp3077
(dp3078
g12
g3074
sbsVExplode
p3079
g1
(g6
g7
g76
tp3080
Rp3081
(dp3082
g12
g3079
sbstp3083
Rp3084
(dp3085
g12
VTermSet
p3086
sbag1
(g2
g3
(dp3087
g3015
g1
(g6
g7
S'2155368'
p3088
tp3089
Rp3090
(dp3091
g12
g3015
sbsg3069
g1
(g6
g7
S'title'
p3092
tp3093
Rp3094
(dp3095
g12
g3069
sbsg3074
g1
(g6
g7
S'COI[title]'
p3096
tp3097
Rp3098
(dp3099
g12
g3074
sbsg3079
g1
(g6
g7
g97
tp3100
Rp3101
(dp3102
g12
g3079
sbstp3103
Rp3104
(dp3105
g12
g3086
sbag1
(g6
g7
S'AND'
p3106
tp3107
Rp3108
(dp3109
g12
VOP
p3110
sbatp3111
Rp3112
(dp3113
g12
g3062
sbsVRetStart
p3114
g1
(g6
g7
g113
tp3115
Rp3116
(dp3117
g12
g3114
sbsVTranslationSet
p3118
g1
(g18
g19
(lp3119
tp3120
Rp3121
(dp3122
g12
g3118
sbstp3123
Rp3124
(dp3125
g12
VeSearchResult
p3126
sbag1
(g2
g3
(dp3127
VCount
p3128
g1
(g6
g7
g113
tp3129
Rp3130
(dp3131
g12
g3128
sbsVRetMax
p3132
g1
(g6
g7
g113
tp3133
Rp3134
(dp3135
g12
g3132
sbsVIdList
p3136
g1
(g18
g19
(lp3137
tp3138
Rp3139
(dp3140
g12
g3136
sbsVRetStart
p3141
g1
(g6
g7
g113
tp3142
Rp3143
(dp3144
g12
g3141
sbsVErrorList
p3145
g1
(g1335
g3
(dp3146
VFieldNotFound
p3147
(lp3148
sVPhraseNotFound
p3149
(lp3150
g1
(g6
g7
S'Lutjanus coeruleolineatus[PORG]'
p3151
tp3152
Rp3153
(dp3154
g12
VPhraseNotFound
p3155
sbastp3156
Rp3157
(dp3158
g12
g3145
sg1349
(lp3159
g3149
ag3147
asbsVTranslationSet
p3160
g1
(g18
g19
(lp3161
tp3162
Rp3163
(dp3164
g12
g3160
sbsVWarningList
p3165
g1
(g1335
g3
(dp3166
VOutputMessage
p3167
(lp3168
g1
(g6
g7
S'No items found.'
p3169
tp3170
Rp3171
(dp3172
g12
VOutputMessage
p3173
sbasVPhraseIgnored
p3174
(lp3175
sVQuotedPhraseNotFound
p3176
(lp3177
stp3178
Rp3179
(dp3180
g12
g3165
sg1349
(lp3181
g3174
ag3176
ag3167
asbsVQueryTranslation
p3182
g1
(g6
g7
S'Lutjanus coeruleolineatus[PORG] AND COI[title]'
p3183
tp3184
Rp3185
(dp3186
g12
g3182
sbstp3187
Rp3188
(dp3189
g12
VeSearchResult
p3190
sbag1
(g2
g3
(dp3191
VCount
p3192
g1
(g6
g7
g490
tp3193
Rp3194
(dp3195
g12
g3192
sbsVRetMax
p3196
g1
(g6
g7
g490
tp3197
Rp3198
(dp3199
g12
g3196
sbsVIdList
p3200
g1
(g18
g19
(lp3201
g1
(g6
g7
S'270310964'
p3202
tp3203
Rp3204
(dp3205
g12
VId
p3206
sbag1
(g6
g7
S'662357694'
p3207
tp3208
Rp3209
(dp3210
g12
g3206
sbag1
(g6
g7
S'662357692'
p3211
tp3212
Rp3213
(dp3214
g12
g3206
sbatp3215
Rp3216
(dp3217
g12
g3200
sbsVQueryTranslation
p3218
g1
(g6
g7
S'Lutjanus colorado[PORG] AND COI[title]'
p3219
tp3220
Rp3221
(dp3222
g12
g3218
sbsVTranslationStack
p3223
g1
(g18
g19
(lp3224
g1
(g2
g3
(dp3225
g3192
g1
(g6
g7
g128
tp3226
Rp3227
(dp3228
g12
g3192
sbsVField
p3229
g1
(g6
g7
S'PORG'
p3230
tp3231
Rp3232
(dp3233
g12
g3229
sbsVTerm
p3234
g1
(g6
g7
S'Lutjanus colorado[PORG]'
p3235
tp3236
Rp3237
(dp3238
g12
g3234
sbsVExplode
p3239
g1
(g6
g7
g76
tp3240
Rp3241
(dp3242
g12
g3239
sbstp3243
Rp3244
(dp3245
g12
VTermSet
p3246
sbag1
(g2
g3
(dp3247
g3192
g1
(g6
g7
S'2155368'
p3248
tp3249
Rp3250
(dp3251
g12
g3192
sbsg3229
g1
(g6
g7
S'title'
p3252
tp3253
Rp3254
(dp3255
g12
g3229
sbsg3234
g1
(g6
g7
S'COI[title]'
p3256
tp3257
Rp3258
(dp3259
g12
g3234
sbsg3239
g1
(g6
g7
g97
tp3260
Rp3261
(dp3262
g12
g3239
sbstp3263
Rp3264
(dp3265
g12
g3246
sbag1
(g6
g7
S'AND'
p3266
tp3267
Rp3268
(dp3269
g12
VOP
p3270
sbatp3271
Rp3272
(dp3273
g12
g3223
sbsVRetStart
p3274
g1
(g6
g7
g113
tp3275
Rp3276
(dp3277
g12
g3274
sbsVTranslationSet
p3278
g1
(g18
g19
(lp3279
tp3280
Rp3281
(dp3282
g12
g3278
sbstp3283
Rp3284
(dp3285
g12
VeSearchResult
p3286
sbag1
(g2
g3
(dp3287
VCount
p3288
g1
(g6
g7
S'11'
p3289
tp3290
Rp3291
(dp3292
g12
g3288
sbsVRetMax
p3293
g1
(g6
g7
S'11'
p3294
tp3295
Rp3296
(dp3297
g12
g3293
sbsVIdList
p3298
g1
(g18
g19
(lp3299
g1
(g6
g7
S'320578761'
p3300
tp3301
Rp3302
(dp3303
g12
VId
p3304
sbag1
(g6
g7
S'320578759'
p3305
tp3306
Rp3307
(dp3308
g12
g3304
sbag1
(g6
g7
S'320578757'
p3309
tp3310
Rp3311
(dp3312
g12
g3304
sbag1
(g6
g7
S'255958974'
p3313
tp3314
Rp3315
(dp3316
g12
g3304
sbag1
(g6
g7
S'255958972'
p3317
tp3318
Rp3319
(dp3320
g12
g3304
sbag1
(g6
g7
S'255958970'
p3321
tp3322
Rp3323
(dp3324
g12
g3304
sbag1
(g6
g7
S'238551224'
p3325
tp3326
Rp3327
(dp3328
g12
g3304
sbag1
(g6
g7
S'238551222'
p3329
tp3330
Rp3331
(dp3332
g12
g3304
sbag1
(g6
g7
S'238551220'
p3333
tp3334
Rp3335
(dp3336
g12
g3304
sbag1
(g6
g7
S'238551218'
p3337
tp3338
Rp3339
(dp3340
g12
g3304
sbag1
(g6
g7
S'558500938'
p3341
tp3342
Rp3343
(dp3344
g12
g3304
sbatp3345
Rp3346
(dp3347
g12
g3298
sbsVQueryTranslation
p3348
g1
(g6
g7
S'Lutjanus cyanopterus[PORG] AND COI[title]'
p3349
tp3350
Rp3351
(dp3352
g12
g3348
sbsVTranslationStack
p3353
g1
(g18
g19
(lp3354
g1
(g2
g3
(dp3355
g3288
g1
(g6
g7
S'18'
p3356
tp3357
Rp3358
(dp3359
g12
g3288
sbsVField
p3360
g1
(g6
g7
S'PORG'
p3361
tp3362
Rp3363
(dp3364
g12
g3360
sbsVTerm
p3365
g1
(g6
g7
S'Lutjanus cyanopterus[PORG]'
p3366
tp3367
Rp3368
(dp3369
g12
g3365
sbsVExplode
p3370
g1
(g6
g7
g76
tp3371
Rp3372
(dp3373
g12
g3370
sbstp3374
Rp3375
(dp3376
g12
VTermSet
p3377
sbag1
(g2
g3
(dp3378
g3288
g1
(g6
g7
S'2155368'
p3379
tp3380
Rp3381
(dp3382
g12
g3288
sbsg3360
g1
(g6
g7
S'title'
p3383
tp3384
Rp3385
(dp3386
g12
g3360
sbsg3365
g1
(g6
g7
S'COI[title]'
p3387
tp3388
Rp3389
(dp3390
g12
g3365
sbsg3370
g1
(g6
g7
g97
tp3391
Rp3392
(dp3393
g12
g3370
sbstp3394
Rp3395
(dp3396
g12
g3377
sbag1
(g6
g7
S'AND'
p3397
tp3398
Rp3399
(dp3400
g12
VOP
p3401
sbatp3402
Rp3403
(dp3404
g12
g3353
sbsVRetStart
p3405
g1
(g6
g7
g113
tp3406
Rp3407
(dp3408
g12
g3405
sbsVTranslationSet
p3409
g1
(g18
g19
(lp3410
tp3411
Rp3412
(dp3413
g12
g3409
sbstp3414
Rp3415
(dp3416
g12
VeSearchResult
p3417
sbag1
(g2
g3
(dp3418
VCount
p3419
g1
(g6
g7
S'6'
p3420
tp3421
Rp3422
(dp3423
g12
g3419
sbsVRetMax
p3424
g1
(g6
g7
g3420
tp3425
Rp3426
(dp3427
g12
g3424
sbsVIdList
p3428
g1
(g18
g19
(lp3429
g1
(g6
g7
S'628819204'
p3430
tp3431
Rp3432
(dp3433
g12
VId
p3434
sbag1
(g6
g7
S'557955488'
p3435
tp3436
Rp3437
(dp3438
g12
g3434
sbag1
(g6
g7
S'557955486'
p3439
tp3440
Rp3441
(dp3442
g12
g3434
sbag1
(g6
g7
S'429128478'
p3443
tp3444
Rp3445
(dp3446
g12
g3434
sbag1
(g6
g7
S'429128468'
p3447
tp3448
Rp3449
(dp3450
g12
g3434
sbag1
(g6
g7
S'429128464'
p3451
tp3452
Rp3453
(dp3454
g12
g3434
sbatp3455
Rp3456
(dp3457
g12
g3428
sbsVQueryTranslation
p3458
g1
(g6
g7
S'Lutjanus decussatus[PORG] AND COI[title]'
p3459
tp3460
Rp3461
(dp3462
g12
g3458
sbsVTranslationStack
p3463
g1
(g18
g19
(lp3464
g1
(g2
g3
(dp3465
g3419
g1
(g6
g7
g246
tp3466
Rp3467
(dp3468
g12
g3419
sbsVField
p3469
g1
(g6
g7
S'PORG'
p3470
tp3471
Rp3472
(dp3473
g12
g3469
sbsVTerm
p3474
g1
(g6
g7
S'Lutjanus decussatus[PORG]'
p3475
tp3476
Rp3477
(dp3478
g12
g3474
sbsVExplode
p3479
g1
(g6
g7
g76
tp3480
Rp3481
(dp3482
g12
g3479
sbstp3483
Rp3484
(dp3485
g12
VTermSet
p3486
sbag1
(g2
g3
(dp3487
g3419
g1
(g6
g7
S'2155368'
p3488
tp3489
Rp3490
(dp3491
g12
g3419
sbsg3469
g1
(g6
g7
S'title'
p3492
tp3493
Rp3494
(dp3495
g12
g3469
sbsg3474
g1
(g6
g7
S'COI[title]'
p3496
tp3497
Rp3498
(dp3499
g12
g3474
sbsg3479
g1
(g6
g7
g97
tp3500
Rp3501
(dp3502
g12
g3479
sbstp3503
Rp3504
(dp3505
g12
g3486
sbag1
(g6
g7
S'AND'
p3506
tp3507
Rp3508
(dp3509
g12
VOP
p3510
sbatp3511
Rp3512
(dp3513
g12
g3463
sbsVRetStart
p3514
g1
(g6
g7
g113
tp3515
Rp3516
(dp3517
g12
g3514
sbsVTranslationSet
p3518
g1
(g18
g19
(lp3519
tp3520
Rp3521
(dp3522
g12
g3518
sbstp3523
Rp3524
(dp3525
g12
VeSearchResult
p3526
sbag1
(g2
g3
(dp3527
VCount
p3528
g1
(g6
g7
g113
tp3529
Rp3530
(dp3531
g12
g3528
sbsVRetMax
p3532
g1
(g6
g7
g113
tp3533
Rp3534
(dp3535
g12
g3532
sbsVIdList
p3536
g1
(g18
g19
(lp3537
tp3538
Rp3539
(dp3540
g12
g3536
sbsVQueryTranslation
p3541
g1
(g6
g7
S'Lutjanus dentatus[PORG] AND COI[title]'
p3542
tp3543
Rp3544
(dp3545
g12
g3541
sbsVTranslationStack
p3546
g1
(g18
g19
(lp3547
g1
(g2
g3
(dp3548
g3528
g1
(g6
g7
g1166
tp3549
Rp3550
(dp3551
g12
g3528
sbsVField
p3552
g1
(g6
g7
S'PORG'
p3553
tp3554
Rp3555
(dp3556
g12
g3552
sbsVTerm
p3557
g1
(g6
g7
S'Lutjanus dentatus[PORG]'
p3558
tp3559
Rp3560
(dp3561
g12
g3557
sbsVExplode
p3562
g1
(g6
g7
g76
tp3563
Rp3564
(dp3565
g12
g3562
sbstp3566
Rp3567
(dp3568
g12
VTermSet
p3569
sbag1
(g2
g3
(dp3570
g3528
g1
(g6
g7
S'2155368'
p3571
tp3572
Rp3573
(dp3574
g12
g3528
sbsg3552
g1
(g6
g7
S'title'
p3575
tp3576
Rp3577
(dp3578
g12
g3552
sbsg3557
g1
(g6
g7
S'COI[title]'
p3579
tp3580
Rp3581
(dp3582
g12
g3557
sbsg3562
g1
(g6
g7
g97
tp3583
Rp3584
(dp3585
g12
g3562
sbstp3586
Rp3587
(dp3588
g12
g3569
sbag1
(g6
g7
S'AND'
p3589
tp3590
Rp3591
(dp3592
g12
VOP
p3593
sbatp3594
Rp3595
(dp3596
g12
g3546
sbsVRetStart
p3597
g1
(g6
g7
g113
tp3598
Rp3599
(dp3600
g12
g3597
sbsVTranslationSet
p3601
g1
(g18
g19
(lp3602
tp3603
Rp3604
(dp3605
g12
g3601
sbstp3606
Rp3607
(dp3608
g12
VeSearchResult
p3609
sbag1
(g2
g3
(dp3610
VCount
p3611
g1
(g6
g7
g490
tp3612
Rp3613
(dp3614
g12
g3611
sbsVRetMax
p3615
g1
(g6
g7
g490
tp3616
Rp3617
(dp3618
g12
g3615
sbsVIdList
p3619
g1
(g18
g19
(lp3620
g1
(g6
g7
S'557955494'
p3621
tp3622
Rp3623
(dp3624
g12
VId
p3625
sbag1
(g6
g7
S'557955492'
p3626
tp3627
Rp3628
(dp3629
g12
g3625
sbag1
(g6
g7
S'557955490'
p3630
tp3631
Rp3632
(dp3633
g12
g3625
sbatp3634
Rp3635
(dp3636
g12
g3619
sbsVQueryTranslation
p3637
g1
(g6
g7
S'Lutjanus dodecacanthoides[PORG] AND COI[title]'
p3638
tp3639
Rp3640
(dp3641
g12
g3637
sbsVTranslationStack
p3642
g1
(g18
g19
(lp3643
g1
(g2
g3
(dp3644
g3611
g1
(g6
g7
g490
tp3645
Rp3646
(dp3647
g12
g3611
sbsVField
p3648
g1
(g6
g7
S'PORG'
p3649
tp3650
Rp3651
(dp3652
g12
g3648
sbsVTerm
p3653
g1
(g6
g7
S'Lutjanus dodecacanthoides[PORG]'
p3654
tp3655
Rp3656
(dp3657
g12
g3653
sbsVExplode
p3658
g1
(g6
g7
g76
tp3659
Rp3660
(dp3661
g12
g3658
sbstp3662
Rp3663
(dp3664
g12
VTermSet
p3665
sbag1
(g2
g3
(dp3666
g3611
g1
(g6
g7
S'2155368'
p3667
tp3668
Rp3669
(dp3670
g12
g3611
sbsg3648
g1
(g6
g7
S'title'
p3671
tp3672
Rp3673
(dp3674
g12
g3648
sbsg3653
g1
(g6
g7
S'COI[title]'
p3675
tp3676
Rp3677
(dp3678
g12
g3653
sbsg3658
g1
(g6
g7
g97
tp3679
Rp3680
(dp3681
g12
g3658
sbstp3682
Rp3683
(dp3684
g12
g3665
sbag1
(g6
g7
S'AND'
p3685
tp3686
Rp3687
(dp3688
g12
VOP
p3689
sbatp3690
Rp3691
(dp3692
g12
g3642
sbsVRetStart
p3693
g1
(g6
g7
g113
tp3694
Rp3695
(dp3696
g12
g3693
sbsVTranslationSet
p3697
g1
(g18
g19
(lp3698
tp3699
Rp3700
(dp3701
g12
g3697
sbstp3702
Rp3703
(dp3704
g12
VeSearchResult
p3705
sbag1
(g2
g3
(dp3706
VCount
p3707
g1
(g6
g7
g2109
tp3708
Rp3709
(dp3710
g12
g3707
sbsVRetMax
p3711
g1
(g6
g7
g2109
tp3712
Rp3713
(dp3714
g12
g3711
sbsVIdList
p3715
g1
(g18
g19
(lp3716
g1
(g6
g7
S'309321063'
p3717
tp3718
Rp3719
(dp3720
g12
VId
p3721
sbag1
(g6
g7
S'309321061'
p3722
tp3723
Rp3724
(dp3725
g12
g3721
sbag1
(g6
g7
S'309321059'
p3726
tp3727
Rp3728
(dp3729
g12
g3721
sbag1
(g6
g7
S'816375669'
p3730
tp3731
Rp3732
(dp3733
g12
g3721
sbag1
(g6
g7
S'557849697'
p3734
tp3735
Rp3736
(dp3737
g12
g3721
sbatp3738
Rp3739
(dp3740
g12
g3715
sbsVQueryTranslation
p3741
g1
(g6
g7
S'Lutjanus ehrenbergii[PORG] AND COI[title]'
p3742
tp3743
Rp3744
(dp3745
g12
g3741
sbsVTranslationStack
p3746
g1
(g18
g19
(lp3747
g1
(g2
g3
(dp3748
g3707
g1
(g6
g7
S'17'
p3749
tp3750
Rp3751
(dp3752
g12
g3707
sbsVField
p3753
g1
(g6
g7
S'PORG'
p3754
tp3755
Rp3756
(dp3757
g12
g3753
sbsVTerm
p3758
g1
(g6
g7
S'Lutjanus ehrenbergii[PORG]'
p3759
tp3760
Rp3761
(dp3762
g12
g3758
sbsVExplode
p3763
g1
(g6
g7
g76
tp3764
Rp3765
(dp3766
g12
g3763
sbstp3767
Rp3768
(dp3769
g12
VTermSet
p3770
sbag1
(g2
g3
(dp3771
g3707
g1
(g6
g7
S'2155368'
p3772
tp3773
Rp3774
(dp3775
g12
g3707
sbsg3753
g1
(g6
g7
S'title'
p3776
tp3777
Rp3778
(dp3779
g12
g3753
sbsg3758
g1
(g6
g7
S'COI[title]'
p3780
tp3781
Rp3782
(dp3783
g12
g3758
sbsg3763
g1
(g6
g7
g97
tp3784
Rp3785
(dp3786
g12
g3763
sbstp3787
Rp3788
(dp3789
g12
g3770
sbag1
(g6
g7
S'AND'
p3790
tp3791
Rp3792
(dp3793
g12
VOP
p3794
sbatp3795
Rp3796
(dp3797
g12
g3746
sbsVRetStart
p3798
g1
(g6
g7
g113
tp3799
Rp3800
(dp3801
g12
g3798
sbsVTranslationSet
p3802
g1
(g18
g19
(lp3803
tp3804
Rp3805
(dp3806
g12
g3802
sbstp3807
Rp3808
(dp3809
g12
VeSearchResult
p3810
sbag1
(g2
g3
(dp3811
VCount
p3812
g1
(g6
g7
g113
tp3813
Rp3814
(dp3815
g12
g3812
sbsVRetMax
p3816
g1
(g6
g7
g113
tp3817
Rp3818
(dp3819
g12
g3816
sbsVIdList
p3820
g1
(g18
g19
(lp3821
tp3822
Rp3823
(dp3824
g12
g3820
sbsVRetStart
p3825
g1
(g6
g7
g113
tp3826
Rp3827
(dp3828
g12
g3825
sbsVErrorList
p3829
g1
(g1335
g3
(dp3830
VFieldNotFound
p3831
(lp3832
sVPhraseNotFound
p3833
(lp3834
g1
(g6
g7
S'Lutjanus endecacanthus[PORG]'
p3835
tp3836
Rp3837
(dp3838
g12
VPhraseNotFound
p3839
sbastp3840
Rp3841
(dp3842
g12
g3829
sg1349
(lp3843
g3833
ag3831
asbsVTranslationSet
p3844
g1
(g18
g19
(lp3845
tp3846
Rp3847
(dp3848
g12
g3844
sbsVWarningList
p3849
g1
(g1335
g3
(dp3850
VOutputMessage
p3851
(lp3852
g1
(g6
g7
S'No items found.'
p3853
tp3854
Rp3855
(dp3856
g12
VOutputMessage
p3857
sbasVPhraseIgnored
p3858
(lp3859
sVQuotedPhraseNotFound
p3860
(lp3861
stp3862
Rp3863
(dp3864
g12
g3849
sg1349
(lp3865
g3858
ag3860
ag3851
asbsVQueryTranslation
p3866
g1
(g6
g7
S'Lutjanus endecacanthus[PORG] AND COI[title]'
p3867
tp3868
Rp3869
(dp3870
g12
g3866
sbstp3871
Rp3872
(dp3873
g12
VeSearchResult
p3874
sbag1
(g2
g3
(dp3875
VCount
p3876
g1
(g6
g7
S'31'
p3877
tp3878
Rp3879
(dp3880
g12
g3876
sbsVRetMax
p3881
g1
(g6
g7
S'20'
p3882
tp3883
Rp3884
(dp3885
g12
g3881
sbsVIdList
p3886
g1
(g18
g19
(lp3887
g1
(g6
g7
S'190608661'
p3888
tp3889
Rp3890
(dp3891
g12
VId
p3892
sbag1
(g6
g7
S'190608659'
p3893
tp3894
Rp3895
(dp3896
g12
g3892
sbag1
(g6
g7
S'190608657'
p3897
tp3898
Rp3899
(dp3900
g12
g3892
sbag1
(g6
g7
S'190608655'
p3901
tp3902
Rp3903
(dp3904
g12
g3892
sbag1
(g6
g7
S'190608653'
p3905
tp3906
Rp3907
(dp3908
g12
g3892
sbag1
(g6
g7
S'190608651'
p3909
tp3910
Rp3911
(dp3912
g12
g3892
sbag1
(g6
g7
S'190608649'
p3913
tp3914
Rp3915
(dp3916
g12
g3892
sbag1
(g6
g7
S'190608647'
p3917
tp3918
Rp3919
(dp3920
g12
g3892
sbag1
(g6
g7
S'227935819'
p3921
tp3922
Rp3923
(dp3924
g12
g3892
sbag1
(g6
g7
S'227935817'
p3925
tp3926
Rp3927
(dp3928
g12
g3892
sbag1
(g6
g7
S'227935815'
p3929
tp3930
Rp3931
(dp3932
g12
g3892
sbag1
(g6
g7
S'227935813'
p3933
tp3934
Rp3935
(dp3936
g12
g3892
sbag1
(g6
g7
S'227935811'
p3937
tp3938
Rp3939
(dp3940
g12
g3892
sbag1
(g6
g7
S'227935809'
p3941
tp3942
Rp3943
(dp3944
g12
g3892
sbag1
(g6
g7
S'227935807'
p3945
tp3946
Rp3947
(dp3948
g12
g3892
sbag1
(g6
g7
S'227935805'
p3949
tp3950
Rp3951
(dp3952
g12
g3892
sbag1
(g6
g7
S'227935803'
p3953
tp3954
Rp3955
(dp3956
g12
g3892
sbag1
(g6
g7
S'227935801'
p3957
tp3958
Rp3959
(dp3960
g12
g3892
sbag1
(g6
g7
S'227935799'
p3961
tp3962
Rp3963
(dp3964
g12
g3892
sbag1
(g6
g7
S'227935797'
p3965
tp3966
Rp3967
(dp3968
g12
g3892
sbatp3969
Rp3970
(dp3971
g12
g3886
sbsVQueryTranslation
p3972
g1
(g6
g7
S'Lutjanus erythropterus[PORG] AND COI[title]'
p3973
tp3974
Rp3975
(dp3976
g12
g3972
sbsVTranslationStack
p3977
g1
(g18
g19
(lp3978
g1
(g2
g3
(dp3979
g3876
g1
(g6
g7
S'263'
p3980
tp3981
Rp3982
(dp3983
g12
g3876
sbsVField
p3984
g1
(g6
g7
S'PORG'
p3985
tp3986
Rp3987
(dp3988
g12
g3984
sbsVTerm
p3989
g1
(g6
g7
S'Lutjanus erythropterus[PORG]'
p3990
tp3991
Rp3992
(dp3993
g12
g3989
sbsVExplode
p3994
g1
(g6
g7
g76
tp3995
Rp3996
(dp3997
g12
g3994
sbstp3998
Rp3999
(dp4000
g12
VTermSet
p4001
sbag1
(g2
g3
(dp4002
g3876
g1
(g6
g7
S'2155368'
p4003
tp4004
Rp4005
(dp4006
g12
g3876
sbsg3984
g1
(g6
g7
S'title'
p4007
tp4008
Rp4009
(dp4010
g12
g3984
sbsg3989
g1
(g6
g7
S'COI[title]'
p4011
tp4012
Rp4013
(dp4014
g12
g3989
sbsg3994
g1
(g6
g7
g97
tp4015
Rp4016
(dp4017
g12
g3994
sbstp4018
Rp4019
(dp4020
g12
g4001
sbag1
(g6
g7
S'AND'
p4021
tp4022
Rp4023
(dp4024
g12
VOP
p4025
sbatp4026
Rp4027
(dp4028
g12
g3977
sbsVRetStart
p4029
g1
(g6
g7
g113
tp4030
Rp4031
(dp4032
g12
g4029
sbsVTranslationSet
p4033
g1
(g18
g19
(lp4034
tp4035
Rp4036
(dp4037
g12
g4033
sbstp4038
Rp4039
(dp4040
g12
VeSearchResult
p4041
sbag1
(g2
g3
(dp4042
VCount
p4043
g1
(g6
g7
g113
tp4044
Rp4045
(dp4046
g12
g4043
sbsVRetMax
p4047
g1
(g6
g7
g113
tp4048
Rp4049
(dp4050
g12
g4047
sbsVIdList
p4051
g1
(g18
g19
(lp4052
tp4053
Rp4054
(dp4055
g12
g4051
sbsVRetStart
p4056
g1
(g6
g7
g113
tp4057
Rp4058
(dp4059
g12
g4056
sbsVErrorList
p4060
g1
(g1335
g3
(dp4061
VFieldNotFound
p4062
(lp4063
sVPhraseNotFound
p4064
(lp4065
g1
(g6
g7
S'Lutjanus fulgens[PORG]'
p4066
tp4067
Rp4068
(dp4069
g12
VPhraseNotFound
p4070
sbastp4071
Rp4072
(dp4073
g12
g4060
sg1349
(lp4074
g4064
ag4062
asbsVTranslationSet
p4075
g1
(g18
g19
(lp4076
tp4077
Rp4078
(dp4079
g12
g4075
sbsVWarningList
p4080
g1
(g1335
g3
(dp4081
VOutputMessage
p4082
(lp4083
g1
(g6
g7
S'No items found.'
p4084
tp4085
Rp4086
(dp4087
g12
VOutputMessage
p4088
sbasVPhraseIgnored
p4089
(lp4090
sVQuotedPhraseNotFound
p4091
(lp4092
stp4093
Rp4094
(dp4095
g12
g4080
sg1349
(lp4096
g4089
ag4091
ag4082
asbsVQueryTranslation
p4097
g1
(g6
g7
S'Lutjanus fulgens[PORG] AND COI[title]'
p4098
tp4099
Rp4100
(dp4101
g12
g4097
sbstp4102
Rp4103
(dp4104
g12
VeSearchResult
p4105
sbag1
(g2
g3
(dp4106
VCount
p4107
g1
(g6
g7
S'44'
p4108
tp4109
Rp4110
(dp4111
g12
g4107
sbsVRetMax
p4112
g1
(g6
g7
S'20'
p4113
tp4114
Rp4115
(dp4116
g12
g4112
sbsVIdList
p4117
g1
(g18
g19
(lp4118
g1
(g6
g7
S'194738623'
p4119
tp4120
Rp4121
(dp4122
g12
VId
p4123
sbag1
(g6
g7
S'190608685'
p4124
tp4125
Rp4126
(dp4127
g12
g4123
sbag1
(g6
g7
S'190608683'
p4128
tp4129
Rp4130
(dp4131
g12
g4123
sbag1
(g6
g7
S'190608681'
p4132
tp4133
Rp4134
(dp4135
g12
g4123
sbag1
(g6
g7
S'190608679'
p4136
tp4137
Rp4138
(dp4139
g12
g4123
sbag1
(g6
g7
S'339518391'
p4140
tp4141
Rp4142
(dp4143
g12
g4123
sbag1
(g6
g7
S'328486114'
p4144
tp4145
Rp4146
(dp4147
g12
g4123
sbag1
(g6
g7
S'328486112'
p4148
tp4149
Rp4150
(dp4151
g12
g4123
sbag1
(g6
g7
S'328486110'
p4152
tp4153
Rp4154
(dp4155
g12
g4123
sbag1
(g6
g7
S'328486108'
p4156
tp4157
Rp4158
(dp4159
g12
g4123
sbag1
(g6
g7
S'328486106'
p4160
tp4161
Rp4162
(dp4163
g12
g4123
sbag1
(g6
g7
S'328486104'
p4164
tp4165
Rp4166
(dp4167
g12
g4123
sbag1
(g6
g7
S'328486102'
p4168
tp4169
Rp4170
(dp4171
g12
g4123
sbag1
(g6
g7
S'328486100'
p4172
tp4173
Rp4174
(dp4175
g12
g4123
sbag1
(g6
g7
S'328486098'
p4176
tp4177
Rp4178
(dp4179
g12
g4123
sbag1
(g6
g7
S'309321067'
p4180
tp4181
Rp4182
(dp4183
g12
g4123
sbag1
(g6
g7
S'309321065'
p4184
tp4185
Rp4186
(dp4187
g12
g4123
sbag1
(g6
g7
S'816377189'
p4188
tp4189
Rp4190
(dp4191
g12
g4123
sbag1
(g6
g7
S'816376513'
p4192
tp4193
Rp4194
(dp4195
g12
g4123
sbag1
(g6
g7
S'816375747'
p4196
tp4197
Rp4198
(dp4199
g12
g4123
sbatp4200
Rp4201
(dp4202
g12
g4117
sbsVQueryTranslation
p4203
g1
(g6
g7
S'Lutjanus fulviflamma[PORG] AND COI[title]'
p4204
tp4205
Rp4206
(dp4207
g12
g4203
sbsVTranslationStack
p4208
g1
(g18
g19
(lp4209
g1
(g2
g3
(dp4210
g4107
g1
(g6
g7
S'78'
p4211
tp4212
Rp4213
(dp4214
g12
g4107
sbsVField
p4215
g1
(g6
g7
S'PORG'
p4216
tp4217
Rp4218
(dp4219
g12
g4215
sbsVTerm
p4220
g1
(g6
g7
S'Lutjanus fulviflamma[PORG]'
p4221
tp4222
Rp4223
(dp4224
g12
g4220
sbsVExplode
p4225
g1
(g6
g7
g76
tp4226
Rp4227
(dp4228
g12
g4225
sbstp4229
Rp4230
(dp4231
g12
VTermSet
p4232
sbag1
(g2
g3
(dp4233
g4107
g1
(g6
g7
S'2155368'
p4234
tp4235
Rp4236
(dp4237
g12
g4107
sbsg4215
g1
(g6
g7
S'title'
p4238
tp4239
Rp4240
(dp4241
g12
g4215
sbsg4220
g1
(g6
g7
S'COI[title]'
p4242
tp4243
Rp4244
(dp4245
g12
g4220
sbsg4225
g1
(g6
g7
g97
tp4246
Rp4247
(dp4248
g12
g4225
sbstp4249
Rp4250
(dp4251
g12
g4232
sbag1
(g6
g7
S'AND'
p4252
tp4253
Rp4254
(dp4255
g12
VOP
p4256
sbatp4257
Rp4258
(dp4259
g12
g4208
sbsVRetStart
p4260
g1
(g6
g7
g113
tp4261
Rp4262
(dp4263
g12
g4260
sbsVTranslationSet
p4264
g1
(g18
g19
(lp4265
tp4266
Rp4267
(dp4268
g12
g4264
sbstp4269
Rp4270
(dp4271
g12
VeSearchResult
p4272
sbag1
(g2
g3
(dp4273
VCount
p4274
g1
(g6
g7
S'10'
p4275
tp4276
Rp4277
(dp4278
g12
g4274
sbsVRetMax
p4279
g1
(g6
g7
S'10'
p4280
tp4281
Rp4282
(dp4283
g12
g4279
sbsVIdList
p4284
g1
(g18
g19
(lp4285
g1
(g6
g7
S'190608625'
p4286
tp4287
Rp4288
(dp4289
g12
VId
p4290
sbag1
(g6
g7
S'190608623'
p4291
tp4292
Rp4293
(dp4294
g12
g4290
sbag1
(g6
g7
S'190608621'
p4295
tp4296
Rp4297
(dp4298
g12
g4290
sbag1
(g6
g7
S'1041927402'
p4299
tp4300
Rp4301
(dp4302
g12
g4290
sbag1
(g6
g7
S'1041927232'
p4303
tp4304
Rp4305
(dp4306
g12
g4290
sbag1
(g6
g7
S'557955496'
p4307
tp4308
Rp4309
(dp4310
g12
g4290
sbag1
(g6
g7
S'584296148'
p4311
tp4312
Rp4313
(dp4314
g12
g4290
sbag1
(g6
g7
S'381279448'
p4315
tp4316
Rp4317
(dp4318
g12
g4290
sbag1
(g6
g7
S'381279446'
p4319
tp4320
Rp4321
(dp4322
g12
g4290
sbag1
(g6
g7
S'381279444'
p4323
tp4324
Rp4325
(dp4326
g12
g4290
sbatp4327
Rp4328
(dp4329
g12
g4284
sbsVQueryTranslation
p4330
g1
(g6
g7
S'Lutjanus fulvus[PORG] AND COI[title]'
p4331
tp4332
Rp4333
(dp4334
g12
g4330
sbsVTranslationStack
p4335
g1
(g18
g19
(lp4336
g1
(g2
g3
(dp4337
g4274
g1
(g6
g7
S'75'
p4338
tp4339
Rp4340
(dp4341
g12
g4274
sbsVField
p4342
g1
(g6
g7
S'PORG'
p4343
tp4344
Rp4345
(dp4346
g12
g4342
sbsVTerm
p4347
g1
(g6
g7
S'Lutjanus fulvus[PORG]'
p4348
tp4349
Rp4350
(dp4351
g12
g4347
sbsVExplode
p4352
g1
(g6
g7
g76
tp4353
Rp4354
(dp4355
g12
g4352
sbstp4356
Rp4357
(dp4358
g12
VTermSet
p4359
sbag1
(g2
g3
(dp4360
g4274
g1
(g6
g7
S'2155368'
p4361
tp4362
Rp4363
(dp4364
g12
g4274
sbsg4342
g1
(g6
g7
S'title'
p4365
tp4366
Rp4367
(dp4368
g12
g4342
sbsg4347
g1
(g6
g7
S'COI[title]'
p4369
tp4370
Rp4371
(dp4372
g12
g4347
sbsg4352
g1
(g6
g7
g97
tp4373
Rp4374
(dp4375
g12
g4352
sbstp4376
Rp4377
(dp4378
g12
g4359
sbag1
(g6
g7
S'AND'
p4379
tp4380
Rp4381
(dp4382
g12
VOP
p4383
sbatp4384
Rp4385
(dp4386
g12
g4335
sbsVRetStart
p4387
g1
(g6
g7
g113
tp4388
Rp4389
(dp4390
g12
g4387
sbsVTranslationSet
p4391
g1
(g18
g19
(lp4392
tp4393
Rp4394
(dp4395
g12
g4391
sbstp4396
Rp4397
(dp4398
g12
VeSearchResult
p4399
sbag1
(g2
g3
(dp4400
VCount
p4401
g1
(g6
g7
g113
tp4402
Rp4403
(dp4404
g12
g4401
sbsVRetMax
p4405
g1
(g6
g7
g113
tp4406
Rp4407
(dp4408
g12
g4405
sbsVIdList
p4409
g1
(g18
g19
(lp4410
tp4411
Rp4412
(dp4413
g12
g4409
sbsVRetStart
p4414
g1
(g6
g7
g113
tp4415
Rp4416
(dp4417
g12
g4414
sbsVErrorList
p4418
g1
(g1335
g3
(dp4419
VFieldNotFound
p4420
(lp4421
sVPhraseNotFound
p4422
(lp4423
g1
(g6
g7
S'Lutjanus fuscescens[PORG]'
p4424
tp4425
Rp4426
(dp4427
g12
VPhraseNotFound
p4428
sbastp4429
Rp4430
(dp4431
g12
g4418
sg1349
(lp4432
g4422
ag4420
asbsVTranslationSet
p4433
g1
(g18
g19
(lp4434
tp4435
Rp4436
(dp4437
g12
g4433
sbsVWarningList
p4438
g1
(g1335
g3
(dp4439
VOutputMessage
p4440
(lp4441
g1
(g6
g7
S'No items found.'
p4442
tp4443
Rp4444
(dp4445
g12
VOutputMessage
p4446
sbasVPhraseIgnored
p4447
(lp4448
sVQuotedPhraseNotFound
p4449
(lp4450
stp4451
Rp4452
(dp4453
g12
g4438
sg1349
(lp4454
g4447
ag4449
ag4440
asbsVQueryTranslation
p4455
g1
(g6
g7
S'Lutjanus fuscescens[PORG] AND COI[title]'
p4456
tp4457
Rp4458
(dp4459
g12
g4455
sbstp4460
Rp4461
(dp4462
g12
VeSearchResult
p4463
sbag1
(g2
g3
(dp4464
VCount
p4465
g1
(g6
g7
S'10'
p4466
tp4467
Rp4468
(dp4469
g12
g4465
sbsVRetMax
p4470
g1
(g6
g7
S'10'
p4471
tp4472
Rp4473
(dp4474
g12
g4470
sbsVIdList
p4475
g1
(g18
g19
(lp4476
g1
(g6
g7
S'328486116'
p4477
tp4478
Rp4479
(dp4480
g12
VId
p4481
sbag1
(g6
g7
S'296747037'
p4482
tp4483
Rp4484
(dp4485
g12
g4481
sbag1
(g6
g7
S'557955500'
p4486
tp4487
Rp4488
(dp4489
g12
g4481
sbag1
(g6
g7
S'557955498'
p4490
tp4491
Rp4492
(dp4493
g12
g4481
sbag1
(g6
g7
S'525317035'
p4494
tp4495
Rp4496
(dp4497
g12
g4481
sbag1
(g6
g7
S'381279452'
p4498
tp4499
Rp4500
(dp4501
g12
g4481
sbag1
(g6
g7
S'381279450'
p4502
tp4503
Rp4504
(dp4505
g12
g4481
sbag1
(g6
g7
S'375585923'
p4506
tp4507
Rp4508
(dp4509
g12
g4481
sbag1
(g6
g7
S'375585920'
p4510
tp4511
Rp4512
(dp4513
g12
g4481
sbag1
(g6
g7
S'375585917'
p4514
tp4515
Rp4516
(dp4517
g12
g4481
sbatp4518
Rp4519
(dp4520
g12
g4475
sbsVQueryTranslation
p4521
g1
(g6
g7
S'Lutjanus gibbus[PORG] AND COI[title]'
p4522
tp4523
Rp4524
(dp4525
g12
g4521
sbsVTranslationStack
p4526
g1
(g18
g19
(lp4527
g1
(g2
g3
(dp4528
g4465
g1
(g6
g7
S'12'
p4529
tp4530
Rp4531
(dp4532
g12
g4465
sbsVField
p4533
g1
(g6
g7
S'PORG'
p4534
tp4535
Rp4536
(dp4537
g12
g4533
sbsVTerm
p4538
g1
(g6
g7
S'Lutjanus gibbus[PORG]'
p4539
tp4540
Rp4541
(dp4542
g12
g4538
sbsVExplode
p4543
g1
(g6
g7
g76
tp4544
Rp4545
(dp4546
g12
g4543
sbstp4547
Rp4548
(dp4549
g12
VTermSet
p4550
sbag1
(g2
g3
(dp4551
g4465
g1
(g6
g7
S'2155368'
p4552
tp4553
Rp4554
(dp4555
g12
g4465
sbsg4533
g1
(g6
g7
S'title'
p4556
tp4557
Rp4558
(dp4559
g12
g4533
sbsg4538
g1
(g6
g7
S'COI[title]'
p4560
tp4561
Rp4562
(dp4563
g12
g4538
sbsg4543
g1
(g6
g7
g97
tp4564
Rp4565
(dp4566
g12
g4543
sbstp4567
Rp4568
(dp4569
g12
g4550
sbag1
(g6
g7
S'AND'
p4570
tp4571
Rp4572
(dp4573
g12
VOP
p4574
sbatp4575
Rp4576
(dp4577
g12
g4526
sbsVRetStart
p4578
g1
(g6
g7
g113
tp4579
Rp4580
(dp4581
g12
g4578
sbsVTranslationSet
p4582
g1
(g18
g19
(lp4583
tp4584
Rp4585
(dp4586
g12
g4582
sbstp4587
Rp4588
(dp4589
g12
VeSearchResult
p4590
sbag1
(g2
g3
(dp4591
VCount
p4592
g1
(g6
g7
g113
tp4593
Rp4594
(dp4595
g12
g4592
sbsVRetMax
p4596
g1
(g6
g7
g113
tp4597
Rp4598
(dp4599
g12
g4596
sbsVIdList
p4600
g1
(g18
g19
(lp4601
tp4602
Rp4603
(dp4604
g12
g4600
sbsVQueryTranslation
p4605
g1
(g6
g7
S'Lutjanus goldiei[PORG] AND COI[title]'
p4606
tp4607
Rp4608
(dp4609
g12
g4605
sbsVTranslationStack
p4610
g1
(g18
g19
(lp4611
g1
(g2
g3
(dp4612
g4592
g1
(g6
g7
g1166
tp4613
Rp4614
(dp4615
g12
g4592
sbsVField
p4616
g1
(g6
g7
S'PORG'
p4617
tp4618
Rp4619
(dp4620
g12
g4616
sbsVTerm
p4621
g1
(g6
g7
S'Lutjanus goldiei[PORG]'
p4622
tp4623
Rp4624
(dp4625
g12
g4621
sbsVExplode
p4626
g1
(g6
g7
g76
tp4627
Rp4628
(dp4629
g12
g4626
sbstp4630
Rp4631
(dp4632
g12
VTermSet
p4633
sbag1
(g2
g3
(dp4634
g4592
g1
(g6
g7
S'2155368'
p4635
tp4636
Rp4637
(dp4638
g12
g4592
sbsg4616
g1
(g6
g7
S'title'
p4639
tp4640
Rp4641
(dp4642
g12
g4616
sbsg4621
g1
(g6
g7
S'COI[title]'
p4643
tp4644
Rp4645
(dp4646
g12
g4621
sbsg4626
g1
(g6
g7
g97
tp4647
Rp4648
(dp4649
g12
g4626
sbstp4650
Rp4651
(dp4652
g12
g4633
sbag1
(g6
g7
S'AND'
p4653
tp4654
Rp4655
(dp4656
g12
VOP
p4657
sbatp4658
Rp4659
(dp4660
g12
g4610
sbsVRetStart
p4661
g1
(g6
g7
g113
tp4662
Rp4663
(dp4664
g12
g4661
sbsVTranslationSet
p4665
g1
(g18
g19
(lp4666
tp4667
Rp4668
(dp4669
g12
g4665
sbstp4670
Rp4671
(dp4672
g12
VeSearchResult
p4673
sbag1
(g2
g3
(dp4674
VCount
p4675
g1
(g6
g7
g113
tp4676
Rp4677
(dp4678
g12
g4675
sbsVRetMax
p4679
g1
(g6
g7
g113
tp4680
Rp4681
(dp4682
g12
g4679
sbsVIdList
p4683
g1
(g18
g19
(lp4684
tp4685
Rp4686
(dp4687
g12
g4683
sbsVRetStart
p4688
g1
(g6
g7
g113
tp4689
Rp4690
(dp4691
g12
g4688
sbsVErrorList
p4692
g1
(g1335
g3
(dp4693
VFieldNotFound
p4694
(lp4695
sVPhraseNotFound
p4696
(lp4697
g1
(g6
g7
S'Lutjanus goreensis[PORG]'
p4698
tp4699
Rp4700
(dp4701
g12
VPhraseNotFound
p4702
sbastp4703
Rp4704
(dp4705
g12
g4692
sg1349
(lp4706
g4696
ag4694
asbsVTranslationSet
p4707
g1
(g18
g19
(lp4708
tp4709
Rp4710
(dp4711
g12
g4707
sbsVWarningList
p4712
g1
(g1335
g3
(dp4713
VOutputMessage
p4714
(lp4715
g1
(g6
g7
S'No items found.'
p4716
tp4717
Rp4718
(dp4719
g12
VOutputMessage
p4720
sbasVPhraseIgnored
p4721
(lp4722
sVQuotedPhraseNotFound
p4723
(lp4724
stp4725
Rp4726
(dp4727
g12
g4712
sg1349
(lp4728
g4721
ag4723
ag4714
asbsVQueryTranslation
p4729
g1
(g6
g7
S'Lutjanus goreensis[PORG] AND COI[title]'
p4730
tp4731
Rp4732
(dp4733
g12
g4729
sbstp4734
Rp4735
(dp4736
g12
VeSearchResult
p4737
sbag1
(g2
g3
(dp4738
VCount
p4739
g1
(g6
g7
S'68'
p4740
tp4741
Rp4742
(dp4743
g12
g4739
sbsVRetMax
p4744
g1
(g6
g7
S'20'
p4745
tp4746
Rp4747
(dp4748
g12
g4744
sbsVIdList
p4749
g1
(g18
g19
(lp4750
g1
(g6
g7
S'340034747'
p4751
tp4752
Rp4753
(dp4754
g12
VId
p4755
sbag1
(g6
g7
S'320578767'
p4756
tp4757
Rp4758
(dp4759
g12
g4755
sbag1
(g6
g7
S'320578765'
p4760
tp4761
Rp4762
(dp4763
g12
g4755
sbag1
(g6
g7
S'320578763'
p4764
tp4765
Rp4766
(dp4767
g12
g4755
sbag1
(g6
g7
S'297525526'
p4768
tp4769
Rp4770
(dp4771
g12
g4755
sbag1
(g6
g7
S'297525524'
p4772
tp4773
Rp4774
(dp4775
g12
g4755
sbag1
(g6
g7
S'297525522'
p4776
tp4777
Rp4778
(dp4779
g12
g4755
sbag1
(g6
g7
S'297525520'
p4780
tp4781
Rp4782
(dp4783
g12
g4755
sbag1
(g6
g7
S'297525518'
p4784
tp4785
Rp4786
(dp4787
g12
g4755
sbag1
(g6
g7
S'297525516'
p4788
tp4789
Rp4790
(dp4791
g12
g4755
sbag1
(g6
g7
S'297525514'
p4792
tp4793
Rp4794
(dp4795
g12
g4755
sbag1
(g6
g7
S'297525512'
p4796
tp4797
Rp4798
(dp4799
g12
g4755
sbag1
(g6
g7
S'297525510'
p4800
tp4801
Rp4802
(dp4803
g12
g4755
sbag1
(g6
g7
S'297525508'
p4804
tp4805
Rp4806
(dp4807
g12
g4755
sbag1
(g6
g7
S'297525506'
p4808
tp4809
Rp4810
(dp4811
g12
g4755
sbag1
(g6
g7
S'297525504'
p4812
tp4813
Rp4814
(dp4815
g12
g4755
sbag1
(g6
g7
S'297525502'
p4816
tp4817
Rp4818
(dp4819
g12
g4755
sbag1
(g6
g7
S'297525500'
p4820
tp4821
Rp4822
(dp4823
g12
g4755
sbag1
(g6
g7
S'297525498'
p4824
tp4825
Rp4826
(dp4827
g12
g4755
sbag1
(g6
g7
S'297525496'
p4828
tp4829
Rp4830
(dp4831
g12
g4755
sbatp4832
Rp4833
(dp4834
g12
g4749
sbsVQueryTranslation
p4835
g1
(g6
g7
S'Lutjanus griseus[PORG] AND COI[title]'
p4836
tp4837
Rp4838
(dp4839
g12
g4835
sbsVTranslationStack
p4840
g1
(g18
g19
(lp4841
g1
(g2
g3
(dp4842
g4739
g1
(g6
g7
S'116'
p4843
tp4844
Rp4845
(dp4846
g12
g4739
sbsVField
p4847
g1
(g6
g7
S'PORG'
p4848
tp4849
Rp4850
(dp4851
g12
g4847
sbsVTerm
p4852
g1
(g6
g7
S'Lutjanus griseus[PORG]'
p4853
tp4854
Rp4855
(dp4856
g12
g4852
sbsVExplode
p4857
g1
(g6
g7
g76
tp4858
Rp4859
(dp4860
g12
g4857
sbstp4861
Rp4862
(dp4863
g12
VTermSet
p4864
sbag1
(g2
g3
(dp4865
g4739
g1
(g6
g7
S'2155368'
p4866
tp4867
Rp4868
(dp4869
g12
g4739
sbsg4847
g1
(g6
g7
S'title'
p4870
tp4871
Rp4872
(dp4873
g12
g4847
sbsg4852
g1
(g6
g7
S'COI[title]'
p4874
tp4875
Rp4876
(dp4877
g12
g4852
sbsg4857
g1
(g6
g7
g97
tp4878
Rp4879
(dp4880
g12
g4857
sbstp4881
Rp4882
(dp4883
g12
g4864
sbag1
(g6
g7
S'AND'
p4884
tp4885
Rp4886
(dp4887
g12
VOP
p4888
sbatp4889
Rp4890
(dp4891
g12
g4840
sbsVRetStart
p4892
g1
(g6
g7
g113
tp4893
Rp4894
(dp4895
g12
g4892
sbsVTranslationSet
p4896
g1
(g18
g19
(lp4897
tp4898
Rp4899
(dp4900
g12
g4896
sbstp4901
Rp4902
(dp4903
g12
VeSearchResult
p4904
sbag1
(g2
g3
(dp4905
VCount
p4906
g1
(g6
g7
g113
tp4907
Rp4908
(dp4909
g12
g4906
sbsVRetMax
p4910
g1
(g6
g7
g113
tp4911
Rp4912
(dp4913
g12
g4910
sbsVIdList
p4914
g1
(g18
g19
(lp4915
tp4916
Rp4917
(dp4918
g12
g4914
sbsVRetStart
p4919
g1
(g6
g7
g113
tp4920
Rp4921
(dp4922
g12
g4919
sbsVErrorList
p4923
g1
(g1335
g3
(dp4924
VFieldNotFound
p4925
(lp4926
sVPhraseNotFound
p4927
(lp4928
g1
(g6
g7
S'Lutjanus guilcheri[PORG]'
p4929
tp4930
Rp4931
(dp4932
g12
VPhraseNotFound
p4933
sbastp4934
Rp4935
(dp4936
g12
g4923
sg1349
(lp4937
g4927
ag4925
asbsVTranslationSet
p4938
g1
(g18
g19
(lp4939
tp4940
Rp4941
(dp4942
g12
g4938
sbsVWarningList
p4943
g1
(g1335
g3
(dp4944
VOutputMessage
p4945
(lp4946
g1
(g6
g7
S'No items found.'
p4947
tp4948
Rp4949
(dp4950
g12
VOutputMessage
p4951
sbasVPhraseIgnored
p4952
(lp4953
sVQuotedPhraseNotFound
p4954
(lp4955
stp4956
Rp4957
(dp4958
g12
g4943
sg1349
(lp4959
g4952
ag4954
ag4945
asbsVQueryTranslation
p4960
g1
(g6
g7
S'Lutjanus guilcheri[PORG] AND COI[title]'
p4961
tp4962
Rp4963
(dp4964
g12
g4960
sbstp4965
Rp4966
(dp4967
g12
VeSearchResult
p4968
sbag1
(g2
g3
(dp4969
VCount
p4970
g1
(g6
g7
g490
tp4971
Rp4972
(dp4973
g12
g4970
sbsVRetMax
p4974
g1
(g6
g7
g490
tp4975
Rp4976
(dp4977
g12
g4974
sbsVIdList
p4978
g1
(g18
g19
(lp4979
g1
(g6
g7
S'662357670'
p4980
tp4981
Rp4982
(dp4983
g12
VId
p4984
sbag1
(g6
g7
S'662357668'
p4985
tp4986
Rp4987
(dp4988
g12
g4984
sbag1
(g6
g7
S'662357666'
p4989
tp4990
Rp4991
(dp4992
g12
g4984
sbatp4993
Rp4994
(dp4995
g12
g4978
sbsVQueryTranslation
p4996
g1
(g6
g7
S'Lutjanus guttatus[PORG] AND COI[title]'
p4997
tp4998
Rp4999
(dp5000
g12
g4996
sbsVTranslationStack
p5001
g1
(g18
g19
(lp5002
g1
(g2
g3
(dp5003
g4970
g1
(g6
g7
S'27'
p5004
tp5005
Rp5006
(dp5007
g12
g4970
sbsVField
p5008
g1
(g6
g7
S'PORG'
p5009
tp5010
Rp5011
(dp5012
g12
g5008
sbsVTerm
p5013
g1
(g6
g7
S'Lutjanus guttatus[PORG]'
p5014
tp5015
Rp5016
(dp5017
g12
g5013
sbsVExplode
p5018
g1
(g6
g7
g76
tp5019
Rp5020
(dp5021
g12
g5018
sbstp5022
Rp5023
(dp5024
g12
VTermSet
p5025
sbag1
(g2
g3
(dp5026
g4970
g1
(g6
g7
S'2155368'
p5027
tp5028
Rp5029
(dp5030
g12
g4970
sbsg5008
g1
(g6
g7
S'title'
p5031
tp5032
Rp5033
(dp5034
g12
g5008
sbsg5013
g1
(g6
g7
S'COI[title]'
p5035
tp5036
Rp5037
(dp5038
g12
g5013
sbsg5018
g1
(g6
g7
g97
tp5039
Rp5040
(dp5041
g12
g5018
sbstp5042
Rp5043
(dp5044
g12
g5025
sbag1
(g6
g7
S'AND'
p5045
tp5046
Rp5047
(dp5048
g12
VOP
p5049
sbatp5050
Rp5051
(dp5052
g12
g5001
sbsVRetStart
p5053
g1
(g6
g7
g113
tp5054
Rp5055
(dp5056
g12
g5053
sbsVTranslationSet
p5057
g1
(g18
g19
(lp5058
tp5059
Rp5060
(dp5061
g12
g5057
sbstp5062
Rp5063
(dp5064
g12
VeSearchResult
p5065
sbag1
(g2
g3
(dp5066
VCount
p5067
g1
(g6
g7
S'67'
p5068
tp5069
Rp5070
(dp5071
g12
g5067
sbsVRetMax
p5072
g1
(g6
g7
S'20'
p5073
tp5074
Rp5075
(dp5076
g12
g5072
sbsVIdList
p5077
g1
(g18
g19
(lp5078
g1
(g6
g7
S'584483912'
p5079
tp5080
Rp5081
(dp5082
g12
VId
p5083
sbag1
(g6
g7
S'584483910'
p5084
tp5085
Rp5086
(dp5087
g12
g5083
sbag1
(g6
g7
S'584483908'
p5088
tp5089
Rp5090
(dp5091
g12
g5083
sbag1
(g6
g7
S'584483906'
p5092
tp5093
Rp5094
(dp5095
g12
g5083
sbag1
(g6
g7
S'584483904'
p5096
tp5097
Rp5098
(dp5099
g12
g5083
sbag1
(g6
g7
S'584483902'
p5100
tp5101
Rp5102
(dp5103
g12
g5083
sbag1
(g6
g7
S'584483880'
p5104
tp5105
Rp5106
(dp5107
g12
g5083
sbag1
(g6
g7
S'584483878'
p5108
tp5109
Rp5110
(dp5111
g12
g5083
sbag1
(g6
g7
S'584483876'
p5112
tp5113
Rp5114
(dp5115
g12
g5083
sbag1
(g6
g7
S'584483874'
p5116
tp5117
Rp5118
(dp5119
g12
g5083
sbag1
(g6
g7
S'584483872'
p5120
tp5121
Rp5122
(dp5123
g12
g5083
sbag1
(g6
g7
S'584483870'
p5124
tp5125
Rp5126
(dp5127
g12
g5083
sbag1
(g6
g7
S'584483868'
p5128
tp5129
Rp5130
(dp5131
g12
g5083
sbag1
(g6
g7
S'584483866'
p5132
tp5133
Rp5134
(dp5135
g12
g5083
sbag1
(g6
g7
S'584483713'
p5136
tp5137
Rp5138
(dp5139
g12
g5083
sbag1
(g6
g7
S'584483711'
p5140
tp5141
Rp5142
(dp5143
g12
g5083
sbag1
(g6
g7
S'584483709'
p5144
tp5145
Rp5146
(dp5147
g12
g5083
sbag1
(g6
g7
S'584483707'
p5148
tp5149
Rp5150
(dp5151
g12
g5083
sbag1
(g6
g7
S'584483705'
p5152
tp5153
Rp5154
(dp5155
g12
g5083
sbag1
(g6
g7
S'584483703'
p5156
tp5157
Rp5158
(dp5159
g12
g5083
sbatp5160
Rp5161
(dp5162
g12
g5077
sbsVQueryTranslation
p5163
g1
(g6
g7
S'Lutjanus indicus[PORG] AND COI[title]'
p5164
tp5165
Rp5166
(dp5167
g12
g5163
sbsVTranslationStack
p5168
g1
(g18
g19
(lp5169
g1
(g2
g3
(dp5170
g5067
g1
(g6
g7
S'67'
p5171
tp5172
Rp5173
(dp5174
g12
g5067
sbsVField
p5175
g1
(g6
g7
S'PORG'
p5176
tp5177
Rp5178
(dp5179
g12
g5175
sbsVTerm
p5180
g1
(g6
g7
S'Lutjanus indicus[PORG]'
p5181
tp5182
Rp5183
(dp5184
g12
g5180
sbsVExplode
p5185
g1
(g6
g7
g76
tp5186
Rp5187
(dp5188
g12
g5185
sbstp5189
Rp5190
(dp5191
g12
VTermSet
p5192
sbag1
(g2
g3
(dp5193
g5067
g1
(g6
g7
S'2155368'
p5194
tp5195
Rp5196
(dp5197
g12
g5067
sbsg5175
g1
(g6
g7
S'title'
p5198
tp5199
Rp5200
(dp5201
g12
g5175
sbsg5180
g1
(g6
g7
S'COI[title]'
p5202
tp5203
Rp5204
(dp5205
g12
g5180
sbsg5185
g1
(g6
g7
g97
tp5206
Rp5207
(dp5208
g12
g5185
sbstp5209
Rp5210
(dp5211
g12
g5192
sbag1
(g6
g7
S'AND'
p5212
tp5213
Rp5214
(dp5215
g12
VOP
p5216
sbatp5217
Rp5218
(dp5219
g12
g5168
sbsVRetStart
p5220
g1
(g6
g7
g113
tp5221
Rp5222
(dp5223
g12
g5220
sbsVTranslationSet
p5224
g1
(g18
g19
(lp5225
tp5226
Rp5227
(dp5228
g12
g5224
sbstp5229
Rp5230
(dp5231
g12
VeSearchResult
p5232
sbag1
(g2
g3
(dp5233
VCount
p5234
g1
(g6
g7
g490
tp5235
Rp5236
(dp5237
g12
g5234
sbsVRetMax
p5238
g1
(g6
g7
g490
tp5239
Rp5240
(dp5241
g12
g5238
sbsVIdList
p5242
g1
(g18
g19
(lp5243
g1
(g6
g7
S'662357676'
p5244
tp5245
Rp5246
(dp5247
g12
VId
p5248
sbag1
(g6
g7
S'662357674'
p5249
tp5250
Rp5251
(dp5252
g12
g5248
sbag1
(g6
g7
S'662357672'
p5253
tp5254
Rp5255
(dp5256
g12
g5248
sbatp5257
Rp5258
(dp5259
g12
g5242
sbsVQueryTranslation
p5260
g1
(g6
g7
S'Lutjanus inermis[PORG] AND COI[title]'
p5261
tp5262
Rp5263
(dp5264
g12
g5260
sbsVTranslationStack
p5265
g1
(g18
g19
(lp5266
g1
(g2
g3
(dp5267
g5234
g1
(g6
g7
g246
tp5268
Rp5269
(dp5270
g12
g5234
sbsVField
p5271
g1
(g6
g7
S'PORG'
p5272
tp5273
Rp5274
(dp5275
g12
g5271
sbsVTerm
p5276
g1
(g6
g7
S'Lutjanus inermis[PORG]'
p5277
tp5278
Rp5279
(dp5280
g12
g5276
sbsVExplode
p5281
g1
(g6
g7
g76
tp5282
Rp5283
(dp5284
g12
g5281
sbstp5285
Rp5286
(dp5287
g12
VTermSet
p5288
sbag1
(g2
g3
(dp5289
g5234
g1
(g6
g7
S'2155368'
p5290
tp5291
Rp5292
(dp5293
g12
g5234
sbsg5271
g1
(g6
g7
S'title'
p5294
tp5295
Rp5296
(dp5297
g12
g5271
sbsg5276
g1
(g6
g7
S'COI[title]'
p5298
tp5299
Rp5300
(dp5301
g12
g5276
sbsg5281
g1
(g6
g7
g97
tp5302
Rp5303
(dp5304
g12
g5281
sbstp5305
Rp5306
(dp5307
g12
g5288
sbag1
(g6
g7
S'AND'
p5308
tp5309
Rp5310
(dp5311
g12
VOP
p5312
sbatp5313
Rp5314
(dp5315
g12
g5265
sbsVRetStart
p5316
g1
(g6
g7
g113
tp5317
Rp5318
(dp5319
g12
g5316
sbsVTranslationSet
p5320
g1
(g18
g19
(lp5321
tp5322
Rp5323
(dp5324
g12
g5320
sbstp5325
Rp5326
(dp5327
g12
VeSearchResult
p5328
sbag1
(g2
g3
(dp5329
VCount
p5330
g1
(g6
g7
S'37'
p5331
tp5332
Rp5333
(dp5334
g12
g5330
sbsVRetMax
p5335
g1
(g6
g7
S'20'
p5336
tp5337
Rp5338
(dp5339
g12
g5335
sbsVIdList
p5340
g1
(g18
g19
(lp5341
g1
(g6
g7
S'320578773'
p5342
tp5343
Rp5344
(dp5345
g12
VId
p5346
sbag1
(g6
g7
S'320578771'
p5347
tp5348
Rp5349
(dp5350
g12
g5346
sbag1
(g6
g7
S'320578769'
p5351
tp5352
Rp5353
(dp5354
g12
g5346
sbag1
(g6
g7
S'238551236'
p5355
tp5356
Rp5357
(dp5358
g12
g5346
sbag1
(g6
g7
S'238551234'
p5359
tp5360
Rp5361
(dp5362
g12
g5346
sbag1
(g6
g7
S'238551232'
p5363
tp5364
Rp5365
(dp5366
g12
g5346
sbag1
(g6
g7
S'558500932'
p5367
tp5368
Rp5369
(dp5370
g12
g5346
sbag1
(g6
g7
S'558500930'
p5371
tp5372
Rp5373
(dp5374
g12
g5346
sbag1
(g6
g7
S'558500928'
p5375
tp5376
Rp5377
(dp5378
g12
g5346
sbag1
(g6
g7
S'558500926'
p5379
tp5380
Rp5381
(dp5382
g12
g5346
sbag1
(g6
g7
S'558500924'
p5383
tp5384
Rp5385
(dp5386
g12
g5346
sbag1
(g6
g7
S'558500922'
p5387
tp5388
Rp5389
(dp5390
g12
g5346
sbag1
(g6
g7
S'558500920'
p5391
tp5392
Rp5393
(dp5394
g12
g5346
sbag1
(g6
g7
S'558500918'
p5395
tp5396
Rp5397
(dp5398
g12
g5346
sbag1
(g6
g7
S'558500916'
p5399
tp5400
Rp5401
(dp5402
g12
g5346
sbag1
(g6
g7
S'558500914'
p5403
tp5404
Rp5405
(dp5406
g12
g5346
sbag1
(g6
g7
S'558500912'
p5407
tp5408
Rp5409
(dp5410
g12
g5346
sbag1
(g6
g7
S'558500910'
p5411
tp5412
Rp5413
(dp5414
g12
g5346
sbag1
(g6
g7
S'558500908'
p5415
tp5416
Rp5417
(dp5418
g12
g5346
sbag1
(g6
g7
S'558500906'
p5419
tp5420
Rp5421
(dp5422
g12
g5346
sbatp5423
Rp5424
(dp5425
g12
g5340
sbsVQueryTranslation
p5426
g1
(g6
g7
S'Lutjanus jocu[PORG] AND COI[title]'
p5427
tp5428
Rp5429
(dp5430
g12
g5426
sbsVTranslationStack
p5431
g1
(g18
g19
(lp5432
g1
(g2
g3
(dp5433
g5330
g1
(g6
g7
S'45'
p5434
tp5435
Rp5436
(dp5437
g12
g5330
sbsVField
p5438
g1
(g6
g7
S'PORG'
p5439
tp5440
Rp5441
(dp5442
g12
g5438
sbsVTerm
p5443
g1
(g6
g7
S'Lutjanus jocu[PORG]'
p5444
tp5445
Rp5446
(dp5447
g12
g5443
sbsVExplode
p5448
g1
(g6
g7
g76
tp5449
Rp5450
(dp5451
g12
g5448
sbstp5452
Rp5453
(dp5454
g12
VTermSet
p5455
sbag1
(g2
g3
(dp5456
g5330
g1
(g6
g7
S'2155368'
p5457
tp5458
Rp5459
(dp5460
g12
g5330
sbsg5438
g1
(g6
g7
S'title'
p5461
tp5462
Rp5463
(dp5464
g12
g5438
sbsg5443
g1
(g6
g7
S'COI[title]'
p5465
tp5466
Rp5467
(dp5468
g12
g5443
sbsg5448
g1
(g6
g7
g97
tp5469
Rp5470
(dp5471
g12
g5448
sbstp5472
Rp5473
(dp5474
g12
g5455
sbag1
(g6
g7
S'AND'
p5475
tp5476
Rp5477
(dp5478
g12
VOP
p5479
sbatp5480
Rp5481
(dp5482
g12
g5431
sbsVRetStart
p5483
g1
(g6
g7
g113
tp5484
Rp5485
(dp5486
g12
g5483
sbsVTranslationSet
p5487
g1
(g18
g19
(lp5488
tp5489
Rp5490
(dp5491
g12
g5487
sbstp5492
Rp5493
(dp5494
g12
VeSearchResult
p5495
sbag1
(g2
g3
(dp5496
VCount
p5497
g1
(g6
g7
S'35'
p5498
tp5499
Rp5500
(dp5501
g12
g5497
sbsVRetMax
p5502
g1
(g6
g7
S'20'
p5503
tp5504
Rp5505
(dp5506
g12
g5502
sbsVIdList
p5507
g1
(g18
g19
(lp5508
g1
(g6
g7
S'194738620'
p5509
tp5510
Rp5511
(dp5512
g12
VId
p5513
sbag1
(g6
g7
S'194738619'
p5514
tp5515
Rp5516
(dp5517
g12
g5513
sbag1
(g6
g7
S'190608677'
p5518
tp5519
Rp5520
(dp5521
g12
g5513
sbag1
(g6
g7
S'190608675'
p5522
tp5523
Rp5524
(dp5525
g12
g5513
sbag1
(g6
g7
S'190608673'
p5526
tp5527
Rp5528
(dp5529
g12
g5513
sbag1
(g6
g7
S'161777702'
p5530
tp5531
Rp5532
(dp5533
g12
g5513
sbag1
(g6
g7
S'161777700'
p5534
tp5535
Rp5536
(dp5537
g12
g5513
sbag1
(g6
g7
S'151975443'
p5538
tp5539
Rp5540
(dp5541
g12
g5513
sbag1
(g6
g7
S'807197868'
p5542
tp5543
Rp5544
(dp5545
g12
g5513
sbag1
(g6
g7
S'807197867'
p5546
tp5547
Rp5548
(dp5549
g12
g5513
sbag1
(g6
g7
S'592747536'
p5550
tp5551
Rp5552
(dp5553
g12
g5513
sbag1
(g6
g7
S'592747534'
p5554
tp5555
Rp5556
(dp5557
g12
g5513
sbag1
(g6
g7
S'573464257'
p5558
tp5559
Rp5560
(dp5561
g12
g5513
sbag1
(g6
g7
S'573464255'
p5562
tp5563
Rp5564
(dp5565
g12
g5513
sbag1
(g6
g7
S'573464253'
p5566
tp5567
Rp5568
(dp5569
g12
g5513
sbag1
(g6
g7
S'525317037'
p5570
tp5571
Rp5572
(dp5573
g12
g5513
sbag1
(g6
g7
S'564732789'
p5574
tp5575
Rp5576
(dp5577
g12
g5513
sbag1
(g6
g7
S'564732787'
p5578
tp5579
Rp5580
(dp5581
g12
g5513
sbag1
(g6
g7
S'564732785'
p5582
tp5583
Rp5584
(dp5585
g12
g5513
sbag1
(g6
g7
S'564732783'
p5586
tp5587
Rp5588
(dp5589
g12
g5513
sbatp5590
Rp5591
(dp5592
g12
g5507
sbsVQueryTranslation
p5593
g1
(g6
g7
S'Lutjanus johnii[PORG] AND COI[title]'
p5594
tp5595
Rp5596
(dp5597
g12
g5593
sbsVTranslationStack
p5598
g1
(g18
g19
(lp5599
g1
(g2
g3
(dp5600
g5497
g1
(g6
g7
S'145'
p5601
tp5602
Rp5603
(dp5604
g12
g5497
sbsVField
p5605
g1
(g6
g7
S'PORG'
p5606
tp5607
Rp5608
(dp5609
g12
g5605
sbsVTerm
p5610
g1
(g6
g7
S'Lutjanus johnii[PORG]'
p5611
tp5612
Rp5613
(dp5614
g12
g5610
sbsVExplode
p5615
g1
(g6
g7
g76
tp5616
Rp5617
(dp5618
g12
g5615
sbstp5619
Rp5620
(dp5621
g12
VTermSet
p5622
sbag1
(g2
g3
(dp5623
g5497
g1
(g6
g7
S'2155368'
p5624
tp5625
Rp5626
(dp5627
g12
g5497
sbsg5605
g1
(g6
g7
S'title'
p5628
tp5629
Rp5630
(dp5631
g12
g5605
sbsg5610
g1
(g6
g7
S'COI[title]'
p5632
tp5633
Rp5634
(dp5635
g12
g5610
sbsg5615
g1
(g6
g7
g97
tp5636
Rp5637
(dp5638
g12
g5615
sbstp5639
Rp5640
(dp5641
g12
g5622
sbag1
(g6
g7
S'AND'
p5642
tp5643
Rp5644
(dp5645
g12
VOP
p5646
sbatp5647
Rp5648
(dp5649
g12
g5598
sbsVRetStart
p5650
g1
(g6
g7
g113
tp5651
Rp5652
(dp5653
g12
g5650
sbsVTranslationSet
p5654
g1
(g18
g19
(lp5655
tp5656
Rp5657
(dp5658
g12
g5654
sbstp5659
Rp5660
(dp5661
g12
VeSearchResult
p5662
sbag1
(g2
g3
(dp5663
VCount
p5664
g1
(g6
g7
g113
tp5665
Rp5666
(dp5667
g12
g5664
sbsVRetMax
p5668
g1
(g6
g7
g113
tp5669
Rp5670
(dp5671
g12
g5668
sbsVIdList
p5672
g1
(g18
g19
(lp5673
tp5674
Rp5675
(dp5676
g12
g5672
sbsVRetStart
p5677
g1
(g6
g7
g113
tp5678
Rp5679
(dp5680
g12
g5677
sbsVErrorList
p5681
g1
(g1335
g3
(dp5682
VFieldNotFound
p5683
(lp5684
sVPhraseNotFound
p5685
(lp5686
g1
(g6
g7
S'Lutjanus jordani[PORG]'
p5687
tp5688
Rp5689
(dp5690
g12
VPhraseNotFound
p5691
sbastp5692
Rp5693
(dp5694
g12
g5681
sg1349
(lp5695
g5685
ag5683
asbsVTranslationSet
p5696
g1
(g18
g19
(lp5697
tp5698
Rp5699
(dp5700
g12
g5696
sbsVWarningList
p5701
g1
(g1335
g3
(dp5702
VOutputMessage
p5703
(lp5704
g1
(g6
g7
S'No items found.'
p5705
tp5706
Rp5707
(dp5708
g12
VOutputMessage
p5709
sbasVPhraseIgnored
p5710
(lp5711
sVQuotedPhraseNotFound
p5712
(lp5713
stp5714
Rp5715
(dp5716
g12
g5701
sg1349
(lp5717
g5710
ag5712
ag5703
asbsVQueryTranslation
p5718
g1
(g6
g7
S'Lutjanus jordani[PORG] AND COI[title]'
p5719
tp5720
Rp5721
(dp5722
g12
g5718
sbstp5723
Rp5724
(dp5725
g12
VeSearchResult
p5726
sbag1
(g2
g3
(dp5727
VCount
p5728
g1
(g6
g7
S'38'
p5729
tp5730
Rp5731
(dp5732
g12
g5728
sbsVRetMax
p5733
g1
(g6
g7
S'20'
p5734
tp5735
Rp5736
(dp5737
g12
g5733
sbsVIdList
p5738
g1
(g18
g19
(lp5739
g1
(g6
g7
S'190608709'
p5740
tp5741
Rp5742
(dp5743
g12
VId
p5744
sbag1
(g6
g7
S'336283405'
p5745
tp5746
Rp5747
(dp5748
g12
g5744
sbag1
(g6
g7
S'328486120'
p5749
tp5750
Rp5751
(dp5752
g12
g5744
sbag1
(g6
g7
S'328486118'
p5753
tp5754
Rp5755
(dp5756
g12
g5744
sbag1
(g6
g7
S'312841855'
p5757
tp5758
Rp5759
(dp5760
g12
g5744
sbag1
(g6
g7
S'296746837'
p5761
tp5762
Rp5763
(dp5764
g12
g5744
sbag1
(g6
g7
S'296746819'
p5765
tp5766
Rp5767
(dp5768
g12
g5744
sbag1
(g6
g7
S'666877762'
p5769
tp5770
Rp5771
(dp5772
g12
g5744
sbag1
(g6
g7
S'584296152'
p5773
tp5774
Rp5775
(dp5776
g12
g5744
sbag1
(g6
g7
S'451311834'
p5777
tp5778
Rp5779
(dp5780
g12
g5744
sbag1
(g6
g7
S'451311832'
p5781
tp5782
Rp5783
(dp5784
g12
g5744
sbag1
(g6
g7
S'451311830'
p5785
tp5786
Rp5787
(dp5788
g12
g5744
sbag1
(g6
g7
S'451311828'
p5789
tp5790
Rp5791
(dp5792
g12
g5744
sbag1
(g6
g7
S'451311826'
p5793
tp5794
Rp5795
(dp5796
g12
g5744
sbag1
(g6
g7
S'451311824'
p5797
tp5798
Rp5799
(dp5800
g12
g5744
sbag1
(g6
g7
S'451311822'
p5801
tp5802
Rp5803
(dp5804
g12
g5744
sbag1
(g6
g7
S'451311820'
p5805
tp5806
Rp5807
(dp5808
g12
g5744
sbag1
(g6
g7
S'451311818'
p5809
tp5810
Rp5811
(dp5812
g12
g5744
sbag1
(g6
g7
S'451311816'
p5813
tp5814
Rp5815
(dp5816
g12
g5744
sbag1
(g6
g7
S'451311814'
p5817
tp5818
Rp5819
(dp5820
g12
g5744
sbatp5821
Rp5822
(dp5823
g12
g5738
sbsVQueryTranslation
p5824
g1
(g6
g7
S'Lutjanus kasmira[PORG] AND COI[title]'
p5825
tp5826
Rp5827
(dp5828
g12
g5824
sbsVTranslationStack
p5829
g1
(g18
g19
(lp5830
g1
(g2
g3
(dp5831
g5728
g1
(g6
g7
S'573'
p5832
tp5833
Rp5834
(dp5835
g12
g5728
sbsVField
p5836
g1
(g6
g7
S'PORG'
p5837
tp5838
Rp5839
(dp5840
g12
g5836
sbsVTerm
p5841
g1
(g6
g7
S'Lutjanus kasmira[PORG]'
p5842
tp5843
Rp5844
(dp5845
g12
g5841
sbsVExplode
p5846
g1
(g6
g7
g76
tp5847
Rp5848
(dp5849
g12
g5846
sbstp5850
Rp5851
(dp5852
g12
VTermSet
p5853
sbag1
(g2
g3
(dp5854
g5728
g1
(g6
g7
S'2155368'
p5855
tp5856
Rp5857
(dp5858
g12
g5728
sbsg5836
g1
(g6
g7
S'title'
p5859
tp5860
Rp5861
(dp5862
g12
g5836
sbsg5841
g1
(g6
g7
S'COI[title]'
p5863
tp5864
Rp5865
(dp5866
g12
g5841
sbsg5846
g1
(g6
g7
g97
tp5867
Rp5868
(dp5869
g12
g5846
sbstp5870
Rp5871
(dp5872
g12
g5853
sbag1
(g6
g7
S'AND'
p5873
tp5874
Rp5875
(dp5876
g12
VOP
p5877
sbatp5878
Rp5879
(dp5880
g12
g5829
sbsVRetStart
p5881
g1
(g6
g7
g113
tp5882
Rp5883
(dp5884
g12
g5881
sbsVTranslationSet
p5885
g1
(g18
g19
(lp5886
tp5887
Rp5888
(dp5889
g12
g5885
sbstp5890
Rp5891
(dp5892
g12
VeSearchResult
p5893
sbag1
(g2
g3
(dp5894
VCount
p5895
g1
(g6
g7
g368
tp5896
Rp5897
(dp5898
g12
g5895
sbsVRetMax
p5899
g1
(g6
g7
g368
tp5900
Rp5901
(dp5902
g12
g5899
sbsVIdList
p5903
g1
(g18
g19
(lp5904
g1
(g6
g7
S'429128490'
p5905
tp5906
Rp5907
(dp5908
g12
VId
p5909
sbag1
(g6
g7
S'429128484'
p5910
tp5911
Rp5912
(dp5913
g12
g5909
sbag1
(g6
g7
S'429128476'
p5914
tp5915
Rp5916
(dp5917
g12
g5909
sbag1
(g6
g7
S'148374001'
p5918
tp5919
Rp5920
(dp5921
g12
g5909
sbatp5922
Rp5923
(dp5924
g12
g5903
sbsVQueryTranslation
p5925
g1
(g6
g7
S'Lutjanus lemniscatus[PORG] AND COI[title]'
p5926
tp5927
Rp5928
(dp5929
g12
g5925
sbsVTranslationStack
p5930
g1
(g18
g19
(lp5931
g1
(g2
g3
(dp5932
g5895
g1
(g6
g7
g368
tp5933
Rp5934
(dp5935
g12
g5895
sbsVField
p5936
g1
(g6
g7
S'PORG'
p5937
tp5938
Rp5939
(dp5940
g12
g5936
sbsVTerm
p5941
g1
(g6
g7
S'Lutjanus lemniscatus[PORG]'
p5942
tp5943
Rp5944
(dp5945
g12
g5941
sbsVExplode
p5946
g1
(g6
g7
g76
tp5947
Rp5948
(dp5949
g12
g5946
sbstp5950
Rp5951
(dp5952
g12
VTermSet
p5953
sbag1
(g2
g3
(dp5954
g5895
g1
(g6
g7
S'2155368'
p5955
tp5956
Rp5957
(dp5958
g12
g5895
sbsg5936
g1
(g6
g7
S'title'
p5959
tp5960
Rp5961
(dp5962
g12
g5936
sbsg5941
g1
(g6
g7
S'COI[title]'
p5963
tp5964
Rp5965
(dp5966
g12
g5941
sbsg5946
g1
(g6
g7
g97
tp5967
Rp5968
(dp5969
g12
g5946
sbstp5970
Rp5971
(dp5972
g12
g5953
sbag1
(g6
g7
S'AND'
p5973
tp5974
Rp5975
(dp5976
g12
VOP
p5977
sbatp5978
Rp5979
(dp5980
g12
g5930
sbsVRetStart
p5981
g1
(g6
g7
g113
tp5982
Rp5983
(dp5984
g12
g5981
sbsVTranslationSet
p5985
g1
(g18
g19
(lp5986
tp5987
Rp5988
(dp5989
g12
g5985
sbstp5990
Rp5991
(dp5992
g12
VeSearchResult
p5993
sbag1
(g2
g3
(dp5994
VCount
p5995
g1
(g6
g7
g1166
tp5996
Rp5997
(dp5998
g12
g5995
sbsVRetMax
p5999
g1
(g6
g7
g1166
tp6000
Rp6001
(dp6002
g12
g5999
sbsVIdList
p6003
g1
(g18
g19
(lp6004
g1
(g6
g7
S'402747210'
p6005
tp6006
Rp6007
(dp6008
g12
VId
p6009
sbatp6010
Rp6011
(dp6012
g12
g6003
sbsVQueryTranslation
p6013
g1
(g6
g7
S'Lutjanus lunulatus[PORG] AND COI[title]'
p6014
tp6015
Rp6016
(dp6017
g12
g6013
sbsVTranslationStack
p6018
g1
(g18
g19
(lp6019
g1
(g2
g3
(dp6020
g5995
g1
(g6
g7
S'2'
p6021
tp6022
Rp6023
(dp6024
g12
g5995
sbsVField
p6025
g1
(g6
g7
S'PORG'
p6026
tp6027
Rp6028
(dp6029
g12
g6025
sbsVTerm
p6030
g1
(g6
g7
S'Lutjanus lunulatus[PORG]'
p6031
tp6032
Rp6033
(dp6034
g12
g6030
sbsVExplode
p6035
g1
(g6
g7
g76
tp6036
Rp6037
(dp6038
g12
g6035
sbstp6039
Rp6040
(dp6041
g12
VTermSet
p6042
sbag1
(g2
g3
(dp6043
g5995
g1
(g6
g7
S'2155368'
p6044
tp6045
Rp6046
(dp6047
g12
g5995
sbsg6025
g1
(g6
g7
S'title'
p6048
tp6049
Rp6050
(dp6051
g12
g6025
sbsg6030
g1
(g6
g7
S'COI[title]'
p6052
tp6053
Rp6054
(dp6055
g12
g6030
sbsg6035
g1
(g6
g7
g97
tp6056
Rp6057
(dp6058
g12
g6035
sbstp6059
Rp6060
(dp6061
g12
g6042
sbag1
(g6
g7
S'AND'
p6062
tp6063
Rp6064
(dp6065
g12
VOP
p6066
sbatp6067
Rp6068
(dp6069
g12
g6018
sbsVRetStart
p6070
g1
(g6
g7
g113
tp6071
Rp6072
(dp6073
g12
g6070
sbsVTranslationSet
p6074
g1
(g18
g19
(lp6075
tp6076
Rp6077
(dp6078
g12
g6074
sbstp6079
Rp6080
(dp6081
g12
VeSearchResult
p6082
sbag1
(g2
g3
(dp6083
VCount
p6084
g1
(g6
g7
S'27'
p6085
tp6086
Rp6087
(dp6088
g12
g6084
sbsVRetMax
p6089
g1
(g6
g7
S'20'
p6090
tp6091
Rp6092
(dp6093
g12
g6089
sbsVIdList
p6094
g1
(g18
g19
(lp6095
g1
(g6
g7
S'1035518633'
p6096
tp6097
Rp6098
(dp6099
g12
VId
p6100
sbag1
(g6
g7
S'328486132'
p6101
tp6102
Rp6103
(dp6104
g12
g6100
sbag1
(g6
g7
S'328486130'
p6105
tp6106
Rp6107
(dp6108
g12
g6100
sbag1
(g6
g7
S'328486128'
p6109
tp6110
Rp6111
(dp6112
g12
g6100
sbag1
(g6
g7
S'328486126'
p6113
tp6114
Rp6115
(dp6116
g12
g6100
sbag1
(g6
g7
S'328486124'
p6117
tp6118
Rp6119
(dp6120
g12
g6100
sbag1
(g6
g7
S'328486122'
p6121
tp6122
Rp6123
(dp6124
g12
g6100
sbag1
(g6
g7
S'161777712'
p6125
tp6126
Rp6127
(dp6128
g12
g6100
sbag1
(g6
g7
S'161777710'
p6129
tp6130
Rp6131
(dp6132
g12
g6100
sbag1
(g6
g7
S'161777708'
p6133
tp6134
Rp6135
(dp6136
g12
g6100
sbag1
(g6
g7
S'309321073'
p6137
tp6138
Rp6139
(dp6140
g12
g6100
sbag1
(g6
g7
S'309321071'
p6141
tp6142
Rp6143
(dp6144
g12
g6100
sbag1
(g6
g7
S'309321069'
p6145
tp6146
Rp6147
(dp6148
g12
g6100
sbag1
(g6
g7
S'227936471'
p6149
tp6150
Rp6151
(dp6152
g12
g6100
sbag1
(g6
g7
S'227936469'
p6153
tp6154
Rp6155
(dp6156
g12
g6100
sbag1
(g6
g7
S'227936467'
p6157
tp6158
Rp6159
(dp6160
g12
g6100
sbag1
(g6
g7
S'227936465'
p6161
tp6162
Rp6163
(dp6164
g12
g6100
sbag1
(g6
g7
S'151975669'
p6165
tp6166
Rp6167
(dp6168
g12
g6100
sbag1
(g6
g7
S'151975667'
p6169
tp6170
Rp6171
(dp6172
g12
g6100
sbag1
(g6
g7
S'151975665'
p6173
tp6174
Rp6175
(dp6176
g12
g6100
sbatp6177
Rp6178
(dp6179
g12
g6094
sbsVQueryTranslation
p6180
g1
(g6
g7
S'Lutjanus lutjanus[PORG] AND COI[title]'
p6181
tp6182
Rp6183
(dp6184
g12
g6180
sbsVTranslationStack
p6185
g1
(g18
g19
(lp6186
g1
(g2
g3
(dp6187
g6084
g1
(g6
g7
S'43'
p6188
tp6189
Rp6190
(dp6191
g12
g6084
sbsVField
p6192
g1
(g6
g7
S'PORG'
p6193
tp6194
Rp6195
(dp6196
g12
g6192
sbsVTerm
p6197
g1
(g6
g7
S'Lutjanus lutjanus[PORG]'
p6198
tp6199
Rp6200
(dp6201
g12
g6197
sbsVExplode
p6202
g1
(g6
g7
g76
tp6203
Rp6204
(dp6205
g12
g6202
sbstp6206
Rp6207
(dp6208
g12
VTermSet
p6209
sbag1
(g2
g3
(dp6210
g6084
g1
(g6
g7
S'2155368'
p6211
tp6212
Rp6213
(dp6214
g12
g6084
sbsg6192
g1
(g6
g7
S'title'
p6215
tp6216
Rp6217
(dp6218
g12
g6192
sbsg6197
g1
(g6
g7
S'COI[title]'
p6219
tp6220
Rp6221
(dp6222
g12
g6197
sbsg6202
g1
(g6
g7
g97
tp6223
Rp6224
(dp6225
g12
g6202
sbstp6226
Rp6227
(dp6228
g12
g6209
sbag1
(g6
g7
S'AND'
p6229
tp6230
Rp6231
(dp6232
g12
VOP
p6233
sbatp6234
Rp6235
(dp6236
g12
g6185
sbsVRetStart
p6237
g1
(g6
g7
g113
tp6238
Rp6239
(dp6240
g12
g6237
sbsVTranslationSet
p6241
g1
(g18
g19
(lp6242
tp6243
Rp6244
(dp6245
g12
g6241
sbstp6246
Rp6247
(dp6248
g12
VeSearchResult
p6249
sbag1
(g2
g3
(dp6250
VCount
p6251
g1
(g6
g7
g2109
tp6252
Rp6253
(dp6254
g12
g6251
sbsVRetMax
p6255
g1
(g6
g7
g2109
tp6256
Rp6257
(dp6258
g12
g6255
sbsVIdList
p6259
g1
(g18
g19
(lp6260
g1
(g6
g7
S'980976861'
p6261
tp6262
Rp6263
(dp6264
g12
VId
p6265
sbag1
(g6
g7
S'980976857'
p6266
tp6267
Rp6268
(dp6269
g12
g6265
sbag1
(g6
g7
S'980976834'
p6270
tp6271
Rp6272
(dp6273
g12
g6265
sbag1
(g6
g7
S'557955502'
p6274
tp6275
Rp6276
(dp6277
g12
g6265
sbag1
(g6
g7
S'584296154'
p6278
tp6279
Rp6280
(dp6281
g12
g6265
sbatp6282
Rp6283
(dp6284
g12
g6259
sbsVQueryTranslation
p6285
g1
(g6
g7
S'Lutjanus madras[PORG] AND COI[title]'
p6286
tp6287
Rp6288
(dp6289
g12
g6285
sbsVTranslationStack
p6290
g1
(g18
g19
(lp6291
g1
(g2
g3
(dp6292
g6251
g1
(g6
g7
S'15'
p6293
tp6294
Rp6295
(dp6296
g12
g6251
sbsVField
p6297
g1
(g6
g7
S'PORG'
p6298
tp6299
Rp6300
(dp6301
g12
g6297
sbsVTerm
p6302
g1
(g6
g7
S'Lutjanus madras[PORG]'
p6303
tp6304
Rp6305
(dp6306
g12
g6302
sbsVExplode
p6307
g1
(g6
g7
g76
tp6308
Rp6309
(dp6310
g12
g6307
sbstp6311
Rp6312
(dp6313
g12
VTermSet
p6314
sbag1
(g2
g3
(dp6315
g6251
g1
(g6
g7
S'2155368'
p6316
tp6317
Rp6318
(dp6319
g12
g6251
sbsg6297
g1
(g6
g7
S'title'
p6320
tp6321
Rp6322
(dp6323
g12
g6297
sbsg6302
g1
(g6
g7
S'COI[title]'
p6324
tp6325
Rp6326
(dp6327
g12
g6302
sbsg6307
g1
(g6
g7
g97
tp6328
Rp6329
(dp6330
g12
g6307
sbstp6331
Rp6332
(dp6333
g12
g6314
sbag1
(g6
g7
S'AND'
p6334
tp6335
Rp6336
(dp6337
g12
VOP
p6338
sbatp6339
Rp6340
(dp6341
g12
g6290
sbsVRetStart
p6342
g1
(g6
g7
g113
tp6343
Rp6344
(dp6345
g12
g6342
sbsVTranslationSet
p6346
g1
(g18
g19
(lp6347
tp6348
Rp6349
(dp6350
g12
g6346
sbstp6351
Rp6352
(dp6353
g12
VeSearchResult
p6354
sbag1
(g2
g3
(dp6355
VCount
p6356
g1
(g6
g7
S'22'
p6357
tp6358
Rp6359
(dp6360
g12
g6356
sbsVRetMax
p6361
g1
(g6
g7
S'20'
p6362
tp6363
Rp6364
(dp6365
g12
g6361
sbsVIdList
p6366
g1
(g18
g19
(lp6367
g1
(g6
g7
S'320578775'
p6368
tp6369
Rp6370
(dp6371
g12
VId
p6372
sbag1
(g6
g7
S'291164022'
p6373
tp6374
Rp6375
(dp6376
g12
g6372
sbag1
(g6
g7
S'291164020'
p6377
tp6378
Rp6379
(dp6380
g12
g6372
sbag1
(g6
g7
S'291164018'
p6381
tp6382
Rp6383
(dp6384
g12
g6372
sbag1
(g6
g7
S'291164016'
p6385
tp6386
Rp6387
(dp6388
g12
g6372
sbag1
(g6
g7
S'238551244'
p6389
tp6390
Rp6391
(dp6392
g12
g6372
sbag1
(g6
g7
S'238551242'
p6393
tp6394
Rp6395
(dp6396
g12
g6372
sbag1
(g6
g7
S'238551240'
p6397
tp6398
Rp6399
(dp6400
g12
g6372
sbag1
(g6
g7
S'238551238'
p6401
tp6402
Rp6403
(dp6404
g12
g6372
sbag1
(g6
g7
S'393005833'
p6405
tp6406
Rp6407
(dp6408
g12
g6372
sbag1
(g6
g7
S'393005831'
p6409
tp6410
Rp6411
(dp6412
g12
g6372
sbag1
(g6
g7
S'393005829'
p6413
tp6414
Rp6415
(dp6416
g12
g6372
sbag1
(g6
g7
S'393005143'
p6417
tp6418
Rp6419
(dp6420
g12
g6372
sbag1
(g6
g7
S'393005141'
p6421
tp6422
Rp6423
(dp6424
g12
g6372
sbag1
(g6
g7
S'393005139'
p6425
tp6426
Rp6427
(dp6428
g12
g6372
sbag1
(g6
g7
S'393004392'
p6429
tp6430
Rp6431
(dp6432
g12
g6372
sbag1
(g6
g7
S'386647224'
p6433
tp6434
Rp6435
(dp6436
g12
g6372
sbag1
(g6
g7
S'386647222'
p6437
tp6438
Rp6439
(dp6440
g12
g6372
sbag1
(g6
g7
S'386647220'
p6441
tp6442
Rp6443
(dp6444
g12
g6372
sbag1
(g6
g7
S'386646215'
p6445
tp6446
Rp6447
(dp6448
g12
g6372
sbatp6449
Rp6450
(dp6451
g12
g6366
sbsVQueryTranslation
p6452
g1
(g6
g7
S'Lutjanus mahogoni[PORG] AND COI[title]'
p6453
tp6454
Rp6455
(dp6456
g12
g6452
sbsVTranslationStack
p6457
g1
(g18
g19
(lp6458
g1
(g2
g3
(dp6459
g6356
g1
(g6
g7
S'40'
p6460
tp6461
Rp6462
(dp6463
g12
g6356
sbsVField
p6464
g1
(g6
g7
S'PORG'
p6465
tp6466
Rp6467
(dp6468
g12
g6464
sbsVTerm
p6469
g1
(g6
g7
S'Lutjanus mahogoni[PORG]'
p6470
tp6471
Rp6472
(dp6473
g12
g6469
sbsVExplode
p6474
g1
(g6
g7
g76
tp6475
Rp6476
(dp6477
g12
g6474
sbstp6478
Rp6479
(dp6480
g12
VTermSet
p6481
sbag1
(g2
g3
(dp6482
g6356
g1
(g6
g7
S'2155368'
p6483
tp6484
Rp6485
(dp6486
g12
g6356
sbsg6464
g1
(g6
g7
S'title'
p6487
tp6488
Rp6489
(dp6490
g12
g6464
sbsg6469
g1
(g6
g7
S'COI[title]'
p6491
tp6492
Rp6493
(dp6494
g12
g6469
sbsg6474
g1
(g6
g7
g97
tp6495
Rp6496
(dp6497
g12
g6474
sbstp6498
Rp6499
(dp6500
g12
g6481
sbag1
(g6
g7
S'AND'
p6501
tp6502
Rp6503
(dp6504
g12
VOP
p6505
sbatp6506
Rp6507
(dp6508
g12
g6457
sbsVRetStart
p6509
g1
(g6
g7
g113
tp6510
Rp6511
(dp6512
g12
g6509
sbsVTranslationSet
p6513
g1
(g18
g19
(lp6514
tp6515
Rp6516
(dp6517
g12
g6513
sbstp6518
Rp6519
(dp6520
g12
VeSearchResult
p6521
sbag1
(g2
g3
(dp6522
VCount
p6523
g1
(g6
g7
S'10'
p6524
tp6525
Rp6526
(dp6527
g12
g6523
sbsVRetMax
p6528
g1
(g6
g7
S'10'
p6529
tp6530
Rp6531
(dp6532
g12
g6528
sbsVIdList
p6533
g1
(g18
g19
(lp6534
g1
(g6
g7
S'190608665'
p6535
tp6536
Rp6537
(dp6538
g12
VId
p6539
sbag1
(g6
g7
S'190608663'
p6540
tp6541
Rp6542
(dp6543
g12
g6539
sbag1
(g6
g7
S'155965040'
p6544
tp6545
Rp6546
(dp6547
g12
g6539
sbag1
(g6
g7
S'155965038'
p6548
tp6549
Rp6550
(dp6551
g12
g6539
sbag1
(g6
g7
S'155965036'
p6552
tp6553
Rp6554
(dp6555
g12
g6539
sbag1
(g6
g7
S'155965034'
p6556
tp6557
Rp6558
(dp6559
g12
g6539
sbag1
(g6
g7
S'155965032'
p6560
tp6561
Rp6562
(dp6563
g12
g6539
sbag1
(g6
g7
S'557955506'
p6564
tp6565
Rp6566
(dp6567
g12
g6539
sbag1
(g6
g7
S'557955504'
p6568
tp6569
Rp6570
(dp6571
g12
g6539
sbag1
(g6
g7
S'148374003'
p6572
tp6573
Rp6574
(dp6575
g12
g6539
sbatp6576
Rp6577
(dp6578
g12
g6533
sbsVQueryTranslation
p6579
g1
(g6
g7
S'Lutjanus malabaricus[PORG] AND COI[title]'
p6580
tp6581
Rp6582
(dp6583
g12
g6579
sbsVTranslationStack
p6584
g1
(g18
g19
(lp6585
g1
(g2
g3
(dp6586
g6523
g1
(g6
g7
S'49'
p6587
tp6588
Rp6589
(dp6590
g12
g6523
sbsVField
p6591
g1
(g6
g7
S'PORG'
p6592
tp6593
Rp6594
(dp6595
g12
g6591
sbsVTerm
p6596
g1
(g6
g7
S'Lutjanus malabaricus[PORG]'
p6597
tp6598
Rp6599
(dp6600
g12
g6596
sbsVExplode
p6601
g1
(g6
g7
g76
tp6602
Rp6603
(dp6604
g12
g6601
sbstp6605
Rp6606
(dp6607
g12
VTermSet
p6608
sbag1
(g2
g3
(dp6609
g6523
g1
(g6
g7
S'2155368'
p6610
tp6611
Rp6612
(dp6613
g12
g6523
sbsg6591
g1
(g6
g7
S'title'
p6614
tp6615
Rp6616
(dp6617
g12
g6591
sbsg6596
g1
(g6
g7
S'COI[title]'
p6618
tp6619
Rp6620
(dp6621
g12
g6596
sbsg6601
g1
(g6
g7
g97
tp6622
Rp6623
(dp6624
g12
g6601
sbstp6625
Rp6626
(dp6627
g12
g6608
sbag1
(g6
g7
S'AND'
p6628
tp6629
Rp6630
(dp6631
g12
VOP
p6632
sbatp6633
Rp6634
(dp6635
g12
g6584
sbsVRetStart
p6636
g1
(g6
g7
g113
tp6637
Rp6638
(dp6639
g12
g6636
sbsVTranslationSet
p6640
g1
(g18
g19
(lp6641
tp6642
Rp6643
(dp6644
g12
g6640
sbstp6645
Rp6646
(dp6647
g12
VeSearchResult
p6648
sbag1
(g2
g3
(dp6649
VCount
p6650
g1
(g6
g7
g113
tp6651
Rp6652
(dp6653
g12
g6650
sbsVRetMax
p6654
g1
(g6
g7
g113
tp6655
Rp6656
(dp6657
g12
g6654
sbsVIdList
p6658
g1
(g18
g19
(lp6659
tp6660
Rp6661
(dp6662
g12
g6658
sbsVRetStart
p6663
g1
(g6
g7
g113
tp6664
Rp6665
(dp6666
g12
g6663
sbsVErrorList
p6667
g1
(g1335
g3
(dp6668
VFieldNotFound
p6669
(lp6670
sVPhraseNotFound
p6671
(lp6672
g1
(g6
g7
S'Lutjanus maxweberi[PORG]'
p6673
tp6674
Rp6675
(dp6676
g12
VPhraseNotFound
p6677
sbastp6678
Rp6679
(dp6680
g12
g6667
sg1349
(lp6681
g6671
ag6669
asbsVTranslationSet
p6682
g1
(g18
g19
(lp6683
tp6684
Rp6685
(dp6686
g12
g6682
sbsVWarningList
p6687
g1
(g1335
g3
(dp6688
VOutputMessage
p6689
(lp6690
g1
(g6
g7
S'No items found.'
p6691
tp6692
Rp6693
(dp6694
g12
VOutputMessage
p6695
sbasVPhraseIgnored
p6696
(lp6697
sVQuotedPhraseNotFound
p6698
(lp6699
stp6700
Rp6701
(dp6702
g12
g6687
sg1349
(lp6703
g6696
ag6698
ag6689
asbsVQueryTranslation
p6704
g1
(g6
g7
S'Lutjanus maxweberi[PORG] AND COI[title]'
p6705
tp6706
Rp6707
(dp6708
g12
g6704
sbstp6709
Rp6710
(dp6711
g12
VeSearchResult
p6712
sbag1
(g2
g3
(dp6713
VCount
p6714
g1
(g6
g7
g113
tp6715
Rp6716
(dp6717
g12
g6714
sbsVRetMax
p6718
g1
(g6
g7
g113
tp6719
Rp6720
(dp6721
g12
g6718
sbsVIdList
p6722
g1
(g18
g19
(lp6723
tp6724
Rp6725
(dp6726
g12
g6722
sbsVRetStart
p6727
g1
(g6
g7
g113
tp6728
Rp6729
(dp6730
g12
g6727
sbsVErrorList
p6731
g1
(g1335
g3
(dp6732
VFieldNotFound
p6733
(lp6734
sVPhraseNotFound
p6735
(lp6736
g1
(g6
g7
S'Lutjanus mizenkoi[PORG]'
p6737
tp6738
Rp6739
(dp6740
g12
VPhraseNotFound
p6741
sbastp6742
Rp6743
(dp6744
g12
g6731
sg1349
(lp6745
g6735
ag6733
asbsVTranslationSet
p6746
g1
(g18
g19
(lp6747
tp6748
Rp6749
(dp6750
g12
g6746
sbsVWarningList
p6751
g1
(g1335
g3
(dp6752
VOutputMessage
p6753
(lp6754
g1
(g6
g7
S'No items found.'
p6755
tp6756
Rp6757
(dp6758
g12
VOutputMessage
p6759
sbasVPhraseIgnored
p6760
(lp6761
sVQuotedPhraseNotFound
p6762
(lp6763
stp6764
Rp6765
(dp6766
g12
g6751
sg1349
(lp6767
g6760
ag6762
ag6753
asbsVQueryTranslation
p6768
g1
(g6
g7
S'Lutjanus mizenkoi[PORG] AND COI[title]'
p6769
tp6770
Rp6771
(dp6772
g12
g6768
sbstp6773
Rp6774
(dp6775
g12
VeSearchResult
p6776
sbag1
(g2
g3
(dp6777
VCount
p6778
g1
(g6
g7
S'10'
p6779
tp6780
Rp6781
(dp6782
g12
g6778
sbsVRetMax
p6783
g1
(g6
g7
S'10'
p6784
tp6785
Rp6786
(dp6787
g12
g6783
sbsVIdList
p6788
g1
(g18
g19
(lp6789
g1
(g6
g7
S'339431638'
p6790
tp6791
Rp6792
(dp6793
g12
VId
p6794
sbag1
(g6
g7
S'816375739'
p6795
tp6796
Rp6797
(dp6798
g12
g6794
sbag1
(g6
g7
S'557955508'
p6799
tp6800
Rp6801
(dp6802
g12
g6794
sbag1
(g6
g7
S'525317041'
p6803
tp6804
Rp6805
(dp6806
g12
g6794
sbag1
(g6
g7
S'584296156'
p6807
tp6808
Rp6809
(dp6810
g12
g6794
sbag1
(g6
g7
S'429128480'
p6811
tp6812
Rp6813
(dp6814
g12
g6794
sbag1
(g6
g7
S'375585941'
p6815
tp6816
Rp6817
(dp6818
g12
g6794
sbag1
(g6
g7
S'375585938'
p6819
tp6820
Rp6821
(dp6822
g12
g6794
sbag1
(g6
g7
S'375585935'
p6823
tp6824
Rp6825
(dp6826
g12
g6794
sbag1
(g6
g7
S'375585932'
p6827
tp6828
Rp6829
(dp6830
g12
g6794
sbatp6831
Rp6832
(dp6833
g12
g6788
sbsVQueryTranslation
p6834
g1
(g6
g7
S'Lutjanus monostigma[PORG] AND COI[title]'
p6835
tp6836
Rp6837
(dp6838
g12
g6834
sbsVTranslationStack
p6839
g1
(g18
g19
(lp6840
g1
(g2
g3
(dp6841
g6778
g1
(g6
g7
S'13'
p6842
tp6843
Rp6844
(dp6845
g12
g6778
sbsVField
p6846
g1
(g6
g7
S'PORG'
p6847
tp6848
Rp6849
(dp6850
g12
g6846
sbsVTerm
p6851
g1
(g6
g7
S'Lutjanus monostigma[PORG]'
p6852
tp6853
Rp6854
(dp6855
g12
g6851
sbsVExplode
p6856
g1
(g6
g7
g76
tp6857
Rp6858
(dp6859
g12
g6856
sbstp6860
Rp6861
(dp6862
g12
VTermSet
p6863
sbag1
(g2
g3
(dp6864
g6778
g1
(g6
g7
S'2155368'
p6865
tp6866
Rp6867
(dp6868
g12
g6778
sbsg6846
g1
(g6
g7
S'title'
p6869
tp6870
Rp6871
(dp6872
g12
g6846
sbsg6851
g1
(g6
g7
S'COI[title]'
p6873
tp6874
Rp6875
(dp6876
g12
g6851
sbsg6856
g1
(g6
g7
g97
tp6877
Rp6878
(dp6879
g12
g6856
sbstp6880
Rp6881
(dp6882
g12
g6863
sbag1
(g6
g7
S'AND'
p6883
tp6884
Rp6885
(dp6886
g12
VOP
p6887
sbatp6888
Rp6889
(dp6890
g12
g6839
sbsVRetStart
p6891
g1
(g6
g7
g113
tp6892
Rp6893
(dp6894
g12
g6891
sbsVTranslationSet
p6895
g1
(g18
g19
(lp6896
tp6897
Rp6898
(dp6899
g12
g6895
sbstp6900
Rp6901
(dp6902
g12
VeSearchResult
p6903
sbag1
(g2
g3
(dp6904
VCount
p6905
g1
(g6
g7
g3420
tp6906
Rp6907
(dp6908
g12
g6905
sbsVRetMax
p6909
g1
(g6
g7
g3420
tp6910
Rp6911
(dp6912
g12
g6909
sbsVIdList
p6913
g1
(g18
g19
(lp6914
g1
(g6
g7
S'328486138'
p6915
tp6916
Rp6917
(dp6918
g12
VId
p6919
sbag1
(g6
g7
S'328486136'
p6920
tp6921
Rp6922
(dp6923
g12
g6919
sbag1
(g6
g7
S'328486134'
p6924
tp6925
Rp6926
(dp6927
g12
g6919
sbag1
(g6
g7
S'312841847'
p6928
tp6929
Rp6930
(dp6931
g12
g6919
sbag1
(g6
g7
S'312841839'
p6932
tp6933
Rp6934
(dp6935
g12
g6919
sbag1
(g6
g7
S'662357690'
p6936
tp6937
Rp6938
(dp6939
g12
g6919
sbatp6940
Rp6941
(dp6942
g12
g6913
sbsVQueryTranslation
p6943
g1
(g6
g7
S'Lutjanus notatus[PORG] AND COI[title]'
p6944
tp6945
Rp6946
(dp6947
g12
g6943
sbsVTranslationStack
p6948
g1
(g18
g19
(lp6949
g1
(g2
g3
(dp6950
g6905
g1
(g6
g7
g128
tp6951
Rp6952
(dp6953
g12
g6905
sbsVField
p6954
g1
(g6
g7
S'PORG'
p6955
tp6956
Rp6957
(dp6958
g12
g6954
sbsVTerm
p6959
g1
(g6
g7
S'Lutjanus notatus[PORG]'
p6960
tp6961
Rp6962
(dp6963
g12
g6959
sbsVExplode
p6964
g1
(g6
g7
g76
tp6965
Rp6966
(dp6967
g12
g6964
sbstp6968
Rp6969
(dp6970
g12
VTermSet
p6971
sbag1
(g2
g3
(dp6972
g6905
g1
(g6
g7
S'2155368'
p6973
tp6974
Rp6975
(dp6976
g12
g6905
sbsg6954
g1
(g6
g7
S'title'
p6977
tp6978
Rp6979
(dp6980
g12
g6954
sbsg6959
g1
(g6
g7
S'COI[title]'
p6981
tp6982
Rp6983
(dp6984
g12
g6959
sbsg6964
g1
(g6
g7
g97
tp6985
Rp6986
(dp6987
g12
g6964
sbstp6988
Rp6989
(dp6990
g12
g6971
sbag1
(g6
g7
S'AND'
p6991
tp6992
Rp6993
(dp6994
g12
VOP
p6995
sbatp6996
Rp6997
(dp6998
g12
g6948
sbsVRetStart
p6999
g1
(g6
g7
g113
tp7000
Rp7001
(dp7002
g12
g6999
sbsVTranslationSet
p7003
g1
(g18
g19
(lp7004
tp7005
Rp7006
(dp7007
g12
g7003
sbstp7008
Rp7009
(dp7010
g12
VeSearchResult
p7011
sbag1
(g2
g3
(dp7012
VCount
p7013
g1
(g6
g7
g368
tp7014
Rp7015
(dp7016
g12
g7013
sbsVRetMax
p7017
g1
(g6
g7
g368
tp7018
Rp7019
(dp7020
g12
g7017
sbsVIdList
p7021
g1
(g18
g19
(lp7022
g1
(g6
g7
S'294989096'
p7023
tp7024
Rp7025
(dp7026
g12
VId
p7027
sbag1
(g6
g7
S'662357706'
p7028
tp7029
Rp7030
(dp7031
g12
g7027
sbag1
(g6
g7
S'662357704'
p7032
tp7033
Rp7034
(dp7035
g12
g7027
sbag1
(g6
g7
S'662357702'
p7036
tp7037
Rp7038
(dp7039
g12
g7027
sbatp7040
Rp7041
(dp7042
g12
g7021
sbsVQueryTranslation
p7043
g1
(g6
g7
S'Lutjanus novemfasciatus[PORG] AND COI[title]'
p7044
tp7045
Rp7046
(dp7047
g12
g7043
sbsVTranslationStack
p7048
g1
(g18
g19
(lp7049
g1
(g2
g3
(dp7050
g7013
g1
(g6
g7
S'11'
p7051
tp7052
Rp7053
(dp7054
g12
g7013
sbsVField
p7055
g1
(g6
g7
S'PORG'
p7056
tp7057
Rp7058
(dp7059
g12
g7055
sbsVTerm
p7060
g1
(g6
g7
S'Lutjanus novemfasciatus[PORG]'
p7061
tp7062
Rp7063
(dp7064
g12
g7060
sbsVExplode
p7065
g1
(g6
g7
g76
tp7066
Rp7067
(dp7068
g12
g7065
sbstp7069
Rp7070
(dp7071
g12
VTermSet
p7072
sbag1
(g2
g3
(dp7073
g7013
g1
(g6
g7
S'2155368'
p7074
tp7075
Rp7076
(dp7077
g12
g7013
sbsg7055
g1
(g6
g7
S'title'
p7078
tp7079
Rp7080
(dp7081
g12
g7055
sbsg7060
g1
(g6
g7
S'COI[title]'
p7082
tp7083
Rp7084
(dp7085
g12
g7060
sbsg7065
g1
(g6
g7
g97
tp7086
Rp7087
(dp7088
g12
g7065
sbstp7089
Rp7090
(dp7091
g12
g7072
sbag1
(g6
g7
S'AND'
p7092
tp7093
Rp7094
(dp7095
g12
VOP
p7096
sbatp7097
Rp7098
(dp7099
g12
g7048
sbsVRetStart
p7100
g1
(g6
g7
g113
tp7101
Rp7102
(dp7103
g12
g7100
sbsVTranslationSet
p7104
g1
(g18
g19
(lp7105
tp7106
Rp7107
(dp7108
g12
g7104
sbstp7109
Rp7110
(dp7111
g12
VeSearchResult
p7112
sbag1
(g2
g3
(dp7113
VCount
p7114
g1
(g6
g7
S'10'
p7115
tp7116
Rp7117
(dp7118
g12
g7114
sbsVRetMax
p7119
g1
(g6
g7
S'10'
p7120
tp7121
Rp7122
(dp7123
g12
g7119
sbsVIdList
p7124
g1
(g18
g19
(lp7125
g1
(g6
g7
S'1059075997'
p7126
tp7127
Rp7128
(dp7129
g12
VId
p7130
sbag1
(g6
g7
S'1059075990'
p7131
tp7132
Rp7133
(dp7134
g12
g7130
sbag1
(g6
g7
S'1059075983'
p7135
tp7136
Rp7137
(dp7138
g12
g7130
sbag1
(g6
g7
S'190608631'
p7139
tp7140
Rp7141
(dp7142
g12
g7130
sbag1
(g6
g7
S'190608629'
p7143
tp7144
Rp7145
(dp7146
g12
g7130
sbag1
(g6
g7
S'190608627'
p7147
tp7148
Rp7149
(dp7150
g12
g7130
sbag1
(g6
g7
S'980976890'
p7151
tp7152
Rp7153
(dp7154
g12
g7130
sbag1
(g6
g7
S'980976884'
p7155
tp7156
Rp7157
(dp7158
g12
g7130
sbag1
(g6
g7
S'980976877'
p7159
tp7160
Rp7161
(dp7162
g12
g7130
sbag1
(g6
g7
S'980976865'
p7163
tp7164
Rp7165
(dp7166
g12
g7130
sbatp7167
Rp7168
(dp7169
g12
g7124
sbsVQueryTranslation
p7170
g1
(g6
g7
S'Lutjanus ophuysenii[PORG] AND COI[title]'
p7171
tp7172
Rp7173
(dp7174
g12
g7170
sbsVTranslationStack
p7175
g1
(g18
g19
(lp7176
g1
(g2
g3
(dp7177
g7114
g1
(g6
g7
S'24'
p7178
tp7179
Rp7180
(dp7181
g12
g7114
sbsVField
p7182
g1
(g6
g7
S'PORG'
p7183
tp7184
Rp7185
(dp7186
g12
g7182
sbsVTerm
p7187
g1
(g6
g7
S'Lutjanus ophuysenii[PORG]'
p7188
tp7189
Rp7190
(dp7191
g12
g7187
sbsVExplode
p7192
g1
(g6
g7
g76
tp7193
Rp7194
(dp7195
g12
g7192
sbstp7196
Rp7197
(dp7198
g12
VTermSet
p7199
sbag1
(g2
g3
(dp7200
g7114
g1
(g6
g7
S'2155368'
p7201
tp7202
Rp7203
(dp7204
g12
g7114
sbsg7182
g1
(g6
g7
S'title'
p7205
tp7206
Rp7207
(dp7208
g12
g7182
sbsg7187
g1
(g6
g7
S'COI[title]'
p7209
tp7210
Rp7211
(dp7212
g12
g7187
sbsg7192
g1
(g6
g7
g97
tp7213
Rp7214
(dp7215
g12
g7192
sbstp7216
Rp7217
(dp7218
g12
g7199
sbag1
(g6
g7
S'AND'
p7219
tp7220
Rp7221
(dp7222
g12
VOP
p7223
sbatp7224
Rp7225
(dp7226
g12
g7175
sbsVRetStart
p7227
g1
(g6
g7
g113
tp7228
Rp7229
(dp7230
g12
g7227
sbsVTranslationSet
p7231
g1
(g18
g19
(lp7232
tp7233
Rp7234
(dp7235
g12
g7231
sbstp7236
Rp7237
(dp7238
g12
VeSearchResult
p7239
sbag1
(g2
g3
(dp7240
VCount
p7241
g1
(g6
g7
g6021
tp7242
Rp7243
(dp7244
g12
g7241
sbsVRetMax
p7245
g1
(g6
g7
g6021
tp7246
Rp7247
(dp7248
g12
g7245
sbsVIdList
p7249
g1
(g18
g19
(lp7250
g1
(g6
g7
S'343222638'
p7251
tp7252
Rp7253
(dp7254
g12
VId
p7255
sbag1
(g6
g7
S'301037475'
p7256
tp7257
Rp7258
(dp7259
g12
g7255
sbatp7260
Rp7261
(dp7262
g12
g7249
sbsVQueryTranslation
p7263
g1
(g6
g7
S'Lutjanus papuensis[PORG] AND COI[title]'
p7264
tp7265
Rp7266
(dp7267
g12
g7263
sbsVTranslationStack
p7268
g1
(g18
g19
(lp7269
g1
(g2
g3
(dp7270
g7241
g1
(g6
g7
g6021
tp7271
Rp7272
(dp7273
g12
g7241
sbsVField
p7274
g1
(g6
g7
S'PORG'
p7275
tp7276
Rp7277
(dp7278
g12
g7274
sbsVTerm
p7279
g1
(g6
g7
S'Lutjanus papuensis[PORG]'
p7280
tp7281
Rp7282
(dp7283
g12
g7279
sbsVExplode
p7284
g1
(g6
g7
g76
tp7285
Rp7286
(dp7287
g12
g7284
sbstp7288
Rp7289
(dp7290
g12
VTermSet
p7291
sbag1
(g2
g3
(dp7292
g7241
g1
(g6
g7
S'2155368'
p7293
tp7294
Rp7295
(dp7296
g12
g7241
sbsg7274
g1
(g6
g7
S'title'
p7297
tp7298
Rp7299
(dp7300
g12
g7274
sbsg7279
g1
(g6
g7
S'COI[title]'
p7301
tp7302
Rp7303
(dp7304
g12
g7279
sbsg7284
g1
(g6
g7
g97
tp7305
Rp7306
(dp7307
g12
g7284
sbstp7308
Rp7309
(dp7310
g12
g7291
sbag1
(g6
g7
S'AND'
p7311
tp7312
Rp7313
(dp7314
g12
VOP
p7315
sbatp7316
Rp7317
(dp7318
g12
g7268
sbsVRetStart
p7319
g1
(g6
g7
g113
tp7320
Rp7321
(dp7322
g12
g7319
sbsVTranslationSet
p7323
g1
(g18
g19
(lp7324
tp7325
Rp7326
(dp7327
g12
g7323
sbstp7328
Rp7329
(dp7330
g12
VeSearchResult
p7331
sbag1
(g2
g3
(dp7332
VCount
p7333
g1
(g6
g7
g3420
tp7334
Rp7335
(dp7336
g12
g7333
sbsVRetMax
p7337
g1
(g6
g7
g3420
tp7338
Rp7339
(dp7340
g12
g7337
sbsVIdList
p7341
g1
(g18
g19
(lp7342
g1
(g6
g7
S'189165556'
p7343
tp7344
Rp7345
(dp7346
g12
VId
p7347
sbag1
(g6
g7
S'189165554'
p7348
tp7349
Rp7350
(dp7351
g12
g7347
sbag1
(g6
g7
S'171850682'
p7352
tp7353
Rp7354
(dp7355
g12
g7347
sbag1
(g6
g7
S'320578817'
p7356
tp7357
Rp7358
(dp7359
g12
g7347
sbag1
(g6
g7
S'320578815'
p7360
tp7361
Rp7362
(dp7363
g12
g7347
sbag1
(g6
g7
S'320578813'
p7364
tp7365
Rp7366
(dp7367
g12
g7347
sbatp7368
Rp7369
(dp7370
g12
g7341
sbsVQueryTranslation
p7371
g1
(g6
g7
S'Lutjanus peru[PORG] AND COI[title]'
p7372
tp7373
Rp7374
(dp7375
g12
g7371
sbsVTranslationStack
p7376
g1
(g18
g19
(lp7377
g1
(g2
g3
(dp7378
g7333
g1
(g6
g7
S'34'
p7379
tp7380
Rp7381
(dp7382
g12
g7333
sbsVField
p7383
g1
(g6
g7
S'PORG'
p7384
tp7385
Rp7386
(dp7387
g12
g7383
sbsVTerm
p7388
g1
(g6
g7
S'Lutjanus peru[PORG]'
p7389
tp7390
Rp7391
(dp7392
g12
g7388
sbsVExplode
p7393
g1
(g6
g7
g76
tp7394
Rp7395
(dp7396
g12
g7393
sbstp7397
Rp7398
(dp7399
g12
VTermSet
p7400
sbag1
(g2
g3
(dp7401
g7333
g1
(g6
g7
S'2155368'
p7402
tp7403
Rp7404
(dp7405
g12
g7333
sbsg7383
g1
(g6
g7
S'title'
p7406
tp7407
Rp7408
(dp7409
g12
g7383
sbsg7388
g1
(g6
g7
S'COI[title]'
p7410
tp7411
Rp7412
(dp7413
g12
g7388
sbsg7393
g1
(g6
g7
g97
tp7414
Rp7415
(dp7416
g12
g7393
sbstp7417
Rp7418
(dp7419
g12
g7400
sbag1
(g6
g7
S'AND'
p7420
tp7421
Rp7422
(dp7423
g12
VOP
p7424
sbatp7425
Rp7426
(dp7427
g12
g7376
sbsVRetStart
p7428
g1
(g6
g7
g113
tp7429
Rp7430
(dp7431
g12
g7428
sbsVTranslationSet
p7432
g1
(g18
g19
(lp7433
tp7434
Rp7435
(dp7436
g12
g7432
sbstp7437
Rp7438
(dp7439
g12
VeSearchResult
p7440
sbag1
(g2
g3
(dp7441
VCount
p7442
g1
(g6
g7
S'14'
p7443
tp7444
Rp7445
(dp7446
g12
g7442
sbsVRetMax
p7447
g1
(g6
g7
S'14'
p7448
tp7449
Rp7450
(dp7451
g12
g7447
sbsVIdList
p7452
g1
(g18
g19
(lp7453
g1
(g6
g7
S'189165558'
p7454
tp7455
Rp7456
(dp7457
g12
VId
p7458
sbag1
(g6
g7
S'340034749'
p7459
tp7460
Rp7461
(dp7462
g12
g7458
sbag1
(g6
g7
S'918768409'
p7463
tp7464
Rp7465
(dp7466
g12
g7458
sbag1
(g6
g7
S'918768407'
p7467
tp7468
Rp7469
(dp7470
g12
g7458
sbag1
(g6
g7
S'918768405'
p7471
tp7472
Rp7473
(dp7474
g12
g7458
sbag1
(g6
g7
S'667699132'
p7475
tp7476
Rp7477
(dp7478
g12
g7458
sbag1
(g6
g7
S'558500810'
p7479
tp7480
Rp7481
(dp7482
g12
g7458
sbag1
(g6
g7
S'558500808'
p7483
tp7484
Rp7485
(dp7486
g12
g7458
sbag1
(g6
g7
S'558500806'
p7487
tp7488
Rp7489
(dp7490
g12
g7458
sbag1
(g6
g7
S'558500804'
p7491
tp7492
Rp7493
(dp7494
g12
g7458
sbag1
(g6
g7
S'558500802'
p7495
tp7496
Rp7497
(dp7498
g12
g7458
sbag1
(g6
g7
S'558500800'
p7499
tp7500
Rp7501
(dp7502
g12
g7458
sbag1
(g6
g7
S'558500798'
p7503
tp7504
Rp7505
(dp7506
g12
g7458
sbag1
(g6
g7
S'401710182'
p7507
tp7508
Rp7509
(dp7510
g12
g7458
sbatp7511
Rp7512
(dp7513
g12
g7452
sbsVQueryTranslation
p7514
g1
(g6
g7
S'Lutjanus purpureus[PORG] AND COI[title]'
p7515
tp7516
Rp7517
(dp7518
g12
g7514
sbsVTranslationStack
p7519
g1
(g18
g19
(lp7520
g1
(g2
g3
(dp7521
g7442
g1
(g6
g7
S'899'
p7522
tp7523
Rp7524
(dp7525
g12
g7442
sbsVField
p7526
g1
(g6
g7
S'PORG'
p7527
tp7528
Rp7529
(dp7530
g12
g7526
sbsVTerm
p7531
g1
(g6
g7
S'Lutjanus purpureus[PORG]'
p7532
tp7533
Rp7534
(dp7535
g12
g7531
sbsVExplode
p7536
g1
(g6
g7
g76
tp7537
Rp7538
(dp7539
g12
g7536
sbstp7540
Rp7541
(dp7542
g12
VTermSet
p7543
sbag1
(g2
g3
(dp7544
g7442
g1
(g6
g7
S'2155368'
p7545
tp7546
Rp7547
(dp7548
g12
g7442
sbsg7526
g1
(g6
g7
S'title'
p7549
tp7550
Rp7551
(dp7552
g12
g7526
sbsg7531
g1
(g6
g7
S'COI[title]'
p7553
tp7554
Rp7555
(dp7556
g12
g7531
sbsg7536
g1
(g6
g7
g97
tp7557
Rp7558
(dp7559
g12
g7536
sbstp7560
Rp7561
(dp7562
g12
g7543
sbag1
(g6
g7
S'AND'
p7563
tp7564
Rp7565
(dp7566
g12
VOP
p7567
sbatp7568
Rp7569
(dp7570
g12
g7519
sbsVRetStart
p7571
g1
(g6
g7
g113
tp7572
Rp7573
(dp7574
g12
g7571
sbsVTranslationSet
p7575
g1
(g18
g19
(lp7576
tp7577
Rp7578
(dp7579
g12
g7575
sbstp7580
Rp7581
(dp7582
g12
VeSearchResult
p7583
sbag1
(g2
g3
(dp7584
VCount
p7585
g1
(g6
g7
g2109
tp7586
Rp7587
(dp7588
g12
g7585
sbsVRetMax
p7589
g1
(g6
g7
g2109
tp7590
Rp7591
(dp7592
g12
g7589
sbsVIdList
p7593
g1
(g18
g19
(lp7594
g1
(g6
g7
S'339431640'
p7595
tp7596
Rp7597
(dp7598
g12
VId
p7599
sbag1
(g6
g7
S'557955512'
p7600
tp7601
Rp7602
(dp7603
g12
g7599
sbag1
(g6
g7
S'557955510'
p7604
tp7605
Rp7606
(dp7607
g12
g7599
sbag1
(g6
g7
S'531992181'
p7608
tp7609
Rp7610
(dp7611
g12
g7599
sbag1
(g6
g7
S'148374005'
p7612
tp7613
Rp7614
(dp7615
g12
g7599
sbatp7616
Rp7617
(dp7618
g12
g7593
sbsVQueryTranslation
p7619
g1
(g6
g7
S'Lutjanus quinquelineatus[PORG] AND COI[title]'
p7620
tp7621
Rp7622
(dp7623
g12
g7619
sbsVTranslationStack
p7624
g1
(g18
g19
(lp7625
g1
(g2
g3
(dp7626
g7585
g1
(g6
g7
S'13'
p7627
tp7628
Rp7629
(dp7630
g12
g7585
sbsVField
p7631
g1
(g6
g7
S'PORG'
p7632
tp7633
Rp7634
(dp7635
g12
g7631
sbsVTerm
p7636
g1
(g6
g7
S'Lutjanus quinquelineatus[PORG]'
p7637
tp7638
Rp7639
(dp7640
g12
g7636
sbsVExplode
p7641
g1
(g6
g7
g76
tp7642
Rp7643
(dp7644
g12
g7641
sbstp7645
Rp7646
(dp7647
g12
VTermSet
p7648
sbag1
(g2
g3
(dp7649
g7585
g1
(g6
g7
S'2155368'
p7650
tp7651
Rp7652
(dp7653
g12
g7585
sbsg7631
g1
(g6
g7
S'title'
p7654
tp7655
Rp7656
(dp7657
g12
g7631
sbsg7636
g1
(g6
g7
S'COI[title]'
p7658
tp7659
Rp7660
(dp7661
g12
g7636
sbsg7641
g1
(g6
g7
g97
tp7662
Rp7663
(dp7664
g12
g7641
sbstp7665
Rp7666
(dp7667
g12
g7648
sbag1
(g6
g7
S'AND'
p7668
tp7669
Rp7670
(dp7671
g12
VOP
p7672
sbatp7673
Rp7674
(dp7675
g12
g7624
sbsVRetStart
p7676
g1
(g6
g7
g113
tp7677
Rp7678
(dp7679
g12
g7676
sbsVTranslationSet
p7680
g1
(g18
g19
(lp7681
tp7682
Rp7683
(dp7684
g12
g7680
sbstp7685
Rp7686
(dp7687
g12
VeSearchResult
p7688
sbag1
(g2
g3
(dp7689
VCount
p7690
g1
(g6
g7
S'11'
p7691
tp7692
Rp7693
(dp7694
g12
g7690
sbsVRetMax
p7695
g1
(g6
g7
S'11'
p7696
tp7697
Rp7698
(dp7699
g12
g7695
sbsVIdList
p7700
g1
(g18
g19
(lp7701
g1
(g6
g7
S'328486144'
p7702
tp7703
Rp7704
(dp7705
g12
VId
p7706
sbag1
(g6
g7
S'328486142'
p7707
tp7708
Rp7709
(dp7710
g12
g7706
sbag1
(g6
g7
S'328486140'
p7711
tp7712
Rp7713
(dp7714
g12
g7706
sbag1
(g6
g7
S'227935821'
p7715
tp7716
Rp7717
(dp7718
g12
g7706
sbag1
(g6
g7
S'116608009'
p7719
tp7720
Rp7721
(dp7722
g12
g7706
sbag1
(g6
g7
S'116608007'
p7723
tp7724
Rp7725
(dp7726
g12
g7706
sbag1
(g6
g7
S'116608005'
p7727
tp7728
Rp7729
(dp7730
g12
g7706
sbag1
(g6
g7
S'666877764'
p7731
tp7732
Rp7733
(dp7734
g12
g7706
sbag1
(g6
g7
S'584296158'
p7735
tp7736
Rp7737
(dp7738
g12
g7706
sbag1
(g6
g7
S'375585944'
p7739
tp7740
Rp7741
(dp7742
g12
g7706
sbag1
(g6
g7
S'116607823'
p7743
tp7744
Rp7745
(dp7746
g12
g7706
sbatp7747
Rp7748
(dp7749
g12
g7700
sbsVQueryTranslation
p7750
g1
(g6
g7
S'Lutjanus rivulatus[PORG] AND COI[title]'
p7751
tp7752
Rp7753
(dp7754
g12
g7750
sbsVTranslationStack
p7755
g1
(g18
g19
(lp7756
g1
(g2
g3
(dp7757
g7690
g1
(g6
g7
S'15'
p7758
tp7759
Rp7760
(dp7761
g12
g7690
sbsVField
p7762
g1
(g6
g7
S'PORG'
p7763
tp7764
Rp7765
(dp7766
g12
g7762
sbsVTerm
p7767
g1
(g6
g7
S'Lutjanus rivulatus[PORG]'
p7768
tp7769
Rp7770
(dp7771
g12
g7767
sbsVExplode
p7772
g1
(g6
g7
g76
tp7773
Rp7774
(dp7775
g12
g7772
sbstp7776
Rp7777
(dp7778
g12
VTermSet
p7779
sbag1
(g2
g3
(dp7780
g7690
g1
(g6
g7
S'2155368'
p7781
tp7782
Rp7783
(dp7784
g12
g7690
sbsg7762
g1
(g6
g7
S'title'
p7785
tp7786
Rp7787
(dp7788
g12
g7762
sbsg7767
g1
(g6
g7
S'COI[title]'
p7789
tp7790
Rp7791
(dp7792
g12
g7767
sbsg7772
g1
(g6
g7
g97
tp7793
Rp7794
(dp7795
g12
g7772
sbstp7796
Rp7797
(dp7798
g12
g7779
sbag1
(g6
g7
S'AND'
p7799
tp7800
Rp7801
(dp7802
g12
VOP
p7803
sbatp7804
Rp7805
(dp7806
g12
g7755
sbsVRetStart
p7807
g1
(g6
g7
g113
tp7808
Rp7809
(dp7810
g12
g7807
sbsVTranslationSet
p7811
g1
(g18
g19
(lp7812
tp7813
Rp7814
(dp7815
g12
g7811
sbstp7816
Rp7817
(dp7818
g12
VeSearchResult
p7819
sbag1
(g2
g3
(dp7820
VCount
p7821
g1
(g6
g7
g113
tp7822
Rp7823
(dp7824
g12
g7821
sbsVRetMax
p7825
g1
(g6
g7
g113
tp7826
Rp7827
(dp7828
g12
g7825
sbsVIdList
p7829
g1
(g18
g19
(lp7830
tp7831
Rp7832
(dp7833
g12
g7829
sbsVQueryTranslation
p7834
g1
(g6
g7
S'Lutjanus rufolineatus[PORG] AND COI[title]'
p7835
tp7836
Rp7837
(dp7838
g12
g7834
sbsVTranslationStack
p7839
g1
(g18
g19
(lp7840
g1
(g2
g3
(dp7841
g7821
g1
(g6
g7
g1166
tp7842
Rp7843
(dp7844
g12
g7821
sbsVField
p7845
g1
(g6
g7
S'PORG'
p7846
tp7847
Rp7848
(dp7849
g12
g7845
sbsVTerm
p7850
g1
(g6
g7
S'Lutjanus rufolineatus[PORG]'
p7851
tp7852
Rp7853
(dp7854
g12
g7850
sbsVExplode
p7855
g1
(g6
g7
g76
tp7856
Rp7857
(dp7858
g12
g7855
sbstp7859
Rp7860
(dp7861
g12
VTermSet
p7862
sbag1
(g2
g3
(dp7863
g7821
g1
(g6
g7
S'2155368'
p7864
tp7865
Rp7866
(dp7867
g12
g7821
sbsg7845
g1
(g6
g7
S'title'
p7868
tp7869
Rp7870
(dp7871
g12
g7845
sbsg7850
g1
(g6
g7
S'COI[title]'
p7872
tp7873
Rp7874
(dp7875
g12
g7850
sbsg7855
g1
(g6
g7
g97
tp7876
Rp7877
(dp7878
g12
g7855
sbstp7879
Rp7880
(dp7881
g12
g7862
sbag1
(g6
g7
S'AND'
p7882
tp7883
Rp7884
(dp7885
g12
VOP
p7886
sbatp7887
Rp7888
(dp7889
g12
g7839
sbsVRetStart
p7890
g1
(g6
g7
g113
tp7891
Rp7892
(dp7893
g12
g7890
sbsVTranslationSet
p7894
g1
(g18
g19
(lp7895
tp7896
Rp7897
(dp7898
g12
g7894
sbstp7899
Rp7900
(dp7901
g12
VeSearchResult
p7902
sbag1
(g2
g3
(dp7903
VCount
p7904
g1
(g6
g7
S'109'
p7905
tp7906
Rp7907
(dp7908
g12
g7904
sbsVRetMax
p7909
g1
(g6
g7
S'20'
p7910
tp7911
Rp7912
(dp7913
g12
g7909
sbsVIdList
p7914
g1
(g18
g19
(lp7915
g1
(g6
g7
S'194738621'
p7916
tp7917
Rp7918
(dp7919
g12
VId
p7920
sbag1
(g6
g7
S'190608671'
p7921
tp7922
Rp7923
(dp7924
g12
g7920
sbag1
(g6
g7
S'190608669'
p7925
tp7926
Rp7927
(dp7928
g12
g7920
sbag1
(g6
g7
S'190608667'
p7929
tp7930
Rp7931
(dp7932
g12
g7920
sbag1
(g6
g7
S'339716844'
p7933
tp7934
Rp7935
(dp7936
g12
g7920
sbag1
(g6
g7
S'339716842'
p7937
tp7938
Rp7939
(dp7940
g12
g7920
sbag1
(g6
g7
S'339716840'
p7941
tp7942
Rp7943
(dp7944
g12
g7920
sbag1
(g6
g7
S'339716838'
p7945
tp7946
Rp7947
(dp7948
g12
g7920
sbag1
(g6
g7
S'161777706'
p7949
tp7950
Rp7951
(dp7952
g12
g7920
sbag1
(g6
g7
S'161777704'
p7953
tp7954
Rp7955
(dp7956
g12
g7920
sbag1
(g6
g7
S'227935825'
p7957
tp7958
Rp7959
(dp7960
g12
g7920
sbag1
(g6
g7
S'227935823'
p7961
tp7962
Rp7963
(dp7964
g12
g7920
sbag1
(g6
g7
S'1002677600'
p7965
tp7966
Rp7967
(dp7968
g12
g7920
sbag1
(g6
g7
S'584483900'
p7969
tp7970
Rp7971
(dp7972
g12
g7920
sbag1
(g6
g7
S'584483898'
p7973
tp7974
Rp7975
(dp7976
g12
g7920
sbag1
(g6
g7
S'584483896'
p7977
tp7978
Rp7979
(dp7980
g12
g7920
sbag1
(g6
g7
S'584483894'
p7981
tp7982
Rp7983
(dp7984
g12
g7920
sbag1
(g6
g7
S'584483892'
p7985
tp7986
Rp7987
(dp7988
g12
g7920
sbag1
(g6
g7
S'584483890'
p7989
tp7990
Rp7991
(dp7992
g12
g7920
sbag1
(g6
g7
S'584483888'
p7993
tp7994
Rp7995
(dp7996
g12
g7920
sbatp7997
Rp7998
(dp7999
g12
g7914
sbsVQueryTranslation
p8000
g1
(g6
g7
S'Lutjanus russellii[PORG] AND COI[title]'
p8001
tp8002
Rp8003
(dp8004
g12
g8000
sbsVTranslationStack
p8005
g1
(g18
g19
(lp8006
g1
(g2
g3
(dp8007
g7904
g1
(g6
g7
S'213'
p8008
tp8009
Rp8010
(dp8011
g12
g7904
sbsVField
p8012
g1
(g6
g7
S'PORG'
p8013
tp8014
Rp8015
(dp8016
g12
g8012
sbsVTerm
p8017
g1
(g6
g7
S'Lutjanus russellii[PORG]'
p8018
tp8019
Rp8020
(dp8021
g12
g8017
sbsVExplode
p8022
g1
(g6
g7
g76
tp8023
Rp8024
(dp8025
g12
g8022
sbstp8026
Rp8027
(dp8028
g12
VTermSet
p8029
sbag1
(g2
g3
(dp8030
g7904
g1
(g6
g7
S'2155368'
p8031
tp8032
Rp8033
(dp8034
g12
g7904
sbsg8012
g1
(g6
g7
S'title'
p8035
tp8036
Rp8037
(dp8038
g12
g8012
sbsg8017
g1
(g6
g7
S'COI[title]'
p8039
tp8040
Rp8041
(dp8042
g12
g8017
sbsg8022
g1
(g6
g7
g97
tp8043
Rp8044
(dp8045
g12
g8022
sbstp8046
Rp8047
(dp8048
g12
g8029
sbag1
(g6
g7
S'AND'
p8049
tp8050
Rp8051
(dp8052
g12
VOP
p8053
sbatp8054
Rp8055
(dp8056
g12
g8005
sbsVRetStart
p8057
g1
(g6
g7
g113
tp8058
Rp8059
(dp8060
g12
g8057
sbsVTranslationSet
p8061
g1
(g18
g19
(lp8062
tp8063
Rp8064
(dp8065
g12
g8061
sbstp8066
Rp8067
(dp8068
g12
VeSearchResult
p8069
sbag1
(g2
g3
(dp8070
VCount
p8071
g1
(g6
g7
g368
tp8072
Rp8073
(dp8074
g12
g8071
sbsVRetMax
p8075
g1
(g6
g7
g368
tp8076
Rp8077
(dp8078
g12
g8075
sbsVIdList
p8079
g1
(g18
g19
(lp8080
g1
(g6
g7
S'328486150'
p8081
tp8082
Rp8083
(dp8084
g12
VId
p8085
sbag1
(g6
g7
S'328486148'
p8086
tp8087
Rp8088
(dp8089
g12
g8085
sbag1
(g6
g7
S'328486146'
p8090
tp8091
Rp8092
(dp8093
g12
g8085
sbag1
(g6
g7
S'554792067'
p8094
tp8095
Rp8096
(dp8097
g12
g8085
sbatp8098
Rp8099
(dp8100
g12
g8079
sbsVQueryTranslation
p8101
g1
(g6
g7
S'Lutjanus sanguineus[PORG] AND COI[title]'
p8102
tp8103
Rp8104
(dp8105
g12
g8101
sbsVTranslationStack
p8106
g1
(g18
g19
(lp8107
g1
(g2
g3
(dp8108
g8071
g1
(g6
g7
S'55'
p8109
tp8110
Rp8111
(dp8112
g12
g8071
sbsVField
p8113
g1
(g6
g7
S'PORG'
p8114
tp8115
Rp8116
(dp8117
g12
g8113
sbsVTerm
p8118
g1
(g6
g7
S'Lutjanus sanguineus[PORG]'
p8119
tp8120
Rp8121
(dp8122
g12
g8118
sbsVExplode
p8123
g1
(g6
g7
g76
tp8124
Rp8125
(dp8126
g12
g8123
sbstp8127
Rp8128
(dp8129
g12
VTermSet
p8130
sbag1
(g2
g3
(dp8131
g8071
g1
(g6
g7
S'2155368'
p8132
tp8133
Rp8134
(dp8135
g12
g8071
sbsg8113
g1
(g6
g7
S'title'
p8136
tp8137
Rp8138
(dp8139
g12
g8113
sbsg8118
g1
(g6
g7
S'COI[title]'
p8140
tp8141
Rp8142
(dp8143
g12
g8118
sbsg8123
g1
(g6
g7
g97
tp8144
Rp8145
(dp8146
g12
g8123
sbstp8147
Rp8148
(dp8149
g12
g8130
sbag1
(g6
g7
S'AND'
p8150
tp8151
Rp8152
(dp8153
g12
VOP
p8154
sbatp8155
Rp8156
(dp8157
g12
g8106
sbsVRetStart
p8158
g1
(g6
g7
g113
tp8159
Rp8160
(dp8161
g12
g8158
sbsVTranslationSet
p8162
g1
(g18
g19
(lp8163
tp8164
Rp8165
(dp8166
g12
g8162
sbstp8167
Rp8168
(dp8169
g12
VeSearchResult
p8170
sbag1
(g2
g3
(dp8171
VCount
p8172
g1
(g6
g7
S'11'
p8173
tp8174
Rp8175
(dp8176
g12
g8172
sbsVRetMax
p8177
g1
(g6
g7
S'11'
p8178
tp8179
Rp8180
(dp8181
g12
g8177
sbsVIdList
p8182
g1
(g18
g19
(lp8183
g1
(g6
g7
S'190608645'
p8184
tp8185
Rp8186
(dp8187
g12
VId
p8188
sbag1
(g6
g7
S'190608643'
p8189
tp8190
Rp8191
(dp8192
g12
g8188
sbag1
(g6
g7
S'190608641'
p8193
tp8194
Rp8195
(dp8196
g12
g8188
sbag1
(g6
g7
S'340034751'
p8197
tp8198
Rp8199
(dp8200
g12
g8188
sbag1
(g6
g7
S'227935827'
p8201
tp8202
Rp8203
(dp8204
g12
g8188
sbag1
(g6
g7
S'755322464'
p8205
tp8206
Rp8207
(dp8208
g12
g8188
sbag1
(g6
g7
S'657306604'
p8209
tp8210
Rp8211
(dp8212
g12
g8188
sbag1
(g6
g7
S'554792069'
p8213
tp8214
Rp8215
(dp8216
g12
g8188
sbag1
(g6
g7
S'584296160'
p8217
tp8218
Rp8219
(dp8220
g12
g8188
sbag1
(g6
g7
S'148374009'
p8221
tp8222
Rp8223
(dp8224
g12
g8188
sbag1
(g6
g7
S'227935239'
p8225
tp8226
Rp8227
(dp8228
g12
g8188
sbatp8229
Rp8230
(dp8231
g12
g8182
sbsVQueryTranslation
p8232
g1
(g6
g7
S'Lutjanus sebae[PORG] AND COI[title]'
p8233
tp8234
Rp8235
(dp8236
g12
g8232
sbsVTranslationStack
p8237
g1
(g18
g19
(lp8238
g1
(g2
g3
(dp8239
g8172
g1
(g6
g7
S'134'
p8240
tp8241
Rp8242
(dp8243
g12
g8172
sbsVField
p8244
g1
(g6
g7
S'PORG'
p8245
tp8246
Rp8247
(dp8248
g12
g8244
sbsVTerm
p8249
g1
(g6
g7
S'Lutjanus sebae[PORG]'
p8250
tp8251
Rp8252
(dp8253
g12
g8249
sbsVExplode
p8254
g1
(g6
g7
g76
tp8255
Rp8256
(dp8257
g12
g8254
sbstp8258
Rp8259
(dp8260
g12
VTermSet
p8261
sbag1
(g2
g3
(dp8262
g8172
g1
(g6
g7
S'2155368'
p8263
tp8264
Rp8265
(dp8266
g12
g8172
sbsg8244
g1
(g6
g7
S'title'
p8267
tp8268
Rp8269
(dp8270
g12
g8244
sbsg8249
g1
(g6
g7
S'COI[title]'
p8271
tp8272
Rp8273
(dp8274
g12
g8249
sbsg8254
g1
(g6
g7
g97
tp8275
Rp8276
(dp8277
g12
g8254
sbstp8278
Rp8279
(dp8280
g12
g8261
sbag1
(g6
g7
S'AND'
p8281
tp8282
Rp8283
(dp8284
g12
VOP
p8285
sbatp8286
Rp8287
(dp8288
g12
g8237
sbsVRetStart
p8289
g1
(g6
g7
g113
tp8290
Rp8291
(dp8292
g12
g8289
sbsVTranslationSet
p8293
g1
(g18
g19
(lp8294
tp8295
Rp8296
(dp8297
g12
g8293
sbstp8298
Rp8299
(dp8300
g12
VeSearchResult
p8301
sbag1
(g2
g3
(dp8302
VCount
p8303
g1
(g6
g7
g113
tp8304
Rp8305
(dp8306
g12
g8303
sbsVRetMax
p8307
g1
(g6
g7
g113
tp8308
Rp8309
(dp8310
g12
g8307
sbsVIdList
p8311
g1
(g18
g19
(lp8312
tp8313
Rp8314
(dp8315
g12
g8311
sbsVRetStart
p8316
g1
(g6
g7
g113
tp8317
Rp8318
(dp8319
g12
g8316
sbsVErrorList
p8320
g1
(g1335
g3
(dp8321
VFieldNotFound
p8322
(lp8323
sVPhraseNotFound
p8324
(lp8325
g1
(g6
g7
S'Lutjanus semicinctus[PORG]'
p8326
tp8327
Rp8328
(dp8329
g12
VPhraseNotFound
p8330
sbastp8331
Rp8332
(dp8333
g12
g8320
sg1349
(lp8334
g8324
ag8322
asbsVTranslationSet
p8335
g1
(g18
g19
(lp8336
tp8337
Rp8338
(dp8339
g12
g8335
sbsVWarningList
p8340
g1
(g1335
g3
(dp8341
VOutputMessage
p8342
(lp8343
g1
(g6
g7
S'No items found.'
p8344
tp8345
Rp8346
(dp8347
g12
VOutputMessage
p8348
sbasVPhraseIgnored
p8349
(lp8350
sVQuotedPhraseNotFound
p8351
(lp8352
stp8353
Rp8354
(dp8355
g12
g8340
sg1349
(lp8356
g8349
ag8351
ag8342
asbsVQueryTranslation
p8357
g1
(g6
g7
S'Lutjanus semicinctus[PORG] AND COI[title]'
p8358
tp8359
Rp8360
(dp8361
g12
g8357
sbstp8362
Rp8363
(dp8364
g12
VeSearchResult
p8365
sbag1
(g2
g3
(dp8366
VCount
p8367
g1
(g6
g7
g6021
tp8368
Rp8369
(dp8370
g12
g8367
sbsVRetMax
p8371
g1
(g6
g7
g6021
tp8372
Rp8373
(dp8374
g12
g8371
sbsVIdList
p8375
g1
(g18
g19
(lp8376
g1
(g6
g7
S'190608699'
p8377
tp8378
Rp8379
(dp8380
g12
VId
p8381
sbag1
(g6
g7
S'190608697'
p8382
tp8383
Rp8384
(dp8385
g12
g8381
sbatp8386
Rp8387
(dp8388
g12
g8375
sbsVQueryTranslation
p8389
g1
(g6
g7
S'Lutjanus stellatus[PORG] AND COI[title]'
p8390
tp8391
Rp8392
(dp8393
g12
g8389
sbsVTranslationStack
p8394
g1
(g18
g19
(lp8395
g1
(g2
g3
(dp8396
g8367
g1
(g6
g7
S'58'
p8397
tp8398
Rp8399
(dp8400
g12
g8367
sbsVField
p8401
g1
(g6
g7
S'PORG'
p8402
tp8403
Rp8404
(dp8405
g12
g8401
sbsVTerm
p8406
g1
(g6
g7
S'Lutjanus stellatus[PORG]'
p8407
tp8408
Rp8409
(dp8410
g12
g8406
sbsVExplode
p8411
g1
(g6
g7
g76
tp8412
Rp8413
(dp8414
g12
g8411
sbstp8415
Rp8416
(dp8417
g12
VTermSet
p8418
sbag1
(g2
g3
(dp8419
g8367
g1
(g6
g7
S'2155368'
p8420
tp8421
Rp8422
(dp8423
g12
g8367
sbsg8401
g1
(g6
g7
S'title'
p8424
tp8425
Rp8426
(dp8427
g12
g8401
sbsg8406
g1
(g6
g7
S'COI[title]'
p8428
tp8429
Rp8430
(dp8431
g12
g8406
sbsg8411
g1
(g6
g7
g97
tp8432
Rp8433
(dp8434
g12
g8411
sbstp8435
Rp8436
(dp8437
g12
g8418
sbag1
(g6
g7
S'AND'
p8438
tp8439
Rp8440
(dp8441
g12
VOP
p8442
sbatp8443
Rp8444
(dp8445
g12
g8394
sbsVRetStart
p8446
g1
(g6
g7
g113
tp8447
Rp8448
(dp8449
g12
g8446
sbsVTranslationSet
p8450
g1
(g18
g19
(lp8451
tp8452
Rp8453
(dp8454
g12
g8450
sbstp8455
Rp8456
(dp8457
g12
VeSearchResult
p8458
sbag1
(g2
g3
(dp8459
VCount
p8460
g1
(g6
g7
S'72'
p8461
tp8462
Rp8463
(dp8464
g12
g8460
sbsVRetMax
p8465
g1
(g6
g7
S'20'
p8466
tp8467
Rp8468
(dp8469
g12
g8465
sbsVIdList
p8470
g1
(g18
g19
(lp8471
g1
(g6
g7
S'189165564'
p8472
tp8473
Rp8474
(dp8475
g12
VId
p8476
sbag1
(g6
g7
S'189165562'
p8477
tp8478
Rp8479
(dp8480
g12
g8476
sbag1
(g6
g7
S'189165560'
p8481
tp8482
Rp8483
(dp8484
g12
g8476
sbag1
(g6
g7
S'340034755'
p8485
tp8486
Rp8487
(dp8488
g12
g8476
sbag1
(g6
g7
S'340034753'
p8489
tp8490
Rp8491
(dp8492
g12
g8476
sbag1
(g6
g7
S'320578781'
p8493
tp8494
Rp8495
(dp8496
g12
g8476
sbag1
(g6
g7
S'320578779'
p8497
tp8498
Rp8499
(dp8500
g12
g8476
sbag1
(g6
g7
S'320578777'
p8501
tp8502
Rp8503
(dp8504
g12
g8476
sbag1
(g6
g7
S'297525528'
p8505
tp8506
Rp8507
(dp8508
g12
g8476
sbag1
(g6
g7
S'291164036'
p8509
tp8510
Rp8511
(dp8512
g12
g8476
sbag1
(g6
g7
S'291164034'
p8513
tp8514
Rp8515
(dp8516
g12
g8476
sbag1
(g6
g7
S'291164032'
p8517
tp8518
Rp8519
(dp8520
g12
g8476
sbag1
(g6
g7
S'291164030'
p8521
tp8522
Rp8523
(dp8524
g12
g8476
sbag1
(g6
g7
S'291164028'
p8525
tp8526
Rp8527
(dp8528
g12
g8476
sbag1
(g6
g7
S'291164026'
p8529
tp8530
Rp8531
(dp8532
g12
g8476
sbag1
(g6
g7
S'291164024'
p8533
tp8534
Rp8535
(dp8536
g12
g8476
sbag1
(g6
g7
S'238551250'
p8537
tp8538
Rp8539
(dp8540
g12
g8476
sbag1
(g6
g7
S'238551248'
p8541
tp8542
Rp8543
(dp8544
g12
g8476
sbag1
(g6
g7
S'238551246'
p8545
tp8546
Rp8547
(dp8548
g12
g8476
sbag1
(g6
g7
S'918768411'
p8549
tp8550
Rp8551
(dp8552
g12
g8476
sbatp8553
Rp8554
(dp8555
g12
g8470
sbsVQueryTranslation
p8556
g1
(g6
g7
S'Lutjanus synagris[PORG] AND COI[title]'
p8557
tp8558
Rp8559
(dp8560
g12
g8556
sbsVTranslationStack
p8561
g1
(g18
g19
(lp8562
g1
(g2
g3
(dp8563
g8460
g1
(g6
g7
S'148'
p8564
tp8565
Rp8566
(dp8567
g12
g8460
sbsVField
p8568
g1
(g6
g7
S'PORG'
p8569
tp8570
Rp8571
(dp8572
g12
g8568
sbsVTerm
p8573
g1
(g6
g7
S'Lutjanus synagris[PORG]'
p8574
tp8575
Rp8576
(dp8577
g12
g8573
sbsVExplode
p8578
g1
(g6
g7
g76
tp8579
Rp8580
(dp8581
g12
g8578
sbstp8582
Rp8583
(dp8584
g12
VTermSet
p8585
sbag1
(g2
g3
(dp8586
g8460
g1
(g6
g7
S'2155368'
p8587
tp8588
Rp8589
(dp8590
g12
g8460
sbsg8568
g1
(g6
g7
S'title'
p8591
tp8592
Rp8593
(dp8594
g12
g8568
sbsg8573
g1
(g6
g7
S'COI[title]'
p8595
tp8596
Rp8597
(dp8598
g12
g8573
sbsg8578
g1
(g6
g7
g97
tp8599
Rp8600
(dp8601
g12
g8578
sbstp8602
Rp8603
(dp8604
g12
g8585
sbag1
(g6
g7
S'AND'
p8605
tp8606
Rp8607
(dp8608
g12
VOP
p8609
sbatp8610
Rp8611
(dp8612
g12
g8561
sbsVRetStart
p8613
g1
(g6
g7
g113
tp8614
Rp8615
(dp8616
g12
g8613
sbsVTranslationSet
p8617
g1
(g18
g19
(lp8618
tp8619
Rp8620
(dp8621
g12
g8617
sbstp8622
Rp8623
(dp8624
g12
VeSearchResult
p8625
sbag1
(g2
g3
(dp8626
VCount
p8627
g1
(g6
g7
g490
tp8628
Rp8629
(dp8630
g12
g8627
sbsVRetMax
p8631
g1
(g6
g7
g490
tp8632
Rp8633
(dp8634
g12
g8631
sbsVIdList
p8635
g1
(g18
g19
(lp8636
g1
(g6
g7
S'628820441'
p8637
tp8638
Rp8639
(dp8640
g12
VId
p8641
sbag1
(g6
g7
S'628820439'
p8642
tp8643
Rp8644
(dp8645
g12
g8641
sbag1
(g6
g7
S'573464262'
p8646
tp8647
Rp8648
(dp8649
g12
g8641
sbatp8650
Rp8651
(dp8652
g12
g8635
sbsVQueryTranslation
p8653
g1
(g6
g7
S'Lutjanus timoriensis[PORG] AND COI[title]'
p8654
tp8655
Rp8656
(dp8657
g12
g8653
sbsVTranslationStack
p8658
g1
(g18
g19
(lp8659
g1
(g2
g3
(dp8660
g8627
g1
(g6
g7
g490
tp8661
Rp8662
(dp8663
g12
g8627
sbsVField
p8664
g1
(g6
g7
S'PORG'
p8665
tp8666
Rp8667
(dp8668
g12
g8664
sbsVTerm
p8669
g1
(g6
g7
S'Lutjanus timoriensis[PORG]'
p8670
tp8671
Rp8672
(dp8673
g12
g8669
sbsVExplode
p8674
g1
(g6
g7
g76
tp8675
Rp8676
(dp8677
g12
g8674
sbstp8678
Rp8679
(dp8680
g12
VTermSet
p8681
sbag1
(g2
g3
(dp8682
g8627
g1
(g6
g7
S'2155368'
p8683
tp8684
Rp8685
(dp8686
g12
g8627
sbsg8664
g1
(g6
g7
S'title'
p8687
tp8688
Rp8689
(dp8690
g12
g8664
sbsg8669
g1
(g6
g7
S'COI[title]'
p8691
tp8692
Rp8693
(dp8694
g12
g8669
sbsg8674
g1
(g6
g7
g97
tp8695
Rp8696
(dp8697
g12
g8674
sbstp8698
Rp8699
(dp8700
g12
g8681
sbag1
(g6
g7
S'AND'
p8701
tp8702
Rp8703
(dp8704
g12
VOP
p8705
sbatp8706
Rp8707
(dp8708
g12
g8658
sbsVRetStart
p8709
g1
(g6
g7
g113
tp8710
Rp8711
(dp8712
g12
g8709
sbsVTranslationSet
p8713
g1
(g18
g19
(lp8714
tp8715
Rp8716
(dp8717
g12
g8713
sbstp8718
Rp8719
(dp8720
g12
VeSearchResult
p8721
sbag1
(g2
g3
(dp8722
VCount
p8723
g1
(g6
g7
g490
tp8724
Rp8725
(dp8726
g12
g8723
sbsVRetMax
p8727
g1
(g6
g7
g490
tp8728
Rp8729
(dp8730
g12
g8727
sbsVIdList
p8731
g1
(g18
g19
(lp8732
g1
(g6
g7
S'662357688'
p8733
tp8734
Rp8735
(dp8736
g12
VId
p8737
sbag1
(g6
g7
S'662357686'
p8738
tp8739
Rp8740
(dp8741
g12
g8737
sbag1
(g6
g7
S'662357684'
p8742
tp8743
Rp8744
(dp8745
g12
g8737
sbatp8746
Rp8747
(dp8748
g12
g8731
sbsVQueryTranslation
p8749
g1
(g6
g7
S'Lutjanus viridis[PORG] AND COI[title]'
p8750
tp8751
Rp8752
(dp8753
g12
g8749
sbsVTranslationStack
p8754
g1
(g18
g19
(lp8755
g1
(g2
g3
(dp8756
g8723
g1
(g6
g7
g246
tp8757
Rp8758
(dp8759
g12
g8723
sbsVField
p8760
g1
(g6
g7
S'PORG'
p8761
tp8762
Rp8763
(dp8764
g12
g8760
sbsVTerm
p8765
g1
(g6
g7
S'Lutjanus viridis[PORG]'
p8766
tp8767
Rp8768
(dp8769
g12
g8765
sbsVExplode
p8770
g1
(g6
g7
g76
tp8771
Rp8772
(dp8773
g12
g8770
sbstp8774
Rp8775
(dp8776
g12
VTermSet
p8777
sbag1
(g2
g3
(dp8778
g8723
g1
(g6
g7
S'2155368'
p8779
tp8780
Rp8781
(dp8782
g12
g8723
sbsg8760
g1
(g6
g7
S'title'
p8783
tp8784
Rp8785
(dp8786
g12
g8760
sbsg8765
g1
(g6
g7
S'COI[title]'
p8787
tp8788
Rp8789
(dp8790
g12
g8765
sbsg8770
g1
(g6
g7
g97
tp8791
Rp8792
(dp8793
g12
g8770
sbstp8794
Rp8795
(dp8796
g12
g8777
sbag1
(g6
g7
S'AND'
p8797
tp8798
Rp8799
(dp8800
g12
VOP
p8801
sbatp8802
Rp8803
(dp8804
g12
g8754
sbsVRetStart
p8805
g1
(g6
g7
g113
tp8806
Rp8807
(dp8808
g12
g8805
sbsVTranslationSet
p8809
g1
(g18
g19
(lp8810
tp8811
Rp8812
(dp8813
g12
g8809
sbstp8814
Rp8815
(dp8816
g12
VeSearchResult
p8817
sbag1
(g2
g3
(dp8818
VCount
p8819
g1
(g6
g7
S'12'
p8820
tp8821
Rp8822
(dp8823
g12
g8819
sbsVRetMax
p8824
g1
(g6
g7
S'12'
p8825
tp8826
Rp8827
(dp8828
g12
g8824
sbsVIdList
p8829
g1
(g18
g19
(lp8830
g1
(g6
g7
S'1035518645'
p8831
tp8832
Rp8833
(dp8834
g12
VId
p8835
sbag1
(g6
g7
S'1035518643'
p8836
tp8837
Rp8838
(dp8839
g12
g8835
sbag1
(g6
g7
S'1035518641'
p8840
tp8841
Rp8842
(dp8843
g12
g8835
sbag1
(g6
g7
S'1035518639'
p8844
tp8845
Rp8846
(dp8847
g12
g8835
sbag1
(g6
g7
S'1035518635'
p8848
tp8849
Rp8850
(dp8851
g12
g8835
sbag1
(g6
g7
S'190608639'
p8852
tp8853
Rp8854
(dp8855
g12
g8835
sbag1
(g6
g7
S'190608637'
p8856
tp8857
Rp8858
(dp8859
g12
g8835
sbag1
(g6
g7
S'190608635'
p8860
tp8861
Rp8862
(dp8863
g12
g8835
sbag1
(g6
g7
S'190608633'
p8864
tp8865
Rp8866
(dp8867
g12
g8835
sbag1
(g6
g7
S'816376819'
p8868
tp8869
Rp8870
(dp8871
g12
g8835
sbag1
(g6
g7
S'531992185'
p8872
tp8873
Rp8874
(dp8875
g12
g8835
sbag1
(g6
g7
S'148374011'
p8876
tp8877
Rp8878
(dp8879
g12
g8835
sbatp8880
Rp8881
(dp8882
g12
g8829
sbsVQueryTranslation
p8883
g1
(g6
g7
S'Lutjanus vitta[PORG] AND COI[title]'
p8884
tp8885
Rp8886
(dp8887
g12
g8883
sbsVTranslationStack
p8888
g1
(g18
g19
(lp8889
g1
(g2
g3
(dp8890
g8819
g1
(g6
g7
S'49'
p8891
tp8892
Rp8893
(dp8894
g12
g8819
sbsVField
p8895
g1
(g6
g7
S'PORG'
p8896
tp8897
Rp8898
(dp8899
g12
g8895
sbsVTerm
p8900
g1
(g6
g7
S'Lutjanus vitta[PORG]'
p8901
tp8902
Rp8903
(dp8904
g12
g8900
sbsVExplode
p8905
g1
(g6
g7
g76
tp8906
Rp8907
(dp8908
g12
g8905
sbstp8909
Rp8910
(dp8911
g12
VTermSet
p8912
sbag1
(g2
g3
(dp8913
g8819
g1
(g6
g7
S'2155368'
p8914
tp8915
Rp8916
(dp8917
g12
g8819
sbsg8895
g1
(g6
g7
S'title'
p8918
tp8919
Rp8920
(dp8921
g12
g8895
sbsg8900
g1
(g6
g7
S'COI[title]'
p8922
tp8923
Rp8924
(dp8925
g12
g8900
sbsg8905
g1
(g6
g7
g97
tp8926
Rp8927
(dp8928
g12
g8905
sbstp8929
Rp8930
(dp8931
g12
g8912
sbag1
(g6
g7
S'AND'
p8932
tp8933
Rp8934
(dp8935
g12
VOP
p8936
sbatp8937
Rp8938
(dp8939
g12
g8888
sbsVRetStart
p8940
g1
(g6
g7
g113
tp8941
Rp8942
(dp8943
g12
g8940
sbsVTranslationSet
p8944
g1
(g18
g19
(lp8945
tp8946
Rp8947
(dp8948
g12
g8944
sbstp8949
Rp8950
(dp8951
g12
VeSearchResult
p8952
sbag1
(g2
g3
(dp8953
VCount
p8954
g1
(g6
g7
S'21'
p8955
tp8956
Rp8957
(dp8958
g12
g8954
sbsVRetMax
p8959
g1
(g6
g7
S'20'
p8960
tp8961
Rp8962
(dp8963
g12
g8959
sbsVIdList
p8964
g1
(g18
g19
(lp8965
g1
(g6
g7
S'320578787'
p8966
tp8967
Rp8968
(dp8969
g12
VId
p8970
sbag1
(g6
g7
S'320578785'
p8971
tp8972
Rp8973
(dp8974
g12
g8970
sbag1
(g6
g7
S'320578783'
p8975
tp8976
Rp8977
(dp8978
g12
g8970
sbag1
(g6
g7
S'291164040'
p8979
tp8980
Rp8981
(dp8982
g12
g8970
sbag1
(g6
g7
S'291164038'
p8983
tp8984
Rp8985
(dp8986
g12
g8970
sbag1
(g6
g7
S'238551256'
p8987
tp8988
Rp8989
(dp8990
g12
g8970
sbag1
(g6
g7
S'238551254'
p8991
tp8992
Rp8993
(dp8994
g12
g8970
sbag1
(g6
g7
S'238551252'
p8995
tp8996
Rp8997
(dp8998
g12
g8970
sbag1
(g6
g7
S'558500836'
p8999
tp9000
Rp9001
(dp9002
g12
g8970
sbag1
(g6
g7
S'558500834'
p9003
tp9004
Rp9005
(dp9006
g12
g8970
sbag1
(g6
g7
S'558500832'
p9007
tp9008
Rp9009
(dp9010
g12
g8970
sbag1
(g6
g7
S'558500830'
p9011
tp9012
Rp9013
(dp9014
g12
g8970
sbag1
(g6
g7
S'558500828'
p9015
tp9016
Rp9017
(dp9018
g12
g8970
sbag1
(g6
g7
S'558500826'
p9019
tp9020
Rp9021
(dp9022
g12
g8970
sbag1
(g6
g7
S'558500824'
p9023
tp9024
Rp9025
(dp9026
g12
g8970
sbag1
(g6
g7
S'558500822'
p9027
tp9028
Rp9029
(dp9030
g12
g8970
sbag1
(g6
g7
S'558500820'
p9031
tp9032
Rp9033
(dp9034
g12
g8970
sbag1
(g6
g7
S'558500818'
p9035
tp9036
Rp9037
(dp9038
g12
g8970
sbag1
(g6
g7
S'558500816'
p9039
tp9040
Rp9041
(dp9042
g12
g8970
sbag1
(g6
g7
S'558500814'
p9043
tp9044
Rp9045
(dp9046
g12
g8970
sbatp9047
Rp9048
(dp9049
g12
g8964
sbsVQueryTranslation
p9050
g1
(g6
g7
S'Lutjanus vivanus[PORG] AND COI[title]'
p9051
tp9052
Rp9053
(dp9054
g12
g9050
sbsVTranslationStack
p9055
g1
(g18
g19
(lp9056
g1
(g2
g3
(dp9057
g8954
g1
(g6
g7
S'28'
p9058
tp9059
Rp9060
(dp9061
g12
g8954
sbsVField
p9062
g1
(g6
g7
S'PORG'
p9063
tp9064
Rp9065
(dp9066
g12
g9062
sbsVTerm
p9067
g1
(g6
g7
S'Lutjanus vivanus[PORG]'
p9068
tp9069
Rp9070
(dp9071
g12
g9067
sbsVExplode
p9072
g1
(g6
g7
g76
tp9073
Rp9074
(dp9075
g12
g9072
sbstp9076
Rp9077
(dp9078
g12
VTermSet
p9079
sbag1
(g2
g3
(dp9080
g8954
g1
(g6
g7
S'2155368'
p9081
tp9082
Rp9083
(dp9084
g12
g8954
sbsg9062
g1
(g6
g7
S'title'
p9085
tp9086
Rp9087
(dp9088
g12
g9062
sbsg9067
g1
(g6
g7
S'COI[title]'
p9089
tp9090
Rp9091
(dp9092
g12
g9067
sbsg9072
g1
(g6
g7
g97
tp9093
Rp9094
(dp9095
g12
g9072
sbstp9096
Rp9097
(dp9098
g12
g9079
sbag1
(g6
g7
S'AND'
p9099
tp9100
Rp9101
(dp9102
g12
VOP
p9103
sbatp9104
Rp9105
(dp9106
g12
g9055
sbsVRetStart
p9107
g1
(g6
g7
g113
tp9108
Rp9109
(dp9110
g12
g9107
sbsVTranslationSet
p9111
g1
(g18
g19
(lp9112
tp9113
Rp9114
(dp9115
g12
g9111
sbstp9116
Rp9117
(dp9118
g12
VeSearchResult
p9119
sbag1
(g2
g3
(dp9120
VCount
p9121
g1
(g6
g7
g8
tp9122
Rp9123
(dp9124
g12
g9121
sbsVRetMax
p9125
g1
(g6
g7
g8
tp9126
Rp9127
(dp9128
g12
g9125
sbsVIdList
p9129
g1
(g18
g19
(lp9130
g1
(g6
g7
S'148374013'
p9131
tp9132
Rp9133
(dp9134
g12
VId
p9135
sbag1
(g6
g7
S'628820443'
p9136
tp9137
Rp9138
(dp9139
g12
g9135
sbag1
(g6
g7
S'580961947'
p9140
tp9141
Rp9142
(dp9143
g12
g9135
sbag1
(g6
g7
S'573464264'
p9144
tp9145
Rp9146
(dp9147
g12
g9135
sbag1
(g6
g7
S'557955516'
p9148
tp9149
Rp9150
(dp9151
g12
g9135
sbag1
(g6
g7
S'531992187'
p9152
tp9153
Rp9154
(dp9155
g12
g9135
sbag1
(g6
g7
S'584296198'
p9156
tp9157
Rp9158
(dp9159
g12
g9135
sbatp9160
Rp9161
(dp9162
g12
g9129
sbsVQueryTranslation
p9163
g1
(g6
g7
S'Macolor macularis[PORG] AND COI[title]'
p9164
tp9165
Rp9166
(dp9167
g12
g9163
sbsVTranslationStack
p9168
g1
(g18
g19
(lp9169
g1
(g2
g3
(dp9170
g9121
g1
(g6
g7
g128
tp9171
Rp9172
(dp9173
g12
g9121
sbsVField
p9174
g1
(g6
g7
S'PORG'
p9175
tp9176
Rp9177
(dp9178
g12
g9174
sbsVTerm
p9179
g1
(g6
g7
S'Macolor macularis[PORG]'
p9180
tp9181
Rp9182
(dp9183
g12
g9179
sbsVExplode
p9184
g1
(g6
g7
g76
tp9185
Rp9186
(dp9187
g12
g9184
sbstp9188
Rp9189
(dp9190
g12
VTermSet
p9191
sbag1
(g2
g3
(dp9192
g9121
g1
(g6
g7
S'2155368'
p9193
tp9194
Rp9195
(dp9196
g12
g9121
sbsg9174
g1
(g6
g7
S'title'
p9197
tp9198
Rp9199
(dp9200
g12
g9174
sbsg9179
g1
(g6
g7
S'COI[title]'
p9201
tp9202
Rp9203
(dp9204
g12
g9179
sbsg9184
g1
(g6
g7
g97
tp9205
Rp9206
(dp9207
g12
g9184
sbstp9208
Rp9209
(dp9210
g12
g9191
sbag1
(g6
g7
S'AND'
p9211
tp9212
Rp9213
(dp9214
g12
VOP
p9215
sbatp9216
Rp9217
(dp9218
g12
g9168
sbsVRetStart
p9219
g1
(g6
g7
g113
tp9220
Rp9221
(dp9222
g12
g9219
sbsVTranslationSet
p9223
g1
(g18
g19
(lp9224
tp9225
Rp9226
(dp9227
g12
g9223
sbstp9228
Rp9229
(dp9230
g12
VeSearchResult
p9231
sbag1
(g2
g3
(dp9232
VCount
p9233
g1
(g6
g7
g8
tp9234
Rp9235
(dp9236
g12
g9233
sbsVRetMax
p9237
g1
(g6
g7
g8
tp9238
Rp9239
(dp9240
g12
g9237
sbsVIdList
p9241
g1
(g18
g19
(lp9242
g1
(g6
g7
S'1041927258'
p9243
tp9244
Rp9245
(dp9246
g12
VId
p9247
sbag1
(g6
g7
S'816376679'
p9248
tp9249
Rp9250
(dp9251
g12
g9247
sbag1
(g6
g7
S'650086652'
p9252
tp9253
Rp9254
(dp9255
g12
g9247
sbag1
(g6
g7
S'554792071'
p9256
tp9257
Rp9258
(dp9259
g12
g9247
sbag1
(g6
g7
S'375585947'
p9260
tp9261
Rp9262
(dp9263
g12
g9247
sbag1
(g6
g7
S'223368176'
p9264
tp9265
Rp9266
(dp9267
g12
g9247
sbag1
(g6
g7
S'223368174'
p9268
tp9269
Rp9270
(dp9271
g12
g9247
sbatp9272
Rp9273
(dp9274
g12
g9241
sbsVQueryTranslation
p9275
g1
(g6
g7
S'Macolor niger[PORG] AND COI[title]'
p9276
tp9277
Rp9278
(dp9279
g12
g9275
sbsVTranslationStack
p9280
g1
(g18
g19
(lp9281
g1
(g2
g3
(dp9282
g9233
g1
(g6
g7
S'19'
p9283
tp9284
Rp9285
(dp9286
g12
g9233
sbsVField
p9287
g1
(g6
g7
S'PORG'
p9288
tp9289
Rp9290
(dp9291
g12
g9287
sbsVTerm
p9292
g1
(g6
g7
S'Macolor niger[PORG]'
p9293
tp9294
Rp9295
(dp9296
g12
g9292
sbsVExplode
p9297
g1
(g6
g7
g76
tp9298
Rp9299
(dp9300
g12
g9297
sbstp9301
Rp9302
(dp9303
g12
VTermSet
p9304
sbag1
(g2
g3
(dp9305
g9233
g1
(g6
g7
S'2155368'
p9306
tp9307
Rp9308
(dp9309
g12
g9233
sbsg9287
g1
(g6
g7
S'title'
p9310
tp9311
Rp9312
(dp9313
g12
g9287
sbsg9292
g1
(g6
g7
S'COI[title]'
p9314
tp9315
Rp9316
(dp9317
g12
g9292
sbsg9297
g1
(g6
g7
g97
tp9318
Rp9319
(dp9320
g12
g9297
sbstp9321
Rp9322
(dp9323
g12
g9304
sbag1
(g6
g7
S'AND'
p9324
tp9325
Rp9326
(dp9327
g12
VOP
p9328
sbatp9329
Rp9330
(dp9331
g12
g9280
sbsVRetStart
p9332
g1
(g6
g7
g113
tp9333
Rp9334
(dp9335
g12
g9332
sbsVTranslationSet
p9336
g1
(g18
g19
(lp9337
tp9338
Rp9339
(dp9340
g12
g9336
sbstp9341
Rp9342
(dp9343
g12
VeSearchResult
p9344
sbag1
(g2
g3
(dp9345
VCount
p9346
g1
(g6
g7
S'67'
p9347
tp9348
Rp9349
(dp9350
g12
g9346
sbsVRetMax
p9351
g1
(g6
g7
S'20'
p9352
tp9353
Rp9354
(dp9355
g12
g9351
sbsVIdList
p9356
g1
(g18
g19
(lp9357
g1
(g6
g7
S'189165572'
p9358
tp9359
Rp9360
(dp9361
g12
VId
p9362
sbag1
(g6
g7
S'340034761'
p9363
tp9364
Rp9365
(dp9366
g12
g9362
sbag1
(g6
g7
S'320578793'
p9367
tp9368
Rp9369
(dp9370
g12
g9362
sbag1
(g6
g7
S'320578791'
p9371
tp9372
Rp9373
(dp9374
g12
g9362
sbag1
(g6
g7
S'320578789'
p9375
tp9376
Rp9377
(dp9378
g12
g9362
sbag1
(g6
g7
S'297525640'
p9379
tp9380
Rp9381
(dp9382
g12
g9362
sbag1
(g6
g7
S'297525638'
p9383
tp9384
Rp9385
(dp9386
g12
g9362
sbag1
(g6
g7
S'297525636'
p9387
tp9388
Rp9389
(dp9390
g12
g9362
sbag1
(g6
g7
S'297525634'
p9391
tp9392
Rp9393
(dp9394
g12
g9362
sbag1
(g6
g7
S'297525632'
p9395
tp9396
Rp9397
(dp9398
g12
g9362
sbag1
(g6
g7
S'297525630'
p9399
tp9400
Rp9401
(dp9402
g12
g9362
sbag1
(g6
g7
S'297525628'
p9403
tp9404
Rp9405
(dp9406
g12
g9362
sbag1
(g6
g7
S'297525626'
p9407
tp9408
Rp9409
(dp9410
g12
g9362
sbag1
(g6
g7
S'297525624'
p9411
tp9412
Rp9413
(dp9414
g12
g9362
sbag1
(g6
g7
S'297525622'
p9415
tp9416
Rp9417
(dp9418
g12
g9362
sbag1
(g6
g7
S'297525620'
p9419
tp9420
Rp9421
(dp9422
g12
g9362
sbag1
(g6
g7
S'291164100'
p9423
tp9424
Rp9425
(dp9426
g12
g9362
sbag1
(g6
g7
S'291164098'
p9427
tp9428
Rp9429
(dp9430
g12
g9362
sbag1
(g6
g7
S'291164096'
p9431
tp9432
Rp9433
(dp9434
g12
g9362
sbag1
(g6
g7
S'291164094'
p9435
tp9436
Rp9437
(dp9438
g12
g9362
sbatp9439
Rp9440
(dp9441
g12
g9356
sbsVQueryTranslation
p9442
g1
(g6
g7
S'Ocyurus chrysurus[PORG] AND COI[title]'
p9443
tp9444
Rp9445
(dp9446
g12
g9442
sbsVTranslationStack
p9447
g1
(g18
g19
(lp9448
g1
(g2
g3
(dp9449
g9346
g1
(g6
g7
S'320'
p9450
tp9451
Rp9452
(dp9453
g12
g9346
sbsVField
p9454
g1
(g6
g7
S'PORG'
p9455
tp9456
Rp9457
(dp9458
g12
g9454
sbsVTerm
p9459
g1
(g6
g7
S'Ocyurus chrysurus[PORG]'
p9460
tp9461
Rp9462
(dp9463
g12
g9459
sbsVExplode
p9464
g1
(g6
g7
g76
tp9465
Rp9466
(dp9467
g12
g9464
sbstp9468
Rp9469
(dp9470
g12
VTermSet
p9471
sbag1
(g2
g3
(dp9472
g9346
g1
(g6
g7
S'2155368'
p9473
tp9474
Rp9475
(dp9476
g12
g9346
sbsg9454
g1
(g6
g7
S'title'
p9477
tp9478
Rp9479
(dp9480
g12
g9454
sbsg9459
g1
(g6
g7
S'COI[title]'
p9481
tp9482
Rp9483
(dp9484
g12
g9459
sbsg9464
g1
(g6
g7
g97
tp9485
Rp9486
(dp9487
g12
g9464
sbstp9488
Rp9489
(dp9490
g12
g9471
sbag1
(g6
g7
S'AND'
p9491
tp9492
Rp9493
(dp9494
g12
VOP
p9495
sbatp9496
Rp9497
(dp9498
g12
g9447
sbsVRetStart
p9499
g1
(g6
g7
g113
tp9500
Rp9501
(dp9502
g12
g9499
sbsVTranslationSet
p9503
g1
(g18
g19
(lp9504
tp9505
Rp9506
(dp9507
g12
g9503
sbstp9508
Rp9509
(dp9510
g12
VeSearchResult
p9511
sbag1
(g2
g3
(dp9512
VCount
p9513
g1
(g6
g7
g113
tp9514
Rp9515
(dp9516
g12
g9513
sbsVRetMax
p9517
g1
(g6
g7
g113
tp9518
Rp9519
(dp9520
g12
g9517
sbsVIdList
p9521
g1
(g18
g19
(lp9522
tp9523
Rp9524
(dp9525
g12
g9521
sbsVQueryTranslation
p9526
g1
(g6
g7
S'Paracaesio caerulea[PORG] AND COI[title]'
p9527
tp9528
Rp9529
(dp9530
g12
g9526
sbsVTranslationStack
p9531
g1
(g18
g19
(lp9532
g1
(g2
g3
(dp9533
g9513
g1
(g6
g7
g1166
tp9534
Rp9535
(dp9536
g12
g9513
sbsVField
p9537
g1
(g6
g7
S'PORG'
p9538
tp9539
Rp9540
(dp9541
g12
g9537
sbsVTerm
p9542
g1
(g6
g7
S'Paracaesio caerulea[PORG]'
p9543
tp9544
Rp9545
(dp9546
g12
g9542
sbsVExplode
p9547
g1
(g6
g7
g76
tp9548
Rp9549
(dp9550
g12
g9547
sbstp9551
Rp9552
(dp9553
g12
VTermSet
p9554
sbag1
(g2
g3
(dp9555
g9513
g1
(g6
g7
S'2155368'
p9556
tp9557
Rp9558
(dp9559
g12
g9513
sbsg9537
g1
(g6
g7
S'title'
p9560
tp9561
Rp9562
(dp9563
g12
g9537
sbsg9542
g1
(g6
g7
S'COI[title]'
p9564
tp9565
Rp9566
(dp9567
g12
g9542
sbsg9547
g1
(g6
g7
g97
tp9568
Rp9569
(dp9570
g12
g9547
sbstp9571
Rp9572
(dp9573
g12
g9554
sbag1
(g6
g7
S'AND'
p9574
tp9575
Rp9576
(dp9577
g12
VOP
p9578
sbatp9579
Rp9580
(dp9581
g12
g9531
sbsVRetStart
p9582
g1
(g6
g7
g113
tp9583
Rp9584
(dp9585
g12
g9582
sbsVTranslationSet
p9586
g1
(g18
g19
(lp9587
tp9588
Rp9589
(dp9590
g12
g9586
sbstp9591
Rp9592
(dp9593
g12
VeSearchResult
p9594
sbag1
(g2
g3
(dp9595
VCount
p9596
g1
(g6
g7
g113
tp9597
Rp9598
(dp9599
g12
g9596
sbsVRetMax
p9600
g1
(g6
g7
g113
tp9601
Rp9602
(dp9603
g12
g9600
sbsVIdList
p9604
g1
(g18
g19
(lp9605
tp9606
Rp9607
(dp9608
g12
g9604
sbsVRetStart
p9609
g1
(g6
g7
g113
tp9610
Rp9611
(dp9612
g12
g9609
sbsVErrorList
p9613
g1
(g1335
g3
(dp9614
VFieldNotFound
p9615
(lp9616
sVPhraseNotFound
p9617
(lp9618
g1
(g6
g7
S'Paracaesio gonzalesi[PORG]'
p9619
tp9620
Rp9621
(dp9622
g12
VPhraseNotFound
p9623
sbastp9624
Rp9625
(dp9626
g12
g9613
sg1349
(lp9627
g9617
ag9615
asbsVTranslationSet
p9628
g1
(g18
g19
(lp9629
tp9630
Rp9631
(dp9632
g12
g9628
sbsVWarningList
p9633
g1
(g1335
g3
(dp9634
VOutputMessage
p9635
(lp9636
g1
(g6
g7
S'No items found.'
p9637
tp9638
Rp9639
(dp9640
g12
VOutputMessage
p9641
sbasVPhraseIgnored
p9642
(lp9643
sVQuotedPhraseNotFound
p9644
(lp9645
stp9646
Rp9647
(dp9648
g12
g9633
sg1349
(lp9649
g9642
ag9644
ag9635
asbsVQueryTranslation
p9650
g1
(g6
g7
S'Paracaesio gonzalesi[PORG] AND COI[title]'
p9651
tp9652
Rp9653
(dp9654
g12
g9650
sbstp9655
Rp9656
(dp9657
g12
VeSearchResult
p9658
sbag1
(g2
g3
(dp9659
VCount
p9660
g1
(g6
g7
g113
tp9661
Rp9662
(dp9663
g12
g9660
sbsVRetMax
p9664
g1
(g6
g7
g113
tp9665
Rp9666
(dp9667
g12
g9664
sbsVIdList
p9668
g1
(g18
g19
(lp9669
tp9670
Rp9671
(dp9672
g12
g9668
sbsVQueryTranslation
p9673
g1
(g6
g7
S'Paracaesio kusakarii[PORG] AND COI[title]'
p9674
tp9675
Rp9676
(dp9677
g12
g9673
sbsVTranslationStack
p9678
g1
(g18
g19
(lp9679
g1
(g2
g3
(dp9680
g9660
g1
(g6
g7
g1166
tp9681
Rp9682
(dp9683
g12
g9660
sbsVField
p9684
g1
(g6
g7
S'PORG'
p9685
tp9686
Rp9687
(dp9688
g12
g9684
sbsVTerm
p9689
g1
(g6
g7
S'Paracaesio kusakarii[PORG]'
p9690
tp9691
Rp9692
(dp9693
g12
g9689
sbsVExplode
p9694
g1
(g6
g7
g76
tp9695
Rp9696
(dp9697
g12
g9694
sbstp9698
Rp9699
(dp9700
g12
VTermSet
p9701
sbag1
(g2
g3
(dp9702
g9660
g1
(g6
g7
S'2155368'
p9703
tp9704
Rp9705
(dp9706
g12
g9660
sbsg9684
g1
(g6
g7
S'title'
p9707
tp9708
Rp9709
(dp9710
g12
g9684
sbsg9689
g1
(g6
g7
S'COI[title]'
p9711
tp9712
Rp9713
(dp9714
g12
g9689
sbsg9694
g1
(g6
g7
g97
tp9715
Rp9716
(dp9717
g12
g9694
sbstp9718
Rp9719
(dp9720
g12
g9701
sbag1
(g6
g7
S'AND'
p9721
tp9722
Rp9723
(dp9724
g12
VOP
p9725
sbatp9726
Rp9727
(dp9728
g12
g9678
sbsVRetStart
p9729
g1
(g6
g7
g113
tp9730
Rp9731
(dp9732
g12
g9729
sbsVTranslationSet
p9733
g1
(g18
g19
(lp9734
tp9735
Rp9736
(dp9737
g12
g9733
sbstp9738
Rp9739
(dp9740
g12
VeSearchResult
p9741
sbag1
(g2
g3
(dp9742
VCount
p9743
g1
(g6
g7
g113
tp9744
Rp9745
(dp9746
g12
g9743
sbsVRetMax
p9747
g1
(g6
g7
g113
tp9748
Rp9749
(dp9750
g12
g9747
sbsVIdList
p9751
g1
(g18
g19
(lp9752
tp9753
Rp9754
(dp9755
g12
g9751
sbsVRetStart
p9756
g1
(g6
g7
g113
tp9757
Rp9758
(dp9759
g12
g9756
sbsVErrorList
p9760
g1
(g1335
g3
(dp9761
VFieldNotFound
p9762
(lp9763
sVPhraseNotFound
p9764
(lp9765
g1
(g6
g7
S'Paracaesio paragrapsimodon[PORG]'
p9766
tp9767
Rp9768
(dp9769
g12
VPhraseNotFound
p9770
sbastp9771
Rp9772
(dp9773
g12
g9760
sg1349
(lp9774
g9764
ag9762
asbsVTranslationSet
p9775
g1
(g18
g19
(lp9776
tp9777
Rp9778
(dp9779
g12
g9775
sbsVWarningList
p9780
g1
(g1335
g3
(dp9781
VOutputMessage
p9782
(lp9783
g1
(g6
g7
S'No items found.'
p9784
tp9785
Rp9786
(dp9787
g12
VOutputMessage
p9788
sbasVPhraseIgnored
p9789
(lp9790
sVQuotedPhraseNotFound
p9791
(lp9792
stp9793
Rp9794
(dp9795
g12
g9780
sg1349
(lp9796
g9789
ag9791
ag9782
asbsVQueryTranslation
p9797
g1
(g6
g7
S'Paracaesio paragrapsimodon[PORG] AND COI[title]'
p9798
tp9799
Rp9800
(dp9801
g12
g9797
sbstp9802
Rp9803
(dp9804
g12
VeSearchResult
p9805
sbag1
(g2
g3
(dp9806
VCount
p9807
g1
(g6
g7
g128
tp9808
Rp9809
(dp9810
g12
g9807
sbsVRetMax
p9811
g1
(g6
g7
g128
tp9812
Rp9813
(dp9814
g12
g9811
sbsVIdList
p9815
g1
(g18
g19
(lp9816
g1
(g6
g7
S'328486574'
p9817
tp9818
Rp9819
(dp9820
g12
VId
p9821
sbag1
(g6
g7
S'328486572'
p9822
tp9823
Rp9824
(dp9825
g12
g9821
sbag1
(g6
g7
S'328486570'
p9826
tp9827
Rp9828
(dp9829
g12
g9821
sbag1
(g6
g7
S'322402325'
p9830
tp9831
Rp9832
(dp9833
g12
g9821
sbag1
(g6
g7
S'296836986'
p9834
tp9835
Rp9836
(dp9837
g12
g9821
sbag1
(g6
g7
S'296836892'
p9838
tp9839
Rp9840
(dp9841
g12
g9821
sbag1
(g6
g7
S'296747003'
p9842
tp9843
Rp9844
(dp9845
g12
g9821
sbag1
(g6
g7
S'296746949'
p9846
tp9847
Rp9848
(dp9849
g12
g9821
sbatp9850
Rp9851
(dp9852
g12
g9815
sbsVQueryTranslation
p9853
g1
(g6
g7
S'Paracaesio sordida[PORG] AND COI[title]'
p9854
tp9855
Rp9856
(dp9857
g12
g9853
sbsVTranslationStack
p9858
g1
(g18
g19
(lp9859
g1
(g2
g3
(dp9860
g9807
g1
(g6
g7
S'10'
p9861
tp9862
Rp9863
(dp9864
g12
g9807
sbsVField
p9865
g1
(g6
g7
S'PORG'
p9866
tp9867
Rp9868
(dp9869
g12
g9865
sbsVTerm
p9870
g1
(g6
g7
S'Paracaesio sordida[PORG]'
p9871
tp9872
Rp9873
(dp9874
g12
g9870
sbsVExplode
p9875
g1
(g6
g7
g76
tp9876
Rp9877
(dp9878
g12
g9875
sbstp9879
Rp9880
(dp9881
g12
VTermSet
p9882
sbag1
(g2
g3
(dp9883
g9807
g1
(g6
g7
S'2155368'
p9884
tp9885
Rp9886
(dp9887
g12
g9807
sbsg9865
g1
(g6
g7
S'title'
p9888
tp9889
Rp9890
(dp9891
g12
g9865
sbsg9870
g1
(g6
g7
S'COI[title]'
p9892
tp9893
Rp9894
(dp9895
g12
g9870
sbsg9875
g1
(g6
g7
g97
tp9896
Rp9897
(dp9898
g12
g9875
sbstp9899
Rp9900
(dp9901
g12
g9882
sbag1
(g6
g7
S'AND'
p9902
tp9903
Rp9904
(dp9905
g12
VOP
p9906
sbatp9907
Rp9908
(dp9909
g12
g9858
sbsVRetStart
p9910
g1
(g6
g7
g113
tp9911
Rp9912
(dp9913
g12
g9910
sbsVTranslationSet
p9914
g1
(g18
g19
(lp9915
tp9916
Rp9917
(dp9918
g12
g9914
sbstp9919
Rp9920
(dp9921
g12
VeSearchResult
p9922
sbag1
(g2
g3
(dp9923
VCount
p9924
g1
(g6
g7
g113
tp9925
Rp9926
(dp9927
g12
g9924
sbsVRetMax
p9928
g1
(g6
g7
g113
tp9929
Rp9930
(dp9931
g12
g9928
sbsVIdList
p9932
g1
(g18
g19
(lp9933
tp9934
Rp9935
(dp9936
g12
g9932
sbsVQueryTranslation
p9937
g1
(g6
g7
S'Paracaesio stonei[PORG] AND COI[title]'
p9938
tp9939
Rp9940
(dp9941
g12
g9937
sbsVTranslationStack
p9942
g1
(g18
g19
(lp9943
g1
(g2
g3
(dp9944
g9924
g1
(g6
g7
g1166
tp9945
Rp9946
(dp9947
g12
g9924
sbsVField
p9948
g1
(g6
g7
S'PORG'
p9949
tp9950
Rp9951
(dp9952
g12
g9948
sbsVTerm
p9953
g1
(g6
g7
S'Paracaesio stonei[PORG]'
p9954
tp9955
Rp9956
(dp9957
g12
g9953
sbsVExplode
p9958
g1
(g6
g7
g76
tp9959
Rp9960
(dp9961
g12
g9958
sbstp9962
Rp9963
(dp9964
g12
VTermSet
p9965
sbag1
(g2
g3
(dp9966
g9924
g1
(g6
g7
S'2155368'
p9967
tp9968
Rp9969
(dp9970
g12
g9924
sbsg9948
g1
(g6
g7
S'title'
p9971
tp9972
Rp9973
(dp9974
g12
g9948
sbsg9953
g1
(g6
g7
S'COI[title]'
p9975
tp9976
Rp9977
(dp9978
g12
g9953
sbsg9958
g1
(g6
g7
g97
tp9979
Rp9980
(dp9981
g12
g9958
sbstp9982
Rp9983
(dp9984
g12
g9965
sbag1
(g6
g7
S'AND'
p9985
tp9986
Rp9987
(dp9988
g12
VOP
p9989
sbatp9990
Rp9991
(dp9992
g12
g9942
sbsVRetStart
p9993
g1
(g6
g7
g113
tp9994
Rp9995
(dp9996
g12
g9993
sbsVTranslationSet
p9997
g1
(g18
g19
(lp9998
tp9999
Rp10000
(dp10001
g12
g9997
sbstp10002
Rp10003
(dp10004
g12
VeSearchResult
p10005
sbag1
(g2
g3
(dp10006
VCount
p10007
g1
(g6
g7
g113
tp10008
Rp10009
(dp10010
g12
g10007
sbsVRetMax
p10011
g1
(g6
g7
g113
tp10012
Rp10013
(dp10014
g12
g10011
sbsVIdList
p10015
g1
(g18
g19
(lp10016
tp10017
Rp10018
(dp10019
g12
g10015
sbsVRetStart
p10020
g1
(g6
g7
g113
tp10021
Rp10022
(dp10023
g12
g10020
sbsVErrorList
p10024
g1
(g1335
g3
(dp10025
VFieldNotFound
p10026
(lp10027
sVPhraseNotFound
p10028
(lp10029
g1
(g6
g7
S'Paracaesio waltervadi[PORG]'
p10030
tp10031
Rp10032
(dp10033
g12
VPhraseNotFound
p10034
sbastp10035
Rp10036
(dp10037
g12
g10024
sg1349
(lp10038
g10028
ag10026
asbsVTranslationSet
p10039
g1
(g18
g19
(lp10040
tp10041
Rp10042
(dp10043
g12
g10039
sbsVWarningList
p10044
g1
(g1335
g3
(dp10045
VOutputMessage
p10046
(lp10047
g1
(g6
g7
S'No items found.'
p10048
tp10049
Rp10050
(dp10051
g12
VOutputMessage
p10052
sbasVPhraseIgnored
p10053
(lp10054
sVQuotedPhraseNotFound
p10055
(lp10056
stp10057
Rp10058
(dp10059
g12
g10044
sg1349
(lp10060
g10053
ag10055
ag10046
asbsVQueryTranslation
p10061
g1
(g6
g7
S'Paracaesio waltervadi[PORG] AND COI[title]'
p10062
tp10063
Rp10064
(dp10065
g12
g10061
sbstp10066
Rp10067
(dp10068
g12
VeSearchResult
p10069
sbag1
(g2
g3
(dp10070
VCount
p10071
g1
(g6
g7
g8
tp10072
Rp10073
(dp10074
g12
g10071
sbsVRetMax
p10075
g1
(g6
g7
g8
tp10076
Rp10077
(dp10078
g12
g10075
sbsVIdList
p10079
g1
(g18
g19
(lp10080
g1
(g6
g7
S'328486580'
p10081
tp10082
Rp10083
(dp10084
g12
VId
p10085
sbag1
(g6
g7
S'328486578'
p10086
tp10087
Rp10088
(dp10089
g12
g10085
sbag1
(g6
g7
S'328486576'
p10090
tp10091
Rp10092
(dp10093
g12
g10085
sbag1
(g6
g7
S'554792165'
p10094
tp10095
Rp10096
(dp10097
g12
g10085
sbag1
(g6
g7
S'554792163'
p10098
tp10099
Rp10100
(dp10101
g12
g10085
sbag1
(g6
g7
S'554792161'
p10102
tp10103
Rp10104
(dp10105
g12
g10085
sbag1
(g6
g7
S'666877856'
p10106
tp10107
Rp10108
(dp10109
g12
g10085
sbatp10110
Rp10111
(dp10112
g12
g10079
sbsVQueryTranslation
p10113
g1
(g6
g7
S'Paracaesio xanthura[PORG] AND COI[title]'
p10114
tp10115
Rp10116
(dp10117
g12
g10113
sbsVTranslationStack
p10118
g1
(g18
g19
(lp10119
g1
(g2
g3
(dp10120
g10071
g1
(g6
g7
g246
tp10121
Rp10122
(dp10123
g12
g10071
sbsVField
p10124
g1
(g6
g7
S'PORG'
p10125
tp10126
Rp10127
(dp10128
g12
g10124
sbsVTerm
p10129
g1
(g6
g7
S'Paracaesio xanthura[PORG]'
p10130
tp10131
Rp10132
(dp10133
g12
g10129
sbsVExplode
p10134
g1
(g6
g7
g76
tp10135
Rp10136
(dp10137
g12
g10134
sbstp10138
Rp10139
(dp10140
g12
VTermSet
p10141
sbag1
(g2
g3
(dp10142
g10071
g1
(g6
g7
S'2155368'
p10143
tp10144
Rp10145
(dp10146
g12
g10071
sbsg10124
g1
(g6
g7
S'title'
p10147
tp10148
Rp10149
(dp10150
g12
g10124
sbsg10129
g1
(g6
g7
S'COI[title]'
p10151
tp10152
Rp10153
(dp10154
g12
g10129
sbsg10134
g1
(g6
g7
g97
tp10155
Rp10156
(dp10157
g12
g10134
sbstp10158
Rp10159
(dp10160
g12
g10141
sbag1
(g6
g7
S'AND'
p10161
tp10162
Rp10163
(dp10164
g12
VOP
p10165
sbatp10166
Rp10167
(dp10168
g12
g10118
sbsVRetStart
p10169
g1
(g6
g7
g113
tp10170
Rp10171
(dp10172
g12
g10169
sbsVTranslationSet
p10173
g1
(g18
g19
(lp10174
tp10175
Rp10176
(dp10177
g12
g10173
sbstp10178
Rp10179
(dp10180
g12
VeSearchResult
p10181
sbag1
(g2
g3
(dp10182
VCount
p10183
g1
(g6
g7
g113
tp10184
Rp10185
(dp10186
g12
g10183
sbsVRetMax
p10187
g1
(g6
g7
g113
tp10188
Rp10189
(dp10190
g12
g10187
sbsVIdList
p10191
g1
(g18
g19
(lp10192
tp10193
Rp10194
(dp10195
g12
g10191
sbsVRetStart
p10196
g1
(g6
g7
g113
tp10197
Rp10198
(dp10199
g12
g10196
sbsVErrorList
p10200
g1
(g1335
g3
(dp10201
VFieldNotFound
p10202
(lp10203
sVPhraseNotFound
p10204
(lp10205
g1
(g6
g7
S'Parapristipomoides squamimaxillaris[PORG]'
p10206
tp10207
Rp10208
(dp10209
g12
VPhraseNotFound
p10210
sbastp10211
Rp10212
(dp10213
g12
g10200
sg1349
(lp10214
g10204
ag10202
asbsVTranslationSet
p10215
g1
(g18
g19
(lp10216
tp10217
Rp10218
(dp10219
g12
g10215
sbsVWarningList
p10220
g1
(g1335
g3
(dp10221
VOutputMessage
p10222
(lp10223
g1
(g6
g7
S'No items found.'
p10224
tp10225
Rp10226
(dp10227
g12
VOutputMessage
p10228
sbasVPhraseIgnored
p10229
(lp10230
sVQuotedPhraseNotFound
p10231
(lp10232
stp10233
Rp10234
(dp10235
g12
g10220
sg1349
(lp10236
g10229
ag10231
ag10222
asbsVQueryTranslation
p10237
g1
(g6
g7
S'Parapristipomoides squamimaxillaris[PORG] AND COI[title]'
p10238
tp10239
Rp10240
(dp10241
g12
g10237
sbstp10242
Rp10243
(dp10244
g12
VeSearchResult
p10245
sbag1
(g2
g3
(dp10246
VCount
p10247
g1
(g6
g7
g490
tp10248
Rp10249
(dp10250
g12
g10247
sbsVRetMax
p10251
g1
(g6
g7
g490
tp10252
Rp10253
(dp10254
g12
g10251
sbsVIdList
p10255
g1
(g18
g19
(lp10256
g1
(g6
g7
S'912499379'
p10257
tp10258
Rp10259
(dp10260
g12
VId
p10261
sbag1
(g6
g7
S'912499377'
p10262
tp10263
Rp10264
(dp10265
g12
g10261
sbag1
(g6
g7
S'912499375'
p10266
tp10267
Rp10268
(dp10269
g12
g10261
sbatp10270
Rp10271
(dp10272
g12
g10255
sbsVQueryTranslation
p10273
g1
(g6
g7
S'Pinjalo lewisi[PORG] AND COI[title]'
p10274
tp10275
Rp10276
(dp10277
g12
g10273
sbsVTranslationStack
p10278
g1
(g18
g19
(lp10279
g1
(g2
g3
(dp10280
g10247
g1
(g6
g7
g3420
tp10281
Rp10282
(dp10283
g12
g10247
sbsVField
p10284
g1
(g6
g7
S'PORG'
p10285
tp10286
Rp10287
(dp10288
g12
g10284
sbsVTerm
p10289
g1
(g6
g7
S'Pinjalo lewisi[PORG]'
p10290
tp10291
Rp10292
(dp10293
g12
g10289
sbsVExplode
p10294
g1
(g6
g7
g76
tp10295
Rp10296
(dp10297
g12
g10294
sbstp10298
Rp10299
(dp10300
g12
VTermSet
p10301
sbag1
(g2
g3
(dp10302
g10247
g1
(g6
g7
S'2155368'
p10303
tp10304
Rp10305
(dp10306
g12
g10247
sbsg10284
g1
(g6
g7
S'title'
p10307
tp10308
Rp10309
(dp10310
g12
g10284
sbsg10289
g1
(g6
g7
S'COI[title]'
p10311
tp10312
Rp10313
(dp10314
g12
g10289
sbsg10294
g1
(g6
g7
g97
tp10315
Rp10316
(dp10317
g12
g10294
sbstp10318
Rp10319
(dp10320
g12
g10301
sbag1
(g6
g7
S'AND'
p10321
tp10322
Rp10323
(dp10324
g12
VOP
p10325
sbatp10326
Rp10327
(dp10328
g12
g10278
sbsVRetStart
p10329
g1
(g6
g7
g113
tp10330
Rp10331
(dp10332
g12
g10329
sbsVTranslationSet
p10333
g1
(g18
g19
(lp10334
tp10335
Rp10336
(dp10337
g12
g10333
sbstp10338
Rp10339
(dp10340
g12
VeSearchResult
p10341
sbag1
(g2
g3
(dp10342
VCount
p10343
g1
(g6
g7
g2109
tp10344
Rp10345
(dp10346
g12
g10343
sbsVRetMax
p10347
g1
(g6
g7
g2109
tp10348
Rp10349
(dp10350
g12
g10347
sbsVIdList
p10351
g1
(g18
g19
(lp10352
g1
(g6
g7
S'1075008846'
p10353
tp10354
Rp10355
(dp10356
g12
VId
p10357
sbag1
(g6
g7
S'194738625'
p10358
tp10359
Rp10360
(dp10361
g12
g10357
sbag1
(g6
g7
S'1044815199'
p10362
tp10363
Rp10364
(dp10365
g12
g10357
sbag1
(g6
g7
S'912499383'
p10366
tp10367
Rp10368
(dp10369
g12
g10357
sbag1
(g6
g7
S'912499381'
p10370
tp10371
Rp10372
(dp10373
g12
g10357
sbatp10374
Rp10375
(dp10376
g12
g10351
sbsVQueryTranslation
p10377
g1
(g6
g7
S'Pinjalo pinjalo[PORG] AND COI[title]'
p10378
tp10379
Rp10380
(dp10381
g12
g10377
sbsVTranslationStack
p10382
g1
(g18
g19
(lp10383
g1
(g2
g3
(dp10384
g10343
g1
(g6
g7
S'16'
p10385
tp10386
Rp10387
(dp10388
g12
g10343
sbsVField
p10389
g1
(g6
g7
S'PORG'
p10390
tp10391
Rp10392
(dp10393
g12
g10389
sbsVTerm
p10394
g1
(g6
g7
S'Pinjalo pinjalo[PORG]'
p10395
tp10396
Rp10397
(dp10398
g12
g10394
sbsVExplode
p10399
g1
(g6
g7
g76
tp10400
Rp10401
(dp10402
g12
g10399
sbstp10403
Rp10404
(dp10405
g12
VTermSet
p10406
sbag1
(g2
g3
(dp10407
g10343
g1
(g6
g7
S'2155368'
p10408
tp10409
Rp10410
(dp10411
g12
g10343
sbsg10389
g1
(g6
g7
S'title'
p10412
tp10413
Rp10414
(dp10415
g12
g10389
sbsg10394
g1
(g6
g7
S'COI[title]'
p10416
tp10417
Rp10418
(dp10419
g12
g10394
sbsg10399
g1
(g6
g7
g97
tp10420
Rp10421
(dp10422
g12
g10399
sbstp10423
Rp10424
(dp10425
g12
g10406
sbag1
(g6
g7
S'AND'
p10426
tp10427
Rp10428
(dp10429
g12
VOP
p10430
sbatp10431
Rp10432
(dp10433
g12
g10382
sbsVRetStart
p10434
g1
(g6
g7
g113
tp10435
Rp10436
(dp10437
g12
g10434
sbsVTranslationSet
p10438
g1
(g18
g19
(lp10439
tp10440
Rp10441
(dp10442
g12
g10438
sbstp10443
Rp10444
(dp10445
g12
VeSearchResult
p10446
sbag1
(g2
g3
(dp10447
VCount
p10448
g1
(g6
g7
g2109
tp10449
Rp10450
(dp10451
g12
g10448
sbsVRetMax
p10452
g1
(g6
g7
g2109
tp10453
Rp10454
(dp10455
g12
g10452
sbsVIdList
p10456
g1
(g18
g19
(lp10457
g1
(g6
g7
S'320578799'
p10458
tp10459
Rp10460
(dp10461
g12
VId
p10462
sbag1
(g6
g7
S'320578797'
p10463
tp10464
Rp10465
(dp10466
g12
g10462
sbag1
(g6
g7
S'320578795'
p10467
tp10468
Rp10469
(dp10470
g12
g10462
sbag1
(g6
g7
S'238551264'
p10471
tp10472
Rp10473
(dp10474
g12
g10462
sbag1
(g6
g7
S'584296654'
p10475
tp10476
Rp10477
(dp10478
g12
g10462
sbatp10479
Rp10480
(dp10481
g12
g10456
sbsVQueryTranslation
p10482
g1
(g6
g7
S'Pristipomoides aquilonaris[PORG] AND COI[title]'
p10483
tp10484
Rp10485
(dp10486
g12
g10482
sbsVTranslationStack
p10487
g1
(g18
g19
(lp10488
g1
(g2
g3
(dp10489
g10448
g1
(g6
g7
S'26'
p10490
tp10491
Rp10492
(dp10493
g12
g10448
sbsVField
p10494
g1
(g6
g7
S'PORG'
p10495
tp10496
Rp10497
(dp10498
g12
g10494
sbsVTerm
p10499
g1
(g6
g7
S'Pristipomoides aquilonaris[PORG]'
p10500
tp10501
Rp10502
(dp10503
g12
g10499
sbsVExplode
p10504
g1
(g6
g7
g76
tp10505
Rp10506
(dp10507
g12
g10504
sbstp10508
Rp10509
(dp10510
g12
VTermSet
p10511
sbag1
(g2
g3
(dp10512
g10448
g1
(g6
g7
S'2155368'
p10513
tp10514
Rp10515
(dp10516
g12
g10448
sbsg10494
g1
(g6
g7
S'title'
p10517
tp10518
Rp10519
(dp10520
g12
g10494
sbsg10499
g1
(g6
g7
S'COI[title]'
p10521
tp10522
Rp10523
(dp10524
g12
g10499
sbsg10504
g1
(g6
g7
g97
tp10525
Rp10526
(dp10527
g12
g10504
sbstp10528
Rp10529
(dp10530
g12
g10511
sbag1
(g6
g7
S'AND'
p10531
tp10532
Rp10533
(dp10534
g12
VOP
p10535
sbatp10536
Rp10537
(dp10538
g12
g10487
sbsVRetStart
p10539
g1
(g6
g7
g113
tp10540
Rp10541
(dp10542
g12
g10539
sbsVTranslationSet
p10543
g1
(g18
g19
(lp10544
tp10545
Rp10546
(dp10547
g12
g10543
sbstp10548
Rp10549
(dp10550
g12
VeSearchResult
p10551
sbag1
(g2
g3
(dp10552
VCount
p10553
g1
(g6
g7
g1166
tp10554
Rp10555
(dp10556
g12
g10553
sbsVRetMax
p10557
g1
(g6
g7
g1166
tp10558
Rp10559
(dp10560
g12
g10557
sbsVIdList
p10561
g1
(g18
g19
(lp10562
g1
(g6
g7
S'584296656'
p10563
tp10564
Rp10565
(dp10566
g12
VId
p10567
sbatp10568
Rp10569
(dp10570
g12
g10561
sbsVQueryTranslation
p10571
g1
(g6
g7
S'Pristipomoides argyrogrammicus[PORG] AND COI[title]'
p10572
tp10573
Rp10574
(dp10575
g12
g10571
sbsVTranslationStack
p10576
g1
(g18
g19
(lp10577
g1
(g2
g3
(dp10578
g10553
g1
(g6
g7
g368
tp10579
Rp10580
(dp10581
g12
g10553
sbsVField
p10582
g1
(g6
g7
S'PORG'
p10583
tp10584
Rp10585
(dp10586
g12
g10582
sbsVTerm
p10587
g1
(g6
g7
S'Pristipomoides argyrogrammicus[PORG]'
p10588
tp10589
Rp10590
(dp10591
g12
g10587
sbsVExplode
p10592
g1
(g6
g7
g76
tp10593
Rp10594
(dp10595
g12
g10592
sbstp10596
Rp10597
(dp10598
g12
VTermSet
p10599
sbag1
(g2
g3
(dp10600
g10553
g1
(g6
g7
S'2155368'
p10601
tp10602
Rp10603
(dp10604
g12
g10553
sbsg10582
g1
(g6
g7
S'title'
p10605
tp10606
Rp10607
(dp10608
g12
g10582
sbsg10587
g1
(g6
g7
S'COI[title]'
p10609
tp10610
Rp10611
(dp10612
g12
g10587
sbsg10592
g1
(g6
g7
g97
tp10613
Rp10614
(dp10615
g12
g10592
sbstp10616
Rp10617
(dp10618
g12
g10599
sbag1
(g6
g7
S'AND'
p10619
tp10620
Rp10621
(dp10622
g12
VOP
p10623
sbatp10624
Rp10625
(dp10626
g12
g10576
sbsVRetStart
p10627
g1
(g6
g7
g113
tp10628
Rp10629
(dp10630
g12
g10627
sbsVTranslationSet
p10631
g1
(g18
g19
(lp10632
tp10633
Rp10634
(dp10635
g12
g10631
sbstp10636
Rp10637
(dp10638
g12
VeSearchResult
p10639
sbag1
(g2
g3
(dp10640
VCount
p10641
g1
(g6
g7
g490
tp10642
Rp10643
(dp10644
g12
g10641
sbsVRetMax
p10645
g1
(g6
g7
g490
tp10646
Rp10647
(dp10648
g12
g10645
sbsVIdList
p10649
g1
(g18
g19
(lp10650
g1
(g6
g7
S'381279746'
p10651
tp10652
Rp10653
(dp10654
g12
VId
p10655
sbag1
(g6
g7
S'381279744'
p10656
tp10657
Rp10658
(dp10659
g12
g10655
sbag1
(g6
g7
S'381279742'
p10660
tp10661
Rp10662
(dp10663
g12
g10655
sbatp10664
Rp10665
(dp10666
g12
g10649
sbsVQueryTranslation
p10667
g1
(g6
g7
S'Pristipomoides auricilla[PORG] AND COI[title]'
p10668
tp10669
Rp10670
(dp10671
g12
g10667
sbsVTranslationStack
p10672
g1
(g18
g19
(lp10673
g1
(g2
g3
(dp10674
g10641
g1
(g6
g7
S'11'
p10675
tp10676
Rp10677
(dp10678
g12
g10641
sbsVField
p10679
g1
(g6
g7
S'PORG'
p10680
tp10681
Rp10682
(dp10683
g12
g10679
sbsVTerm
p10684
g1
(g6
g7
S'Pristipomoides auricilla[PORG]'
p10685
tp10686
Rp10687
(dp10688
g12
g10684
sbsVExplode
p10689
g1
(g6
g7
g76
tp10690
Rp10691
(dp10692
g12
g10689
sbstp10693
Rp10694
(dp10695
g12
VTermSet
p10696
sbag1
(g2
g3
(dp10697
g10641
g1
(g6
g7
S'2155368'
p10698
tp10699
Rp10700
(dp10701
g12
g10641
sbsg10679
g1
(g6
g7
S'title'
p10702
tp10703
Rp10704
(dp10705
g12
g10679
sbsg10684
g1
(g6
g7
S'COI[title]'
p10706
tp10707
Rp10708
(dp10709
g12
g10684
sbsg10689
g1
(g6
g7
g97
tp10710
Rp10711
(dp10712
g12
g10689
sbstp10713
Rp10714
(dp10715
g12
g10696
sbag1
(g6
g7
S'AND'
p10716
tp10717
Rp10718
(dp10719
g12
VOP
p10720
sbatp10721
Rp10722
(dp10723
g12
g10672
sbsVRetStart
p10724
g1
(g6
g7
g113
tp10725
Rp10726
(dp10727
g12
g10724
sbsVTranslationSet
p10728
g1
(g18
g19
(lp10729
tp10730
Rp10731
(dp10732
g12
g10728
sbstp10733
Rp10734
(dp10735
g12
VeSearchResult
p10736
sbag1
(g2
g3
(dp10737
VCount
p10738
g1
(g6
g7
S'15'
p10739
tp10740
Rp10741
(dp10742
g12
g10738
sbsVRetMax
p10743
g1
(g6
g7
S'15'
p10744
tp10745
Rp10746
(dp10747
g12
g10743
sbsVIdList
p10748
g1
(g18
g19
(lp10749
g1
(g6
g7
S'328487010'
p10750
tp10751
Rp10752
(dp10753
g12
VId
p10754
sbag1
(g6
g7
S'296746847'
p10755
tp10756
Rp10757
(dp10758
g12
g10754
sbag1
(g6
g7
S'296746845'
p10759
tp10760
Rp10761
(dp10762
g12
g10754
sbag1
(g6
g7
S'116608043'
p10763
tp10764
Rp10765
(dp10766
g12
g10754
sbag1
(g6
g7
S'116608041'
p10767
tp10768
Rp10769
(dp10770
g12
g10754
sbag1
(g6
g7
S'116608039'
p10771
tp10772
Rp10773
(dp10774
g12
g10754
sbag1
(g6
g7
S'116608037'
p10775
tp10776
Rp10777
(dp10778
g12
g10754
sbag1
(g6
g7
S'1041927178'
p10779
tp10780
Rp10781
(dp10782
g12
g10754
sbag1
(g6
g7
S'1020878021'
p10783
tp10784
Rp10785
(dp10786
g12
g10754
sbag1
(g6
g7
S'557849699'
p10787
tp10788
Rp10789
(dp10790
g12
g10754
sbag1
(g6
g7
S'381279750'
p10791
tp10792
Rp10793
(dp10794
g12
g10754
sbag1
(g6
g7
S'381279748'
p10795
tp10796
Rp10797
(dp10798
g12
g10754
sbag1
(g6
g7
S'116607849'
p10799
tp10800
Rp10801
(dp10802
g12
g10754
sbag1
(g6
g7
S'116607847'
p10803
tp10804
Rp10805
(dp10806
g12
g10754
sbag1
(g6
g7
S'116607845'
p10807
tp10808
Rp10809
(dp10810
g12
g10754
sbatp10811
Rp10812
(dp10813
g12
g10748
sbsVQueryTranslation
p10814
g1
(g6
g7
S'Pristipomoides filamentosus[PORG] AND COI[title]'
p10815
tp10816
Rp10817
(dp10818
g12
g10814
sbsVTranslationStack
p10819
g1
(g18
g19
(lp10820
g1
(g2
g3
(dp10821
g10738
g1
(g6
g7
S'184'
p10822
tp10823
Rp10824
(dp10825
g12
g10738
sbsVField
p10826
g1
(g6
g7
S'PORG'
p10827
tp10828
Rp10829
(dp10830
g12
g10826
sbsVTerm
p10831
g1
(g6
g7
S'Pristipomoides filamentosus[PORG]'
p10832
tp10833
Rp10834
(dp10835
g12
g10831
sbsVExplode
p10836
g1
(g6
g7
g76
tp10837
Rp10838
(dp10839
g12
g10836
sbstp10840
Rp10841
(dp10842
g12
VTermSet
p10843
sbag1
(g2
g3
(dp10844
g10738
g1
(g6
g7
S'2155368'
p10845
tp10846
Rp10847
(dp10848
g12
g10738
sbsg10826
g1
(g6
g7
S'title'
p10849
tp10850
Rp10851
(dp10852
g12
g10826
sbsg10831
g1
(g6
g7
S'COI[title]'
p10853
tp10854
Rp10855
(dp10856
g12
g10831
sbsg10836
g1
(g6
g7
g97
tp10857
Rp10858
(dp10859
g12
g10836
sbstp10860
Rp10861
(dp10862
g12
g10843
sbag1
(g6
g7
S'AND'
p10863
tp10864
Rp10865
(dp10866
g12
VOP
p10867
sbatp10868
Rp10869
(dp10870
g12
g10819
sbsVRetStart
p10871
g1
(g6
g7
g113
tp10872
Rp10873
(dp10874
g12
g10871
sbsVTranslationSet
p10875
g1
(g18
g19
(lp10876
tp10877
Rp10878
(dp10879
g12
g10875
sbstp10880
Rp10881
(dp10882
g12
VeSearchResult
p10883
sbag1
(g2
g3
(dp10884
VCount
p10885
g1
(g6
g7
g113
tp10886
Rp10887
(dp10888
g12
g10885
sbsVRetMax
p10889
g1
(g6
g7
g113
tp10890
Rp10891
(dp10892
g12
g10889
sbsVIdList
p10893
g1
(g18
g19
(lp10894
tp10895
Rp10896
(dp10897
g12
g10893
sbsVQueryTranslation
p10898
g1
(g6
g7
S'Pristipomoides flavipinnis[PORG] AND COI[title]'
p10899
tp10900
Rp10901
(dp10902
g12
g10898
sbsVTranslationStack
p10903
g1
(g18
g19
(lp10904
g1
(g2
g3
(dp10905
g10885
g1
(g6
g7
g1166
tp10906
Rp10907
(dp10908
g12
g10885
sbsVField
p10909
g1
(g6
g7
S'PORG'
p10910
tp10911
Rp10912
(dp10913
g12
g10909
sbsVTerm
p10914
g1
(g6
g7
S'Pristipomoides flavipinnis[PORG]'
p10915
tp10916
Rp10917
(dp10918
g12
g10914
sbsVExplode
p10919
g1
(g6
g7
g76
tp10920
Rp10921
(dp10922
g12
g10919
sbstp10923
Rp10924
(dp10925
g12
VTermSet
p10926
sbag1
(g2
g3
(dp10927
g10885
g1
(g6
g7
S'2155368'
p10928
tp10929
Rp10930
(dp10931
g12
g10885
sbsg10909
g1
(g6
g7
S'title'
p10932
tp10933
Rp10934
(dp10935
g12
g10909
sbsg10914
g1
(g6
g7
S'COI[title]'
p10936
tp10937
Rp10938
(dp10939
g12
g10914
sbsg10919
g1
(g6
g7
g97
tp10940
Rp10941
(dp10942
g12
g10919
sbstp10943
Rp10944
(dp10945
g12
g10926
sbag1
(g6
g7
S'AND'
p10946
tp10947
Rp10948
(dp10949
g12
VOP
p10950
sbatp10951
Rp10952
(dp10953
g12
g10903
sbsVRetStart
p10954
g1
(g6
g7
g113
tp10955
Rp10956
(dp10957
g12
g10954
sbsVTranslationSet
p10958
g1
(g18
g19
(lp10959
tp10960
Rp10961
(dp10962
g12
g10958
sbstp10963
Rp10964
(dp10965
g12
VeSearchResult
p10966
sbag1
(g2
g3
(dp10967
VCount
p10968
g1
(g6
g7
g113
tp10969
Rp10970
(dp10971
g12
g10968
sbsVRetMax
p10972
g1
(g6
g7
g113
tp10973
Rp10974
(dp10975
g12
g10972
sbsVIdList
p10976
g1
(g18
g19
(lp10977
tp10978
Rp10979
(dp10980
g12
g10976
sbsVRetStart
p10981
g1
(g6
g7
g113
tp10982
Rp10983
(dp10984
g12
g10981
sbsVErrorList
p10985
g1
(g1335
g3
(dp10986
VFieldNotFound
p10987
(lp10988
sVPhraseNotFound
p10989
(lp10990
g1
(g6
g7
S'Pristipomoides freemani[PORG]'
p10991
tp10992
Rp10993
(dp10994
g12
VPhraseNotFound
p10995
sbastp10996
Rp10997
(dp10998
g12
g10985
sg1349
(lp10999
g10989
ag10987
asbsVTranslationSet
p11000
g1
(g18
g19
(lp11001
tp11002
Rp11003
(dp11004
g12
g11000
sbsVWarningList
p11005
g1
(g1335
g3
(dp11006
VOutputMessage
p11007
(lp11008
g1
(g6
g7
S'No items found.'
p11009
tp11010
Rp11011
(dp11012
g12
VOutputMessage
p11013
sbasVPhraseIgnored
p11014
(lp11015
sVQuotedPhraseNotFound
p11016
(lp11017
stp11018
Rp11019
(dp11020
g12
g11005
sg1349
(lp11021
g11014
ag11016
ag11007
asbsVQueryTranslation
p11022
g1
(g6
g7
S'Pristipomoides freemani[PORG] AND COI[title]'
p11023
tp11024
Rp11025
(dp11026
g12
g11022
sbstp11027
Rp11028
(dp11029
g12
VeSearchResult
p11030
sbag1
(g2
g3
(dp11031
VCount
p11032
g1
(g6
g7
g113
tp11033
Rp11034
(dp11035
g12
g11032
sbsVRetMax
p11036
g1
(g6
g7
g113
tp11037
Rp11038
(dp11039
g12
g11036
sbsVIdList
p11040
g1
(g18
g19
(lp11041
tp11042
Rp11043
(dp11044
g12
g11040
sbsVRetStart
p11045
g1
(g6
g7
g113
tp11046
Rp11047
(dp11048
g12
g11045
sbsVErrorList
p11049
g1
(g1335
g3
(dp11050
VFieldNotFound
p11051
(lp11052
sVPhraseNotFound
p11053
(lp11054
g1
(g6
g7
S'Pristipomoides macrophthalmus[PORG]'
p11055
tp11056
Rp11057
(dp11058
g12
VPhraseNotFound
p11059
sbastp11060
Rp11061
(dp11062
g12
g11049
sg1349
(lp11063
g11053
ag11051
asbsVTranslationSet
p11064
g1
(g18
g19
(lp11065
tp11066
Rp11067
(dp11068
g12
g11064
sbsVWarningList
p11069
g1
(g1335
g3
(dp11070
VOutputMessage
p11071
(lp11072
g1
(g6
g7
S'No items found.'
p11073
tp11074
Rp11075
(dp11076
g12
VOutputMessage
p11077
sbasVPhraseIgnored
p11078
(lp11079
sVQuotedPhraseNotFound
p11080
(lp11081
stp11082
Rp11083
(dp11084
g12
g11069
sg1349
(lp11085
g11078
ag11080
ag11071
asbsVQueryTranslation
p11086
g1
(g6
g7
S'Pristipomoides macrophthalmus[PORG] AND COI[title]'
p11087
tp11088
Rp11089
(dp11090
g12
g11086
sbstp11091
Rp11092
(dp11093
g12
VeSearchResult
p11094
sbag1
(g2
g3
(dp11095
VCount
p11096
g1
(g6
g7
S'14'
p11097
tp11098
Rp11099
(dp11100
g12
g11096
sbsVRetMax
p11101
g1
(g6
g7
S'14'
p11102
tp11103
Rp11104
(dp11105
g12
g11101
sbsVIdList
p11106
g1
(g18
g19
(lp11107
g1
(g6
g7
S'227937144'
p11108
tp11109
Rp11110
(dp11111
g12
VId
p11112
sbag1
(g6
g7
S'227937076'
p11113
tp11114
Rp11115
(dp11116
g12
g11112
sbag1
(g6
g7
S'227937074'
p11117
tp11118
Rp11119
(dp11120
g12
g11112
sbag1
(g6
g7
S'227937072'
p11121
tp11122
Rp11123
(dp11124
g12
g11112
sbag1
(g6
g7
S'557955566'
p11125
tp11126
Rp11127
(dp11128
g12
g11112
sbag1
(g6
g7
S'531992208'
p11129
tp11130
Rp11131
(dp11132
g12
g11112
sbag1
(g6
g7
S'345809141'
p11133
tp11134
Rp11135
(dp11136
g12
g11112
sbag1
(g6
g7
S'345809139'
p11137
tp11138
Rp11139
(dp11140
g12
g11112
sbag1
(g6
g7
S'345809137'
p11141
tp11142
Rp11143
(dp11144
g12
g11112
sbag1
(g6
g7
S'345809135'
p11145
tp11146
Rp11147
(dp11148
g12
g11112
sbag1
(g6
g7
S'345809133'
p11149
tp11150
Rp11151
(dp11152
g12
g11112
sbag1
(g6
g7
S'345809131'
p11153
tp11154
Rp11155
(dp11156
g12
g11112
sbag1
(g6
g7
S'345809129'
p11157
tp11158
Rp11159
(dp11160
g12
g11112
sbag1
(g6
g7
S'148374079'
p11161
tp11162
Rp11163
(dp11164
g12
g11112
sbatp11165
Rp11166
(dp11167
g12
g11106
sbsVQueryTranslation
p11168
g1
(g6
g7
S'Pristipomoides multidens[PORG] AND COI[title]'
p11169
tp11170
Rp11171
(dp11172
g12
g11168
sbsVTranslationStack
p11173
g1
(g18
g19
(lp11174
g1
(g2
g3
(dp11175
g11096
g1
(g6
g7
S'93'
p11176
tp11177
Rp11178
(dp11179
g12
g11096
sbsVField
p11180
g1
(g6
g7
S'PORG'
p11181
tp11182
Rp11183
(dp11184
g12
g11180
sbsVTerm
p11185
g1
(g6
g7
S'Pristipomoides multidens[PORG]'
p11186
tp11187
Rp11188
(dp11189
g12
g11185
sbsVExplode
p11190
g1
(g6
g7
g76
tp11191
Rp11192
(dp11193
g12
g11190
sbstp11194
Rp11195
(dp11196
g12
VTermSet
p11197
sbag1
(g2
g3
(dp11198
g11096
g1
(g6
g7
S'2155368'
p11199
tp11200
Rp11201
(dp11202
g12
g11096
sbsg11180
g1
(g6
g7
S'title'
p11203
tp11204
Rp11205
(dp11206
g12
g11180
sbsg11185
g1
(g6
g7
S'COI[title]'
p11207
tp11208
Rp11209
(dp11210
g12
g11185
sbsg11190
g1
(g6
g7
g97
tp11211
Rp11212
(dp11213
g12
g11190
sbstp11214
Rp11215
(dp11216
g12
g11197
sbag1
(g6
g7
S'AND'
p11217
tp11218
Rp11219
(dp11220
g12
VOP
p11221
sbatp11222
Rp11223
(dp11224
g12
g11173
sbsVRetStart
p11225
g1
(g6
g7
g113
tp11226
Rp11227
(dp11228
g12
g11225
sbsVTranslationSet
p11229
g1
(g18
g19
(lp11230
tp11231
Rp11232
(dp11233
g12
g11229
sbstp11234
Rp11235
(dp11236
g12
VeSearchResult
p11237
sbag1
(g2
g3
(dp11238
VCount
p11239
g1
(g6
g7
g2109
tp11240
Rp11241
(dp11242
g12
g11239
sbsVRetMax
p11243
g1
(g6
g7
g2109
tp11244
Rp11245
(dp11246
g12
g11243
sbsVIdList
p11247
g1
(g18
g19
(lp11248
g1
(g6
g7
S'322402263'
p11249
tp11250
Rp11251
(dp11252
g12
VId
p11253
sbag1
(g6
g7
S'296746905'
p11254
tp11255
Rp11256
(dp11257
g12
g11253
sbag1
(g6
g7
S'296746887'
p11258
tp11259
Rp11260
(dp11261
g12
g11253
sbag1
(g6
g7
S'296746881'
p11262
tp11263
Rp11264
(dp11265
g12
g11253
sbag1
(g6
g7
S'148374081'
p11266
tp11267
Rp11268
(dp11269
g12
g11253
sbatp11270
Rp11271
(dp11272
g12
g11247
sbsVQueryTranslation
p11273
g1
(g6
g7
S'Pristipomoides sieboldii[PORG] AND COI[title]'
p11274
tp11275
Rp11276
(dp11277
g12
g11273
sbsVTranslationStack
p11278
g1
(g18
g19
(lp11279
g1
(g2
g3
(dp11280
g11239
g1
(g6
g7
g8
tp11281
Rp11282
(dp11283
g12
g11239
sbsVField
p11284
g1
(g6
g7
S'PORG'
p11285
tp11286
Rp11287
(dp11288
g12
g11284
sbsVTerm
p11289
g1
(g6
g7
S'Pristipomoides sieboldii[PORG]'
p11290
tp11291
Rp11292
(dp11293
g12
g11289
sbsVExplode
p11294
g1
(g6
g7
g76
tp11295
Rp11296
(dp11297
g12
g11294
sbstp11298
Rp11299
(dp11300
g12
VTermSet
p11301
sbag1
(g2
g3
(dp11302
g11239
g1
(g6
g7
S'2155368'
p11303
tp11304
Rp11305
(dp11306
g12
g11239
sbsg11284
g1
(g6
g7
S'title'
p11307
tp11308
Rp11309
(dp11310
g12
g11284
sbsg11289
g1
(g6
g7
S'COI[title]'
p11311
tp11312
Rp11313
(dp11314
g12
g11289
sbsg11294
g1
(g6
g7
g97
tp11315
Rp11316
(dp11317
g12
g11294
sbstp11318
Rp11319
(dp11320
g12
g11301
sbag1
(g6
g7
S'AND'
p11321
tp11322
Rp11323
(dp11324
g12
VOP
p11325
sbatp11326
Rp11327
(dp11328
g12
g11278
sbsVRetStart
p11329
g1
(g6
g7
g113
tp11330
Rp11331
(dp11332
g12
g11329
sbsVTranslationSet
p11333
g1
(g18
g19
(lp11334
tp11335
Rp11336
(dp11337
g12
g11333
sbstp11338
Rp11339
(dp11340
g12
VeSearchResult
p11341
sbag1
(g2
g3
(dp11342
VCount
p11343
g1
(g6
g7
g6021
tp11344
Rp11345
(dp11346
g12
g11343
sbsVRetMax
p11347
g1
(g6
g7
g6021
tp11348
Rp11349
(dp11350
g12
g11347
sbsVIdList
p11351
g1
(g18
g19
(lp11352
g1
(g6
g7
S'557955568'
p11353
tp11354
Rp11355
(dp11356
g12
VId
p11357
sbag1
(g6
g7
S'148374083'
p11358
tp11359
Rp11360
(dp11361
g12
g11357
sbatp11362
Rp11363
(dp11364
g12
g11351
sbsVQueryTranslation
p11365
g1
(g6
g7
S'Pristipomoides typus[PORG] AND COI[title]'
p11366
tp11367
Rp11368
(dp11369
g12
g11365
sbsVTranslationStack
p11370
g1
(g18
g19
(lp11371
g1
(g2
g3
(dp11372
g11343
g1
(g6
g7
g368
tp11373
Rp11374
(dp11375
g12
g11343
sbsVField
p11376
g1
(g6
g7
S'PORG'
p11377
tp11378
Rp11379
(dp11380
g12
g11376
sbsVTerm
p11381
g1
(g6
g7
S'Pristipomoides typus[PORG]'
p11382
tp11383
Rp11384
(dp11385
g12
g11381
sbsVExplode
p11386
g1
(g6
g7
g76
tp11387
Rp11388
(dp11389
g12
g11386
sbstp11390
Rp11391
(dp11392
g12
VTermSet
p11393
sbag1
(g2
g3
(dp11394
g11343
g1
(g6
g7
S'2155368'
p11395
tp11396
Rp11397
(dp11398
g12
g11343
sbsg11376
g1
(g6
g7
S'title'
p11399
tp11400
Rp11401
(dp11402
g12
g11376
sbsg11381
g1
(g6
g7
S'COI[title]'
p11403
tp11404
Rp11405
(dp11406
g12
g11381
sbsg11386
g1
(g6
g7
g97
tp11407
Rp11408
(dp11409
g12
g11386
sbstp11410
Rp11411
(dp11412
g12
g11393
sbag1
(g6
g7
S'AND'
p11413
tp11414
Rp11415
(dp11416
g12
VOP
p11417
sbatp11418
Rp11419
(dp11420
g12
g11370
sbsVRetStart
p11421
g1
(g6
g7
g113
tp11422
Rp11423
(dp11424
g12
g11421
sbsVTranslationSet
p11425
g1
(g18
g19
(lp11426
tp11427
Rp11428
(dp11429
g12
g11425
sbstp11430
Rp11431
(dp11432
g12
VeSearchResult
p11433
sbag1
(g2
g3
(dp11434
VCount
p11435
g1
(g6
g7
g113
tp11436
Rp11437
(dp11438
g12
g11435
sbsVRetMax
p11439
g1
(g6
g7
g113
tp11440
Rp11441
(dp11442
g12
g11439
sbsVIdList
p11443
g1
(g18
g19
(lp11444
tp11445
Rp11446
(dp11447
g12
g11443
sbsVQueryTranslation
p11448
g1
(g6
g7
S'Pristipomoides zonatus[PORG] AND COI[title]'
p11449
tp11450
Rp11451
(dp11452
g12
g11448
sbsVTranslationStack
p11453
g1
(g18
g19
(lp11454
g1
(g2
g3
(dp11455
g11435
g1
(g6
g7
g1166
tp11456
Rp11457
(dp11458
g12
g11435
sbsVField
p11459
g1
(g6
g7
S'PORG'
p11460
tp11461
Rp11462
(dp11463
g12
g11459
sbsVTerm
p11464
g1
(g6
g7
S'Pristipomoides zonatus[PORG]'
p11465
tp11466
Rp11467
(dp11468
g12
g11464
sbsVExplode
p11469
g1
(g6
g7
g76
tp11470
Rp11471
(dp11472
g12
g11469
sbstp11473
Rp11474
(dp11475
g12
VTermSet
p11476
sbag1
(g2
g3
(dp11477
g11435
g1
(g6
g7
S'2155368'
p11478
tp11479
Rp11480
(dp11481
g12
g11435
sbsg11459
g1
(g6
g7
S'title'
p11482
tp11483
Rp11484
(dp11485
g12
g11459
sbsg11464
g1
(g6
g7
S'COI[title]'
p11486
tp11487
Rp11488
(dp11489
g12
g11464
sbsg11469
g1
(g6
g7
g97
tp11490
Rp11491
(dp11492
g12
g11469
sbstp11493
Rp11494
(dp11495
g12
g11476
sbag1
(g6
g7
S'AND'
p11496
tp11497
Rp11498
(dp11499
g12
VOP
p11500
sbatp11501
Rp11502
(dp11503
g12
g11453
sbsVRetStart
p11504
g1
(g6
g7
g113
tp11505
Rp11506
(dp11507
g12
g11504
sbsVTranslationSet
p11508
g1
(g18
g19
(lp11509
tp11510
Rp11511
(dp11512
g12
g11508
sbstp11513
Rp11514
(dp11515
g12
VeSearchResult
p11516
sbag1
(g2
g3
(dp11517
VCount
p11518
g1
(g6
g7
g1166
tp11519
Rp11520
(dp11521
g12
g11518
sbsVRetMax
p11522
g1
(g6
g7
g1166
tp11523
Rp11524
(dp11525
g12
g11522
sbsVIdList
p11526
g1
(g18
g19
(lp11527
g1
(g6
g7
S'923479828'
p11528
tp11529
Rp11530
(dp11531
g12
VId
p11532
sbatp11533
Rp11534
(dp11535
g12
g11526
sbsVQueryTranslation
p11536
g1
(g6
g7
S'Randallichthys filamentosus[PORG] AND COI[title]'
p11537
tp11538
Rp11539
(dp11540
g12
g11536
sbsVTranslationStack
p11541
g1
(g18
g19
(lp11542
g1
(g2
g3
(dp11543
g11518
g1
(g6
g7
g6021
tp11544
Rp11545
(dp11546
g12
g11518
sbsVField
p11547
g1
(g6
g7
S'PORG'
p11548
tp11549
Rp11550
(dp11551
g12
g11547
sbsVTerm
p11552
g1
(g6
g7
S'Randallichthys filamentosus[PORG]'
p11553
tp11554
Rp11555
(dp11556
g12
g11552
sbsVExplode
p11557
g1
(g6
g7
g76
tp11558
Rp11559
(dp11560
g12
g11557
sbstp11561
Rp11562
(dp11563
g12
VTermSet
p11564
sbag1
(g2
g3
(dp11565
g11518
g1
(g6
g7
S'2155368'
p11566
tp11567
Rp11568
(dp11569
g12
g11518
sbsg11547
g1
(g6
g7
S'title'
p11570
tp11571
Rp11572
(dp11573
g12
g11547
sbsg11552
g1
(g6
g7
S'COI[title]'
p11574
tp11575
Rp11576
(dp11577
g12
g11552
sbsg11557
g1
(g6
g7
g97
tp11578
Rp11579
(dp11580
g12
g11557
sbstp11581
Rp11582
(dp11583
g12
g11564
sbag1
(g6
g7
S'AND'
p11584
tp11585
Rp11586
(dp11587
g12
VOP
p11588
sbatp11589
Rp11590
(dp11591
g12
g11541
sbsVRetStart
p11592
g1
(g6
g7
g113
tp11593
Rp11594
(dp11595
g12
g11592
sbsVTranslationSet
p11596
g1
(g18
g19
(lp11597
tp11598
Rp11599
(dp11600
g12
g11596
sbstp11601
Rp11602
(dp11603
g12
VeSearchResult
p11604
sbag1
(g2
g3
(dp11605
VCount
p11606
g1
(g6
g7
S'19'
p11607
tp11608
Rp11609
(dp11610
g12
g11606
sbsVRetMax
p11611
g1
(g6
g7
S'19'
p11612
tp11613
Rp11614
(dp11615
g12
g11611
sbsVIdList
p11616
g1
(g18
g19
(lp11617
g1
(g6
g7
S'340034771'
p11618
tp11619
Rp11620
(dp11621
g12
VId
p11622
sbag1
(g6
g7
S'320578805'
p11623
tp11624
Rp11625
(dp11626
g12
g11622
sbag1
(g6
g7
S'320578803'
p11627
tp11628
Rp11629
(dp11630
g12
g11622
sbag1
(g6
g7
S'320578801'
p11631
tp11632
Rp11633
(dp11634
g12
g11622
sbag1
(g6
g7
S'554521412'
p11635
tp11636
Rp11637
(dp11638
g12
g11622
sbag1
(g6
g7
S'554521410'
p11639
tp11640
Rp11641
(dp11642
g12
g11622
sbag1
(g6
g7
S'558500680'
p11643
tp11644
Rp11645
(dp11646
g12
g11622
sbag1
(g6
g7
S'558500678'
p11647
tp11648
Rp11649
(dp11650
g12
g11622
sbag1
(g6
g7
S'558500676'
p11651
tp11652
Rp11653
(dp11654
g12
g11622
sbag1
(g6
g7
S'393716811'
p11655
tp11656
Rp11657
(dp11658
g12
g11622
sbag1
(g6
g7
S'383388671'
p11659
tp11660
Rp11661
(dp11662
g12
g11622
sbag1
(g6
g7
S'383388669'
p11663
tp11664
Rp11665
(dp11666
g12
g11622
sbag1
(g6
g7
S'383388667'
p11667
tp11668
Rp11669
(dp11670
g12
g11622
sbag1
(g6
g7
S'393006023'
p11671
tp11672
Rp11673
(dp11674
g12
g11622
sbag1
(g6
g7
S'393006021'
p11675
tp11676
Rp11677
(dp11678
g12
g11622
sbag1
(g6
g7
S'306993048'
p11679
tp11680
Rp11681
(dp11682
g12
g11622
sbag1
(g6
g7
S'306993046'
p11683
tp11684
Rp11685
(dp11686
g12
g11622
sbag1
(g6
g7
S'306993044'
p11687
tp11688
Rp11689
(dp11690
g12
g11622
sbag1
(g6
g7
S'306993042'
p11691
tp11692
Rp11693
(dp11694
g12
g11622
sbatp11695
Rp11696
(dp11697
g12
g11616
sbsVQueryTranslation
p11698
g1
(g6
g7
S'Rhomboplites aurorubens[PORG] AND COI[title]'
p11699
tp11700
Rp11701
(dp11702
g12
g11698
sbsVTranslationStack
p11703
g1
(g18
g19
(lp11704
g1
(g2
g3
(dp11705
g11606
g1
(g6
g7
S'60'
p11706
tp11707
Rp11708
(dp11709
g12
g11606
sbsVField
p11710
g1
(g6
g7
S'PORG'
p11711
tp11712
Rp11713
(dp11714
g12
g11710
sbsVTerm
p11715
g1
(g6
g7
S'Rhomboplites aurorubens[PORG]'
p11716
tp11717
Rp11718
(dp11719
g12
g11715
sbsVExplode
p11720
g1
(g6
g7
g76
tp11721
Rp11722
(dp11723
g12
g11720
sbstp11724
Rp11725
(dp11726
g12
VTermSet
p11727
sbag1
(g2
g3
(dp11728
g11606
g1
(g6
g7
S'2155368'
p11729
tp11730
Rp11731
(dp11732
g12
g11606
sbsg11710
g1
(g6
g7
S'title'
p11733
tp11734
Rp11735
(dp11736
g12
g11710
sbsg11715
g1
(g6
g7
S'COI[title]'
p11737
tp11738
Rp11739
(dp11740
g12
g11715
sbsg11720
g1
(g6
g7
g97
tp11741
Rp11742
(dp11743
g12
g11720
sbstp11744
Rp11745
(dp11746
g12
g11727
sbag1
(g6
g7
S'AND'
p11747
tp11748
Rp11749
(dp11750
g12
VOP
p11751
sbatp11752
Rp11753
(dp11754
g12
g11703
sbsVRetStart
p11755
g1
(g6
g7
g113
tp11756
Rp11757
(dp11758
g12
g11755
sbsVTranslationSet
p11759
g1
(g18
g19
(lp11760
tp11761
Rp11762
(dp11763
g12
g11759
sbstp11764
Rp11765
(dp11766
g12
VeSearchResult
p11767
sbag1
(g2
g3
(dp11768
VCount
p11769
g1
(g6
g7
g490
tp11770
Rp11771
(dp11772
g12
g11769
sbsVRetMax
p11773
g1
(g6
g7
g490
tp11774
Rp11775
(dp11776
g12
g11773
sbsVIdList
p11777
g1
(g18
g19
(lp11778
g1
(g6
g7
S'223369188'
p11779
tp11780
Rp11781
(dp11782
g12
VId
p11783
sbag1
(g6
g7
S'223369186'
p11784
tp11785
Rp11786
(dp11787
g12
g11783
sbag1
(g6
g7
S'223369184'
p11788
tp11789
Rp11790
(dp11791
g12
g11783
sbatp11792
Rp11793
(dp11794
g12
g11777
sbsVQueryTranslation
p11795
g1
(g6
g7
S'Symphorichthys spilurus[PORG] AND COI[title]'
p11796
tp11797
Rp11798
(dp11799
g12
g11795
sbsVTranslationStack
p11800
g1
(g18
g19
(lp11801
g1
(g2
g3
(dp11802
g11769
g1
(g6
g7
g2109
tp11803
Rp11804
(dp11805
g12
g11769
sbsVField
p11806
g1
(g6
g7
S'PORG'
p11807
tp11808
Rp11809
(dp11810
g12
g11806
sbsVTerm
p11811
g1
(g6
g7
S'Symphorichthys spilurus[PORG]'
p11812
tp11813
Rp11814
(dp11815
g12
g11811
sbsVExplode
p11816
g1
(g6
g7
g76
tp11817
Rp11818
(dp11819
g12
g11816
sbstp11820
Rp11821
(dp11822
g12
VTermSet
p11823
sbag1
(g2
g3
(dp11824
g11769
g1
(g6
g7
S'2155368'
p11825
tp11826
Rp11827
(dp11828
g12
g11769
sbsg11806
g1
(g6
g7
S'title'
p11829
tp11830
Rp11831
(dp11832
g12
g11806
sbsg11811
g1
(g6
g7
S'COI[title]'
p11833
tp11834
Rp11835
(dp11836
g12
g11811
sbsg11816
g1
(g6
g7
g97
tp11837
Rp11838
(dp11839
g12
g11816
sbstp11840
Rp11841
(dp11842
g12
g11823
sbag1
(g6
g7
S'AND'
p11843
tp11844
Rp11845
(dp11846
g12
VOP
p11847
sbatp11848
Rp11849
(dp11850
g12
g11800
sbsVRetStart
p11851
g1
(g6
g7
g113
tp11852
Rp11853
(dp11854
g12
g11851
sbsVTranslationSet
p11855
g1
(g18
g19
(lp11856
tp11857
Rp11858
(dp11859
g12
g11855
sbstp11860
Rp11861
(dp11862
g12
VeSearchResult
p11863
sbag1
(g2
g3
(dp11864
VCount
p11865
g1
(g6
g7
g1166
tp11866
Rp11867
(dp11868
g12
g11865
sbsVRetMax
p11869
g1
(g6
g7
g1166
tp11870
Rp11871
(dp11872
g12
g11869
sbsVIdList
p11873
g1
(g18
g19
(lp11874
g1
(g6
g7
S'429128448'
p11875
tp11876
Rp11877
(dp11878
g12
VId
p11879
sbatp11880
Rp11881
(dp11882
g12
g11873
sbsVQueryTranslation
p11883
g1
(g6
g7
S'Symphorus nematophorus[PORG] AND COI[title]'
p11884
tp11885
Rp11886
(dp11887
g12
g11883
sbsVTranslationStack
p11888
g1
(g18
g19
(lp11889
g1
(g2
g3
(dp11890
g11865
g1
(g6
g7
g368
tp11891
Rp11892
(dp11893
g12
g11865
sbsVField
p11894
g1
(g6
g7
S'PORG'
p11895
tp11896
Rp11897
(dp11898
g12
g11894
sbsVTerm
p11899
g1
(g6
g7
S'Symphorus nematophorus[PORG]'
p11900
tp11901
Rp11902
(dp11903
g12
g11899
sbsVExplode
p11904
g1
(g6
g7
g76
tp11905
Rp11906
(dp11907
g12
g11904
sbstp11908
Rp11909
(dp11910
g12
VTermSet
p11911
sbag1
(g2
g3
(dp11912
g11865
g1
(g6
g7
S'2155368'
p11913
tp11914
Rp11915
(dp11916
g12
g11865
sbsg11894
g1
(g6
g7
S'title'
p11917
tp11918
Rp11919
(dp11920
g12
g11894
sbsg11899
g1
(g6
g7
S'COI[title]'
p11921
tp11922
Rp11923
(dp11924
g12
g11899
sbsg11904
g1
(g6
g7
g97
tp11925
Rp11926
(dp11927
g12
g11904
sbstp11928
Rp11929
(dp11930
g12
g11911
sbag1
(g6
g7
S'AND'
p11931
tp11932
Rp11933
(dp11934
g12
VOP
p11935
sbatp11936
Rp11937
(dp11938
g12
g11888
sbsVRetStart
p11939
g1
(g6
g7
g113
tp11940
Rp11941
(dp11942
g12
g11939
sbsVTranslationSet
p11943
g1
(g18
g19
(lp11944
tp11945
Rp11946
(dp11947
g12
g11943
sbstp11948
Rp11949
(dp11950
g12
VeSearchResult
p11951
sba.