(lp0
ccopy_reg
_reconstructor
p1
(cBio.Entrez.Parser
DictionaryElement
p2
c__builtin__
dict
p3
(dp4
VCount
p5
g1
(cBio.Entrez.Parser
StringElement
p6
c__builtin__
str
p7
S'2'
p8
tp9
Rp10
(dp11
S'tag'
p12
g5
sbsVRetMax
p13
g1
(g6
g7
g8
tp14
Rp15
(dp16
g12
g13
sbsVIdList
p17
g1
(cBio.Entrez.Parser
ListElement
p18
c__builtin__
list
p19
(lp20
g1
(g6
g7
S'339518229'
p21
tp22
Rp23
(dp24
g12
VId
p25
sbag1
(g6
g7
S'111114766'
p26
tp27
Rp28
(dp29
g12
g25
sbatp30
Rp31
(dp32
g12
g17
sbsVQueryTranslation
p33
g1
(g6
g7
S'Aphareus furca[PORG] AND CytB[title]'
p34
tp35
Rp36
(dp37
g12
g33
sbsVTranslationStack
p38
g1
(g18
g19
(lp39
g1
(g2
g3
(dp40
g5
g1
(g6
g7
S'26'
p41
tp42
Rp43
(dp44
g12
g5
sbsVField
p45
g1
(g6
g7
S'PORG'
p46
tp47
Rp48
(dp49
g12
g45
sbsVTerm
p50
g1
(g6
g7
S'Aphareus furca[PORG]'
p51
tp52
Rp53
(dp54
g12
g50
sbsVExplode
p55
g1
(g6
g7
S'Y'
p56
tp57
Rp58
(dp59
g12
g55
sbstp60
Rp61
(dp62
g12
VTermSet
p63
sbag1
(g2
g3
(dp64
g5
g1
(g6
g7
S'317705'
p65
tp66
Rp67
(dp68
g12
g5
sbsg45
g1
(g6
g7
S'title'
p69
tp70
Rp71
(dp72
g12
g45
sbsg50
g1
(g6
g7
S'CytB[title]'
p73
tp74
Rp75
(dp76
g12
g50
sbsg55
g1
(g6
g7
S'N'
p77
tp78
Rp79
(dp80
g12
g55
sbstp81
Rp82
(dp83
g12
g63
sbag1
(g6
g7
S'AND'
p84
tp85
Rp86
(dp87
g12
VOP
p88
sbatp89
Rp90
(dp91
g12
g38
sbsVRetStart
p92
g1
(g6
g7
S'0'
p93
tp94
Rp95
(dp96
g12
g92
sbsVTranslationSet
p97
g1
(g18
g19
(lp98
tp99
Rp100
(dp101
g12
g97
sbstp102
Rp103
(dp104
g12
VeSearchResult
p105
sbag1
(g2
g3
(dp106
VCount
p107
g1
(g6
g7
S'1'
p108
tp109
Rp110
(dp111
g12
g107
sbsVRetMax
p112
g1
(g6
g7
g108
tp113
Rp114
(dp115
g12
g112
sbsVIdList
p116
g1
(g18
g19
(lp117
g1
(g6
g7
S'1020878023'
p118
tp119
Rp120
(dp121
g12
VId
p122
sbatp123
Rp124
(dp125
g12
g116
sbsVQueryTranslation
p126
g1
(g6
g7
S'Aphareus rutilans[PORG] AND CytB[title]'
p127
tp128
Rp129
(dp130
g12
g126
sbsVTranslationStack
p131
g1
(g18
g19
(lp132
g1
(g2
g3
(dp133
g107
g1
(g6
g7
S'12'
p134
tp135
Rp136
(dp137
g12
g107
sbsVField
p138
g1
(g6
g7
S'PORG'
p139
tp140
Rp141
(dp142
g12
g138
sbsVTerm
p143
g1
(g6
g7
S'Aphareus rutilans[PORG]'
p144
tp145
Rp146
(dp147
g12
g143
sbsVExplode
p148
g1
(g6
g7
g56
tp149
Rp150
(dp151
g12
g148
sbstp152
Rp153
(dp154
g12
VTermSet
p155
sbag1
(g2
g3
(dp156
g107
g1
(g6
g7
S'317705'
p157
tp158
Rp159
(dp160
g12
g107
sbsg138
g1
(g6
g7
S'title'
p161
tp162
Rp163
(dp164
g12
g138
sbsg143
g1
(g6
g7
S'CytB[title]'
p165
tp166
Rp167
(dp168
g12
g143
sbsg148
g1
(g6
g7
g77
tp169
Rp170
(dp171
g12
g148
sbstp172
Rp173
(dp174
g12
g155
sbag1
(g6
g7
S'AND'
p175
tp176
Rp177
(dp178
g12
VOP
p179
sbatp180
Rp181
(dp182
g12
g131
sbsVRetStart
p183
g1
(g6
g7
g93
tp184
Rp185
(dp186
g12
g183
sbsVTranslationSet
p187
g1
(g18
g19
(lp188
tp189
Rp190
(dp191
g12
g187
sbstp192
Rp193
(dp194
g12
VeSearchResult
p195
sbag1
(g2
g3
(dp196
VCount
p197
g1
(g6
g7
g108
tp198
Rp199
(dp200
g12
g197
sbsVRetMax
p201
g1
(g6
g7
g108
tp202
Rp203
(dp204
g12
g201
sbsVIdList
p205
g1
(g18
g19
(lp206
g1
(g6
g7
S'111114768'
p207
tp208
Rp209
(dp210
g12
VId
p211
sbatp212
Rp213
(dp214
g12
g205
sbsVQueryTranslation
p215
g1
(g6
g7
S'Aprion virescens[PORG] AND CytB[title]'
p216
tp217
Rp218
(dp219
g12
g215
sbsVTranslationStack
p220
g1
(g18
g19
(lp221
g1
(g2
g3
(dp222
g197
g1
(g6
g7
S'19'
p223
tp224
Rp225
(dp226
g12
g197
sbsVField
p227
g1
(g6
g7
S'PORG'
p228
tp229
Rp230
(dp231
g12
g227
sbsVTerm
p232
g1
(g6
g7
S'Aprion virescens[PORG]'
p233
tp234
Rp235
(dp236
g12
g232
sbsVExplode
p237
g1
(g6
g7
g56
tp238
Rp239
(dp240
g12
g237
sbstp241
Rp242
(dp243
g12
VTermSet
p244
sbag1
(g2
g3
(dp245
g197
g1
(g6
g7
S'317705'
p246
tp247
Rp248
(dp249
g12
g197
sbsg227
g1
(g6
g7
S'title'
p250
tp251
Rp252
(dp253
g12
g227
sbsg232
g1
(g6
g7
S'CytB[title]'
p254
tp255
Rp256
(dp257
g12
g232
sbsg237
g1
(g6
g7
g77
tp258
Rp259
(dp260
g12
g237
sbstp261
Rp262
(dp263
g12
g244
sbag1
(g6
g7
S'AND'
p264
tp265
Rp266
(dp267
g12
VOP
p268
sbatp269
Rp270
(dp271
g12
g220
sbsVRetStart
p272
g1
(g6
g7
g93
tp273
Rp274
(dp275
g12
g272
sbsVTranslationSet
p276
g1
(g18
g19
(lp277
tp278
Rp279
(dp280
g12
g276
sbstp281
Rp282
(dp283
g12
VeSearchResult
p284
sbag1
(g2
g3
(dp285
VCount
p286
g1
(g6
g7
S'3'
p287
tp288
Rp289
(dp290
g12
g286
sbsVRetMax
p291
g1
(g6
g7
g287
tp292
Rp293
(dp294
g12
g291
sbsVIdList
p295
g1
(g18
g19
(lp296
g1
(g6
g7
S'320578911'
p297
tp298
Rp299
(dp300
g12
VId
p301
sbag1
(g6
g7
S'320578909'
p302
tp303
Rp304
(dp305
g12
g301
sbag1
(g6
g7
S'320578907'
p306
tp307
Rp308
(dp309
g12
g301
sbatp310
Rp311
(dp312
g12
g295
sbsVQueryTranslation
p313
g1
(g6
g7
S'Apsilus dentatus[PORG] AND CytB[title]'
p314
tp315
Rp316
(dp317
g12
g313
sbsVTranslationStack
p318
g1
(g18
g19
(lp319
g1
(g2
g3
(dp320
g286
g1
(g6
g7
S'19'
p321
tp322
Rp323
(dp324
g12
g286
sbsVField
p325
g1
(g6
g7
S'PORG'
p326
tp327
Rp328
(dp329
g12
g325
sbsVTerm
p330
g1
(g6
g7
S'Apsilus dentatus[PORG]'
p331
tp332
Rp333
(dp334
g12
g330
sbsVExplode
p335
g1
(g6
g7
g56
tp336
Rp337
(dp338
g12
g335
sbstp339
Rp340
(dp341
g12
VTermSet
p342
sbag1
(g2
g3
(dp343
g286
g1
(g6
g7
S'317705'
p344
tp345
Rp346
(dp347
g12
g286
sbsg325
g1
(g6
g7
S'title'
p348
tp349
Rp350
(dp351
g12
g325
sbsg330
g1
(g6
g7
S'CytB[title]'
p352
tp353
Rp354
(dp355
g12
g330
sbsg335
g1
(g6
g7
g77
tp356
Rp357
(dp358
g12
g335
sbstp359
Rp360
(dp361
g12
g342
sbag1
(g6
g7
S'AND'
p362
tp363
Rp364
(dp365
g12
VOP
p366
sbatp367
Rp368
(dp369
g12
g318
sbsVRetStart
p370
g1
(g6
g7
g93
tp371
Rp372
(dp373
g12
g370
sbsVTranslationSet
p374
g1
(g18
g19
(lp375
tp376
Rp377
(dp378
g12
g374
sbstp379
Rp380
(dp381
g12
VeSearchResult
p382
sbag1
(g2
g3
(dp383
VCount
p384
g1
(g6
g7
g93
tp385
Rp386
(dp387
g12
g384
sbsVRetMax
p388
g1
(g6
g7
g93
tp389
Rp390
(dp391
g12
g388
sbsVIdList
p392
g1
(g18
g19
(lp393
tp394
Rp395
(dp396
g12
g392
sbsVQueryTranslation
p397
g1
(g6
g7
S'Apsilus fuscus[PORG] AND CytB[title]'
p398
tp399
Rp400
(dp401
g12
g397
sbsVTranslationStack
p402
g1
(g18
g19
(lp403
g1
(g2
g3
(dp404
g384
g1
(g6
g7
g287
tp405
Rp406
(dp407
g12
g384
sbsVField
p408
g1
(g6
g7
S'PORG'
p409
tp410
Rp411
(dp412
g12
g408
sbsVTerm
p413
g1
(g6
g7
S'Apsilus fuscus[PORG]'
p414
tp415
Rp416
(dp417
g12
g413
sbsVExplode
p418
g1
(g6
g7
g56
tp419
Rp420
(dp421
g12
g418
sbstp422
Rp423
(dp424
g12
VTermSet
p425
sbag1
(g2
g3
(dp426
g384
g1
(g6
g7
S'317705'
p427
tp428
Rp429
(dp430
g12
g384
sbsg408
g1
(g6
g7
S'title'
p431
tp432
Rp433
(dp434
g12
g408
sbsg413
g1
(g6
g7
S'CytB[title]'
p435
tp436
Rp437
(dp438
g12
g413
sbsg418
g1
(g6
g7
g77
tp439
Rp440
(dp441
g12
g418
sbstp442
Rp443
(dp444
g12
g425
sbag1
(g6
g7
S'AND'
p445
tp446
Rp447
(dp448
g12
VOP
p449
sbatp450
Rp451
(dp452
g12
g402
sbsVRetStart
p453
g1
(g6
g7
g93
tp454
Rp455
(dp456
g12
g453
sbsVTranslationSet
p457
g1
(g18
g19
(lp458
tp459
Rp460
(dp461
g12
g457
sbstp462
Rp463
(dp464
g12
VeSearchResult
p465
sbag1
(g2
g3
(dp466
VCount
p467
g1
(g6
g7
S'4'
p468
tp469
Rp470
(dp471
g12
g467
sbsVRetMax
p472
g1
(g6
g7
g468
tp473
Rp474
(dp475
g12
g472
sbsVIdList
p476
g1
(g18
g19
(lp477
g1
(g6
g7
S'1020878075'
p478
tp479
Rp480
(dp481
g12
VId
p482
sbag1
(g6
g7
S'1020878073'
p483
tp484
Rp485
(dp486
g12
g482
sbag1
(g6
g7
S'1020878071'
p487
tp488
Rp489
(dp490
g12
g482
sbag1
(g6
g7
S'1020878069'
p491
tp492
Rp493
(dp494
g12
g482
sbatp495
Rp496
(dp497
g12
g476
sbsVQueryTranslation
p498
g1
(g6
g7
S'Etelis carbunculus[PORG] AND CytB[title]'
p499
tp500
Rp501
(dp502
g12
g498
sbsVTranslationStack
p503
g1
(g18
g19
(lp504
g1
(g2
g3
(dp505
g467
g1
(g6
g7
S'100'
p506
tp507
Rp508
(dp509
g12
g467
sbsVField
p510
g1
(g6
g7
S'PORG'
p511
tp512
Rp513
(dp514
g12
g510
sbsVTerm
p515
g1
(g6
g7
S'Etelis carbunculus[PORG]'
p516
tp517
Rp518
(dp519
g12
g515
sbsVExplode
p520
g1
(g6
g7
g56
tp521
Rp522
(dp523
g12
g520
sbstp524
Rp525
(dp526
g12
VTermSet
p527
sbag1
(g2
g3
(dp528
g467
g1
(g6
g7
S'317705'
p529
tp530
Rp531
(dp532
g12
g467
sbsg510
g1
(g6
g7
S'title'
p533
tp534
Rp535
(dp536
g12
g510
sbsg515
g1
(g6
g7
S'CytB[title]'
p537
tp538
Rp539
(dp540
g12
g515
sbsg520
g1
(g6
g7
g77
tp541
Rp542
(dp543
g12
g520
sbstp544
Rp545
(dp546
g12
g527
sbag1
(g6
g7
S'AND'
p547
tp548
Rp549
(dp550
g12
VOP
p551
sbatp552
Rp553
(dp554
g12
g503
sbsVRetStart
p555
g1
(g6
g7
g93
tp556
Rp557
(dp558
g12
g555
sbsVTranslationSet
p559
g1
(g18
g19
(lp560
tp561
Rp562
(dp563
g12
g559
sbstp564
Rp565
(dp566
g12
VeSearchResult
p567
sbag1
(g2
g3
(dp568
VCount
p569
g1
(g6
g7
S'69'
p570
tp571
Rp572
(dp573
g12
g569
sbsVRetMax
p574
g1
(g6
g7
S'20'
p575
tp576
Rp577
(dp578
g12
g574
sbsVIdList
p579
g1
(g18
g19
(lp580
g1
(g6
g7
S'1020878029'
p581
tp582
Rp583
(dp584
g12
VId
p585
sbag1
(g6
g7
S'1020878027'
p586
tp587
Rp588
(dp589
g12
g585
sbag1
(g6
g7
S'1020878025'
p590
tp591
Rp592
(dp593
g12
g585
sbag1
(g6
g7
S'597501705'
p594
tp595
Rp596
(dp597
g12
g585
sbag1
(g6
g7
S'597501703'
p598
tp599
Rp600
(dp601
g12
g585
sbag1
(g6
g7
S'597501701'
p602
tp603
Rp604
(dp605
g12
g585
sbag1
(g6
g7
S'597501699'
p606
tp607
Rp608
(dp609
g12
g585
sbag1
(g6
g7
S'597501697'
p610
tp611
Rp612
(dp613
g12
g585
sbag1
(g6
g7
S'597501695'
p614
tp615
Rp616
(dp617
g12
g585
sbag1
(g6
g7
S'597501693'
p618
tp619
Rp620
(dp621
g12
g585
sbag1
(g6
g7
S'597501691'
p622
tp623
Rp624
(dp625
g12
g585
sbag1
(g6
g7
S'597501689'
p626
tp627
Rp628
(dp629
g12
g585
sbag1
(g6
g7
S'597501687'
p630
tp631
Rp632
(dp633
g12
g585
sbag1
(g6
g7
S'597501685'
p634
tp635
Rp636
(dp637
g12
g585
sbag1
(g6
g7
S'597501683'
p638
tp639
Rp640
(dp641
g12
g585
sbag1
(g6
g7
S'597501681'
p642
tp643
Rp644
(dp645
g12
g585
sbag1
(g6
g7
S'597501679'
p646
tp647
Rp648
(dp649
g12
g585
sbag1
(g6
g7
S'597501677'
p650
tp651
Rp652
(dp653
g12
g585
sbag1
(g6
g7
S'597501675'
p654
tp655
Rp656
(dp657
g12
g585
sbag1
(g6
g7
S'597501673'
p658
tp659
Rp660
(dp661
g12
g585
sbatp662
Rp663
(dp664
g12
g579
sbsVQueryTranslation
p665
g1
(g6
g7
S'Etelis coruscans[PORG] AND CytB[title]'
p666
tp667
Rp668
(dp669
g12
g665
sbsVTranslationStack
p670
g1
(g18
g19
(lp671
g1
(g2
g3
(dp672
g569
g1
(g6
g7
S'138'
p673
tp674
Rp675
(dp676
g12
g569
sbsVField
p677
g1
(g6
g7
S'PORG'
p678
tp679
Rp680
(dp681
g12
g677
sbsVTerm
p682
g1
(g6
g7
S'Etelis coruscans[PORG]'
p683
tp684
Rp685
(dp686
g12
g682
sbsVExplode
p687
g1
(g6
g7
g56
tp688
Rp689
(dp690
g12
g687
sbstp691
Rp692
(dp693
g12
VTermSet
p694
sbag1
(g2
g3
(dp695
g569
g1
(g6
g7
S'317705'
p696
tp697
Rp698
(dp699
g12
g569
sbsg677
g1
(g6
g7
S'title'
p700
tp701
Rp702
(dp703
g12
g677
sbsg682
g1
(g6
g7
S'CytB[title]'
p704
tp705
Rp706
(dp707
g12
g682
sbsg687
g1
(g6
g7
g77
tp708
Rp709
(dp710
g12
g687
sbstp711
Rp712
(dp713
g12
g694
sbag1
(g6
g7
S'AND'
p714
tp715
Rp716
(dp717
g12
VOP
p718
sbatp719
Rp720
(dp721
g12
g670
sbsVRetStart
p722
g1
(g6
g7
g93
tp723
Rp724
(dp725
g12
g722
sbsVTranslationSet
p726
g1
(g18
g19
(lp727
tp728
Rp729
(dp730
g12
g726
sbstp731
Rp732
(dp733
g12
VeSearchResult
p734
sbag1
(g2
g3
(dp735
VCount
p736
g1
(g6
g7
S'7'
p737
tp738
Rp739
(dp740
g12
g736
sbsVRetMax
p741
g1
(g6
g7
g737
tp742
Rp743
(dp744
g12
g741
sbsVIdList
p745
g1
(g18
g19
(lp746
g1
(g6
g7
S'320578831'
p747
tp748
Rp749
(dp750
g12
VId
p751
sbag1
(g6
g7
S'320578829'
p752
tp753
Rp754
(dp755
g12
g751
sbag1
(g6
g7
S'1020878039'
p756
tp757
Rp758
(dp759
g12
g751
sbag1
(g6
g7
S'1020878037'
p760
tp761
Rp762
(dp763
g12
g751
sbag1
(g6
g7
S'1020878035'
p764
tp765
Rp766
(dp767
g12
g751
sbag1
(g6
g7
S'1020878033'
p768
tp769
Rp770
(dp771
g12
g751
sbag1
(g6
g7
S'1020878031'
p772
tp773
Rp774
(dp775
g12
g751
sbatp776
Rp777
(dp778
g12
g745
sbsVQueryTranslation
p779
g1
(g6
g7
S'Etelis oculatus[PORG] AND CytB[title]'
p780
tp781
Rp782
(dp783
g12
g779
sbsVTranslationStack
p784
g1
(g18
g19
(lp785
g1
(g2
g3
(dp786
g736
g1
(g6
g7
S'34'
p787
tp788
Rp789
(dp790
g12
g736
sbsVField
p791
g1
(g6
g7
S'PORG'
p792
tp793
Rp794
(dp795
g12
g791
sbsVTerm
p796
g1
(g6
g7
S'Etelis oculatus[PORG]'
p797
tp798
Rp799
(dp800
g12
g796
sbsVExplode
p801
g1
(g6
g7
g56
tp802
Rp803
(dp804
g12
g801
sbstp805
Rp806
(dp807
g12
VTermSet
p808
sbag1
(g2
g3
(dp809
g736
g1
(g6
g7
S'317705'
p810
tp811
Rp812
(dp813
g12
g736
sbsg791
g1
(g6
g7
S'title'
p814
tp815
Rp816
(dp817
g12
g791
sbsg796
g1
(g6
g7
S'CytB[title]'
p818
tp819
Rp820
(dp821
g12
g796
sbsg801
g1
(g6
g7
g77
tp822
Rp823
(dp824
g12
g801
sbstp825
Rp826
(dp827
g12
g808
sbag1
(g6
g7
S'AND'
p828
tp829
Rp830
(dp831
g12
VOP
p832
sbatp833
Rp834
(dp835
g12
g784
sbsVRetStart
p836
g1
(g6
g7
g93
tp837
Rp838
(dp839
g12
g836
sbsVTranslationSet
p840
g1
(g18
g19
(lp841
tp842
Rp843
(dp844
g12
g840
sbstp845
Rp846
(dp847
g12
VeSearchResult
p848
sbag1
(g2
g3
(dp849
VCount
p850
g1
(g6
g7
g737
tp851
Rp852
(dp853
g12
g850
sbsVRetMax
p854
g1
(g6
g7
g737
tp855
Rp856
(dp857
g12
g854
sbsVIdList
p858
g1
(g18
g19
(lp859
g1
(g6
g7
S'1020878053'
p860
tp861
Rp862
(dp863
g12
VId
p864
sbag1
(g6
g7
S'1020878051'
p865
tp866
Rp867
(dp868
g12
g864
sbag1
(g6
g7
S'1020878049'
p869
tp870
Rp871
(dp872
g12
g864
sbag1
(g6
g7
S'1020878047'
p873
tp874
Rp875
(dp876
g12
g864
sbag1
(g6
g7
S'1020878045'
p877
tp878
Rp879
(dp880
g12
g864
sbag1
(g6
g7
S'1020878043'
p881
tp882
Rp883
(dp884
g12
g864
sbag1
(g6
g7
S'1020878041'
p885
tp886
Rp887
(dp888
g12
g864
sbatp889
Rp890
(dp891
g12
g858
sbsVQueryTranslation
p892
g1
(g6
g7
S'Etelis radiosus[PORG] AND CytB[title]'
p893
tp894
Rp895
(dp896
g12
g892
sbsVTranslationStack
p897
g1
(g18
g19
(lp898
g1
(g2
g3
(dp899
g850
g1
(g6
g7
S'43'
p900
tp901
Rp902
(dp903
g12
g850
sbsVField
p904
g1
(g6
g7
S'PORG'
p905
tp906
Rp907
(dp908
g12
g904
sbsVTerm
p909
g1
(g6
g7
S'Etelis radiosus[PORG]'
p910
tp911
Rp912
(dp913
g12
g909
sbsVExplode
p914
g1
(g6
g7
g56
tp915
Rp916
(dp917
g12
g914
sbstp918
Rp919
(dp920
g12
VTermSet
p921
sbag1
(g2
g3
(dp922
g850
g1
(g6
g7
S'317705'
p923
tp924
Rp925
(dp926
g12
g850
sbsg904
g1
(g6
g7
S'title'
p927
tp928
Rp929
(dp930
g12
g904
sbsg909
g1
(g6
g7
S'CytB[title]'
p931
tp932
Rp933
(dp934
g12
g909
sbsg914
g1
(g6
g7
g77
tp935
Rp936
(dp937
g12
g914
sbstp938
Rp939
(dp940
g12
g921
sbag1
(g6
g7
S'AND'
p941
tp942
Rp943
(dp944
g12
VOP
p945
sbatp946
Rp947
(dp948
g12
g897
sbsVRetStart
p949
g1
(g6
g7
g93
tp950
Rp951
(dp952
g12
g949
sbsVTranslationSet
p953
g1
(g18
g19
(lp954
tp955
Rp956
(dp957
g12
g953
sbstp958
Rp959
(dp960
g12
VeSearchResult
p961
sbag1
(g2
g3
(dp962
VCount
p963
g1
(g6
g7
g287
tp964
Rp965
(dp966
g12
g963
sbsVRetMax
p967
g1
(g6
g7
g287
tp968
Rp969
(dp970
g12
g967
sbsVIdList
p971
g1
(g18
g19
(lp972
g1
(g6
g7
S'662357664'
p973
tp974
Rp975
(dp976
g12
VId
p977
sbag1
(g6
g7
S'662357662'
p978
tp979
Rp980
(dp981
g12
g977
sbag1
(g6
g7
S'662357660'
p982
tp983
Rp984
(dp985
g12
g977
sbatp986
Rp987
(dp988
g12
g971
sbsVQueryTranslation
p989
g1
(g6
g7
S'Hoplopagrus guentherii[PORG] AND CytB[title]'
p990
tp991
Rp992
(dp993
g12
g989
sbsVTranslationStack
p994
g1
(g18
g19
(lp995
g1
(g2
g3
(dp996
g963
g1
(g6
g7
S'9'
p997
tp998
Rp999
(dp1000
g12
g963
sbsVField
p1001
g1
(g6
g7
S'PORG'
p1002
tp1003
Rp1004
(dp1005
g12
g1001
sbsVTerm
p1006
g1
(g6
g7
S'Hoplopagrus guentherii[PORG]'
p1007
tp1008
Rp1009
(dp1010
g12
g1006
sbsVExplode
p1011
g1
(g6
g7
g56
tp1012
Rp1013
(dp1014
g12
g1011
sbstp1015
Rp1016
(dp1017
g12
VTermSet
p1018
sbag1
(g2
g3
(dp1019
g963
g1
(g6
g7
S'317705'
p1020
tp1021
Rp1022
(dp1023
g12
g963
sbsg1001
g1
(g6
g7
S'title'
p1024
tp1025
Rp1026
(dp1027
g12
g1001
sbsg1006
g1
(g6
g7
S'CytB[title]'
p1028
tp1029
Rp1030
(dp1031
g12
g1006
sbsg1011
g1
(g6
g7
g77
tp1032
Rp1033
(dp1034
g12
g1011
sbstp1035
Rp1036
(dp1037
g12
g1018
sbag1
(g6
g7
S'AND'
p1038
tp1039
Rp1040
(dp1041
g12
VOP
p1042
sbatp1043
Rp1044
(dp1045
g12
g994
sbsVRetStart
p1046
g1
(g6
g7
g93
tp1047
Rp1048
(dp1049
g12
g1046
sbsVTranslationSet
p1050
g1
(g18
g19
(lp1051
tp1052
Rp1053
(dp1054
g12
g1050
sbstp1055
Rp1056
(dp1057
g12
VeSearchResult
p1058
sbag1
(g2
g3
(dp1059
VCount
p1060
g1
(g6
g7
g93
tp1061
Rp1062
(dp1063
g12
g1060
sbsVRetMax
p1064
g1
(g6
g7
g93
tp1065
Rp1066
(dp1067
g12
g1064
sbsVIdList
p1068
g1
(g18
g19
(lp1069
tp1070
Rp1071
(dp1072
g12
g1068
sbsVQueryTranslation
p1073
g1
(g6
g7
S'Lipocheilus carnolabrum[PORG] AND CytB[title]'
p1074
tp1075
Rp1076
(dp1077
g12
g1073
sbsVTranslationStack
p1078
g1
(g18
g19
(lp1079
g1
(g2
g3
(dp1080
g1060
g1
(g6
g7
g108
tp1081
Rp1082
(dp1083
g12
g1060
sbsVField
p1084
g1
(g6
g7
S'PORG'
p1085
tp1086
Rp1087
(dp1088
g12
g1084
sbsVTerm
p1089
g1
(g6
g7
S'Lipocheilus carnolabrum[PORG]'
p1090
tp1091
Rp1092
(dp1093
g12
g1089
sbsVExplode
p1094
g1
(g6
g7
g56
tp1095
Rp1096
(dp1097
g12
g1094
sbstp1098
Rp1099
(dp1100
g12
VTermSet
p1101
sbag1
(g2
g3
(dp1102
g1060
g1
(g6
g7
S'317705'
p1103
tp1104
Rp1105
(dp1106
g12
g1060
sbsg1084
g1
(g6
g7
S'title'
p1107
tp1108
Rp1109
(dp1110
g12
g1084
sbsg1089
g1
(g6
g7
S'CytB[title]'
p1111
tp1112
Rp1113
(dp1114
g12
g1089
sbsg1094
g1
(g6
g7
g77
tp1115
Rp1116
(dp1117
g12
g1094
sbstp1118
Rp1119
(dp1120
g12
g1101
sbag1
(g6
g7
S'AND'
p1121
tp1122
Rp1123
(dp1124
g12
VOP
p1125
sbatp1126
Rp1127
(dp1128
g12
g1078
sbsVRetStart
p1129
g1
(g6
g7
g93
tp1130
Rp1131
(dp1132
g12
g1129
sbsVTranslationSet
p1133
g1
(g18
g19
(lp1134
tp1135
Rp1136
(dp1137
g12
g1133
sbstp1138
Rp1139
(dp1140
g12
VeSearchResult
p1141
sbag1
(g2
g3
(dp1142
VCount
p1143
g1
(g6
g7
g108
tp1144
Rp1145
(dp1146
g12
g1143
sbsVRetMax
p1147
g1
(g6
g7
g108
tp1148
Rp1149
(dp1150
g12
g1147
sbsVIdList
p1151
g1
(g18
g19
(lp1152
g1
(g6
g7
S'111114776'
p1153
tp1154
Rp1155
(dp1156
g12
VId
p1157
sbatp1158
Rp1159
(dp1160
g12
g1151
sbsVQueryTranslation
p1161
g1
(g6
g7
S'Lutjanus adetii[PORG] AND CytB[title]'
p1162
tp1163
Rp1164
(dp1165
g12
g1161
sbsVTranslationStack
p1166
g1
(g18
g19
(lp1167
g1
(g2
g3
(dp1168
g1143
g1
(g6
g7
g468
tp1169
Rp1170
(dp1171
g12
g1143
sbsVField
p1172
g1
(g6
g7
S'PORG'
p1173
tp1174
Rp1175
(dp1176
g12
g1172
sbsVTerm
p1177
g1
(g6
g7
S'Lutjanus adetii[PORG]'
p1178
tp1179
Rp1180
(dp1181
g12
g1177
sbsVExplode
p1182
g1
(g6
g7
g56
tp1183
Rp1184
(dp1185
g12
g1182
sbstp1186
Rp1187
(dp1188
g12
VTermSet
p1189
sbag1
(g2
g3
(dp1190
g1143
g1
(g6
g7
S'317705'
p1191
tp1192
Rp1193
(dp1194
g12
g1143
sbsg1172
g1
(g6
g7
S'title'
p1195
tp1196
Rp1197
(dp1198
g12
g1172
sbsg1177
g1
(g6
g7
S'CytB[title]'
p1199
tp1200
Rp1201
(dp1202
g12
g1177
sbsg1182
g1
(g6
g7
g77
tp1203
Rp1204
(dp1205
g12
g1182
sbstp1206
Rp1207
(dp1208
g12
g1189
sbag1
(g6
g7
S'AND'
p1209
tp1210
Rp1211
(dp1212
g12
VOP
p1213
sbatp1214
Rp1215
(dp1216
g12
g1166
sbsVRetStart
p1217
g1
(g6
g7
g93
tp1218
Rp1219
(dp1220
g12
g1217
sbsVTranslationSet
p1221
g1
(g18
g19
(lp1222
tp1223
Rp1224
(dp1225
g12
g1221
sbstp1226
Rp1227
(dp1228
g12
VeSearchResult
p1229
sbag1
(g2
g3
(dp1230
VCount
p1231
g1
(g6
g7
g93
tp1232
Rp1233
(dp1234
g12
g1231
sbsVRetMax
p1235
g1
(g6
g7
g93
tp1236
Rp1237
(dp1238
g12
g1235
sbsVIdList
p1239
g1
(g18
g19
(lp1240
tp1241
Rp1242
(dp1243
g12
g1239
sbsVRetStart
p1244
g1
(g6
g7
g93
tp1245
Rp1246
(dp1247
g12
g1244
sbsVErrorList
p1248
g1
(cBio.Entrez.Parser
StructureElement
p1249
g3
(dp1250
VFieldNotFound
p1251
(lp1252
sVPhraseNotFound
p1253
(lp1254
g1
(g6
g7
S'Lutjanus agennes[PORG]'
p1255
tp1256
Rp1257
(dp1258
g12
VPhraseNotFound
p1259
sbastp1260
Rp1261
(dp1262
g12
g1248
sS'listkeys'
p1263
(lp1264
g1253
ag1251
asbsVTranslationSet
p1265
g1
(g18
g19
(lp1266
tp1267
Rp1268
(dp1269
g12
g1265
sbsVWarningList
p1270
g1
(g1249
g3
(dp1271
VOutputMessage
p1272
(lp1273
g1
(g6
g7
S'No items found.'
p1274
tp1275
Rp1276
(dp1277
g12
VOutputMessage
p1278
sbasVPhraseIgnored
p1279
(lp1280
sVQuotedPhraseNotFound
p1281
(lp1282
stp1283
Rp1284
(dp1285
g12
g1270
sg1263
(lp1286
g1279
ag1281
ag1272
asbsVQueryTranslation
p1287
g1
(g6
g7
S'Lutjanus agennes[PORG] AND CytB[title]'
p1288
tp1289
Rp1290
(dp1291
g12
g1287
sbstp1292
Rp1293
(dp1294
g12
VeSearchResult
p1295
sbag1
(g2
g3
(dp1296
VCount
p1297
g1
(g6
g7
g93
tp1298
Rp1299
(dp1300
g12
g1297
sbsVRetMax
p1301
g1
(g6
g7
g93
tp1302
Rp1303
(dp1304
g12
g1301
sbsVIdList
p1305
g1
(g18
g19
(lp1306
tp1307
Rp1308
(dp1309
g12
g1305
sbsVRetStart
p1310
g1
(g6
g7
g93
tp1311
Rp1312
(dp1313
g12
g1310
sbsVErrorList
p1314
g1
(g1249
g3
(dp1315
VFieldNotFound
p1316
(lp1317
sVPhraseNotFound
p1318
(lp1319
g1
(g6
g7
S'Lutjanus alexandrei[PORG]'
p1320
tp1321
Rp1322
(dp1323
g12
VPhraseNotFound
p1324
sbastp1325
Rp1326
(dp1327
g12
g1314
sg1263
(lp1328
g1318
ag1316
asbsVTranslationSet
p1329
g1
(g18
g19
(lp1330
tp1331
Rp1332
(dp1333
g12
g1329
sbsVWarningList
p1334
g1
(g1249
g3
(dp1335
VOutputMessage
p1336
(lp1337
g1
(g6
g7
S'No items found.'
p1338
tp1339
Rp1340
(dp1341
g12
VOutputMessage
p1342
sbasVPhraseIgnored
p1343
(lp1344
sVQuotedPhraseNotFound
p1345
(lp1346
stp1347
Rp1348
(dp1349
g12
g1334
sg1263
(lp1350
g1343
ag1345
ag1336
asbsVQueryTranslation
p1351
g1
(g6
g7
S'Lutjanus alexandrei[PORG] AND CytB[title]'
p1352
tp1353
Rp1354
(dp1355
g12
g1351
sbstp1356
Rp1357
(dp1358
g12
VeSearchResult
p1359
sbag1
(g2
g3
(dp1360
VCount
p1361
g1
(g6
g7
g93
tp1362
Rp1363
(dp1364
g12
g1361
sbsVRetMax
p1365
g1
(g6
g7
g93
tp1366
Rp1367
(dp1368
g12
g1365
sbsVIdList
p1369
g1
(g18
g19
(lp1370
tp1371
Rp1372
(dp1373
g12
g1369
sbsVRetStart
p1374
g1
(g6
g7
g93
tp1375
Rp1376
(dp1377
g12
g1374
sbsVErrorList
p1378
g1
(g1249
g3
(dp1379
VFieldNotFound
p1380
(lp1381
sVPhraseNotFound
p1382
(lp1383
g1
(g6
g7
S'Lutjanus ambiguus[PORG]'
p1384
tp1385
Rp1386
(dp1387
g12
VPhraseNotFound
p1388
sbastp1389
Rp1390
(dp1391
g12
g1378
sg1263
(lp1392
g1382
ag1380
asbsVTranslationSet
p1393
g1
(g18
g19
(lp1394
tp1395
Rp1396
(dp1397
g12
g1393
sbsVWarningList
p1398
g1
(g1249
g3
(dp1399
VOutputMessage
p1400
(lp1401
g1
(g6
g7
S'No items found.'
p1402
tp1403
Rp1404
(dp1405
g12
VOutputMessage
p1406
sbasVPhraseIgnored
p1407
(lp1408
sVQuotedPhraseNotFound
p1409
(lp1410
stp1411
Rp1412
(dp1413
g12
g1398
sg1263
(lp1414
g1407
ag1409
ag1400
asbsVQueryTranslation
p1415
g1
(g6
g7
S'Lutjanus ambiguus[PORG] AND CytB[title]'
p1416
tp1417
Rp1418
(dp1419
g12
g1415
sbstp1420
Rp1421
(dp1422
g12
VeSearchResult
p1423
sbag1
(g2
g3
(dp1424
VCount
p1425
g1
(g6
g7
g287
tp1426
Rp1427
(dp1428
g12
g1425
sbsVRetMax
p1429
g1
(g6
g7
g287
tp1430
Rp1431
(dp1432
g12
g1429
sbsVIdList
p1433
g1
(g18
g19
(lp1434
g1
(g6
g7
S'320578855'
p1435
tp1436
Rp1437
(dp1438
g12
VId
p1439
sbag1
(g6
g7
S'320578853'
p1440
tp1441
Rp1442
(dp1443
g12
g1439
sbag1
(g6
g7
S'320578851'
p1444
tp1445
Rp1446
(dp1447
g12
g1439
sbatp1448
Rp1449
(dp1450
g12
g1433
sbsVQueryTranslation
p1451
g1
(g6
g7
S'Lutjanus analis[PORG] AND CytB[title]'
p1452
tp1453
Rp1454
(dp1455
g12
g1451
sbsVTranslationStack
p1456
g1
(g18
g19
(lp1457
g1
(g2
g3
(dp1458
g1425
g1
(g6
g7
S'175'
p1459
tp1460
Rp1461
(dp1462
g12
g1425
sbsVField
p1463
g1
(g6
g7
S'PORG'
p1464
tp1465
Rp1466
(dp1467
g12
g1463
sbsVTerm
p1468
g1
(g6
g7
S'Lutjanus analis[PORG]'
p1469
tp1470
Rp1471
(dp1472
g12
g1468
sbsVExplode
p1473
g1
(g6
g7
g56
tp1474
Rp1475
(dp1476
g12
g1473
sbstp1477
Rp1478
(dp1479
g12
VTermSet
p1480
sbag1
(g2
g3
(dp1481
g1425
g1
(g6
g7
S'317705'
p1482
tp1483
Rp1484
(dp1485
g12
g1425
sbsg1463
g1
(g6
g7
S'title'
p1486
tp1487
Rp1488
(dp1489
g12
g1463
sbsg1468
g1
(g6
g7
S'CytB[title]'
p1490
tp1491
Rp1492
(dp1493
g12
g1468
sbsg1473
g1
(g6
g7
g77
tp1494
Rp1495
(dp1496
g12
g1473
sbstp1497
Rp1498
(dp1499
g12
g1480
sbag1
(g6
g7
S'AND'
p1500
tp1501
Rp1502
(dp1503
g12
VOP
p1504
sbatp1505
Rp1506
(dp1507
g12
g1456
sbsVRetStart
p1508
g1
(g6
g7
g93
tp1509
Rp1510
(dp1511
g12
g1508
sbsVTranslationSet
p1512
g1
(g18
g19
(lp1513
tp1514
Rp1515
(dp1516
g12
g1512
sbstp1517
Rp1518
(dp1519
g12
VeSearchResult
p1520
sbag1
(g2
g3
(dp1521
VCount
p1522
g1
(g6
g7
g468
tp1523
Rp1524
(dp1525
g12
g1522
sbsVRetMax
p1526
g1
(g6
g7
g468
tp1527
Rp1528
(dp1529
g12
g1526
sbsVIdList
p1530
g1
(g18
g19
(lp1531
g1
(g6
g7
S'320578861'
p1532
tp1533
Rp1534
(dp1535
g12
VId
p1536
sbag1
(g6
g7
S'320578859'
p1537
tp1538
Rp1539
(dp1540
g12
g1536
sbag1
(g6
g7
S'320578857'
p1541
tp1542
Rp1543
(dp1544
g12
g1536
sbag1
(g6
g7
S'386373756'
p1545
tp1546
Rp1547
(dp1548
g12
g1536
sbatp1549
Rp1550
(dp1551
g12
g1530
sbsVQueryTranslation
p1552
g1
(g6
g7
S'Lutjanus apodus[PORG] AND CytB[title]'
p1553
tp1554
Rp1555
(dp1556
g12
g1552
sbsVTranslationStack
p1557
g1
(g18
g19
(lp1558
g1
(g2
g3
(dp1559
g1522
g1
(g6
g7
S'68'
p1560
tp1561
Rp1562
(dp1563
g12
g1522
sbsVField
p1564
g1
(g6
g7
S'PORG'
p1565
tp1566
Rp1567
(dp1568
g12
g1564
sbsVTerm
p1569
g1
(g6
g7
S'Lutjanus apodus[PORG]'
p1570
tp1571
Rp1572
(dp1573
g12
g1569
sbsVExplode
p1574
g1
(g6
g7
g56
tp1575
Rp1576
(dp1577
g12
g1574
sbstp1578
Rp1579
(dp1580
g12
VTermSet
p1581
sbag1
(g2
g3
(dp1582
g1522
g1
(g6
g7
S'317705'
p1583
tp1584
Rp1585
(dp1586
g12
g1522
sbsg1564
g1
(g6
g7
S'title'
p1587
tp1588
Rp1589
(dp1590
g12
g1564
sbsg1569
g1
(g6
g7
S'CytB[title]'
p1591
tp1592
Rp1593
(dp1594
g12
g1569
sbsg1574
g1
(g6
g7
g77
tp1595
Rp1596
(dp1597
g12
g1574
sbstp1598
Rp1599
(dp1600
g12
g1581
sbag1
(g6
g7
S'AND'
p1601
tp1602
Rp1603
(dp1604
g12
VOP
p1605
sbatp1606
Rp1607
(dp1608
g12
g1557
sbsVRetStart
p1609
g1
(g6
g7
g93
tp1610
Rp1611
(dp1612
g12
g1609
sbsVTranslationSet
p1613
g1
(g18
g19
(lp1614
tp1615
Rp1616
(dp1617
g12
g1613
sbstp1618
Rp1619
(dp1620
g12
VeSearchResult
p1621
sbag1
(g2
g3
(dp1622
VCount
p1623
g1
(g6
g7
g287
tp1624
Rp1625
(dp1626
g12
g1623
sbsVRetMax
p1627
g1
(g6
g7
g287
tp1628
Rp1629
(dp1630
g12
g1627
sbsVIdList
p1631
g1
(g18
g19
(lp1632
g1
(g6
g7
S'662357652'
p1633
tp1634
Rp1635
(dp1636
g12
VId
p1637
sbag1
(g6
g7
S'662357650'
p1638
tp1639
Rp1640
(dp1641
g12
g1637
sbag1
(g6
g7
S'662357648'
p1642
tp1643
Rp1644
(dp1645
g12
g1637
sbatp1646
Rp1647
(dp1648
g12
g1631
sbsVQueryTranslation
p1649
g1
(g6
g7
S'Lutjanus aratus[PORG] AND CytB[title]'
p1650
tp1651
Rp1652
(dp1653
g12
g1649
sbsVTranslationStack
p1654
g1
(g18
g19
(lp1655
g1
(g2
g3
(dp1656
g1623
g1
(g6
g7
g997
tp1657
Rp1658
(dp1659
g12
g1623
sbsVField
p1660
g1
(g6
g7
S'PORG'
p1661
tp1662
Rp1663
(dp1664
g12
g1660
sbsVTerm
p1665
g1
(g6
g7
S'Lutjanus aratus[PORG]'
p1666
tp1667
Rp1668
(dp1669
g12
g1665
sbsVExplode
p1670
g1
(g6
g7
g56
tp1671
Rp1672
(dp1673
g12
g1670
sbstp1674
Rp1675
(dp1676
g12
VTermSet
p1677
sbag1
(g2
g3
(dp1678
g1623
g1
(g6
g7
S'317705'
p1679
tp1680
Rp1681
(dp1682
g12
g1623
sbsg1660
g1
(g6
g7
S'title'
p1683
tp1684
Rp1685
(dp1686
g12
g1660
sbsg1665
g1
(g6
g7
S'CytB[title]'
p1687
tp1688
Rp1689
(dp1690
g12
g1665
sbsg1670
g1
(g6
g7
g77
tp1691
Rp1692
(dp1693
g12
g1670
sbstp1694
Rp1695
(dp1696
g12
g1677
sbag1
(g6
g7
S'AND'
p1697
tp1698
Rp1699
(dp1700
g12
VOP
p1701
sbatp1702
Rp1703
(dp1704
g12
g1654
sbsVRetStart
p1705
g1
(g6
g7
g93
tp1706
Rp1707
(dp1708
g12
g1705
sbsVTranslationSet
p1709
g1
(g18
g19
(lp1710
tp1711
Rp1712
(dp1713
g12
g1709
sbstp1714
Rp1715
(dp1716
g12
VeSearchResult
p1717
sbag1
(g2
g3
(dp1718
VCount
p1719
g1
(g6
g7
S'8'
p1720
tp1721
Rp1722
(dp1723
g12
g1719
sbsVRetMax
p1724
g1
(g6
g7
g1720
tp1725
Rp1726
(dp1727
g12
g1724
sbsVIdList
p1728
g1
(g18
g19
(lp1729
g1
(g6
g7
S'94694893'
p1730
tp1731
Rp1732
(dp1733
g12
VId
p1734
sbag1
(g6
g7
S'114224522'
p1735
tp1736
Rp1737
(dp1738
g12
g1734
sbag1
(g6
g7
S'114224520'
p1739
tp1740
Rp1741
(dp1742
g12
g1734
sbag1
(g6
g7
S'114224518'
p1743
tp1744
Rp1745
(dp1746
g12
g1734
sbag1
(g6
g7
S'114224516'
p1747
tp1748
Rp1749
(dp1750
g12
g1734
sbag1
(g6
g7
S'111114778'
p1751
tp1752
Rp1753
(dp1754
g12
g1734
sbag1
(g6
g7
S'117938033'
p1755
tp1756
Rp1757
(dp1758
g12
g1734
sbag1
(g6
g7
S'47606448'
p1759
tp1760
Rp1761
(dp1762
g12
g1734
sbatp1763
Rp1764
(dp1765
g12
g1728
sbsVQueryTranslation
p1766
g1
(g6
g7
S'Lutjanus argentimaculatus[PORG] AND CytB[title]'
p1767
tp1768
Rp1769
(dp1770
g12
g1766
sbsVTranslationStack
p1771
g1
(g18
g19
(lp1772
g1
(g2
g3
(dp1773
g1719
g1
(g6
g7
S'177'
p1774
tp1775
Rp1776
(dp1777
g12
g1719
sbsVField
p1778
g1
(g6
g7
S'PORG'
p1779
tp1780
Rp1781
(dp1782
g12
g1778
sbsVTerm
p1783
g1
(g6
g7
S'Lutjanus argentimaculatus[PORG]'
p1784
tp1785
Rp1786
(dp1787
g12
g1783
sbsVExplode
p1788
g1
(g6
g7
g56
tp1789
Rp1790
(dp1791
g12
g1788
sbstp1792
Rp1793
(dp1794
g12
VTermSet
p1795
sbag1
(g2
g3
(dp1796
g1719
g1
(g6
g7
S'317705'
p1797
tp1798
Rp1799
(dp1800
g12
g1719
sbsg1778
g1
(g6
g7
S'title'
p1801
tp1802
Rp1803
(dp1804
g12
g1778
sbsg1783
g1
(g6
g7
S'CytB[title]'
p1805
tp1806
Rp1807
(dp1808
g12
g1783
sbsg1788
g1
(g6
g7
g77
tp1809
Rp1810
(dp1811
g12
g1788
sbstp1812
Rp1813
(dp1814
g12
g1795
sbag1
(g6
g7
S'AND'
p1815
tp1816
Rp1817
(dp1818
g12
VOP
p1819
sbatp1820
Rp1821
(dp1822
g12
g1771
sbsVRetStart
p1823
g1
(g6
g7
g93
tp1824
Rp1825
(dp1826
g12
g1823
sbsVTranslationSet
p1827
g1
(g18
g19
(lp1828
tp1829
Rp1830
(dp1831
g12
g1827
sbstp1832
Rp1833
(dp1834
g12
VeSearchResult
p1835
sbag1
(g2
g3
(dp1836
VCount
p1837
g1
(g6
g7
g468
tp1838
Rp1839
(dp1840
g12
g1837
sbsVRetMax
p1841
g1
(g6
g7
g468
tp1842
Rp1843
(dp1844
g12
g1841
sbsVIdList
p1845
g1
(g18
g19
(lp1846
g1
(g6
g7
S'73427301'
p1847
tp1848
Rp1849
(dp1850
g12
VId
p1851
sbag1
(g6
g7
S'662357634'
p1852
tp1853
Rp1854
(dp1855
g12
g1851
sbag1
(g6
g7
S'662357632'
p1856
tp1857
Rp1858
(dp1859
g12
g1851
sbag1
(g6
g7
S'662357630'
p1860
tp1861
Rp1862
(dp1863
g12
g1851
sbatp1864
Rp1865
(dp1866
g12
g1845
sbsVQueryTranslation
p1867
g1
(g6
g7
S'Lutjanus argentiventris[PORG] AND CytB[title]'
p1868
tp1869
Rp1870
(dp1871
g12
g1867
sbsVTranslationStack
p1872
g1
(g18
g19
(lp1873
g1
(g2
g3
(dp1874
g1837
g1
(g6
g7
S'27'
p1875
tp1876
Rp1877
(dp1878
g12
g1837
sbsVField
p1879
g1
(g6
g7
S'PORG'
p1880
tp1881
Rp1882
(dp1883
g12
g1879
sbsVTerm
p1884
g1
(g6
g7
S'Lutjanus argentiventris[PORG]'
p1885
tp1886
Rp1887
(dp1888
g12
g1884
sbsVExplode
p1889
g1
(g6
g7
g56
tp1890
Rp1891
(dp1892
g12
g1889
sbstp1893
Rp1894
(dp1895
g12
VTermSet
p1896
sbag1
(g2
g3
(dp1897
g1837
g1
(g6
g7
S'317705'
p1898
tp1899
Rp1900
(dp1901
g12
g1837
sbsg1879
g1
(g6
g7
S'title'
p1902
tp1903
Rp1904
(dp1905
g12
g1879
sbsg1884
g1
(g6
g7
S'CytB[title]'
p1906
tp1907
Rp1908
(dp1909
g12
g1884
sbsg1889
g1
(g6
g7
g77
tp1910
Rp1911
(dp1912
g12
g1889
sbstp1913
Rp1914
(dp1915
g12
g1896
sbag1
(g6
g7
S'AND'
p1916
tp1917
Rp1918
(dp1919
g12
VOP
p1920
sbatp1921
Rp1922
(dp1923
g12
g1872
sbsVRetStart
p1924
g1
(g6
g7
g93
tp1925
Rp1926
(dp1927
g12
g1924
sbsVTranslationSet
p1928
g1
(g18
g19
(lp1929
tp1930
Rp1931
(dp1932
g12
g1928
sbstp1933
Rp1934
(dp1935
g12
VeSearchResult
p1936
sbag1
(g2
g3
(dp1937
VCount
p1938
g1
(g6
g7
g93
tp1939
Rp1940
(dp1941
g12
g1938
sbsVRetMax
p1942
g1
(g6
g7
g93
tp1943
Rp1944
(dp1945
g12
g1942
sbsVIdList
p1946
g1
(g18
g19
(lp1947
tp1948
Rp1949
(dp1950
g12
g1946
sbsVQueryTranslation
p1951
g1
(g6
g7
S'Lutjanus bengalensis[PORG] AND CytB[title]'
p1952
tp1953
Rp1954
(dp1955
g12
g1951
sbsVTranslationStack
p1956
g1
(g18
g19
(lp1957
g1
(g2
g3
(dp1958
g1938
g1
(g6
g7
S'33'
p1959
tp1960
Rp1961
(dp1962
g12
g1938
sbsVField
p1963
g1
(g6
g7
S'PORG'
p1964
tp1965
Rp1966
(dp1967
g12
g1963
sbsVTerm
p1968
g1
(g6
g7
S'Lutjanus bengalensis[PORG]'
p1969
tp1970
Rp1971
(dp1972
g12
g1968
sbsVExplode
p1973
g1
(g6
g7
g56
tp1974
Rp1975
(dp1976
g12
g1973
sbstp1977
Rp1978
(dp1979
g12
VTermSet
p1980
sbag1
(g2
g3
(dp1981
g1938
g1
(g6
g7
S'317705'
p1982
tp1983
Rp1984
(dp1985
g12
g1938
sbsg1963
g1
(g6
g7
S'title'
p1986
tp1987
Rp1988
(dp1989
g12
g1963
sbsg1968
g1
(g6
g7
S'CytB[title]'
p1990
tp1991
Rp1992
(dp1993
g12
g1968
sbsg1973
g1
(g6
g7
g77
tp1994
Rp1995
(dp1996
g12
g1973
sbstp1997
Rp1998
(dp1999
g12
g1980
sbag1
(g6
g7
S'AND'
p2000
tp2001
Rp2002
(dp2003
g12
VOP
p2004
sbatp2005
Rp2006
(dp2007
g12
g1956
sbsVRetStart
p2008
g1
(g6
g7
g93
tp2009
Rp2010
(dp2011
g12
g2008
sbsVTranslationSet
p2012
g1
(g18
g19
(lp2013
tp2014
Rp2015
(dp2016
g12
g2012
sbstp2017
Rp2018
(dp2019
g12
VeSearchResult
p2020
sbag1
(g2
g3
(dp2021
VCount
p2022
g1
(g6
g7
g93
tp2023
Rp2024
(dp2025
g12
g2022
sbsVRetMax
p2026
g1
(g6
g7
g93
tp2027
Rp2028
(dp2029
g12
g2026
sbsVIdList
p2030
g1
(g18
g19
(lp2031
tp2032
Rp2033
(dp2034
g12
g2030
sbsVQueryTranslation
p2035
g1
(g6
g7
S'Lutjanus biguttatus[PORG] AND CytB[title]'
p2036
tp2037
Rp2038
(dp2039
g12
g2035
sbsVTranslationStack
p2040
g1
(g18
g19
(lp2041
g1
(g2
g3
(dp2042
g2022
g1
(g6
g7
S'16'
p2043
tp2044
Rp2045
(dp2046
g12
g2022
sbsVField
p2047
g1
(g6
g7
S'PORG'
p2048
tp2049
Rp2050
(dp2051
g12
g2047
sbsVTerm
p2052
g1
(g6
g7
S'Lutjanus biguttatus[PORG]'
p2053
tp2054
Rp2055
(dp2056
g12
g2052
sbsVExplode
p2057
g1
(g6
g7
g56
tp2058
Rp2059
(dp2060
g12
g2057
sbstp2061
Rp2062
(dp2063
g12
VTermSet
p2064
sbag1
(g2
g3
(dp2065
g2022
g1
(g6
g7
S'317705'
p2066
tp2067
Rp2068
(dp2069
g12
g2022
sbsg2047
g1
(g6
g7
S'title'
p2070
tp2071
Rp2072
(dp2073
g12
g2047
sbsg2052
g1
(g6
g7
S'CytB[title]'
p2074
tp2075
Rp2076
(dp2077
g12
g2052
sbsg2057
g1
(g6
g7
g77
tp2078
Rp2079
(dp2080
g12
g2057
sbstp2081
Rp2082
(dp2083
g12
g2064
sbag1
(g6
g7
S'AND'
p2084
tp2085
Rp2086
(dp2087
g12
VOP
p2088
sbatp2089
Rp2090
(dp2091
g12
g2040
sbsVRetStart
p2092
g1
(g6
g7
g93
tp2093
Rp2094
(dp2095
g12
g2092
sbsVTranslationSet
p2096
g1
(g18
g19
(lp2097
tp2098
Rp2099
(dp2100
g12
g2096
sbstp2101
Rp2102
(dp2103
g12
VeSearchResult
p2104
sbag1
(g2
g3
(dp2105
VCount
p2106
g1
(g6
g7
g93
tp2107
Rp2108
(dp2109
g12
g2106
sbsVRetMax
p2110
g1
(g6
g7
g93
tp2111
Rp2112
(dp2113
g12
g2110
sbsVIdList
p2114
g1
(g18
g19
(lp2115
tp2116
Rp2117
(dp2118
g12
g2114
sbsVQueryTranslation
p2119
g1
(g6
g7
S'Lutjanus bitaeniatus[PORG] AND CytB[title]'
p2120
tp2121
Rp2122
(dp2123
g12
g2119
sbsVTranslationStack
p2124
g1
(g18
g19
(lp2125
g1
(g2
g3
(dp2126
g2106
g1
(g6
g7
S'5'
p2127
tp2128
Rp2129
(dp2130
g12
g2106
sbsVField
p2131
g1
(g6
g7
S'PORG'
p2132
tp2133
Rp2134
(dp2135
g12
g2131
sbsVTerm
p2136
g1
(g6
g7
S'Lutjanus bitaeniatus[PORG]'
p2137
tp2138
Rp2139
(dp2140
g12
g2136
sbsVExplode
p2141
g1
(g6
g7
g56
tp2142
Rp2143
(dp2144
g12
g2141
sbstp2145
Rp2146
(dp2147
g12
VTermSet
p2148
sbag1
(g2
g3
(dp2149
g2106
g1
(g6
g7
S'317705'
p2150
tp2151
Rp2152
(dp2153
g12
g2106
sbsg2131
g1
(g6
g7
S'title'
p2154
tp2155
Rp2156
(dp2157
g12
g2131
sbsg2136
g1
(g6
g7
S'CytB[title]'
p2158
tp2159
Rp2160
(dp2161
g12
g2136
sbsg2141
g1
(g6
g7
g77
tp2162
Rp2163
(dp2164
g12
g2141
sbstp2165
Rp2166
(dp2167
g12
g2148
sbag1
(g6
g7
S'AND'
p2168
tp2169
Rp2170
(dp2171
g12
VOP
p2172
sbatp2173
Rp2174
(dp2175
g12
g2124
sbsVRetStart
p2176
g1
(g6
g7
g93
tp2177
Rp2178
(dp2179
g12
g2176
sbsVTranslationSet
p2180
g1
(g18
g19
(lp2181
tp2182
Rp2183
(dp2184
g12
g2180
sbstp2185
Rp2186
(dp2187
g12
VeSearchResult
p2188
sbag1
(g2
g3
(dp2189
VCount
p2190
g1
(g6
g7
g108
tp2191
Rp2192
(dp2193
g12
g2190
sbsVRetMax
p2194
g1
(g6
g7
g108
tp2195
Rp2196
(dp2197
g12
g2194
sbsVIdList
p2198
g1
(g18
g19
(lp2199
g1
(g6
g7
S'111114780'
p2200
tp2201
Rp2202
(dp2203
g12
VId
p2204
sbatp2205
Rp2206
(dp2207
g12
g2198
sbsVQueryTranslation
p2208
g1
(g6
g7
S'Lutjanus bohar[PORG] AND CytB[title]'
p2209
tp2210
Rp2211
(dp2212
g12
g2208
sbsVTranslationStack
p2213
g1
(g18
g19
(lp2214
g1
(g2
g3
(dp2215
g2190
g1
(g6
g7
S'17'
p2216
tp2217
Rp2218
(dp2219
g12
g2190
sbsVField
p2220
g1
(g6
g7
S'PORG'
p2221
tp2222
Rp2223
(dp2224
g12
g2220
sbsVTerm
p2225
g1
(g6
g7
S'Lutjanus bohar[PORG]'
p2226
tp2227
Rp2228
(dp2229
g12
g2225
sbsVExplode
p2230
g1
(g6
g7
g56
tp2231
Rp2232
(dp2233
g12
g2230
sbstp2234
Rp2235
(dp2236
g12
VTermSet
p2237
sbag1
(g2
g3
(dp2238
g2190
g1
(g6
g7
S'317705'
p2239
tp2240
Rp2241
(dp2242
g12
g2190
sbsg2220
g1
(g6
g7
S'title'
p2243
tp2244
Rp2245
(dp2246
g12
g2220
sbsg2225
g1
(g6
g7
S'CytB[title]'
p2247
tp2248
Rp2249
(dp2250
g12
g2225
sbsg2230
g1
(g6
g7
g77
tp2251
Rp2252
(dp2253
g12
g2230
sbstp2254
Rp2255
(dp2256
g12
g2237
sbag1
(g6
g7
S'AND'
p2257
tp2258
Rp2259
(dp2260
g12
VOP
p2261
sbatp2262
Rp2263
(dp2264
g12
g2213
sbsVRetStart
p2265
g1
(g6
g7
g93
tp2266
Rp2267
(dp2268
g12
g2265
sbsVTranslationSet
p2269
g1
(g18
g19
(lp2270
tp2271
Rp2272
(dp2273
g12
g2269
sbstp2274
Rp2275
(dp2276
g12
VeSearchResult
p2277
sbag1
(g2
g3
(dp2278
VCount
p2279
g1
(g6
g7
g93
tp2280
Rp2281
(dp2282
g12
g2279
sbsVRetMax
p2283
g1
(g6
g7
g93
tp2284
Rp2285
(dp2286
g12
g2283
sbsVIdList
p2287
g1
(g18
g19
(lp2288
tp2289
Rp2290
(dp2291
g12
g2287
sbsVQueryTranslation
p2292
g1
(g6
g7
S'Lutjanus boutton[PORG] AND CytB[title]'
p2293
tp2294
Rp2295
(dp2296
g12
g2292
sbsVTranslationStack
p2297
g1
(g18
g19
(lp2298
g1
(g2
g3
(dp2299
g2279
g1
(g6
g7
g108
tp2300
Rp2301
(dp2302
g12
g2279
sbsVField
p2303
g1
(g6
g7
S'PORG'
p2304
tp2305
Rp2306
(dp2307
g12
g2303
sbsVTerm
p2308
g1
(g6
g7
S'Lutjanus boutton[PORG]'
p2309
tp2310
Rp2311
(dp2312
g12
g2308
sbsVExplode
p2313
g1
(g6
g7
g56
tp2314
Rp2315
(dp2316
g12
g2313
sbstp2317
Rp2318
(dp2319
g12
VTermSet
p2320
sbag1
(g2
g3
(dp2321
g2279
g1
(g6
g7
S'317705'
p2322
tp2323
Rp2324
(dp2325
g12
g2279
sbsg2303
g1
(g6
g7
S'title'
p2326
tp2327
Rp2328
(dp2329
g12
g2303
sbsg2308
g1
(g6
g7
S'CytB[title]'
p2330
tp2331
Rp2332
(dp2333
g12
g2308
sbsg2313
g1
(g6
g7
g77
tp2334
Rp2335
(dp2336
g12
g2313
sbstp2337
Rp2338
(dp2339
g12
g2320
sbag1
(g6
g7
S'AND'
p2340
tp2341
Rp2342
(dp2343
g12
VOP
p2344
sbatp2345
Rp2346
(dp2347
g12
g2297
sbsVRetStart
p2348
g1
(g6
g7
g93
tp2349
Rp2350
(dp2351
g12
g2348
sbsVTranslationSet
p2352
g1
(g18
g19
(lp2353
tp2354
Rp2355
(dp2356
g12
g2352
sbstp2357
Rp2358
(dp2359
g12
VeSearchResult
p2360
sbag1
(g2
g3
(dp2361
VCount
p2362
g1
(g6
g7
g287
tp2363
Rp2364
(dp2365
g12
g2362
sbsVRetMax
p2366
g1
(g6
g7
g287
tp2367
Rp2368
(dp2369
g12
g2366
sbsVIdList
p2370
g1
(g18
g19
(lp2371
g1
(g6
g7
S'320578867'
p2372
tp2373
Rp2374
(dp2375
g12
VId
p2376
sbag1
(g6
g7
S'320578865'
p2377
tp2378
Rp2379
(dp2380
g12
g2376
sbag1
(g6
g7
S'320578863'
p2381
tp2382
Rp2383
(dp2384
g12
g2376
sbatp2385
Rp2386
(dp2387
g12
g2370
sbsVQueryTranslation
p2388
g1
(g6
g7
S'Lutjanus buccanella[PORG] AND CytB[title]'
p2389
tp2390
Rp2391
(dp2392
g12
g2388
sbsVTranslationStack
p2393
g1
(g18
g19
(lp2394
g1
(g2
g3
(dp2395
g2362
g1
(g6
g7
S'18'
p2396
tp2397
Rp2398
(dp2399
g12
g2362
sbsVField
p2400
g1
(g6
g7
S'PORG'
p2401
tp2402
Rp2403
(dp2404
g12
g2400
sbsVTerm
p2405
g1
(g6
g7
S'Lutjanus buccanella[PORG]'
p2406
tp2407
Rp2408
(dp2409
g12
g2405
sbsVExplode
p2410
g1
(g6
g7
g56
tp2411
Rp2412
(dp2413
g12
g2410
sbstp2414
Rp2415
(dp2416
g12
VTermSet
p2417
sbag1
(g2
g3
(dp2418
g2362
g1
(g6
g7
S'317705'
p2419
tp2420
Rp2421
(dp2422
g12
g2362
sbsg2400
g1
(g6
g7
S'title'
p2423
tp2424
Rp2425
(dp2426
g12
g2400
sbsg2405
g1
(g6
g7
S'CytB[title]'
p2427
tp2428
Rp2429
(dp2430
g12
g2405
sbsg2410
g1
(g6
g7
g77
tp2431
Rp2432
(dp2433
g12
g2410
sbstp2434
Rp2435
(dp2436
g12
g2417
sbag1
(g6
g7
S'AND'
p2437
tp2438
Rp2439
(dp2440
g12
VOP
p2441
sbatp2442
Rp2443
(dp2444
g12
g2393
sbsVRetStart
p2445
g1
(g6
g7
g93
tp2446
Rp2447
(dp2448
g12
g2445
sbsVTranslationSet
p2449
g1
(g18
g19
(lp2450
tp2451
Rp2452
(dp2453
g12
g2449
sbstp2454
Rp2455
(dp2456
g12
VeSearchResult
p2457
sbag1
(g2
g3
(dp2458
VCount
p2459
g1
(g6
g7
S'19'
p2460
tp2461
Rp2462
(dp2463
g12
g2459
sbsVRetMax
p2464
g1
(g6
g7
S'19'
p2465
tp2466
Rp2467
(dp2468
g12
g2464
sbsVIdList
p2469
g1
(g18
g19
(lp2470
g1
(g6
g7
S'38492074'
p2471
tp2472
Rp2473
(dp2474
g12
VId
p2475
sbag1
(g6
g7
S'7331228'
p2476
tp2477
Rp2478
(dp2479
g12
g2475
sbag1
(g6
g7
S'7331226'
p2480
tp2481
Rp2482
(dp2483
g12
g2475
sbag1
(g6
g7
S'7331223'
p2484
tp2485
Rp2486
(dp2487
g12
g2475
sbag1
(g6
g7
S'7331221'
p2488
tp2489
Rp2490
(dp2491
g12
g2475
sbag1
(g6
g7
S'320578837'
p2492
tp2493
Rp2494
(dp2495
g12
g2475
sbag1
(g6
g7
S'320578835'
p2496
tp2497
Rp2498
(dp2499
g12
g2475
sbag1
(g6
g7
S'320578833'
p2500
tp2501
Rp2502
(dp2503
g12
g2475
sbag1
(g6
g7
S'218683290'
p2504
tp2505
Rp2506
(dp2507
g12
g2475
sbag1
(g6
g7
S'218683288'
p2508
tp2509
Rp2510
(dp2511
g12
g2475
sbag1
(g6
g7
S'218683286'
p2512
tp2513
Rp2514
(dp2515
g12
g2475
sbag1
(g6
g7
S'218683284'
p2516
tp2517
Rp2518
(dp2519
g12
g2475
sbag1
(g6
g7
S'218683282'
p2520
tp2521
Rp2522
(dp2523
g12
g2475
sbag1
(g6
g7
S'218683280'
p2524
tp2525
Rp2526
(dp2527
g12
g2475
sbag1
(g6
g7
S'31745635'
p2528
tp2529
Rp2530
(dp2531
g12
g2475
sbag1
(g6
g7
S'31745631'
p2532
tp2533
Rp2534
(dp2535
g12
g2475
sbag1
(g6
g7
S'31745627'
p2536
tp2537
Rp2538
(dp2539
g12
g2475
sbag1
(g6
g7
S'31745623'
p2540
tp2541
Rp2542
(dp2543
g12
g2475
sbag1
(g6
g7
S'31745605'
p2544
tp2545
Rp2546
(dp2547
g12
g2475
sbatp2548
Rp2549
(dp2550
g12
g2469
sbsVQueryTranslation
p2551
g1
(g6
g7
S'Lutjanus campechanus[PORG] AND CytB[title]'
p2552
tp2553
Rp2554
(dp2555
g12
g2551
sbsVTranslationStack
p2556
g1
(g18
g19
(lp2557
g1
(g2
g3
(dp2558
g2459
g1
(g6
g7
S'449'
p2559
tp2560
Rp2561
(dp2562
g12
g2459
sbsVField
p2563
g1
(g6
g7
S'PORG'
p2564
tp2565
Rp2566
(dp2567
g12
g2563
sbsVTerm
p2568
g1
(g6
g7
S'Lutjanus campechanus[PORG]'
p2569
tp2570
Rp2571
(dp2572
g12
g2568
sbsVExplode
p2573
g1
(g6
g7
g56
tp2574
Rp2575
(dp2576
g12
g2573
sbstp2577
Rp2578
(dp2579
g12
VTermSet
p2580
sbag1
(g2
g3
(dp2581
g2459
g1
(g6
g7
S'317705'
p2582
tp2583
Rp2584
(dp2585
g12
g2459
sbsg2563
g1
(g6
g7
S'title'
p2586
tp2587
Rp2588
(dp2589
g12
g2563
sbsg2568
g1
(g6
g7
S'CytB[title]'
p2590
tp2591
Rp2592
(dp2593
g12
g2568
sbsg2573
g1
(g6
g7
g77
tp2594
Rp2595
(dp2596
g12
g2573
sbstp2597
Rp2598
(dp2599
g12
g2580
sbag1
(g6
g7
S'AND'
p2600
tp2601
Rp2602
(dp2603
g12
VOP
p2604
sbatp2605
Rp2606
(dp2607
g12
g2556
sbsVRetStart
p2608
g1
(g6
g7
g93
tp2609
Rp2610
(dp2611
g12
g2608
sbsVTranslationSet
p2612
g1
(g18
g19
(lp2613
tp2614
Rp2615
(dp2616
g12
g2612
sbstp2617
Rp2618
(dp2619
g12
VeSearchResult
p2620
sbag1
(g2
g3
(dp2621
VCount
p2622
g1
(g6
g7
g108
tp2623
Rp2624
(dp2625
g12
g2622
sbsVRetMax
p2626
g1
(g6
g7
g108
tp2627
Rp2628
(dp2629
g12
g2626
sbsVIdList
p2630
g1
(g18
g19
(lp2631
g1
(g6
g7
S'111114782'
p2632
tp2633
Rp2634
(dp2635
g12
VId
p2636
sbatp2637
Rp2638
(dp2639
g12
g2630
sbsVQueryTranslation
p2640
g1
(g6
g7
S'Lutjanus carponotatus[PORG] AND CytB[title]'
p2641
tp2642
Rp2643
(dp2644
g12
g2640
sbsVTranslationStack
p2645
g1
(g18
g19
(lp2646
g1
(g2
g3
(dp2647
g2622
g1
(g6
g7
S'223'
p2648
tp2649
Rp2650
(dp2651
g12
g2622
sbsVField
p2652
g1
(g6
g7
S'PORG'
p2653
tp2654
Rp2655
(dp2656
g12
g2652
sbsVTerm
p2657
g1
(g6
g7
S'Lutjanus carponotatus[PORG]'
p2658
tp2659
Rp2660
(dp2661
g12
g2657
sbsVExplode
p2662
g1
(g6
g7
g56
tp2663
Rp2664
(dp2665
g12
g2662
sbstp2666
Rp2667
(dp2668
g12
VTermSet
p2669
sbag1
(g2
g3
(dp2670
g2622
g1
(g6
g7
S'317705'
p2671
tp2672
Rp2673
(dp2674
g12
g2622
sbsg2652
g1
(g6
g7
S'title'
p2675
tp2676
Rp2677
(dp2678
g12
g2652
sbsg2657
g1
(g6
g7
S'CytB[title]'
p2679
tp2680
Rp2681
(dp2682
g12
g2657
sbsg2662
g1
(g6
g7
g77
tp2683
Rp2684
(dp2685
g12
g2662
sbstp2686
Rp2687
(dp2688
g12
g2669
sbag1
(g6
g7
S'AND'
p2689
tp2690
Rp2691
(dp2692
g12
VOP
p2693
sbatp2694
Rp2695
(dp2696
g12
g2645
sbsVRetStart
p2697
g1
(g6
g7
g93
tp2698
Rp2699
(dp2700
g12
g2697
sbsVTranslationSet
p2701
g1
(g18
g19
(lp2702
tp2703
Rp2704
(dp2705
g12
g2701
sbstp2706
Rp2707
(dp2708
g12
VeSearchResult
p2709
sbag1
(g2
g3
(dp2710
VCount
p2711
g1
(g6
g7
g93
tp2712
Rp2713
(dp2714
g12
g2711
sbsVRetMax
p2715
g1
(g6
g7
g93
tp2716
Rp2717
(dp2718
g12
g2715
sbsVIdList
p2719
g1
(g18
g19
(lp2720
tp2721
Rp2722
(dp2723
g12
g2719
sbsVRetStart
p2724
g1
(g6
g7
g93
tp2725
Rp2726
(dp2727
g12
g2724
sbsVErrorList
p2728
g1
(g1249
g3
(dp2729
VFieldNotFound
p2730
(lp2731
sVPhraseNotFound
p2732
(lp2733
g1
(g6
g7
S'Lutjanus coeruleolineatus[PORG]'
p2734
tp2735
Rp2736
(dp2737
g12
VPhraseNotFound
p2738
sbastp2739
Rp2740
(dp2741
g12
g2728
sg1263
(lp2742
g2732
ag2730
asbsVTranslationSet
p2743
g1
(g18
g19
(lp2744
tp2745
Rp2746
(dp2747
g12
g2743
sbsVWarningList
p2748
g1
(g1249
g3
(dp2749
VOutputMessage
p2750
(lp2751
g1
(g6
g7
S'No items found.'
p2752
tp2753
Rp2754
(dp2755
g12
VOutputMessage
p2756
sbasVPhraseIgnored
p2757
(lp2758
sVQuotedPhraseNotFound
p2759
(lp2760
stp2761
Rp2762
(dp2763
g12
g2748
sg1263
(lp2764
g2757
ag2759
ag2750
asbsVQueryTranslation
p2765
g1
(g6
g7
S'Lutjanus coeruleolineatus[PORG] AND CytB[title]'
p2766
tp2767
Rp2768
(dp2769
g12
g2765
sbstp2770
Rp2771
(dp2772
g12
VeSearchResult
p2773
sbag1
(g2
g3
(dp2774
VCount
p2775
g1
(g6
g7
g8
tp2776
Rp2777
(dp2778
g12
g2775
sbsVRetMax
p2779
g1
(g6
g7
g8
tp2780
Rp2781
(dp2782
g12
g2779
sbsVIdList
p2783
g1
(g18
g19
(lp2784
g1
(g6
g7
S'662357646'
p2785
tp2786
Rp2787
(dp2788
g12
VId
p2789
sbag1
(g6
g7
S'662357644'
p2790
tp2791
Rp2792
(dp2793
g12
g2789
sbatp2794
Rp2795
(dp2796
g12
g2783
sbsVQueryTranslation
p2797
g1
(g6
g7
S'Lutjanus colorado[PORG] AND CytB[title]'
p2798
tp2799
Rp2800
(dp2801
g12
g2797
sbsVTranslationStack
p2802
g1
(g18
g19
(lp2803
g1
(g2
g3
(dp2804
g2775
g1
(g6
g7
g1720
tp2805
Rp2806
(dp2807
g12
g2775
sbsVField
p2808
g1
(g6
g7
S'PORG'
p2809
tp2810
Rp2811
(dp2812
g12
g2808
sbsVTerm
p2813
g1
(g6
g7
S'Lutjanus colorado[PORG]'
p2814
tp2815
Rp2816
(dp2817
g12
g2813
sbsVExplode
p2818
g1
(g6
g7
g56
tp2819
Rp2820
(dp2821
g12
g2818
sbstp2822
Rp2823
(dp2824
g12
VTermSet
p2825
sbag1
(g2
g3
(dp2826
g2775
g1
(g6
g7
S'317705'
p2827
tp2828
Rp2829
(dp2830
g12
g2775
sbsg2808
g1
(g6
g7
S'title'
p2831
tp2832
Rp2833
(dp2834
g12
g2808
sbsg2813
g1
(g6
g7
S'CytB[title]'
p2835
tp2836
Rp2837
(dp2838
g12
g2813
sbsg2818
g1
(g6
g7
g77
tp2839
Rp2840
(dp2841
g12
g2818
sbstp2842
Rp2843
(dp2844
g12
g2825
sbag1
(g6
g7
S'AND'
p2845
tp2846
Rp2847
(dp2848
g12
VOP
p2849
sbatp2850
Rp2851
(dp2852
g12
g2802
sbsVRetStart
p2853
g1
(g6
g7
g93
tp2854
Rp2855
(dp2856
g12
g2853
sbsVTranslationSet
p2857
g1
(g18
g19
(lp2858
tp2859
Rp2860
(dp2861
g12
g2857
sbstp2862
Rp2863
(dp2864
g12
VeSearchResult
p2865
sbag1
(g2
g3
(dp2866
VCount
p2867
g1
(g6
g7
g287
tp2868
Rp2869
(dp2870
g12
g2867
sbsVRetMax
p2871
g1
(g6
g7
g287
tp2872
Rp2873
(dp2874
g12
g2871
sbsVIdList
p2875
g1
(g18
g19
(lp2876
g1
(g6
g7
S'320578873'
p2877
tp2878
Rp2879
(dp2880
g12
VId
p2881
sbag1
(g6
g7
S'320578871'
p2882
tp2883
Rp2884
(dp2885
g12
g2881
sbag1
(g6
g7
S'320578869'
p2886
tp2887
Rp2888
(dp2889
g12
g2881
sbatp2890
Rp2891
(dp2892
g12
g2875
sbsVQueryTranslation
p2893
g1
(g6
g7
S'Lutjanus cyanopterus[PORG] AND CytB[title]'
p2894
tp2895
Rp2896
(dp2897
g12
g2893
sbsVTranslationStack
p2898
g1
(g18
g19
(lp2899
g1
(g2
g3
(dp2900
g2867
g1
(g6
g7
S'18'
p2901
tp2902
Rp2903
(dp2904
g12
g2867
sbsVField
p2905
g1
(g6
g7
S'PORG'
p2906
tp2907
Rp2908
(dp2909
g12
g2905
sbsVTerm
p2910
g1
(g6
g7
S'Lutjanus cyanopterus[PORG]'
p2911
tp2912
Rp2913
(dp2914
g12
g2910
sbsVExplode
p2915
g1
(g6
g7
g56
tp2916
Rp2917
(dp2918
g12
g2915
sbstp2919
Rp2920
(dp2921
g12
VTermSet
p2922
sbag1
(g2
g3
(dp2923
g2867
g1
(g6
g7
S'317705'
p2924
tp2925
Rp2926
(dp2927
g12
g2867
sbsg2905
g1
(g6
g7
S'title'
p2928
tp2929
Rp2930
(dp2931
g12
g2905
sbsg2910
g1
(g6
g7
S'CytB[title]'
p2932
tp2933
Rp2934
(dp2935
g12
g2910
sbsg2915
g1
(g6
g7
g77
tp2936
Rp2937
(dp2938
g12
g2915
sbstp2939
Rp2940
(dp2941
g12
g2922
sbag1
(g6
g7
S'AND'
p2942
tp2943
Rp2944
(dp2945
g12
VOP
p2946
sbatp2947
Rp2948
(dp2949
g12
g2898
sbsVRetStart
p2950
g1
(g6
g7
g93
tp2951
Rp2952
(dp2953
g12
g2950
sbsVTranslationSet
p2954
g1
(g18
g19
(lp2955
tp2956
Rp2957
(dp2958
g12
g2954
sbstp2959
Rp2960
(dp2961
g12
VeSearchResult
p2962
sbag1
(g2
g3
(dp2963
VCount
p2964
g1
(g6
g7
g108
tp2965
Rp2966
(dp2967
g12
g2964
sbsVRetMax
p2968
g1
(g6
g7
g108
tp2969
Rp2970
(dp2971
g12
g2968
sbsVIdList
p2972
g1
(g18
g19
(lp2973
g1
(g6
g7
S'13183282'
p2974
tp2975
Rp2976
(dp2977
g12
VId
p2978
sbatp2979
Rp2980
(dp2981
g12
g2972
sbsVQueryTranslation
p2982
g1
(g6
g7
S'Lutjanus decussatus[PORG] AND CytB[title]'
p2983
tp2984
Rp2985
(dp2986
g12
g2982
sbsVTranslationStack
p2987
g1
(g18
g19
(lp2988
g1
(g2
g3
(dp2989
g2964
g1
(g6
g7
g997
tp2990
Rp2991
(dp2992
g12
g2964
sbsVField
p2993
g1
(g6
g7
S'PORG'
p2994
tp2995
Rp2996
(dp2997
g12
g2993
sbsVTerm
p2998
g1
(g6
g7
S'Lutjanus decussatus[PORG]'
p2999
tp3000
Rp3001
(dp3002
g12
g2998
sbsVExplode
p3003
g1
(g6
g7
g56
tp3004
Rp3005
(dp3006
g12
g3003
sbstp3007
Rp3008
(dp3009
g12
VTermSet
p3010
sbag1
(g2
g3
(dp3011
g2964
g1
(g6
g7
S'317705'
p3012
tp3013
Rp3014
(dp3015
g12
g2964
sbsg2993
g1
(g6
g7
S'title'
p3016
tp3017
Rp3018
(dp3019
g12
g2993
sbsg2998
g1
(g6
g7
S'CytB[title]'
p3020
tp3021
Rp3022
(dp3023
g12
g2998
sbsg3003
g1
(g6
g7
g77
tp3024
Rp3025
(dp3026
g12
g3003
sbstp3027
Rp3028
(dp3029
g12
g3010
sbag1
(g6
g7
S'AND'
p3030
tp3031
Rp3032
(dp3033
g12
VOP
p3034
sbatp3035
Rp3036
(dp3037
g12
g2987
sbsVRetStart
p3038
g1
(g6
g7
g93
tp3039
Rp3040
(dp3041
g12
g3038
sbsVTranslationSet
p3042
g1
(g18
g19
(lp3043
tp3044
Rp3045
(dp3046
g12
g3042
sbstp3047
Rp3048
(dp3049
g12
VeSearchResult
p3050
sbag1
(g2
g3
(dp3051
VCount
p3052
g1
(g6
g7
g93
tp3053
Rp3054
(dp3055
g12
g3052
sbsVRetMax
p3056
g1
(g6
g7
g93
tp3057
Rp3058
(dp3059
g12
g3056
sbsVIdList
p3060
g1
(g18
g19
(lp3061
tp3062
Rp3063
(dp3064
g12
g3060
sbsVQueryTranslation
p3065
g1
(g6
g7
S'Lutjanus dentatus[PORG] AND CytB[title]'
p3066
tp3067
Rp3068
(dp3069
g12
g3065
sbsVTranslationStack
p3070
g1
(g18
g19
(lp3071
g1
(g2
g3
(dp3072
g3052
g1
(g6
g7
g108
tp3073
Rp3074
(dp3075
g12
g3052
sbsVField
p3076
g1
(g6
g7
S'PORG'
p3077
tp3078
Rp3079
(dp3080
g12
g3076
sbsVTerm
p3081
g1
(g6
g7
S'Lutjanus dentatus[PORG]'
p3082
tp3083
Rp3084
(dp3085
g12
g3081
sbsVExplode
p3086
g1
(g6
g7
g56
tp3087
Rp3088
(dp3089
g12
g3086
sbstp3090
Rp3091
(dp3092
g12
VTermSet
p3093
sbag1
(g2
g3
(dp3094
g3052
g1
(g6
g7
S'317705'
p3095
tp3096
Rp3097
(dp3098
g12
g3052
sbsg3076
g1
(g6
g7
S'title'
p3099
tp3100
Rp3101
(dp3102
g12
g3076
sbsg3081
g1
(g6
g7
S'CytB[title]'
p3103
tp3104
Rp3105
(dp3106
g12
g3081
sbsg3086
g1
(g6
g7
g77
tp3107
Rp3108
(dp3109
g12
g3086
sbstp3110
Rp3111
(dp3112
g12
g3093
sbag1
(g6
g7
S'AND'
p3113
tp3114
Rp3115
(dp3116
g12
VOP
p3117
sbatp3118
Rp3119
(dp3120
g12
g3070
sbsVRetStart
p3121
g1
(g6
g7
g93
tp3122
Rp3123
(dp3124
g12
g3121
sbsVTranslationSet
p3125
g1
(g18
g19
(lp3126
tp3127
Rp3128
(dp3129
g12
g3125
sbstp3130
Rp3131
(dp3132
g12
VeSearchResult
p3133
sbag1
(g2
g3
(dp3134
VCount
p3135
g1
(g6
g7
g93
tp3136
Rp3137
(dp3138
g12
g3135
sbsVRetMax
p3139
g1
(g6
g7
g93
tp3140
Rp3141
(dp3142
g12
g3139
sbsVIdList
p3143
g1
(g18
g19
(lp3144
tp3145
Rp3146
(dp3147
g12
g3143
sbsVQueryTranslation
p3148
g1
(g6
g7
S'Lutjanus dodecacanthoides[PORG] AND CytB[title]'
p3149
tp3150
Rp3151
(dp3152
g12
g3148
sbsVTranslationStack
p3153
g1
(g18
g19
(lp3154
g1
(g2
g3
(dp3155
g3135
g1
(g6
g7
g287
tp3156
Rp3157
(dp3158
g12
g3135
sbsVField
p3159
g1
(g6
g7
S'PORG'
p3160
tp3161
Rp3162
(dp3163
g12
g3159
sbsVTerm
p3164
g1
(g6
g7
S'Lutjanus dodecacanthoides[PORG]'
p3165
tp3166
Rp3167
(dp3168
g12
g3164
sbsVExplode
p3169
g1
(g6
g7
g56
tp3170
Rp3171
(dp3172
g12
g3169
sbstp3173
Rp3174
(dp3175
g12
VTermSet
p3176
sbag1
(g2
g3
(dp3177
g3135
g1
(g6
g7
S'317705'
p3178
tp3179
Rp3180
(dp3181
g12
g3135
sbsg3159
g1
(g6
g7
S'title'
p3182
tp3183
Rp3184
(dp3185
g12
g3159
sbsg3164
g1
(g6
g7
S'CytB[title]'
p3186
tp3187
Rp3188
(dp3189
g12
g3164
sbsg3169
g1
(g6
g7
g77
tp3190
Rp3191
(dp3192
g12
g3169
sbstp3193
Rp3194
(dp3195
g12
g3176
sbag1
(g6
g7
S'AND'
p3196
tp3197
Rp3198
(dp3199
g12
VOP
p3200
sbatp3201
Rp3202
(dp3203
g12
g3153
sbsVRetStart
p3204
g1
(g6
g7
g93
tp3205
Rp3206
(dp3207
g12
g3204
sbsVTranslationSet
p3208
g1
(g18
g19
(lp3209
tp3210
Rp3211
(dp3212
g12
g3208
sbstp3213
Rp3214
(dp3215
g12
VeSearchResult
p3216
sbag1
(g2
g3
(dp3217
VCount
p3218
g1
(g6
g7
g93
tp3219
Rp3220
(dp3221
g12
g3218
sbsVRetMax
p3222
g1
(g6
g7
g93
tp3223
Rp3224
(dp3225
g12
g3222
sbsVIdList
p3226
g1
(g18
g19
(lp3227
tp3228
Rp3229
(dp3230
g12
g3226
sbsVQueryTranslation
p3231
g1
(g6
g7
S'Lutjanus ehrenbergii[PORG] AND CytB[title]'
p3232
tp3233
Rp3234
(dp3235
g12
g3231
sbsVTranslationStack
p3236
g1
(g18
g19
(lp3237
g1
(g2
g3
(dp3238
g3218
g1
(g6
g7
S'17'
p3239
tp3240
Rp3241
(dp3242
g12
g3218
sbsVField
p3243
g1
(g6
g7
S'PORG'
p3244
tp3245
Rp3246
(dp3247
g12
g3243
sbsVTerm
p3248
g1
(g6
g7
S'Lutjanus ehrenbergii[PORG]'
p3249
tp3250
Rp3251
(dp3252
g12
g3248
sbsVExplode
p3253
g1
(g6
g7
g56
tp3254
Rp3255
(dp3256
g12
g3253
sbstp3257
Rp3258
(dp3259
g12
VTermSet
p3260
sbag1
(g2
g3
(dp3261
g3218
g1
(g6
g7
S'317705'
p3262
tp3263
Rp3264
(dp3265
g12
g3218
sbsg3243
g1
(g6
g7
S'title'
p3266
tp3267
Rp3268
(dp3269
g12
g3243
sbsg3248
g1
(g6
g7
S'CytB[title]'
p3270
tp3271
Rp3272
(dp3273
g12
g3248
sbsg3253
g1
(g6
g7
g77
tp3274
Rp3275
(dp3276
g12
g3253
sbstp3277
Rp3278
(dp3279
g12
g3260
sbag1
(g6
g7
S'AND'
p3280
tp3281
Rp3282
(dp3283
g12
VOP
p3284
sbatp3285
Rp3286
(dp3287
g12
g3236
sbsVRetStart
p3288
g1
(g6
g7
g93
tp3289
Rp3290
(dp3291
g12
g3288
sbsVTranslationSet
p3292
g1
(g18
g19
(lp3293
tp3294
Rp3295
(dp3296
g12
g3292
sbstp3297
Rp3298
(dp3299
g12
VeSearchResult
p3300
sbag1
(g2
g3
(dp3301
VCount
p3302
g1
(g6
g7
g93
tp3303
Rp3304
(dp3305
g12
g3302
sbsVRetMax
p3306
g1
(g6
g7
g93
tp3307
Rp3308
(dp3309
g12
g3306
sbsVIdList
p3310
g1
(g18
g19
(lp3311
tp3312
Rp3313
(dp3314
g12
g3310
sbsVRetStart
p3315
g1
(g6
g7
g93
tp3316
Rp3317
(dp3318
g12
g3315
sbsVErrorList
p3319
g1
(g1249
g3
(dp3320
VFieldNotFound
p3321
(lp3322
sVPhraseNotFound
p3323
(lp3324
g1
(g6
g7
S'Lutjanus endecacanthus[PORG]'
p3325
tp3326
Rp3327
(dp3328
g12
VPhraseNotFound
p3329
sbastp3330
Rp3331
(dp3332
g12
g3319
sg1263
(lp3333
g3323
ag3321
asbsVTranslationSet
p3334
g1
(g18
g19
(lp3335
tp3336
Rp3337
(dp3338
g12
g3334
sbsVWarningList
p3339
g1
(g1249
g3
(dp3340
VOutputMessage
p3341
(lp3342
g1
(g6
g7
S'No items found.'
p3343
tp3344
Rp3345
(dp3346
g12
VOutputMessage
p3347
sbasVPhraseIgnored
p3348
(lp3349
sVQuotedPhraseNotFound
p3350
(lp3351
stp3352
Rp3353
(dp3354
g12
g3339
sg1263
(lp3355
g3348
ag3350
ag3341
asbsVQueryTranslation
p3356
g1
(g6
g7
S'Lutjanus endecacanthus[PORG] AND CytB[title]'
p3357
tp3358
Rp3359
(dp3360
g12
g3356
sbstp3361
Rp3362
(dp3363
g12
VeSearchResult
p3364
sbag1
(g2
g3
(dp3365
VCount
p3366
g1
(g6
g7
S'6'
p3367
tp3368
Rp3369
(dp3370
g12
g3366
sbsVRetMax
p3371
g1
(g6
g7
g3367
tp3372
Rp3373
(dp3374
g12
g3371
sbsVIdList
p3375
g1
(g18
g19
(lp3376
g1
(g6
g7
S'94694919'
p3377
tp3378
Rp3379
(dp3380
g12
VId
p3381
sbag1
(g6
g7
S'31745633'
p3382
tp3383
Rp3384
(dp3385
g12
g3381
sbag1
(g6
g7
S'31745601'
p3386
tp3387
Rp3388
(dp3389
g12
g3381
sbag1
(g6
g7
S'114224502'
p3390
tp3391
Rp3392
(dp3393
g12
g3381
sbag1
(g6
g7
S'114224500'
p3394
tp3395
Rp3396
(dp3397
g12
g3381
sbag1
(g6
g7
S'114224498'
p3398
tp3399
Rp3400
(dp3401
g12
g3381
sbatp3402
Rp3403
(dp3404
g12
g3375
sbsVQueryTranslation
p3405
g1
(g6
g7
S'Lutjanus erythropterus[PORG] AND CytB[title]'
p3406
tp3407
Rp3408
(dp3409
g12
g3405
sbsVTranslationStack
p3410
g1
(g18
g19
(lp3411
g1
(g2
g3
(dp3412
g3366
g1
(g6
g7
S'263'
p3413
tp3414
Rp3415
(dp3416
g12
g3366
sbsVField
p3417
g1
(g6
g7
S'PORG'
p3418
tp3419
Rp3420
(dp3421
g12
g3417
sbsVTerm
p3422
g1
(g6
g7
S'Lutjanus erythropterus[PORG]'
p3423
tp3424
Rp3425
(dp3426
g12
g3422
sbsVExplode
p3427
g1
(g6
g7
g56
tp3428
Rp3429
(dp3430
g12
g3427
sbstp3431
Rp3432
(dp3433
g12
VTermSet
p3434
sbag1
(g2
g3
(dp3435
g3366
g1
(g6
g7
S'317705'
p3436
tp3437
Rp3438
(dp3439
g12
g3366
sbsg3417
g1
(g6
g7
S'title'
p3440
tp3441
Rp3442
(dp3443
g12
g3417
sbsg3422
g1
(g6
g7
S'CytB[title]'
p3444
tp3445
Rp3446
(dp3447
g12
g3422
sbsg3427
g1
(g6
g7
g77
tp3448
Rp3449
(dp3450
g12
g3427
sbstp3451
Rp3452
(dp3453
g12
g3434
sbag1
(g6
g7
S'AND'
p3454
tp3455
Rp3456
(dp3457
g12
VOP
p3458
sbatp3459
Rp3460
(dp3461
g12
g3410
sbsVRetStart
p3462
g1
(g6
g7
g93
tp3463
Rp3464
(dp3465
g12
g3462
sbsVTranslationSet
p3466
g1
(g18
g19
(lp3467
tp3468
Rp3469
(dp3470
g12
g3466
sbstp3471
Rp3472
(dp3473
g12
VeSearchResult
p3474
sbag1
(g2
g3
(dp3475
VCount
p3476
g1
(g6
g7
g93
tp3477
Rp3478
(dp3479
g12
g3476
sbsVRetMax
p3480
g1
(g6
g7
g93
tp3481
Rp3482
(dp3483
g12
g3480
sbsVIdList
p3484
g1
(g18
g19
(lp3485
tp3486
Rp3487
(dp3488
g12
g3484
sbsVRetStart
p3489
g1
(g6
g7
g93
tp3490
Rp3491
(dp3492
g12
g3489
sbsVErrorList
p3493
g1
(g1249
g3
(dp3494
VFieldNotFound
p3495
(lp3496
sVPhraseNotFound
p3497
(lp3498
g1
(g6
g7
S'Lutjanus fulgens[PORG]'
p3499
tp3500
Rp3501
(dp3502
g12
VPhraseNotFound
p3503
sbastp3504
Rp3505
(dp3506
g12
g3493
sg1263
(lp3507
g3497
ag3495
asbsVTranslationSet
p3508
g1
(g18
g19
(lp3509
tp3510
Rp3511
(dp3512
g12
g3508
sbsVWarningList
p3513
g1
(g1249
g3
(dp3514
VOutputMessage
p3515
(lp3516
g1
(g6
g7
S'No items found.'
p3517
tp3518
Rp3519
(dp3520
g12
VOutputMessage
p3521
sbasVPhraseIgnored
p3522
(lp3523
sVQuotedPhraseNotFound
p3524
(lp3525
stp3526
Rp3527
(dp3528
g12
g3513
sg1263
(lp3529
g3522
ag3524
ag3515
asbsVQueryTranslation
p3530
g1
(g6
g7
S'Lutjanus fulgens[PORG] AND CytB[title]'
p3531
tp3532
Rp3533
(dp3534
g12
g3530
sbstp3535
Rp3536
(dp3537
g12
VeSearchResult
p3538
sbag1
(g2
g3
(dp3539
VCount
p3540
g1
(g6
g7
g3367
tp3541
Rp3542
(dp3543
g12
g3540
sbsVRetMax
p3544
g1
(g6
g7
g3367
tp3545
Rp3546
(dp3547
g12
g3544
sbsVIdList
p3548
g1
(g18
g19
(lp3549
g1
(g6
g7
S'339518283'
p3550
tp3551
Rp3552
(dp3553
g12
VId
p3554
sbag1
(g6
g7
S'94694900'
p3555
tp3556
Rp3557
(dp3558
g12
g3554
sbag1
(g6
g7
S'114224534'
p3559
tp3560
Rp3561
(dp3562
g12
g3554
sbag1
(g6
g7
S'114224532'
p3563
tp3564
Rp3565
(dp3566
g12
g3554
sbag1
(g6
g7
S'111114784'
p3567
tp3568
Rp3569
(dp3570
g12
g3554
sbag1
(g6
g7
S'1042780818'
p3571
tp3572
Rp3573
(dp3574
g12
g3554
sbatp3575
Rp3576
(dp3577
g12
g3548
sbsVQueryTranslation
p3578
g1
(g6
g7
S'Lutjanus fulviflamma[PORG] AND CytB[title]'
p3579
tp3580
Rp3581
(dp3582
g12
g3578
sbsVTranslationStack
p3583
g1
(g18
g19
(lp3584
g1
(g2
g3
(dp3585
g3540
g1
(g6
g7
S'78'
p3586
tp3587
Rp3588
(dp3589
g12
g3540
sbsVField
p3590
g1
(g6
g7
S'PORG'
p3591
tp3592
Rp3593
(dp3594
g12
g3590
sbsVTerm
p3595
g1
(g6
g7
S'Lutjanus fulviflamma[PORG]'
p3596
tp3597
Rp3598
(dp3599
g12
g3595
sbsVExplode
p3600
g1
(g6
g7
g56
tp3601
Rp3602
(dp3603
g12
g3600
sbstp3604
Rp3605
(dp3606
g12
VTermSet
p3607
sbag1
(g2
g3
(dp3608
g3540
g1
(g6
g7
S'317705'
p3609
tp3610
Rp3611
(dp3612
g12
g3540
sbsg3590
g1
(g6
g7
S'title'
p3613
tp3614
Rp3615
(dp3616
g12
g3590
sbsg3595
g1
(g6
g7
S'CytB[title]'
p3617
tp3618
Rp3619
(dp3620
g12
g3595
sbsg3600
g1
(g6
g7
g77
tp3621
Rp3622
(dp3623
g12
g3600
sbstp3624
Rp3625
(dp3626
g12
g3607
sbag1
(g6
g7
S'AND'
p3627
tp3628
Rp3629
(dp3630
g12
VOP
p3631
sbatp3632
Rp3633
(dp3634
g12
g3583
sbsVRetStart
p3635
g1
(g6
g7
g93
tp3636
Rp3637
(dp3638
g12
g3635
sbsVTranslationSet
p3639
g1
(g18
g19
(lp3640
tp3641
Rp3642
(dp3643
g12
g3639
sbstp3644
Rp3645
(dp3646
g12
VeSearchResult
p3647
sbag1
(g2
g3
(dp3648
VCount
p3649
g1
(g6
g7
S'45'
p3650
tp3651
Rp3652
(dp3653
g12
g3649
sbsVRetMax
p3654
g1
(g6
g7
S'20'
p3655
tp3656
Rp3657
(dp3658
g12
g3654
sbsVIdList
p3659
g1
(g18
g19
(lp3660
g1
(g6
g7
S'94694933'
p3661
tp3662
Rp3663
(dp3664
g12
VId
p3665
sbag1
(g6
g7
S'257838576'
p3666
tp3667
Rp3668
(dp3669
g12
g3665
sbag1
(g6
g7
S'257838574'
p3670
tp3671
Rp3672
(dp3673
g12
g3665
sbag1
(g6
g7
S'257838572'
p3674
tp3675
Rp3676
(dp3677
g12
g3665
sbag1
(g6
g7
S'257838570'
p3678
tp3679
Rp3680
(dp3681
g12
g3665
sbag1
(g6
g7
S'257838568'
p3682
tp3683
Rp3684
(dp3685
g12
g3665
sbag1
(g6
g7
S'257838566'
p3686
tp3687
Rp3688
(dp3689
g12
g3665
sbag1
(g6
g7
S'257838564'
p3690
tp3691
Rp3692
(dp3693
g12
g3665
sbag1
(g6
g7
S'257838562'
p3694
tp3695
Rp3696
(dp3697
g12
g3665
sbag1
(g6
g7
S'257838560'
p3698
tp3699
Rp3700
(dp3701
g12
g3665
sbag1
(g6
g7
S'257838558'
p3702
tp3703
Rp3704
(dp3705
g12
g3665
sbag1
(g6
g7
S'257838556'
p3706
tp3707
Rp3708
(dp3709
g12
g3665
sbag1
(g6
g7
S'257838554'
p3710
tp3711
Rp3712
(dp3713
g12
g3665
sbag1
(g6
g7
S'257838552'
p3714
tp3715
Rp3716
(dp3717
g12
g3665
sbag1
(g6
g7
S'257838550'
p3718
tp3719
Rp3720
(dp3721
g12
g3665
sbag1
(g6
g7
S'257838548'
p3722
tp3723
Rp3724
(dp3725
g12
g3665
sbag1
(g6
g7
S'257838546'
p3726
tp3727
Rp3728
(dp3729
g12
g3665
sbag1
(g6
g7
S'257838544'
p3730
tp3731
Rp3732
(dp3733
g12
g3665
sbag1
(g6
g7
S'257838542'
p3734
tp3735
Rp3736
(dp3737
g12
g3665
sbag1
(g6
g7
S'257838540'
p3738
tp3739
Rp3740
(dp3741
g12
g3665
sbatp3742
Rp3743
(dp3744
g12
g3659
sbsVQueryTranslation
p3745
g1
(g6
g7
S'Lutjanus fulvus[PORG] AND CytB[title]'
p3746
tp3747
Rp3748
(dp3749
g12
g3745
sbsVTranslationStack
p3750
g1
(g18
g19
(lp3751
g1
(g2
g3
(dp3752
g3649
g1
(g6
g7
S'75'
p3753
tp3754
Rp3755
(dp3756
g12
g3649
sbsVField
p3757
g1
(g6
g7
S'PORG'
p3758
tp3759
Rp3760
(dp3761
g12
g3757
sbsVTerm
p3762
g1
(g6
g7
S'Lutjanus fulvus[PORG]'
p3763
tp3764
Rp3765
(dp3766
g12
g3762
sbsVExplode
p3767
g1
(g6
g7
g56
tp3768
Rp3769
(dp3770
g12
g3767
sbstp3771
Rp3772
(dp3773
g12
VTermSet
p3774
sbag1
(g2
g3
(dp3775
g3649
g1
(g6
g7
S'317705'
p3776
tp3777
Rp3778
(dp3779
g12
g3649
sbsg3757
g1
(g6
g7
S'title'
p3780
tp3781
Rp3782
(dp3783
g12
g3757
sbsg3762
g1
(g6
g7
S'CytB[title]'
p3784
tp3785
Rp3786
(dp3787
g12
g3762
sbsg3767
g1
(g6
g7
g77
tp3788
Rp3789
(dp3790
g12
g3767
sbstp3791
Rp3792
(dp3793
g12
g3774
sbag1
(g6
g7
S'AND'
p3794
tp3795
Rp3796
(dp3797
g12
VOP
p3798
sbatp3799
Rp3800
(dp3801
g12
g3750
sbsVRetStart
p3802
g1
(g6
g7
g93
tp3803
Rp3804
(dp3805
g12
g3802
sbsVTranslationSet
p3806
g1
(g18
g19
(lp3807
tp3808
Rp3809
(dp3810
g12
g3806
sbstp3811
Rp3812
(dp3813
g12
VeSearchResult
p3814
sbag1
(g2
g3
(dp3815
VCount
p3816
g1
(g6
g7
g93
tp3817
Rp3818
(dp3819
g12
g3816
sbsVRetMax
p3820
g1
(g6
g7
g93
tp3821
Rp3822
(dp3823
g12
g3820
sbsVIdList
p3824
g1
(g18
g19
(lp3825
tp3826
Rp3827
(dp3828
g12
g3824
sbsVRetStart
p3829
g1
(g6
g7
g93
tp3830
Rp3831
(dp3832
g12
g3829
sbsVErrorList
p3833
g1
(g1249
g3
(dp3834
VFieldNotFound
p3835
(lp3836
sVPhraseNotFound
p3837
(lp3838
g1
(g6
g7
S'Lutjanus fuscescens[PORG]'
p3839
tp3840
Rp3841
(dp3842
g12
VPhraseNotFound
p3843
sbastp3844
Rp3845
(dp3846
g12
g3833
sg1263
(lp3847
g3837
ag3835
asbsVTranslationSet
p3848
g1
(g18
g19
(lp3849
tp3850
Rp3851
(dp3852
g12
g3848
sbsVWarningList
p3853
g1
(g1249
g3
(dp3854
VOutputMessage
p3855
(lp3856
g1
(g6
g7
S'No items found.'
p3857
tp3858
Rp3859
(dp3860
g12
VOutputMessage
p3861
sbasVPhraseIgnored
p3862
(lp3863
sVQuotedPhraseNotFound
p3864
(lp3865
stp3866
Rp3867
(dp3868
g12
g3853
sg1263
(lp3869
g3862
ag3864
ag3855
asbsVQueryTranslation
p3870
g1
(g6
g7
S'Lutjanus fuscescens[PORG] AND CytB[title]'
p3871
tp3872
Rp3873
(dp3874
g12
g3870
sbstp3875
Rp3876
(dp3877
g12
VeSearchResult
p3878
sbag1
(g2
g3
(dp3879
VCount
p3880
g1
(g6
g7
g108
tp3881
Rp3882
(dp3883
g12
g3880
sbsVRetMax
p3884
g1
(g6
g7
g108
tp3885
Rp3886
(dp3887
g12
g3884
sbsVIdList
p3888
g1
(g18
g19
(lp3889
g1
(g6
g7
S'111114788'
p3890
tp3891
Rp3892
(dp3893
g12
VId
p3894
sbatp3895
Rp3896
(dp3897
g12
g3888
sbsVQueryTranslation
p3898
g1
(g6
g7
S'Lutjanus gibbus[PORG] AND CytB[title]'
p3899
tp3900
Rp3901
(dp3902
g12
g3898
sbsVTranslationStack
p3903
g1
(g18
g19
(lp3904
g1
(g2
g3
(dp3905
g3880
g1
(g6
g7
S'12'
p3906
tp3907
Rp3908
(dp3909
g12
g3880
sbsVField
p3910
g1
(g6
g7
S'PORG'
p3911
tp3912
Rp3913
(dp3914
g12
g3910
sbsVTerm
p3915
g1
(g6
g7
S'Lutjanus gibbus[PORG]'
p3916
tp3917
Rp3918
(dp3919
g12
g3915
sbsVExplode
p3920
g1
(g6
g7
g56
tp3921
Rp3922
(dp3923
g12
g3920
sbstp3924
Rp3925
(dp3926
g12
VTermSet
p3927
sbag1
(g2
g3
(dp3928
g3880
g1
(g6
g7
S'317705'
p3929
tp3930
Rp3931
(dp3932
g12
g3880
sbsg3910
g1
(g6
g7
S'title'
p3933
tp3934
Rp3935
(dp3936
g12
g3910
sbsg3915
g1
(g6
g7
S'CytB[title]'
p3937
tp3938
Rp3939
(dp3940
g12
g3915
sbsg3920
g1
(g6
g7
g77
tp3941
Rp3942
(dp3943
g12
g3920
sbstp3944
Rp3945
(dp3946
g12
g3927
sbag1
(g6
g7
S'AND'
p3947
tp3948
Rp3949
(dp3950
g12
VOP
p3951
sbatp3952
Rp3953
(dp3954
g12
g3903
sbsVRetStart
p3955
g1
(g6
g7
g93
tp3956
Rp3957
(dp3958
g12
g3955
sbsVTranslationSet
p3959
g1
(g18
g19
(lp3960
tp3961
Rp3962
(dp3963
g12
g3959
sbstp3964
Rp3965
(dp3966
g12
VeSearchResult
p3967
sbag1
(g2
g3
(dp3968
VCount
p3969
g1
(g6
g7
g93
tp3970
Rp3971
(dp3972
g12
g3969
sbsVRetMax
p3973
g1
(g6
g7
g93
tp3974
Rp3975
(dp3976
g12
g3973
sbsVIdList
p3977
g1
(g18
g19
(lp3978
tp3979
Rp3980
(dp3981
g12
g3977
sbsVQueryTranslation
p3982
g1
(g6
g7
S'Lutjanus goldiei[PORG] AND CytB[title]'
p3983
tp3984
Rp3985
(dp3986
g12
g3982
sbsVTranslationStack
p3987
g1
(g18
g19
(lp3988
g1
(g2
g3
(dp3989
g3969
g1
(g6
g7
g108
tp3990
Rp3991
(dp3992
g12
g3969
sbsVField
p3993
g1
(g6
g7
S'PORG'
p3994
tp3995
Rp3996
(dp3997
g12
g3993
sbsVTerm
p3998
g1
(g6
g7
S'Lutjanus goldiei[PORG]'
p3999
tp4000
Rp4001
(dp4002
g12
g3998
sbsVExplode
p4003
g1
(g6
g7
g56
tp4004
Rp4005
(dp4006
g12
g4003
sbstp4007
Rp4008
(dp4009
g12
VTermSet
p4010
sbag1
(g2
g3
(dp4011
g3969
g1
(g6
g7
S'317705'
p4012
tp4013
Rp4014
(dp4015
g12
g3969
sbsg3993
g1
(g6
g7
S'title'
p4016
tp4017
Rp4018
(dp4019
g12
g3993
sbsg3998
g1
(g6
g7
S'CytB[title]'
p4020
tp4021
Rp4022
(dp4023
g12
g3998
sbsg4003
g1
(g6
g7
g77
tp4024
Rp4025
(dp4026
g12
g4003
sbstp4027
Rp4028
(dp4029
g12
g4010
sbag1
(g6
g7
S'AND'
p4030
tp4031
Rp4032
(dp4033
g12
VOP
p4034
sbatp4035
Rp4036
(dp4037
g12
g3987
sbsVRetStart
p4038
g1
(g6
g7
g93
tp4039
Rp4040
(dp4041
g12
g4038
sbsVTranslationSet
p4042
g1
(g18
g19
(lp4043
tp4044
Rp4045
(dp4046
g12
g4042
sbstp4047
Rp4048
(dp4049
g12
VeSearchResult
p4050
sbag1
(g2
g3
(dp4051
VCount
p4052
g1
(g6
g7
g93
tp4053
Rp4054
(dp4055
g12
g4052
sbsVRetMax
p4056
g1
(g6
g7
g93
tp4057
Rp4058
(dp4059
g12
g4056
sbsVIdList
p4060
g1
(g18
g19
(lp4061
tp4062
Rp4063
(dp4064
g12
g4060
sbsVRetStart
p4065
g1
(g6
g7
g93
tp4066
Rp4067
(dp4068
g12
g4065
sbsVErrorList
p4069
g1
(g1249
g3
(dp4070
VFieldNotFound
p4071
(lp4072
sVPhraseNotFound
p4073
(lp4074
g1
(g6
g7
S'Lutjanus goreensis[PORG]'
p4075
tp4076
Rp4077
(dp4078
g12
VPhraseNotFound
p4079
sbastp4080
Rp4081
(dp4082
g12
g4069
sg1263
(lp4083
g4073
ag4071
asbsVTranslationSet
p4084
g1
(g18
g19
(lp4085
tp4086
Rp4087
(dp4088
g12
g4084
sbsVWarningList
p4089
g1
(g1249
g3
(dp4090
VOutputMessage
p4091
(lp4092
g1
(g6
g7
S'No items found.'
p4093
tp4094
Rp4095
(dp4096
g12
VOutputMessage
p4097
sbasVPhraseIgnored
p4098
(lp4099
sVQuotedPhraseNotFound
p4100
(lp4101
stp4102
Rp4103
(dp4104
g12
g4089
sg1263
(lp4105
g4098
ag4100
ag4091
asbsVQueryTranslation
p4106
g1
(g6
g7
S'Lutjanus goreensis[PORG] AND CytB[title]'
p4107
tp4108
Rp4109
(dp4110
g12
g4106
sbstp4111
Rp4112
(dp4113
g12
VeSearchResult
p4114
sbag1
(g2
g3
(dp4115
VCount
p4116
g1
(g6
g7
g468
tp4117
Rp4118
(dp4119
g12
g4116
sbsVRetMax
p4120
g1
(g6
g7
g468
tp4121
Rp4122
(dp4123
g12
g4120
sbsVIdList
p4124
g1
(g18
g19
(lp4125
g1
(g6
g7
S'320578843'
p4126
tp4127
Rp4128
(dp4129
g12
VId
p4130
sbag1
(g6
g7
S'320578841'
p4131
tp4132
Rp4133
(dp4134
g12
g4130
sbag1
(g6
g7
S'320578839'
p4135
tp4136
Rp4137
(dp4138
g12
g4130
sbag1
(g6
g7
S'570962618'
p4139
tp4140
Rp4141
(dp4142
g12
g4130
sbatp4143
Rp4144
(dp4145
g12
g4124
sbsVQueryTranslation
p4146
g1
(g6
g7
S'Lutjanus griseus[PORG] AND CytB[title]'
p4147
tp4148
Rp4149
(dp4150
g12
g4146
sbsVTranslationStack
p4151
g1
(g18
g19
(lp4152
g1
(g2
g3
(dp4153
g4116
g1
(g6
g7
S'116'
p4154
tp4155
Rp4156
(dp4157
g12
g4116
sbsVField
p4158
g1
(g6
g7
S'PORG'
p4159
tp4160
Rp4161
(dp4162
g12
g4158
sbsVTerm
p4163
g1
(g6
g7
S'Lutjanus griseus[PORG]'
p4164
tp4165
Rp4166
(dp4167
g12
g4163
sbsVExplode
p4168
g1
(g6
g7
g56
tp4169
Rp4170
(dp4171
g12
g4168
sbstp4172
Rp4173
(dp4174
g12
VTermSet
p4175
sbag1
(g2
g3
(dp4176
g4116
g1
(g6
g7
S'317705'
p4177
tp4178
Rp4179
(dp4180
g12
g4116
sbsg4158
g1
(g6
g7
S'title'
p4181
tp4182
Rp4183
(dp4184
g12
g4158
sbsg4163
g1
(g6
g7
S'CytB[title]'
p4185
tp4186
Rp4187
(dp4188
g12
g4163
sbsg4168
g1
(g6
g7
g77
tp4189
Rp4190
(dp4191
g12
g4168
sbstp4192
Rp4193
(dp4194
g12
g4175
sbag1
(g6
g7
S'AND'
p4195
tp4196
Rp4197
(dp4198
g12
VOP
p4199
sbatp4200
Rp4201
(dp4202
g12
g4151
sbsVRetStart
p4203
g1
(g6
g7
g93
tp4204
Rp4205
(dp4206
g12
g4203
sbsVTranslationSet
p4207
g1
(g18
g19
(lp4208
tp4209
Rp4210
(dp4211
g12
g4207
sbstp4212
Rp4213
(dp4214
g12
VeSearchResult
p4215
sbag1
(g2
g3
(dp4216
VCount
p4217
g1
(g6
g7
g93
tp4218
Rp4219
(dp4220
g12
g4217
sbsVRetMax
p4221
g1
(g6
g7
g93
tp4222
Rp4223
(dp4224
g12
g4221
sbsVIdList
p4225
g1
(g18
g19
(lp4226
tp4227
Rp4228
(dp4229
g12
g4225
sbsVRetStart
p4230
g1
(g6
g7
g93
tp4231
Rp4232
(dp4233
g12
g4230
sbsVErrorList
p4234
g1
(g1249
g3
(dp4235
VFieldNotFound
p4236
(lp4237
sVPhraseNotFound
p4238
(lp4239
g1
(g6
g7
S'Lutjanus guilcheri[PORG]'
p4240
tp4241
Rp4242
(dp4243
g12
VPhraseNotFound
p4244
sbastp4245
Rp4246
(dp4247
g12
g4234
sg1263
(lp4248
g4238
ag4236
asbsVTranslationSet
p4249
g1
(g18
g19
(lp4250
tp4251
Rp4252
(dp4253
g12
g4249
sbsVWarningList
p4254
g1
(g1249
g3
(dp4255
VOutputMessage
p4256
(lp4257
g1
(g6
g7
S'No items found.'
p4258
tp4259
Rp4260
(dp4261
g12
VOutputMessage
p4262
sbasVPhraseIgnored
p4263
(lp4264
sVQuotedPhraseNotFound
p4265
(lp4266
stp4267
Rp4268
(dp4269
g12
g4254
sg1263
(lp4270
g4263
ag4265
ag4256
asbsVQueryTranslation
p4271
g1
(g6
g7
S'Lutjanus guilcheri[PORG] AND CytB[title]'
p4272
tp4273
Rp4274
(dp4275
g12
g4271
sbstp4276
Rp4277
(dp4278
g12
VeSearchResult
p4279
sbag1
(g2
g3
(dp4280
VCount
p4281
g1
(g6
g7
g287
tp4282
Rp4283
(dp4284
g12
g4281
sbsVRetMax
p4285
g1
(g6
g7
g287
tp4286
Rp4287
(dp4288
g12
g4285
sbsVIdList
p4289
g1
(g18
g19
(lp4290
g1
(g6
g7
S'662357622'
p4291
tp4292
Rp4293
(dp4294
g12
VId
p4295
sbag1
(g6
g7
S'662357620'
p4296
tp4297
Rp4298
(dp4299
g12
g4295
sbag1
(g6
g7
S'662357618'
p4300
tp4301
Rp4302
(dp4303
g12
g4295
sbatp4304
Rp4305
(dp4306
g12
g4289
sbsVQueryTranslation
p4307
g1
(g6
g7
S'Lutjanus guttatus[PORG] AND CytB[title]'
p4308
tp4309
Rp4310
(dp4311
g12
g4307
sbsVTranslationStack
p4312
g1
(g18
g19
(lp4313
g1
(g2
g3
(dp4314
g4281
g1
(g6
g7
S'27'
p4315
tp4316
Rp4317
(dp4318
g12
g4281
sbsVField
p4319
g1
(g6
g7
S'PORG'
p4320
tp4321
Rp4322
(dp4323
g12
g4319
sbsVTerm
p4324
g1
(g6
g7
S'Lutjanus guttatus[PORG]'
p4325
tp4326
Rp4327
(dp4328
g12
g4324
sbsVExplode
p4329
g1
(g6
g7
g56
tp4330
Rp4331
(dp4332
g12
g4329
sbstp4333
Rp4334
(dp4335
g12
VTermSet
p4336
sbag1
(g2
g3
(dp4337
g4281
g1
(g6
g7
S'317705'
p4338
tp4339
Rp4340
(dp4341
g12
g4281
sbsg4319
g1
(g6
g7
S'title'
p4342
tp4343
Rp4344
(dp4345
g12
g4319
sbsg4324
g1
(g6
g7
S'CytB[title]'
p4346
tp4347
Rp4348
(dp4349
g12
g4324
sbsg4329
g1
(g6
g7
g77
tp4350
Rp4351
(dp4352
g12
g4329
sbstp4353
Rp4354
(dp4355
g12
g4336
sbag1
(g6
g7
S'AND'
p4356
tp4357
Rp4358
(dp4359
g12
VOP
p4360
sbatp4361
Rp4362
(dp4363
g12
g4312
sbsVRetStart
p4364
g1
(g6
g7
g93
tp4365
Rp4366
(dp4367
g12
g4364
sbsVTranslationSet
p4368
g1
(g18
g19
(lp4369
tp4370
Rp4371
(dp4372
g12
g4368
sbstp4373
Rp4374
(dp4375
g12
VeSearchResult
p4376
sbag1
(g2
g3
(dp4377
VCount
p4378
g1
(g6
g7
g93
tp4379
Rp4380
(dp4381
g12
g4378
sbsVRetMax
p4382
g1
(g6
g7
g93
tp4383
Rp4384
(dp4385
g12
g4382
sbsVIdList
p4386
g1
(g18
g19
(lp4387
tp4388
Rp4389
(dp4390
g12
g4386
sbsVQueryTranslation
p4391
g1
(g6
g7
S'Lutjanus indicus[PORG] AND CytB[title]'
p4392
tp4393
Rp4394
(dp4395
g12
g4391
sbsVTranslationStack
p4396
g1
(g18
g19
(lp4397
g1
(g2
g3
(dp4398
g4378
g1
(g6
g7
S'67'
p4399
tp4400
Rp4401
(dp4402
g12
g4378
sbsVField
p4403
g1
(g6
g7
S'PORG'
p4404
tp4405
Rp4406
(dp4407
g12
g4403
sbsVTerm
p4408
g1
(g6
g7
S'Lutjanus indicus[PORG]'
p4409
tp4410
Rp4411
(dp4412
g12
g4408
sbsVExplode
p4413
g1
(g6
g7
g56
tp4414
Rp4415
(dp4416
g12
g4413
sbstp4417
Rp4418
(dp4419
g12
VTermSet
p4420
sbag1
(g2
g3
(dp4421
g4378
g1
(g6
g7
S'317705'
p4422
tp4423
Rp4424
(dp4425
g12
g4378
sbsg4403
g1
(g6
g7
S'title'
p4426
tp4427
Rp4428
(dp4429
g12
g4403
sbsg4408
g1
(g6
g7
S'CytB[title]'
p4430
tp4431
Rp4432
(dp4433
g12
g4408
sbsg4413
g1
(g6
g7
g77
tp4434
Rp4435
(dp4436
g12
g4413
sbstp4437
Rp4438
(dp4439
g12
g4420
sbag1
(g6
g7
S'AND'
p4440
tp4441
Rp4442
(dp4443
g12
VOP
p4444
sbatp4445
Rp4446
(dp4447
g12
g4396
sbsVRetStart
p4448
g1
(g6
g7
g93
tp4449
Rp4450
(dp4451
g12
g4448
sbsVTranslationSet
p4452
g1
(g18
g19
(lp4453
tp4454
Rp4455
(dp4456
g12
g4452
sbstp4457
Rp4458
(dp4459
g12
VeSearchResult
p4460
sbag1
(g2
g3
(dp4461
VCount
p4462
g1
(g6
g7
g287
tp4463
Rp4464
(dp4465
g12
g4462
sbsVRetMax
p4466
g1
(g6
g7
g287
tp4467
Rp4468
(dp4469
g12
g4466
sbsVIdList
p4470
g1
(g18
g19
(lp4471
g1
(g6
g7
S'662357628'
p4472
tp4473
Rp4474
(dp4475
g12
VId
p4476
sbag1
(g6
g7
S'662357626'
p4477
tp4478
Rp4479
(dp4480
g12
g4476
sbag1
(g6
g7
S'662357624'
p4481
tp4482
Rp4483
(dp4484
g12
g4476
sbatp4485
Rp4486
(dp4487
g12
g4470
sbsVQueryTranslation
p4488
g1
(g6
g7
S'Lutjanus inermis[PORG] AND CytB[title]'
p4489
tp4490
Rp4491
(dp4492
g12
g4488
sbsVTranslationStack
p4493
g1
(g18
g19
(lp4494
g1
(g2
g3
(dp4495
g4462
g1
(g6
g7
g997
tp4496
Rp4497
(dp4498
g12
g4462
sbsVField
p4499
g1
(g6
g7
S'PORG'
p4500
tp4501
Rp4502
(dp4503
g12
g4499
sbsVTerm
p4504
g1
(g6
g7
S'Lutjanus inermis[PORG]'
p4505
tp4506
Rp4507
(dp4508
g12
g4504
sbsVExplode
p4509
g1
(g6
g7
g56
tp4510
Rp4511
(dp4512
g12
g4509
sbstp4513
Rp4514
(dp4515
g12
VTermSet
p4516
sbag1
(g2
g3
(dp4517
g4462
g1
(g6
g7
S'317705'
p4518
tp4519
Rp4520
(dp4521
g12
g4462
sbsg4499
g1
(g6
g7
S'title'
p4522
tp4523
Rp4524
(dp4525
g12
g4499
sbsg4504
g1
(g6
g7
S'CytB[title]'
p4526
tp4527
Rp4528
(dp4529
g12
g4504
sbsg4509
g1
(g6
g7
g77
tp4530
Rp4531
(dp4532
g12
g4509
sbstp4533
Rp4534
(dp4535
g12
g4516
sbag1
(g6
g7
S'AND'
p4536
tp4537
Rp4538
(dp4539
g12
VOP
p4540
sbatp4541
Rp4542
(dp4543
g12
g4493
sbsVRetStart
p4544
g1
(g6
g7
g93
tp4545
Rp4546
(dp4547
g12
g4544
sbsVTranslationSet
p4548
g1
(g18
g19
(lp4549
tp4550
Rp4551
(dp4552
g12
g4548
sbstp4553
Rp4554
(dp4555
g12
VeSearchResult
p4556
sbag1
(g2
g3
(dp4557
VCount
p4558
g1
(g6
g7
g287
tp4559
Rp4560
(dp4561
g12
g4558
sbsVRetMax
p4562
g1
(g6
g7
g287
tp4563
Rp4564
(dp4565
g12
g4562
sbsVIdList
p4566
g1
(g18
g19
(lp4567
g1
(g6
g7
S'320578879'
p4568
tp4569
Rp4570
(dp4571
g12
VId
p4572
sbag1
(g6
g7
S'320578877'
p4573
tp4574
Rp4575
(dp4576
g12
g4572
sbag1
(g6
g7
S'320578875'
p4577
tp4578
Rp4579
(dp4580
g12
g4572
sbatp4581
Rp4582
(dp4583
g12
g4566
sbsVQueryTranslation
p4584
g1
(g6
g7
S'Lutjanus jocu[PORG] AND CytB[title]'
p4585
tp4586
Rp4587
(dp4588
g12
g4584
sbsVTranslationStack
p4589
g1
(g18
g19
(lp4590
g1
(g2
g3
(dp4591
g4558
g1
(g6
g7
S'45'
p4592
tp4593
Rp4594
(dp4595
g12
g4558
sbsVField
p4596
g1
(g6
g7
S'PORG'
p4597
tp4598
Rp4599
(dp4600
g12
g4596
sbsVTerm
p4601
g1
(g6
g7
S'Lutjanus jocu[PORG]'
p4602
tp4603
Rp4604
(dp4605
g12
g4601
sbsVExplode
p4606
g1
(g6
g7
g56
tp4607
Rp4608
(dp4609
g12
g4606
sbstp4610
Rp4611
(dp4612
g12
VTermSet
p4613
sbag1
(g2
g3
(dp4614
g4558
g1
(g6
g7
S'317705'
p4615
tp4616
Rp4617
(dp4618
g12
g4558
sbsg4596
g1
(g6
g7
S'title'
p4619
tp4620
Rp4621
(dp4622
g12
g4596
sbsg4601
g1
(g6
g7
S'CytB[title]'
p4623
tp4624
Rp4625
(dp4626
g12
g4601
sbsg4606
g1
(g6
g7
g77
tp4627
Rp4628
(dp4629
g12
g4606
sbstp4630
Rp4631
(dp4632
g12
g4613
sbag1
(g6
g7
S'AND'
p4633
tp4634
Rp4635
(dp4636
g12
VOP
p4637
sbatp4638
Rp4639
(dp4640
g12
g4589
sbsVRetStart
p4641
g1
(g6
g7
g93
tp4642
Rp4643
(dp4644
g12
g4641
sbsVTranslationSet
p4645
g1
(g18
g19
(lp4646
tp4647
Rp4648
(dp4649
g12
g4645
sbstp4650
Rp4651
(dp4652
g12
VeSearchResult
p4653
sbag1
(g2
g3
(dp4654
VCount
p4655
g1
(g6
g7
g468
tp4656
Rp4657
(dp4658
g12
g4655
sbsVRetMax
p4659
g1
(g6
g7
g468
tp4660
Rp4661
(dp4662
g12
g4659
sbsVIdList
p4663
g1
(g18
g19
(lp4664
g1
(g6
g7
S'94694926'
p4665
tp4666
Rp4667
(dp4668
g12
VId
p4669
sbag1
(g6
g7
S'114224538'
p4670
tp4671
Rp4672
(dp4673
g12
g4669
sbag1
(g6
g7
S'114224536'
p4674
tp4675
Rp4676
(dp4677
g12
g4669
sbag1
(g6
g7
S'47606449'
p4678
tp4679
Rp4680
(dp4681
g12
g4669
sbatp4682
Rp4683
(dp4684
g12
g4663
sbsVQueryTranslation
p4685
g1
(g6
g7
S'Lutjanus johnii[PORG] AND CytB[title]'
p4686
tp4687
Rp4688
(dp4689
g12
g4685
sbsVTranslationStack
p4690
g1
(g18
g19
(lp4691
g1
(g2
g3
(dp4692
g4655
g1
(g6
g7
S'145'
p4693
tp4694
Rp4695
(dp4696
g12
g4655
sbsVField
p4697
g1
(g6
g7
S'PORG'
p4698
tp4699
Rp4700
(dp4701
g12
g4697
sbsVTerm
p4702
g1
(g6
g7
S'Lutjanus johnii[PORG]'
p4703
tp4704
Rp4705
(dp4706
g12
g4702
sbsVExplode
p4707
g1
(g6
g7
g56
tp4708
Rp4709
(dp4710
g12
g4707
sbstp4711
Rp4712
(dp4713
g12
VTermSet
p4714
sbag1
(g2
g3
(dp4715
g4655
g1
(g6
g7
S'317705'
p4716
tp4717
Rp4718
(dp4719
g12
g4655
sbsg4697
g1
(g6
g7
S'title'
p4720
tp4721
Rp4722
(dp4723
g12
g4697
sbsg4702
g1
(g6
g7
S'CytB[title]'
p4724
tp4725
Rp4726
(dp4727
g12
g4702
sbsg4707
g1
(g6
g7
g77
tp4728
Rp4729
(dp4730
g12
g4707
sbstp4731
Rp4732
(dp4733
g12
g4714
sbag1
(g6
g7
S'AND'
p4734
tp4735
Rp4736
(dp4737
g12
VOP
p4738
sbatp4739
Rp4740
(dp4741
g12
g4690
sbsVRetStart
p4742
g1
(g6
g7
g93
tp4743
Rp4744
(dp4745
g12
g4742
sbsVTranslationSet
p4746
g1
(g18
g19
(lp4747
tp4748
Rp4749
(dp4750
g12
g4746
sbstp4751
Rp4752
(dp4753
g12
VeSearchResult
p4754
sbag1
(g2
g3
(dp4755
VCount
p4756
g1
(g6
g7
g93
tp4757
Rp4758
(dp4759
g12
g4756
sbsVRetMax
p4760
g1
(g6
g7
g93
tp4761
Rp4762
(dp4763
g12
g4760
sbsVIdList
p4764
g1
(g18
g19
(lp4765
tp4766
Rp4767
(dp4768
g12
g4764
sbsVRetStart
p4769
g1
(g6
g7
g93
tp4770
Rp4771
(dp4772
g12
g4769
sbsVErrorList
p4773
g1
(g1249
g3
(dp4774
VFieldNotFound
p4775
(lp4776
sVPhraseNotFound
p4777
(lp4778
g1
(g6
g7
S'Lutjanus jordani[PORG]'
p4779
tp4780
Rp4781
(dp4782
g12
VPhraseNotFound
p4783
sbastp4784
Rp4785
(dp4786
g12
g4773
sg1263
(lp4787
g4777
ag4775
asbsVTranslationSet
p4788
g1
(g18
g19
(lp4789
tp4790
Rp4791
(dp4792
g12
g4788
sbsVWarningList
p4793
g1
(g1249
g3
(dp4794
VOutputMessage
p4795
(lp4796
g1
(g6
g7
S'No items found.'
p4797
tp4798
Rp4799
(dp4800
g12
VOutputMessage
p4801
sbasVPhraseIgnored
p4802
(lp4803
sVQuotedPhraseNotFound
p4804
(lp4805
stp4806
Rp4807
(dp4808
g12
g4793
sg1263
(lp4809
g4802
ag4804
ag4795
asbsVQueryTranslation
p4810
g1
(g6
g7
S'Lutjanus jordani[PORG] AND CytB[title]'
p4811
tp4812
Rp4813
(dp4814
g12
g4810
sbstp4815
Rp4816
(dp4817
g12
VeSearchResult
p4818
sbag1
(g2
g3
(dp4819
VCount
p4820
g1
(g6
g7
S'246'
p4821
tp4822
Rp4823
(dp4824
g12
g4820
sbsVRetMax
p4825
g1
(g6
g7
S'20'
p4826
tp4827
Rp4828
(dp4829
g12
g4825
sbsVIdList
p4830
g1
(g18
g19
(lp4831
g1
(g6
g7
S'348647332'
p4832
tp4833
Rp4834
(dp4835
g12
VId
p4836
sbag1
(g6
g7
S'348647330'
p4837
tp4838
Rp4839
(dp4840
g12
g4836
sbag1
(g6
g7
S'348647328'
p4841
tp4842
Rp4843
(dp4844
g12
g4836
sbag1
(g6
g7
S'348647326'
p4845
tp4846
Rp4847
(dp4848
g12
g4836
sbag1
(g6
g7
S'348647324'
p4849
tp4850
Rp4851
(dp4852
g12
g4836
sbag1
(g6
g7
S'348647322'
p4853
tp4854
Rp4855
(dp4856
g12
g4836
sbag1
(g6
g7
S'348647320'
p4857
tp4858
Rp4859
(dp4860
g12
g4836
sbag1
(g6
g7
S'348647318'
p4861
tp4862
Rp4863
(dp4864
g12
g4836
sbag1
(g6
g7
S'348647316'
p4865
tp4866
Rp4867
(dp4868
g12
g4836
sbag1
(g6
g7
S'348647314'
p4869
tp4870
Rp4871
(dp4872
g12
g4836
sbag1
(g6
g7
S'348647312'
p4873
tp4874
Rp4875
(dp4876
g12
g4836
sbag1
(g6
g7
S'348647310'
p4877
tp4878
Rp4879
(dp4880
g12
g4836
sbag1
(g6
g7
S'348647308'
p4881
tp4882
Rp4883
(dp4884
g12
g4836
sbag1
(g6
g7
S'348647306'
p4885
tp4886
Rp4887
(dp4888
g12
g4836
sbag1
(g6
g7
S'348647304'
p4889
tp4890
Rp4891
(dp4892
g12
g4836
sbag1
(g6
g7
S'348647302'
p4893
tp4894
Rp4895
(dp4896
g12
g4836
sbag1
(g6
g7
S'348647300'
p4897
tp4898
Rp4899
(dp4900
g12
g4836
sbag1
(g6
g7
S'348647298'
p4901
tp4902
Rp4903
(dp4904
g12
g4836
sbag1
(g6
g7
S'348647296'
p4905
tp4906
Rp4907
(dp4908
g12
g4836
sbag1
(g6
g7
S'348647294'
p4909
tp4910
Rp4911
(dp4912
g12
g4836
sbatp4913
Rp4914
(dp4915
g12
g4830
sbsVQueryTranslation
p4916
g1
(g6
g7
S'Lutjanus kasmira[PORG] AND CytB[title]'
p4917
tp4918
Rp4919
(dp4920
g12
g4916
sbsVTranslationStack
p4921
g1
(g18
g19
(lp4922
g1
(g2
g3
(dp4923
g4820
g1
(g6
g7
S'573'
p4924
tp4925
Rp4926
(dp4927
g12
g4820
sbsVField
p4928
g1
(g6
g7
S'PORG'
p4929
tp4930
Rp4931
(dp4932
g12
g4928
sbsVTerm
p4933
g1
(g6
g7
S'Lutjanus kasmira[PORG]'
p4934
tp4935
Rp4936
(dp4937
g12
g4933
sbsVExplode
p4938
g1
(g6
g7
g56
tp4939
Rp4940
(dp4941
g12
g4938
sbstp4942
Rp4943
(dp4944
g12
VTermSet
p4945
sbag1
(g2
g3
(dp4946
g4820
g1
(g6
g7
S'317705'
p4947
tp4948
Rp4949
(dp4950
g12
g4820
sbsg4928
g1
(g6
g7
S'title'
p4951
tp4952
Rp4953
(dp4954
g12
g4928
sbsg4933
g1
(g6
g7
S'CytB[title]'
p4955
tp4956
Rp4957
(dp4958
g12
g4933
sbsg4938
g1
(g6
g7
g77
tp4959
Rp4960
(dp4961
g12
g4938
sbstp4962
Rp4963
(dp4964
g12
g4945
sbag1
(g6
g7
S'AND'
p4965
tp4966
Rp4967
(dp4968
g12
VOP
p4969
sbatp4970
Rp4971
(dp4972
g12
g4921
sbsVRetStart
p4973
g1
(g6
g7
g93
tp4974
Rp4975
(dp4976
g12
g4973
sbsVTranslationSet
p4977
g1
(g18
g19
(lp4978
tp4979
Rp4980
(dp4981
g12
g4977
sbstp4982
Rp4983
(dp4984
g12
VeSearchResult
p4985
sbag1
(g2
g3
(dp4986
VCount
p4987
g1
(g6
g7
g93
tp4988
Rp4989
(dp4990
g12
g4987
sbsVRetMax
p4991
g1
(g6
g7
g93
tp4992
Rp4993
(dp4994
g12
g4991
sbsVIdList
p4995
g1
(g18
g19
(lp4996
tp4997
Rp4998
(dp4999
g12
g4995
sbsVQueryTranslation
p5000
g1
(g6
g7
S'Lutjanus lemniscatus[PORG] AND CytB[title]'
p5001
tp5002
Rp5003
(dp5004
g12
g5000
sbsVTranslationStack
p5005
g1
(g18
g19
(lp5006
g1
(g2
g3
(dp5007
g4987
g1
(g6
g7
g468
tp5008
Rp5009
(dp5010
g12
g4987
sbsVField
p5011
g1
(g6
g7
S'PORG'
p5012
tp5013
Rp5014
(dp5015
g12
g5011
sbsVTerm
p5016
g1
(g6
g7
S'Lutjanus lemniscatus[PORG]'
p5017
tp5018
Rp5019
(dp5020
g12
g5016
sbsVExplode
p5021
g1
(g6
g7
g56
tp5022
Rp5023
(dp5024
g12
g5021
sbstp5025
Rp5026
(dp5027
g12
VTermSet
p5028
sbag1
(g2
g3
(dp5029
g4987
g1
(g6
g7
S'317705'
p5030
tp5031
Rp5032
(dp5033
g12
g4987
sbsg5011
g1
(g6
g7
S'title'
p5034
tp5035
Rp5036
(dp5037
g12
g5011
sbsg5016
g1
(g6
g7
S'CytB[title]'
p5038
tp5039
Rp5040
(dp5041
g12
g5016
sbsg5021
g1
(g6
g7
g77
tp5042
Rp5043
(dp5044
g12
g5021
sbstp5045
Rp5046
(dp5047
g12
g5028
sbag1
(g6
g7
S'AND'
p5048
tp5049
Rp5050
(dp5051
g12
VOP
p5052
sbatp5053
Rp5054
(dp5055
g12
g5005
sbsVRetStart
p5056
g1
(g6
g7
g93
tp5057
Rp5058
(dp5059
g12
g5056
sbsVTranslationSet
p5060
g1
(g18
g19
(lp5061
tp5062
Rp5063
(dp5064
g12
g5060
sbstp5065
Rp5066
(dp5067
g12
VeSearchResult
p5068
sbag1
(g2
g3
(dp5069
VCount
p5070
g1
(g6
g7
g93
tp5071
Rp5072
(dp5073
g12
g5070
sbsVRetMax
p5074
g1
(g6
g7
g93
tp5075
Rp5076
(dp5077
g12
g5074
sbsVIdList
p5078
g1
(g18
g19
(lp5079
tp5080
Rp5081
(dp5082
g12
g5078
sbsVQueryTranslation
p5083
g1
(g6
g7
S'Lutjanus lunulatus[PORG] AND CytB[title]'
p5084
tp5085
Rp5086
(dp5087
g12
g5083
sbsVTranslationStack
p5088
g1
(g18
g19
(lp5089
g1
(g2
g3
(dp5090
g5070
g1
(g6
g7
g8
tp5091
Rp5092
(dp5093
g12
g5070
sbsVField
p5094
g1
(g6
g7
S'PORG'
p5095
tp5096
Rp5097
(dp5098
g12
g5094
sbsVTerm
p5099
g1
(g6
g7
S'Lutjanus lunulatus[PORG]'
p5100
tp5101
Rp5102
(dp5103
g12
g5099
sbsVExplode
p5104
g1
(g6
g7
g56
tp5105
Rp5106
(dp5107
g12
g5104
sbstp5108
Rp5109
(dp5110
g12
VTermSet
p5111
sbag1
(g2
g3
(dp5112
g5070
g1
(g6
g7
S'317705'
p5113
tp5114
Rp5115
(dp5116
g12
g5070
sbsg5094
g1
(g6
g7
S'title'
p5117
tp5118
Rp5119
(dp5120
g12
g5094
sbsg5099
g1
(g6
g7
S'CytB[title]'
p5121
tp5122
Rp5123
(dp5124
g12
g5099
sbsg5104
g1
(g6
g7
g77
tp5125
Rp5126
(dp5127
g12
g5104
sbstp5128
Rp5129
(dp5130
g12
g5111
sbag1
(g6
g7
S'AND'
p5131
tp5132
Rp5133
(dp5134
g12
VOP
p5135
sbatp5136
Rp5137
(dp5138
g12
g5088
sbsVRetStart
p5139
g1
(g6
g7
g93
tp5140
Rp5141
(dp5142
g12
g5139
sbsVTranslationSet
p5143
g1
(g18
g19
(lp5144
tp5145
Rp5146
(dp5147
g12
g5143
sbstp5148
Rp5149
(dp5150
g12
VeSearchResult
p5151
sbag1
(g2
g3
(dp5152
VCount
p5153
g1
(g6
g7
g93
tp5154
Rp5155
(dp5156
g12
g5153
sbsVRetMax
p5157
g1
(g6
g7
g93
tp5158
Rp5159
(dp5160
g12
g5157
sbsVIdList
p5161
g1
(g18
g19
(lp5162
tp5163
Rp5164
(dp5165
g12
g5161
sbsVQueryTranslation
p5166
g1
(g6
g7
S'Lutjanus lutjanus[PORG] AND CytB[title]'
p5167
tp5168
Rp5169
(dp5170
g12
g5166
sbsVTranslationStack
p5171
g1
(g18
g19
(lp5172
g1
(g2
g3
(dp5173
g5153
g1
(g6
g7
S'43'
p5174
tp5175
Rp5176
(dp5177
g12
g5153
sbsVField
p5178
g1
(g6
g7
S'PORG'
p5179
tp5180
Rp5181
(dp5182
g12
g5178
sbsVTerm
p5183
g1
(g6
g7
S'Lutjanus lutjanus[PORG]'
p5184
tp5185
Rp5186
(dp5187
g12
g5183
sbsVExplode
p5188
g1
(g6
g7
g56
tp5189
Rp5190
(dp5191
g12
g5188
sbstp5192
Rp5193
(dp5194
g12
VTermSet
p5195
sbag1
(g2
g3
(dp5196
g5153
g1
(g6
g7
S'317705'
p5197
tp5198
Rp5199
(dp5200
g12
g5153
sbsg5178
g1
(g6
g7
S'title'
p5201
tp5202
Rp5203
(dp5204
g12
g5178
sbsg5183
g1
(g6
g7
S'CytB[title]'
p5205
tp5206
Rp5207
(dp5208
g12
g5183
sbsg5188
g1
(g6
g7
g77
tp5209
Rp5210
(dp5211
g12
g5188
sbstp5212
Rp5213
(dp5214
g12
g5195
sbag1
(g6
g7
S'AND'
p5215
tp5216
Rp5217
(dp5218
g12
VOP
p5219
sbatp5220
Rp5221
(dp5222
g12
g5171
sbsVRetStart
p5223
g1
(g6
g7
g93
tp5224
Rp5225
(dp5226
g12
g5223
sbsVTranslationSet
p5227
g1
(g18
g19
(lp5228
tp5229
Rp5230
(dp5231
g12
g5227
sbstp5232
Rp5233
(dp5234
g12
VeSearchResult
p5235
sbag1
(g2
g3
(dp5236
VCount
p5237
g1
(g6
g7
g93
tp5238
Rp5239
(dp5240
g12
g5237
sbsVRetMax
p5241
g1
(g6
g7
g93
tp5242
Rp5243
(dp5244
g12
g5241
sbsVIdList
p5245
g1
(g18
g19
(lp5246
tp5247
Rp5248
(dp5249
g12
g5245
sbsVQueryTranslation
p5250
g1
(g6
g7
S'Lutjanus madras[PORG] AND CytB[title]'
p5251
tp5252
Rp5253
(dp5254
g12
g5250
sbsVTranslationStack
p5255
g1
(g18
g19
(lp5256
g1
(g2
g3
(dp5257
g5237
g1
(g6
g7
S'15'
p5258
tp5259
Rp5260
(dp5261
g12
g5237
sbsVField
p5262
g1
(g6
g7
S'PORG'
p5263
tp5264
Rp5265
(dp5266
g12
g5262
sbsVTerm
p5267
g1
(g6
g7
S'Lutjanus madras[PORG]'
p5268
tp5269
Rp5270
(dp5271
g12
g5267
sbsVExplode
p5272
g1
(g6
g7
g56
tp5273
Rp5274
(dp5275
g12
g5272
sbstp5276
Rp5277
(dp5278
g12
VTermSet
p5279
sbag1
(g2
g3
(dp5280
g5237
g1
(g6
g7
S'317705'
p5281
tp5282
Rp5283
(dp5284
g12
g5237
sbsg5262
g1
(g6
g7
S'title'
p5285
tp5286
Rp5287
(dp5288
g12
g5262
sbsg5267
g1
(g6
g7
S'CytB[title]'
p5289
tp5290
Rp5291
(dp5292
g12
g5267
sbsg5272
g1
(g6
g7
g77
tp5293
Rp5294
(dp5295
g12
g5272
sbstp5296
Rp5297
(dp5298
g12
g5279
sbag1
(g6
g7
S'AND'
p5299
tp5300
Rp5301
(dp5302
g12
VOP
p5303
sbatp5304
Rp5305
(dp5306
g12
g5255
sbsVRetStart
p5307
g1
(g6
g7
g93
tp5308
Rp5309
(dp5310
g12
g5307
sbsVTranslationSet
p5311
g1
(g18
g19
(lp5312
tp5313
Rp5314
(dp5315
g12
g5311
sbstp5316
Rp5317
(dp5318
g12
VeSearchResult
p5319
sbag1
(g2
g3
(dp5320
VCount
p5321
g1
(g6
g7
g108
tp5322
Rp5323
(dp5324
g12
g5321
sbsVRetMax
p5325
g1
(g6
g7
g108
tp5326
Rp5327
(dp5328
g12
g5325
sbsVIdList
p5329
g1
(g18
g19
(lp5330
g1
(g6
g7
S'320578881'
p5331
tp5332
Rp5333
(dp5334
g12
VId
p5335
sbatp5336
Rp5337
(dp5338
g12
g5329
sbsVQueryTranslation
p5339
g1
(g6
g7
S'Lutjanus mahogoni[PORG] AND CytB[title]'
p5340
tp5341
Rp5342
(dp5343
g12
g5339
sbsVTranslationStack
p5344
g1
(g18
g19
(lp5345
g1
(g2
g3
(dp5346
g5321
g1
(g6
g7
S'40'
p5347
tp5348
Rp5349
(dp5350
g12
g5321
sbsVField
p5351
g1
(g6
g7
S'PORG'
p5352
tp5353
Rp5354
(dp5355
g12
g5351
sbsVTerm
p5356
g1
(g6
g7
S'Lutjanus mahogoni[PORG]'
p5357
tp5358
Rp5359
(dp5360
g12
g5356
sbsVExplode
p5361
g1
(g6
g7
g56
tp5362
Rp5363
(dp5364
g12
g5361
sbstp5365
Rp5366
(dp5367
g12
VTermSet
p5368
sbag1
(g2
g3
(dp5369
g5321
g1
(g6
g7
S'317705'
p5370
tp5371
Rp5372
(dp5373
g12
g5321
sbsg5351
g1
(g6
g7
S'title'
p5374
tp5375
Rp5376
(dp5377
g12
g5351
sbsg5356
g1
(g6
g7
S'CytB[title]'
p5378
tp5379
Rp5380
(dp5381
g12
g5356
sbsg5361
g1
(g6
g7
g77
tp5382
Rp5383
(dp5384
g12
g5361
sbstp5385
Rp5386
(dp5387
g12
g5368
sbag1
(g6
g7
S'AND'
p5388
tp5389
Rp5390
(dp5391
g12
VOP
p5392
sbatp5393
Rp5394
(dp5395
g12
g5344
sbsVRetStart
p5396
g1
(g6
g7
g93
tp5397
Rp5398
(dp5399
g12
g5396
sbsVTranslationSet
p5400
g1
(g18
g19
(lp5401
tp5402
Rp5403
(dp5404
g12
g5400
sbstp5405
Rp5406
(dp5407
g12
VeSearchResult
p5408
sbag1
(g2
g3
(dp5409
VCount
p5410
g1
(g6
g7
g2127
tp5411
Rp5412
(dp5413
g12
g5410
sbsVRetMax
p5414
g1
(g6
g7
g2127
tp5415
Rp5416
(dp5417
g12
g5414
sbsVIdList
p5418
g1
(g18
g19
(lp5419
g1
(g6
g7
S'114224510'
p5420
tp5421
Rp5422
(dp5423
g12
VId
p5424
sbag1
(g6
g7
S'114224508'
p5425
tp5426
Rp5427
(dp5428
g12
g5424
sbag1
(g6
g7
S'114224506'
p5429
tp5430
Rp5431
(dp5432
g12
g5424
sbag1
(g6
g7
S'114224504'
p5433
tp5434
Rp5435
(dp5436
g12
g5424
sbag1
(g6
g7
S'117938035'
p5437
tp5438
Rp5439
(dp5440
g12
g5424
sbatp5441
Rp5442
(dp5443
g12
g5418
sbsVQueryTranslation
p5444
g1
(g6
g7
S'Lutjanus malabaricus[PORG] AND CytB[title]'
p5445
tp5446
Rp5447
(dp5448
g12
g5444
sbsVTranslationStack
p5449
g1
(g18
g19
(lp5450
g1
(g2
g3
(dp5451
g5410
g1
(g6
g7
S'49'
p5452
tp5453
Rp5454
(dp5455
g12
g5410
sbsVField
p5456
g1
(g6
g7
S'PORG'
p5457
tp5458
Rp5459
(dp5460
g12
g5456
sbsVTerm
p5461
g1
(g6
g7
S'Lutjanus malabaricus[PORG]'
p5462
tp5463
Rp5464
(dp5465
g12
g5461
sbsVExplode
p5466
g1
(g6
g7
g56
tp5467
Rp5468
(dp5469
g12
g5466
sbstp5470
Rp5471
(dp5472
g12
VTermSet
p5473
sbag1
(g2
g3
(dp5474
g5410
g1
(g6
g7
S'317705'
p5475
tp5476
Rp5477
(dp5478
g12
g5410
sbsg5456
g1
(g6
g7
S'title'
p5479
tp5480
Rp5481
(dp5482
g12
g5456
sbsg5461
g1
(g6
g7
S'CytB[title]'
p5483
tp5484
Rp5485
(dp5486
g12
g5461
sbsg5466
g1
(g6
g7
g77
tp5487
Rp5488
(dp5489
g12
g5466
sbstp5490
Rp5491
(dp5492
g12
g5473
sbag1
(g6
g7
S'AND'
p5493
tp5494
Rp5495
(dp5496
g12
VOP
p5497
sbatp5498
Rp5499
(dp5500
g12
g5449
sbsVRetStart
p5501
g1
(g6
g7
g93
tp5502
Rp5503
(dp5504
g12
g5501
sbsVTranslationSet
p5505
g1
(g18
g19
(lp5506
tp5507
Rp5508
(dp5509
g12
g5505
sbstp5510
Rp5511
(dp5512
g12
VeSearchResult
p5513
sbag1
(g2
g3
(dp5514
VCount
p5515
g1
(g6
g7
g93
tp5516
Rp5517
(dp5518
g12
g5515
sbsVRetMax
p5519
g1
(g6
g7
g93
tp5520
Rp5521
(dp5522
g12
g5519
sbsVIdList
p5523
g1
(g18
g19
(lp5524
tp5525
Rp5526
(dp5527
g12
g5523
sbsVRetStart
p5528
g1
(g6
g7
g93
tp5529
Rp5530
(dp5531
g12
g5528
sbsVErrorList
p5532
g1
(g1249
g3
(dp5533
VFieldNotFound
p5534
(lp5535
sVPhraseNotFound
p5536
(lp5537
g1
(g6
g7
S'Lutjanus maxweberi[PORG]'
p5538
tp5539
Rp5540
(dp5541
g12
VPhraseNotFound
p5542
sbastp5543
Rp5544
(dp5545
g12
g5532
sg1263
(lp5546
g5536
ag5534
asbsVTranslationSet
p5547
g1
(g18
g19
(lp5548
tp5549
Rp5550
(dp5551
g12
g5547
sbsVWarningList
p5552
g1
(g1249
g3
(dp5553
VOutputMessage
p5554
(lp5555
g1
(g6
g7
S'No items found.'
p5556
tp5557
Rp5558
(dp5559
g12
VOutputMessage
p5560
sbasVPhraseIgnored
p5561
(lp5562
sVQuotedPhraseNotFound
p5563
(lp5564
stp5565
Rp5566
(dp5567
g12
g5552
sg1263
(lp5568
g5561
ag5563
ag5554
asbsVQueryTranslation
p5569
g1
(g6
g7
S'Lutjanus maxweberi[PORG] AND CytB[title]'
p5570
tp5571
Rp5572
(dp5573
g12
g5569
sbstp5574
Rp5575
(dp5576
g12
VeSearchResult
p5577
sbag1
(g2
g3
(dp5578
VCount
p5579
g1
(g6
g7
g93
tp5580
Rp5581
(dp5582
g12
g5579
sbsVRetMax
p5583
g1
(g6
g7
g93
tp5584
Rp5585
(dp5586
g12
g5583
sbsVIdList
p5587
g1
(g18
g19
(lp5588
tp5589
Rp5590
(dp5591
g12
g5587
sbsVRetStart
p5592
g1
(g6
g7
g93
tp5593
Rp5594
(dp5595
g12
g5592
sbsVErrorList
p5596
g1
(g1249
g3
(dp5597
VFieldNotFound
p5598
(lp5599
sVPhraseNotFound
p5600
(lp5601
g1
(g6
g7
S'Lutjanus mizenkoi[PORG]'
p5602
tp5603
Rp5604
(dp5605
g12
VPhraseNotFound
p5606
sbastp5607
Rp5608
(dp5609
g12
g5596
sg1263
(lp5610
g5600
ag5598
asbsVTranslationSet
p5611
g1
(g18
g19
(lp5612
tp5613
Rp5614
(dp5615
g12
g5611
sbsVWarningList
p5616
g1
(g1249
g3
(dp5617
VOutputMessage
p5618
(lp5619
g1
(g6
g7
S'No items found.'
p5620
tp5621
Rp5622
(dp5623
g12
VOutputMessage
p5624
sbasVPhraseIgnored
p5625
(lp5626
sVQuotedPhraseNotFound
p5627
(lp5628
stp5629
Rp5630
(dp5631
g12
g5616
sg1263
(lp5632
g5625
ag5627
ag5618
asbsVQueryTranslation
p5633
g1
(g6
g7
S'Lutjanus mizenkoi[PORG] AND CytB[title]'
p5634
tp5635
Rp5636
(dp5637
g12
g5633
sbstp5638
Rp5639
(dp5640
g12
VeSearchResult
p5641
sbag1
(g2
g3
(dp5642
VCount
p5643
g1
(g6
g7
g108
tp5644
Rp5645
(dp5646
g12
g5643
sbsVRetMax
p5647
g1
(g6
g7
g108
tp5648
Rp5649
(dp5650
g12
g5647
sbsVIdList
p5651
g1
(g18
g19
(lp5652
g1
(g6
g7
S'111114792'
p5653
tp5654
Rp5655
(dp5656
g12
VId
p5657
sbatp5658
Rp5659
(dp5660
g12
g5651
sbsVQueryTranslation
p5661
g1
(g6
g7
S'Lutjanus monostigma[PORG] AND CytB[title]'
p5662
tp5663
Rp5664
(dp5665
g12
g5661
sbsVTranslationStack
p5666
g1
(g18
g19
(lp5667
g1
(g2
g3
(dp5668
g5643
g1
(g6
g7
S'13'
p5669
tp5670
Rp5671
(dp5672
g12
g5643
sbsVField
p5673
g1
(g6
g7
S'PORG'
p5674
tp5675
Rp5676
(dp5677
g12
g5673
sbsVTerm
p5678
g1
(g6
g7
S'Lutjanus monostigma[PORG]'
p5679
tp5680
Rp5681
(dp5682
g12
g5678
sbsVExplode
p5683
g1
(g6
g7
g56
tp5684
Rp5685
(dp5686
g12
g5683
sbstp5687
Rp5688
(dp5689
g12
VTermSet
p5690
sbag1
(g2
g3
(dp5691
g5643
g1
(g6
g7
S'317705'
p5692
tp5693
Rp5694
(dp5695
g12
g5643
sbsg5673
g1
(g6
g7
S'title'
p5696
tp5697
Rp5698
(dp5699
g12
g5673
sbsg5678
g1
(g6
g7
S'CytB[title]'
p5700
tp5701
Rp5702
(dp5703
g12
g5678
sbsg5683
g1
(g6
g7
g77
tp5704
Rp5705
(dp5706
g12
g5683
sbstp5707
Rp5708
(dp5709
g12
g5690
sbag1
(g6
g7
S'AND'
p5710
tp5711
Rp5712
(dp5713
g12
VOP
p5714
sbatp5715
Rp5716
(dp5717
g12
g5666
sbsVRetStart
p5718
g1
(g6
g7
g93
tp5719
Rp5720
(dp5721
g12
g5718
sbsVTranslationSet
p5722
g1
(g18
g19
(lp5723
tp5724
Rp5725
(dp5726
g12
g5722
sbstp5727
Rp5728
(dp5729
g12
VeSearchResult
p5730
sbag1
(g2
g3
(dp5731
VCount
p5732
g1
(g6
g7
g108
tp5733
Rp5734
(dp5735
g12
g5732
sbsVRetMax
p5736
g1
(g6
g7
g108
tp5737
Rp5738
(dp5739
g12
g5736
sbsVIdList
p5740
g1
(g18
g19
(lp5741
g1
(g6
g7
S'662357642'
p5742
tp5743
Rp5744
(dp5745
g12
VId
p5746
sbatp5747
Rp5748
(dp5749
g12
g5740
sbsVQueryTranslation
p5750
g1
(g6
g7
S'Lutjanus notatus[PORG] AND CytB[title]'
p5751
tp5752
Rp5753
(dp5754
g12
g5750
sbsVTranslationStack
p5755
g1
(g18
g19
(lp5756
g1
(g2
g3
(dp5757
g5732
g1
(g6
g7
g1720
tp5758
Rp5759
(dp5760
g12
g5732
sbsVField
p5761
g1
(g6
g7
S'PORG'
p5762
tp5763
Rp5764
(dp5765
g12
g5761
sbsVTerm
p5766
g1
(g6
g7
S'Lutjanus notatus[PORG]'
p5767
tp5768
Rp5769
(dp5770
g12
g5766
sbsVExplode
p5771
g1
(g6
g7
g56
tp5772
Rp5773
(dp5774
g12
g5771
sbstp5775
Rp5776
(dp5777
g12
VTermSet
p5778
sbag1
(g2
g3
(dp5779
g5732
g1
(g6
g7
S'317705'
p5780
tp5781
Rp5782
(dp5783
g12
g5732
sbsg5761
g1
(g6
g7
S'title'
p5784
tp5785
Rp5786
(dp5787
g12
g5761
sbsg5766
g1
(g6
g7
S'CytB[title]'
p5788
tp5789
Rp5790
(dp5791
g12
g5766
sbsg5771
g1
(g6
g7
g77
tp5792
Rp5793
(dp5794
g12
g5771
sbstp5795
Rp5796
(dp5797
g12
g5778
sbag1
(g6
g7
S'AND'
p5798
tp5799
Rp5800
(dp5801
g12
VOP
p5802
sbatp5803
Rp5804
(dp5805
g12
g5755
sbsVRetStart
p5806
g1
(g6
g7
g93
tp5807
Rp5808
(dp5809
g12
g5806
sbsVTranslationSet
p5810
g1
(g18
g19
(lp5811
tp5812
Rp5813
(dp5814
g12
g5810
sbstp5815
Rp5816
(dp5817
g12
VeSearchResult
p5818
sbag1
(g2
g3
(dp5819
VCount
p5820
g1
(g6
g7
g287
tp5821
Rp5822
(dp5823
g12
g5820
sbsVRetMax
p5824
g1
(g6
g7
g287
tp5825
Rp5826
(dp5827
g12
g5824
sbsVIdList
p5828
g1
(g18
g19
(lp5829
g1
(g6
g7
S'662357658'
p5830
tp5831
Rp5832
(dp5833
g12
VId
p5834
sbag1
(g6
g7
S'662357656'
p5835
tp5836
Rp5837
(dp5838
g12
g5834
sbag1
(g6
g7
S'662357654'
p5839
tp5840
Rp5841
(dp5842
g12
g5834
sbatp5843
Rp5844
(dp5845
g12
g5828
sbsVQueryTranslation
p5846
g1
(g6
g7
S'Lutjanus novemfasciatus[PORG] AND CytB[title]'
p5847
tp5848
Rp5849
(dp5850
g12
g5846
sbsVTranslationStack
p5851
g1
(g18
g19
(lp5852
g1
(g2
g3
(dp5853
g5820
g1
(g6
g7
S'11'
p5854
tp5855
Rp5856
(dp5857
g12
g5820
sbsVField
p5858
g1
(g6
g7
S'PORG'
p5859
tp5860
Rp5861
(dp5862
g12
g5858
sbsVTerm
p5863
g1
(g6
g7
S'Lutjanus novemfasciatus[PORG]'
p5864
tp5865
Rp5866
(dp5867
g12
g5863
sbsVExplode
p5868
g1
(g6
g7
g56
tp5869
Rp5870
(dp5871
g12
g5868
sbstp5872
Rp5873
(dp5874
g12
VTermSet
p5875
sbag1
(g2
g3
(dp5876
g5820
g1
(g6
g7
S'317705'
p5877
tp5878
Rp5879
(dp5880
g12
g5820
sbsg5858
g1
(g6
g7
S'title'
p5881
tp5882
Rp5883
(dp5884
g12
g5858
sbsg5863
g1
(g6
g7
S'CytB[title]'
p5885
tp5886
Rp5887
(dp5888
g12
g5863
sbsg5868
g1
(g6
g7
g77
tp5889
Rp5890
(dp5891
g12
g5868
sbstp5892
Rp5893
(dp5894
g12
g5875
sbag1
(g6
g7
S'AND'
p5895
tp5896
Rp5897
(dp5898
g12
VOP
p5899
sbatp5900
Rp5901
(dp5902
g12
g5851
sbsVRetStart
p5903
g1
(g6
g7
g93
tp5904
Rp5905
(dp5906
g12
g5903
sbsVTranslationSet
p5907
g1
(g18
g19
(lp5908
tp5909
Rp5910
(dp5911
g12
g5907
sbstp5912
Rp5913
(dp5914
g12
VeSearchResult
p5915
sbag1
(g2
g3
(dp5916
VCount
p5917
g1
(g6
g7
g93
tp5918
Rp5919
(dp5920
g12
g5917
sbsVRetMax
p5921
g1
(g6
g7
g93
tp5922
Rp5923
(dp5924
g12
g5921
sbsVIdList
p5925
g1
(g18
g19
(lp5926
tp5927
Rp5928
(dp5929
g12
g5925
sbsVQueryTranslation
p5930
g1
(g6
g7
S'Lutjanus ophuysenii[PORG] AND CytB[title]'
p5931
tp5932
Rp5933
(dp5934
g12
g5930
sbsVTranslationStack
p5935
g1
(g18
g19
(lp5936
g1
(g2
g3
(dp5937
g5917
g1
(g6
g7
S'24'
p5938
tp5939
Rp5940
(dp5941
g12
g5917
sbsVField
p5942
g1
(g6
g7
S'PORG'
p5943
tp5944
Rp5945
(dp5946
g12
g5942
sbsVTerm
p5947
g1
(g6
g7
S'Lutjanus ophuysenii[PORG]'
p5948
tp5949
Rp5950
(dp5951
g12
g5947
sbsVExplode
p5952
g1
(g6
g7
g56
tp5953
Rp5954
(dp5955
g12
g5952
sbstp5956
Rp5957
(dp5958
g12
VTermSet
p5959
sbag1
(g2
g3
(dp5960
g5917
g1
(g6
g7
S'317705'
p5961
tp5962
Rp5963
(dp5964
g12
g5917
sbsg5942
g1
(g6
g7
S'title'
p5965
tp5966
Rp5967
(dp5968
g12
g5942
sbsg5947
g1
(g6
g7
S'CytB[title]'
p5969
tp5970
Rp5971
(dp5972
g12
g5947
sbsg5952
g1
(g6
g7
g77
tp5973
Rp5974
(dp5975
g12
g5952
sbstp5976
Rp5977
(dp5978
g12
g5959
sbag1
(g6
g7
S'AND'
p5979
tp5980
Rp5981
(dp5982
g12
VOP
p5983
sbatp5984
Rp5985
(dp5986
g12
g5935
sbsVRetStart
p5987
g1
(g6
g7
g93
tp5988
Rp5989
(dp5990
g12
g5987
sbsVTranslationSet
p5991
g1
(g18
g19
(lp5992
tp5993
Rp5994
(dp5995
g12
g5991
sbstp5996
Rp5997
(dp5998
g12
VeSearchResult
p5999
sbag1
(g2
g3
(dp6000
VCount
p6001
g1
(g6
g7
g93
tp6002
Rp6003
(dp6004
g12
g6001
sbsVRetMax
p6005
g1
(g6
g7
g93
tp6006
Rp6007
(dp6008
g12
g6005
sbsVIdList
p6009
g1
(g18
g19
(lp6010
tp6011
Rp6012
(dp6013
g12
g6009
sbsVQueryTranslation
p6014
g1
(g6
g7
S'Lutjanus papuensis[PORG] AND CytB[title]'
p6015
tp6016
Rp6017
(dp6018
g12
g6014
sbsVTranslationStack
p6019
g1
(g18
g19
(lp6020
g1
(g2
g3
(dp6021
g6001
g1
(g6
g7
g8
tp6022
Rp6023
(dp6024
g12
g6001
sbsVField
p6025
g1
(g6
g7
S'PORG'
p6026
tp6027
Rp6028
(dp6029
g12
g6025
sbsVTerm
p6030
g1
(g6
g7
S'Lutjanus papuensis[PORG]'
p6031
tp6032
Rp6033
(dp6034
g12
g6030
sbsVExplode
p6035
g1
(g6
g7
g56
tp6036
Rp6037
(dp6038
g12
g6035
sbstp6039
Rp6040
(dp6041
g12
VTermSet
p6042
sbag1
(g2
g3
(dp6043
g6001
g1
(g6
g7
S'317705'
p6044
tp6045
Rp6046
(dp6047
g12
g6001
sbsg6025
g1
(g6
g7
S'title'
p6048
tp6049
Rp6050
(dp6051
g12
g6025
sbsg6030
g1
(g6
g7
S'CytB[title]'
p6052
tp6053
Rp6054
(dp6055
g12
g6030
sbsg6035
g1
(g6
g7
g77
tp6056
Rp6057
(dp6058
g12
g6035
sbstp6059
Rp6060
(dp6061
g12
g6042
sbag1
(g6
g7
S'AND'
p6062
tp6063
Rp6064
(dp6065
g12
VOP
p6066
sbatp6067
Rp6068
(dp6069
g12
g6019
sbsVRetStart
p6070
g1
(g6
g7
g93
tp6071
Rp6072
(dp6073
g12
g6070
sbsVTranslationSet
p6074
g1
(g18
g19
(lp6075
tp6076
Rp6077
(dp6078
g12
g6074
sbstp6079
Rp6080
(dp6081
g12
VeSearchResult
p6082
sbag1
(g2
g3
(dp6083
VCount
p6084
g1
(g6
g7
g287
tp6085
Rp6086
(dp6087
g12
g6084
sbsVRetMax
p6088
g1
(g6
g7
g287
tp6089
Rp6090
(dp6091
g12
g6088
sbsVIdList
p6092
g1
(g18
g19
(lp6093
g1
(g6
g7
S'320578917'
p6094
tp6095
Rp6096
(dp6097
g12
VId
p6098
sbag1
(g6
g7
S'320578915'
p6099
tp6100
Rp6101
(dp6102
g12
g6098
sbag1
(g6
g7
S'320578913'
p6103
tp6104
Rp6105
(dp6106
g12
g6098
sbatp6107
Rp6108
(dp6109
g12
g6092
sbsVQueryTranslation
p6110
g1
(g6
g7
S'Lutjanus peru[PORG] AND CytB[title]'
p6111
tp6112
Rp6113
(dp6114
g12
g6110
sbsVTranslationStack
p6115
g1
(g18
g19
(lp6116
g1
(g2
g3
(dp6117
g6084
g1
(g6
g7
S'34'
p6118
tp6119
Rp6120
(dp6121
g12
g6084
sbsVField
p6122
g1
(g6
g7
S'PORG'
p6123
tp6124
Rp6125
(dp6126
g12
g6122
sbsVTerm
p6127
g1
(g6
g7
S'Lutjanus peru[PORG]'
p6128
tp6129
Rp6130
(dp6131
g12
g6127
sbsVExplode
p6132
g1
(g6
g7
g56
tp6133
Rp6134
(dp6135
g12
g6132
sbstp6136
Rp6137
(dp6138
g12
VTermSet
p6139
sbag1
(g2
g3
(dp6140
g6084
g1
(g6
g7
S'317705'
p6141
tp6142
Rp6143
(dp6144
g12
g6084
sbsg6122
g1
(g6
g7
S'title'
p6145
tp6146
Rp6147
(dp6148
g12
g6122
sbsg6127
g1
(g6
g7
S'CytB[title]'
p6149
tp6150
Rp6151
(dp6152
g12
g6127
sbsg6132
g1
(g6
g7
g77
tp6153
Rp6154
(dp6155
g12
g6132
sbstp6156
Rp6157
(dp6158
g12
g6139
sbag1
(g6
g7
S'AND'
p6159
tp6160
Rp6161
(dp6162
g12
VOP
p6163
sbatp6164
Rp6165
(dp6166
g12
g6115
sbsVRetStart
p6167
g1
(g6
g7
g93
tp6168
Rp6169
(dp6170
g12
g6167
sbsVTranslationSet
p6171
g1
(g18
g19
(lp6172
tp6173
Rp6174
(dp6175
g12
g6171
sbstp6176
Rp6177
(dp6178
g12
VeSearchResult
p6179
sbag1
(g2
g3
(dp6180
VCount
p6181
g1
(g6
g7
S'51'
p6182
tp6183
Rp6184
(dp6185
g12
g6181
sbsVRetMax
p6186
g1
(g6
g7
S'20'
p6187
tp6188
Rp6189
(dp6190
g12
g6186
sbsVIdList
p6191
g1
(g18
g19
(lp6192
g1
(g6
g7
S'1015633181'
p6193
tp6194
Rp6195
(dp6196
g12
VId
p6197
sbag1
(g6
g7
S'1015633179'
p6198
tp6199
Rp6200
(dp6201
g12
g6197
sbag1
(g6
g7
S'1015633177'
p6202
tp6203
Rp6204
(dp6205
g12
g6197
sbag1
(g6
g7
S'1015633175'
p6206
tp6207
Rp6208
(dp6209
g12
g6197
sbag1
(g6
g7
S'1015633173'
p6210
tp6211
Rp6212
(dp6213
g12
g6197
sbag1
(g6
g7
S'1015633171'
p6214
tp6215
Rp6216
(dp6217
g12
g6197
sbag1
(g6
g7
S'1015633169'
p6218
tp6219
Rp6220
(dp6221
g12
g6197
sbag1
(g6
g7
S'1015633167'
p6222
tp6223
Rp6224
(dp6225
g12
g6197
sbag1
(g6
g7
S'1015633165'
p6226
tp6227
Rp6228
(dp6229
g12
g6197
sbag1
(g6
g7
S'1015633163'
p6230
tp6231
Rp6232
(dp6233
g12
g6197
sbag1
(g6
g7
S'1061064150'
p6234
tp6235
Rp6236
(dp6237
g12
g6197
sbag1
(g6
g7
S'1061064148'
p6238
tp6239
Rp6240
(dp6241
g12
g6197
sbag1
(g6
g7
S'1061064146'
p6242
tp6243
Rp6244
(dp6245
g12
g6197
sbag1
(g6
g7
S'1061064144'
p6246
tp6247
Rp6248
(dp6249
g12
g6197
sbag1
(g6
g7
S'1061064142'
p6250
tp6251
Rp6252
(dp6253
g12
g6197
sbag1
(g6
g7
S'1061064140'
p6254
tp6255
Rp6256
(dp6257
g12
g6197
sbag1
(g6
g7
S'1061064138'
p6258
tp6259
Rp6260
(dp6261
g12
g6197
sbag1
(g6
g7
S'1061064136'
p6262
tp6263
Rp6264
(dp6265
g12
g6197
sbag1
(g6
g7
S'1061064134'
p6266
tp6267
Rp6268
(dp6269
g12
g6197
sbag1
(g6
g7
S'1061064132'
p6270
tp6271
Rp6272
(dp6273
g12
g6197
sbatp6274
Rp6275
(dp6276
g12
g6191
sbsVQueryTranslation
p6277
g1
(g6
g7
S'Lutjanus purpureus[PORG] AND CytB[title]'
p6278
tp6279
Rp6280
(dp6281
g12
g6277
sbsVTranslationStack
p6282
g1
(g18
g19
(lp6283
g1
(g2
g3
(dp6284
g6181
g1
(g6
g7
S'899'
p6285
tp6286
Rp6287
(dp6288
g12
g6181
sbsVField
p6289
g1
(g6
g7
S'PORG'
p6290
tp6291
Rp6292
(dp6293
g12
g6289
sbsVTerm
p6294
g1
(g6
g7
S'Lutjanus purpureus[PORG]'
p6295
tp6296
Rp6297
(dp6298
g12
g6294
sbsVExplode
p6299
g1
(g6
g7
g56
tp6300
Rp6301
(dp6302
g12
g6299
sbstp6303
Rp6304
(dp6305
g12
VTermSet
p6306
sbag1
(g2
g3
(dp6307
g6181
g1
(g6
g7
S'317705'
p6308
tp6309
Rp6310
(dp6311
g12
g6181
sbsg6289
g1
(g6
g7
S'title'
p6312
tp6313
Rp6314
(dp6315
g12
g6289
sbsg6294
g1
(g6
g7
S'CytB[title]'
p6316
tp6317
Rp6318
(dp6319
g12
g6294
sbsg6299
g1
(g6
g7
g77
tp6320
Rp6321
(dp6322
g12
g6299
sbstp6323
Rp6324
(dp6325
g12
g6306
sbag1
(g6
g7
S'AND'
p6326
tp6327
Rp6328
(dp6329
g12
VOP
p6330
sbatp6331
Rp6332
(dp6333
g12
g6282
sbsVRetStart
p6334
g1
(g6
g7
g93
tp6335
Rp6336
(dp6337
g12
g6334
sbsVTranslationSet
p6338
g1
(g18
g19
(lp6339
tp6340
Rp6341
(dp6342
g12
g6338
sbstp6343
Rp6344
(dp6345
g12
VeSearchResult
p6346
sbag1
(g2
g3
(dp6347
VCount
p6348
g1
(g6
g7
g108
tp6349
Rp6350
(dp6351
g12
g6348
sbsVRetMax
p6352
g1
(g6
g7
g108
tp6353
Rp6354
(dp6355
g12
g6352
sbsVIdList
p6356
g1
(g18
g19
(lp6357
g1
(g6
g7
S'111114794'
p6358
tp6359
Rp6360
(dp6361
g12
VId
p6362
sbatp6363
Rp6364
(dp6365
g12
g6356
sbsVQueryTranslation
p6366
g1
(g6
g7
S'Lutjanus quinquelineatus[PORG] AND CytB[title]'
p6367
tp6368
Rp6369
(dp6370
g12
g6366
sbsVTranslationStack
p6371
g1
(g18
g19
(lp6372
g1
(g2
g3
(dp6373
g6348
g1
(g6
g7
S'13'
p6374
tp6375
Rp6376
(dp6377
g12
g6348
sbsVField
p6378
g1
(g6
g7
S'PORG'
p6379
tp6380
Rp6381
(dp6382
g12
g6378
sbsVTerm
p6383
g1
(g6
g7
S'Lutjanus quinquelineatus[PORG]'
p6384
tp6385
Rp6386
(dp6387
g12
g6383
sbsVExplode
p6388
g1
(g6
g7
g56
tp6389
Rp6390
(dp6391
g12
g6388
sbstp6392
Rp6393
(dp6394
g12
VTermSet
p6395
sbag1
(g2
g3
(dp6396
g6348
g1
(g6
g7
S'317705'
p6397
tp6398
Rp6399
(dp6400
g12
g6348
sbsg6378
g1
(g6
g7
S'title'
p6401
tp6402
Rp6403
(dp6404
g12
g6378
sbsg6383
g1
(g6
g7
S'CytB[title]'
p6405
tp6406
Rp6407
(dp6408
g12
g6383
sbsg6388
g1
(g6
g7
g77
tp6409
Rp6410
(dp6411
g12
g6388
sbstp6412
Rp6413
(dp6414
g12
g6395
sbag1
(g6
g7
S'AND'
p6415
tp6416
Rp6417
(dp6418
g12
VOP
p6419
sbatp6420
Rp6421
(dp6422
g12
g6371
sbsVRetStart
p6423
g1
(g6
g7
g93
tp6424
Rp6425
(dp6426
g12
g6423
sbsVTranslationSet
p6427
g1
(g18
g19
(lp6428
tp6429
Rp6430
(dp6431
g12
g6427
sbstp6432
Rp6433
(dp6434
g12
VeSearchResult
p6435
sbag1
(g2
g3
(dp6436
VCount
p6437
g1
(g6
g7
g108
tp6438
Rp6439
(dp6440
g12
g6437
sbsVRetMax
p6441
g1
(g6
g7
g108
tp6442
Rp6443
(dp6444
g12
g6441
sbsVIdList
p6445
g1
(g18
g19
(lp6446
g1
(g6
g7
S'94694907'
p6447
tp6448
Rp6449
(dp6450
g12
VId
p6451
sbatp6452
Rp6453
(dp6454
g12
g6445
sbsVQueryTranslation
p6455
g1
(g6
g7
S'Lutjanus rivulatus[PORG] AND CytB[title]'
p6456
tp6457
Rp6458
(dp6459
g12
g6455
sbsVTranslationStack
p6460
g1
(g18
g19
(lp6461
g1
(g2
g3
(dp6462
g6437
g1
(g6
g7
S'15'
p6463
tp6464
Rp6465
(dp6466
g12
g6437
sbsVField
p6467
g1
(g6
g7
S'PORG'
p6468
tp6469
Rp6470
(dp6471
g12
g6467
sbsVTerm
p6472
g1
(g6
g7
S'Lutjanus rivulatus[PORG]'
p6473
tp6474
Rp6475
(dp6476
g12
g6472
sbsVExplode
p6477
g1
(g6
g7
g56
tp6478
Rp6479
(dp6480
g12
g6477
sbstp6481
Rp6482
(dp6483
g12
VTermSet
p6484
sbag1
(g2
g3
(dp6485
g6437
g1
(g6
g7
S'317705'
p6486
tp6487
Rp6488
(dp6489
g12
g6437
sbsg6467
g1
(g6
g7
S'title'
p6490
tp6491
Rp6492
(dp6493
g12
g6467
sbsg6472
g1
(g6
g7
S'CytB[title]'
p6494
tp6495
Rp6496
(dp6497
g12
g6472
sbsg6477
g1
(g6
g7
g77
tp6498
Rp6499
(dp6500
g12
g6477
sbstp6501
Rp6502
(dp6503
g12
g6484
sbag1
(g6
g7
S'AND'
p6504
tp6505
Rp6506
(dp6507
g12
VOP
p6508
sbatp6509
Rp6510
(dp6511
g12
g6460
sbsVRetStart
p6512
g1
(g6
g7
g93
tp6513
Rp6514
(dp6515
g12
g6512
sbsVTranslationSet
p6516
g1
(g18
g19
(lp6517
tp6518
Rp6519
(dp6520
g12
g6516
sbstp6521
Rp6522
(dp6523
g12
VeSearchResult
p6524
sbag1
(g2
g3
(dp6525
VCount
p6526
g1
(g6
g7
g93
tp6527
Rp6528
(dp6529
g12
g6526
sbsVRetMax
p6530
g1
(g6
g7
g93
tp6531
Rp6532
(dp6533
g12
g6530
sbsVIdList
p6534
g1
(g18
g19
(lp6535
tp6536
Rp6537
(dp6538
g12
g6534
sbsVQueryTranslation
p6539
g1
(g6
g7
S'Lutjanus rufolineatus[PORG] AND CytB[title]'
p6540
tp6541
Rp6542
(dp6543
g12
g6539
sbsVTranslationStack
p6544
g1
(g18
g19
(lp6545
g1
(g2
g3
(dp6546
g6526
g1
(g6
g7
g108
tp6547
Rp6548
(dp6549
g12
g6526
sbsVField
p6550
g1
(g6
g7
S'PORG'
p6551
tp6552
Rp6553
(dp6554
g12
g6550
sbsVTerm
p6555
g1
(g6
g7
S'Lutjanus rufolineatus[PORG]'
p6556
tp6557
Rp6558
(dp6559
g12
g6555
sbsVExplode
p6560
g1
(g6
g7
g56
tp6561
Rp6562
(dp6563
g12
g6560
sbstp6564
Rp6565
(dp6566
g12
VTermSet
p6567
sbag1
(g2
g3
(dp6568
g6526
g1
(g6
g7
S'317705'
p6569
tp6570
Rp6571
(dp6572
g12
g6526
sbsg6550
g1
(g6
g7
S'title'
p6573
tp6574
Rp6575
(dp6576
g12
g6550
sbsg6555
g1
(g6
g7
S'CytB[title]'
p6577
tp6578
Rp6579
(dp6580
g12
g6555
sbsg6560
g1
(g6
g7
g77
tp6581
Rp6582
(dp6583
g12
g6560
sbstp6584
Rp6585
(dp6586
g12
g6567
sbag1
(g6
g7
S'AND'
p6587
tp6588
Rp6589
(dp6590
g12
VOP
p6591
sbatp6592
Rp6593
(dp6594
g12
g6544
sbsVRetStart
p6595
g1
(g6
g7
g93
tp6596
Rp6597
(dp6598
g12
g6595
sbsVTranslationSet
p6599
g1
(g18
g19
(lp6600
tp6601
Rp6602
(dp6603
g12
g6599
sbstp6604
Rp6605
(dp6606
g12
VeSearchResult
p6607
sbag1
(g2
g3
(dp6608
VCount
p6609
g1
(g6
g7
g468
tp6610
Rp6611
(dp6612
g12
g6609
sbsVRetMax
p6613
g1
(g6
g7
g468
tp6614
Rp6615
(dp6616
g12
g6613
sbsVIdList
p6617
g1
(g18
g19
(lp6618
g1
(g6
g7
S'94694886'
p6619
tp6620
Rp6621
(dp6622
g12
VId
p6623
sbag1
(g6
g7
S'114224514'
p6624
tp6625
Rp6626
(dp6627
g12
g6623
sbag1
(g6
g7
S'114224512'
p6628
tp6629
Rp6630
(dp6631
g12
g6623
sbag1
(g6
g7
S'111114796'
p6632
tp6633
Rp6634
(dp6635
g12
g6623
sbatp6636
Rp6637
(dp6638
g12
g6617
sbsVQueryTranslation
p6639
g1
(g6
g7
S'Lutjanus russellii[PORG] AND CytB[title]'
p6640
tp6641
Rp6642
(dp6643
g12
g6639
sbsVTranslationStack
p6644
g1
(g18
g19
(lp6645
g1
(g2
g3
(dp6646
g6609
g1
(g6
g7
S'213'
p6647
tp6648
Rp6649
(dp6650
g12
g6609
sbsVField
p6651
g1
(g6
g7
S'PORG'
p6652
tp6653
Rp6654
(dp6655
g12
g6651
sbsVTerm
p6656
g1
(g6
g7
S'Lutjanus russellii[PORG]'
p6657
tp6658
Rp6659
(dp6660
g12
g6656
sbsVExplode
p6661
g1
(g6
g7
g56
tp6662
Rp6663
(dp6664
g12
g6661
sbstp6665
Rp6666
(dp6667
g12
VTermSet
p6668
sbag1
(g2
g3
(dp6669
g6609
g1
(g6
g7
S'317705'
p6670
tp6671
Rp6672
(dp6673
g12
g6609
sbsg6651
g1
(g6
g7
S'title'
p6674
tp6675
Rp6676
(dp6677
g12
g6651
sbsg6656
g1
(g6
g7
S'CytB[title]'
p6678
tp6679
Rp6680
(dp6681
g12
g6656
sbsg6661
g1
(g6
g7
g77
tp6682
Rp6683
(dp6684
g12
g6661
sbstp6685
Rp6686
(dp6687
g12
g6668
sbag1
(g6
g7
S'AND'
p6688
tp6689
Rp6690
(dp6691
g12
VOP
p6692
sbatp6693
Rp6694
(dp6695
g12
g6644
sbsVRetStart
p6696
g1
(g6
g7
g93
tp6697
Rp6698
(dp6699
g12
g6696
sbsVTranslationSet
p6700
g1
(g18
g19
(lp6701
tp6702
Rp6703
(dp6704
g12
g6700
sbstp6705
Rp6706
(dp6707
g12
VeSearchResult
p6708
sbag1
(g2
g3
(dp6709
VCount
p6710
g1
(g6
g7
g8
tp6711
Rp6712
(dp6713
g12
g6710
sbsVRetMax
p6714
g1
(g6
g7
g8
tp6715
Rp6716
(dp6717
g12
g6714
sbsVIdList
p6718
g1
(g18
g19
(lp6719
g1
(g6
g7
S'94694942'
p6720
tp6721
Rp6722
(dp6723
g12
VId
p6724
sbag1
(g6
g7
S'47606446'
p6725
tp6726
Rp6727
(dp6728
g12
g6724
sbatp6729
Rp6730
(dp6731
g12
g6718
sbsVQueryTranslation
p6732
g1
(g6
g7
S'Lutjanus sanguineus[PORG] AND CytB[title]'
p6733
tp6734
Rp6735
(dp6736
g12
g6732
sbsVTranslationStack
p6737
g1
(g18
g19
(lp6738
g1
(g2
g3
(dp6739
g6710
g1
(g6
g7
S'55'
p6740
tp6741
Rp6742
(dp6743
g12
g6710
sbsVField
p6744
g1
(g6
g7
S'PORG'
p6745
tp6746
Rp6747
(dp6748
g12
g6744
sbsVTerm
p6749
g1
(g6
g7
S'Lutjanus sanguineus[PORG]'
p6750
tp6751
Rp6752
(dp6753
g12
g6749
sbsVExplode
p6754
g1
(g6
g7
g56
tp6755
Rp6756
(dp6757
g12
g6754
sbstp6758
Rp6759
(dp6760
g12
VTermSet
p6761
sbag1
(g2
g3
(dp6762
g6710
g1
(g6
g7
S'317705'
p6763
tp6764
Rp6765
(dp6766
g12
g6710
sbsg6744
g1
(g6
g7
S'title'
p6767
tp6768
Rp6769
(dp6770
g12
g6744
sbsg6749
g1
(g6
g7
S'CytB[title]'
p6771
tp6772
Rp6773
(dp6774
g12
g6749
sbsg6754
g1
(g6
g7
g77
tp6775
Rp6776
(dp6777
g12
g6754
sbstp6778
Rp6779
(dp6780
g12
g6761
sbag1
(g6
g7
S'AND'
p6781
tp6782
Rp6783
(dp6784
g12
VOP
p6785
sbatp6786
Rp6787
(dp6788
g12
g6737
sbsVRetStart
p6789
g1
(g6
g7
g93
tp6790
Rp6791
(dp6792
g12
g6789
sbsVTranslationSet
p6793
g1
(g18
g19
(lp6794
tp6795
Rp6796
(dp6797
g12
g6793
sbstp6798
Rp6799
(dp6800
g12
VeSearchResult
p6801
sbag1
(g2
g3
(dp6802
VCount
p6803
g1
(g6
g7
g287
tp6804
Rp6805
(dp6806
g12
g6803
sbsVRetMax
p6807
g1
(g6
g7
g287
tp6808
Rp6809
(dp6810
g12
g6807
sbsVIdList
p6811
g1
(g18
g19
(lp6812
g1
(g6
g7
S'94694871'
p6813
tp6814
Rp6815
(dp6816
g12
VId
p6817
sbag1
(g6
g7
S'114224528'
p6818
tp6819
Rp6820
(dp6821
g12
g6817
sbag1
(g6
g7
S'111114798'
p6822
tp6823
Rp6824
(dp6825
g12
g6817
sbatp6826
Rp6827
(dp6828
g12
g6811
sbsVQueryTranslation
p6829
g1
(g6
g7
S'Lutjanus sebae[PORG] AND CytB[title]'
p6830
tp6831
Rp6832
(dp6833
g12
g6829
sbsVTranslationStack
p6834
g1
(g18
g19
(lp6835
g1
(g2
g3
(dp6836
g6803
g1
(g6
g7
S'134'
p6837
tp6838
Rp6839
(dp6840
g12
g6803
sbsVField
p6841
g1
(g6
g7
S'PORG'
p6842
tp6843
Rp6844
(dp6845
g12
g6841
sbsVTerm
p6846
g1
(g6
g7
S'Lutjanus sebae[PORG]'
p6847
tp6848
Rp6849
(dp6850
g12
g6846
sbsVExplode
p6851
g1
(g6
g7
g56
tp6852
Rp6853
(dp6854
g12
g6851
sbstp6855
Rp6856
(dp6857
g12
VTermSet
p6858
sbag1
(g2
g3
(dp6859
g6803
g1
(g6
g7
S'317705'
p6860
tp6861
Rp6862
(dp6863
g12
g6803
sbsg6841
g1
(g6
g7
S'title'
p6864
tp6865
Rp6866
(dp6867
g12
g6841
sbsg6846
g1
(g6
g7
S'CytB[title]'
p6868
tp6869
Rp6870
(dp6871
g12
g6846
sbsg6851
g1
(g6
g7
g77
tp6872
Rp6873
(dp6874
g12
g6851
sbstp6875
Rp6876
(dp6877
g12
g6858
sbag1
(g6
g7
S'AND'
p6878
tp6879
Rp6880
(dp6881
g12
VOP
p6882
sbatp6883
Rp6884
(dp6885
g12
g6834
sbsVRetStart
p6886
g1
(g6
g7
g93
tp6887
Rp6888
(dp6889
g12
g6886
sbsVTranslationSet
p6890
g1
(g18
g19
(lp6891
tp6892
Rp6893
(dp6894
g12
g6890
sbstp6895
Rp6896
(dp6897
g12
VeSearchResult
p6898
sbag1
(g2
g3
(dp6899
VCount
p6900
g1
(g6
g7
g93
tp6901
Rp6902
(dp6903
g12
g6900
sbsVRetMax
p6904
g1
(g6
g7
g93
tp6905
Rp6906
(dp6907
g12
g6904
sbsVIdList
p6908
g1
(g18
g19
(lp6909
tp6910
Rp6911
(dp6912
g12
g6908
sbsVRetStart
p6913
g1
(g6
g7
g93
tp6914
Rp6915
(dp6916
g12
g6913
sbsVErrorList
p6917
g1
(g1249
g3
(dp6918
VFieldNotFound
p6919
(lp6920
sVPhraseNotFound
p6921
(lp6922
g1
(g6
g7
S'Lutjanus semicinctus[PORG]'
p6923
tp6924
Rp6925
(dp6926
g12
VPhraseNotFound
p6927
sbastp6928
Rp6929
(dp6930
g12
g6917
sg1263
(lp6931
g6921
ag6919
asbsVTranslationSet
p6932
g1
(g18
g19
(lp6933
tp6934
Rp6935
(dp6936
g12
g6932
sbsVWarningList
p6937
g1
(g1249
g3
(dp6938
VOutputMessage
p6939
(lp6940
g1
(g6
g7
S'No items found.'
p6941
tp6942
Rp6943
(dp6944
g12
VOutputMessage
p6945
sbasVPhraseIgnored
p6946
(lp6947
sVQuotedPhraseNotFound
p6948
(lp6949
stp6950
Rp6951
(dp6952
g12
g6937
sg1263
(lp6953
g6946
ag6948
ag6939
asbsVQueryTranslation
p6954
g1
(g6
g7
S'Lutjanus semicinctus[PORG] AND CytB[title]'
p6955
tp6956
Rp6957
(dp6958
g12
g6954
sbstp6959
Rp6960
(dp6961
g12
VeSearchResult
p6962
sbag1
(g2
g3
(dp6963
VCount
p6964
g1
(g6
g7
g108
tp6965
Rp6966
(dp6967
g12
g6964
sbsVRetMax
p6968
g1
(g6
g7
g108
tp6969
Rp6970
(dp6971
g12
g6968
sbsVIdList
p6972
g1
(g18
g19
(lp6973
g1
(g6
g7
S'114224496'
p6974
tp6975
Rp6976
(dp6977
g12
VId
p6978
sbatp6979
Rp6980
(dp6981
g12
g6972
sbsVQueryTranslation
p6982
g1
(g6
g7
S'Lutjanus stellatus[PORG] AND CytB[title]'
p6983
tp6984
Rp6985
(dp6986
g12
g6982
sbsVTranslationStack
p6987
g1
(g18
g19
(lp6988
g1
(g2
g3
(dp6989
g6964
g1
(g6
g7
S'58'
p6990
tp6991
Rp6992
(dp6993
g12
g6964
sbsVField
p6994
g1
(g6
g7
S'PORG'
p6995
tp6996
Rp6997
(dp6998
g12
g6994
sbsVTerm
p6999
g1
(g6
g7
S'Lutjanus stellatus[PORG]'
p7000
tp7001
Rp7002
(dp7003
g12
g6999
sbsVExplode
p7004
g1
(g6
g7
g56
tp7005
Rp7006
(dp7007
g12
g7004
sbstp7008
Rp7009
(dp7010
g12
VTermSet
p7011
sbag1
(g2
g3
(dp7012
g6964
g1
(g6
g7
S'317705'
p7013
tp7014
Rp7015
(dp7016
g12
g6964
sbsg6994
g1
(g6
g7
S'title'
p7017
tp7018
Rp7019
(dp7020
g12
g6994
sbsg6999
g1
(g6
g7
S'CytB[title]'
p7021
tp7022
Rp7023
(dp7024
g12
g6999
sbsg7004
g1
(g6
g7
g77
tp7025
Rp7026
(dp7027
g12
g7004
sbstp7028
Rp7029
(dp7030
g12
g7011
sbag1
(g6
g7
S'AND'
p7031
tp7032
Rp7033
(dp7034
g12
VOP
p7035
sbatp7036
Rp7037
(dp7038
g12
g6987
sbsVRetStart
p7039
g1
(g6
g7
g93
tp7040
Rp7041
(dp7042
g12
g7039
sbsVTranslationSet
p7043
g1
(g18
g19
(lp7044
tp7045
Rp7046
(dp7047
g12
g7043
sbstp7048
Rp7049
(dp7050
g12
VeSearchResult
p7051
sbag1
(g2
g3
(dp7052
VCount
p7053
g1
(g6
g7
g287
tp7054
Rp7055
(dp7056
g12
g7053
sbsVRetMax
p7057
g1
(g6
g7
g287
tp7058
Rp7059
(dp7060
g12
g7057
sbsVIdList
p7061
g1
(g18
g19
(lp7062
g1
(g6
g7
S'320578849'
p7063
tp7064
Rp7065
(dp7066
g12
VId
p7067
sbag1
(g6
g7
S'320578847'
p7068
tp7069
Rp7070
(dp7071
g12
g7067
sbag1
(g6
g7
S'320578845'
p7072
tp7073
Rp7074
(dp7075
g12
g7067
sbatp7076
Rp7077
(dp7078
g12
g7061
sbsVQueryTranslation
p7079
g1
(g6
g7
S'Lutjanus synagris[PORG] AND CytB[title]'
p7080
tp7081
Rp7082
(dp7083
g12
g7079
sbsVTranslationStack
p7084
g1
(g18
g19
(lp7085
g1
(g2
g3
(dp7086
g7053
g1
(g6
g7
S'148'
p7087
tp7088
Rp7089
(dp7090
g12
g7053
sbsVField
p7091
g1
(g6
g7
S'PORG'
p7092
tp7093
Rp7094
(dp7095
g12
g7091
sbsVTerm
p7096
g1
(g6
g7
S'Lutjanus synagris[PORG]'
p7097
tp7098
Rp7099
(dp7100
g12
g7096
sbsVExplode
p7101
g1
(g6
g7
g56
tp7102
Rp7103
(dp7104
g12
g7101
sbstp7105
Rp7106
(dp7107
g12
VTermSet
p7108
sbag1
(g2
g3
(dp7109
g7053
g1
(g6
g7
S'317705'
p7110
tp7111
Rp7112
(dp7113
g12
g7053
sbsg7091
g1
(g6
g7
S'title'
p7114
tp7115
Rp7116
(dp7117
g12
g7091
sbsg7096
g1
(g6
g7
S'CytB[title]'
p7118
tp7119
Rp7120
(dp7121
g12
g7096
sbsg7101
g1
(g6
g7
g77
tp7122
Rp7123
(dp7124
g12
g7101
sbstp7125
Rp7126
(dp7127
g12
g7108
sbag1
(g6
g7
S'AND'
p7128
tp7129
Rp7130
(dp7131
g12
VOP
p7132
sbatp7133
Rp7134
(dp7135
g12
g7084
sbsVRetStart
p7136
g1
(g6
g7
g93
tp7137
Rp7138
(dp7139
g12
g7136
sbsVTranslationSet
p7140
g1
(g18
g19
(lp7141
tp7142
Rp7143
(dp7144
g12
g7140
sbstp7145
Rp7146
(dp7147
g12
VeSearchResult
p7148
sbag1
(g2
g3
(dp7149
VCount
p7150
g1
(g6
g7
g93
tp7151
Rp7152
(dp7153
g12
g7150
sbsVRetMax
p7154
g1
(g6
g7
g93
tp7155
Rp7156
(dp7157
g12
g7154
sbsVIdList
p7158
g1
(g18
g19
(lp7159
tp7160
Rp7161
(dp7162
g12
g7158
sbsVQueryTranslation
p7163
g1
(g6
g7
S'Lutjanus timoriensis[PORG] AND CytB[title]'
p7164
tp7165
Rp7166
(dp7167
g12
g7163
sbsVTranslationStack
p7168
g1
(g18
g19
(lp7169
g1
(g2
g3
(dp7170
g7150
g1
(g6
g7
g287
tp7171
Rp7172
(dp7173
g12
g7150
sbsVField
p7174
g1
(g6
g7
S'PORG'
p7175
tp7176
Rp7177
(dp7178
g12
g7174
sbsVTerm
p7179
g1
(g6
g7
S'Lutjanus timoriensis[PORG]'
p7180
tp7181
Rp7182
(dp7183
g12
g7179
sbsVExplode
p7184
g1
(g6
g7
g56
tp7185
Rp7186
(dp7187
g12
g7184
sbstp7188
Rp7189
(dp7190
g12
VTermSet
p7191
sbag1
(g2
g3
(dp7192
g7150
g1
(g6
g7
S'317705'
p7193
tp7194
Rp7195
(dp7196
g12
g7150
sbsg7174
g1
(g6
g7
S'title'
p7197
tp7198
Rp7199
(dp7200
g12
g7174
sbsg7179
g1
(g6
g7
S'CytB[title]'
p7201
tp7202
Rp7203
(dp7204
g12
g7179
sbsg7184
g1
(g6
g7
g77
tp7205
Rp7206
(dp7207
g12
g7184
sbstp7208
Rp7209
(dp7210
g12
g7191
sbag1
(g6
g7
S'AND'
p7211
tp7212
Rp7213
(dp7214
g12
VOP
p7215
sbatp7216
Rp7217
(dp7218
g12
g7168
sbsVRetStart
p7219
g1
(g6
g7
g93
tp7220
Rp7221
(dp7222
g12
g7219
sbsVTranslationSet
p7223
g1
(g18
g19
(lp7224
tp7225
Rp7226
(dp7227
g12
g7223
sbstp7228
Rp7229
(dp7230
g12
VeSearchResult
p7231
sbag1
(g2
g3
(dp7232
VCount
p7233
g1
(g6
g7
g287
tp7234
Rp7235
(dp7236
g12
g7233
sbsVRetMax
p7237
g1
(g6
g7
g287
tp7238
Rp7239
(dp7240
g12
g7237
sbsVIdList
p7241
g1
(g18
g19
(lp7242
g1
(g6
g7
S'662357640'
p7243
tp7244
Rp7245
(dp7246
g12
VId
p7247
sbag1
(g6
g7
S'662357638'
p7248
tp7249
Rp7250
(dp7251
g12
g7247
sbag1
(g6
g7
S'662357636'
p7252
tp7253
Rp7254
(dp7255
g12
g7247
sbatp7256
Rp7257
(dp7258
g12
g7241
sbsVQueryTranslation
p7259
g1
(g6
g7
S'Lutjanus viridis[PORG] AND CytB[title]'
p7260
tp7261
Rp7262
(dp7263
g12
g7259
sbsVTranslationStack
p7264
g1
(g18
g19
(lp7265
g1
(g2
g3
(dp7266
g7233
g1
(g6
g7
g997
tp7267
Rp7268
(dp7269
g12
g7233
sbsVField
p7270
g1
(g6
g7
S'PORG'
p7271
tp7272
Rp7273
(dp7274
g12
g7270
sbsVTerm
p7275
g1
(g6
g7
S'Lutjanus viridis[PORG]'
p7276
tp7277
Rp7278
(dp7279
g12
g7275
sbsVExplode
p7280
g1
(g6
g7
g56
tp7281
Rp7282
(dp7283
g12
g7280
sbstp7284
Rp7285
(dp7286
g12
VTermSet
p7287
sbag1
(g2
g3
(dp7288
g7233
g1
(g6
g7
S'317705'
p7289
tp7290
Rp7291
(dp7292
g12
g7233
sbsg7270
g1
(g6
g7
S'title'
p7293
tp7294
Rp7295
(dp7296
g12
g7270
sbsg7275
g1
(g6
g7
S'CytB[title]'
p7297
tp7298
Rp7299
(dp7300
g12
g7275
sbsg7280
g1
(g6
g7
g77
tp7301
Rp7302
(dp7303
g12
g7280
sbstp7304
Rp7305
(dp7306
g12
g7287
sbag1
(g6
g7
S'AND'
p7307
tp7308
Rp7309
(dp7310
g12
VOP
p7311
sbatp7312
Rp7313
(dp7314
g12
g7264
sbsVRetStart
p7315
g1
(g6
g7
g93
tp7316
Rp7317
(dp7318
g12
g7315
sbsVTranslationSet
p7319
g1
(g18
g19
(lp7320
tp7321
Rp7322
(dp7323
g12
g7319
sbstp7324
Rp7325
(dp7326
g12
VeSearchResult
p7327
sbag1
(g2
g3
(dp7328
VCount
p7329
g1
(g6
g7
g287
tp7330
Rp7331
(dp7332
g12
g7329
sbsVRetMax
p7333
g1
(g6
g7
g287
tp7334
Rp7335
(dp7336
g12
g7333
sbsVIdList
p7337
g1
(g18
g19
(lp7338
g1
(g6
g7
S'114224526'
p7339
tp7340
Rp7341
(dp7342
g12
VId
p7343
sbag1
(g6
g7
S'114224524'
p7344
tp7345
Rp7346
(dp7347
g12
g7343
sbag1
(g6
g7
S'111114800'
p7348
tp7349
Rp7350
(dp7351
g12
g7343
sbatp7352
Rp7353
(dp7354
g12
g7337
sbsVQueryTranslation
p7355
g1
(g6
g7
S'Lutjanus vitta[PORG] AND CytB[title]'
p7356
tp7357
Rp7358
(dp7359
g12
g7355
sbsVTranslationStack
p7360
g1
(g18
g19
(lp7361
g1
(g2
g3
(dp7362
g7329
g1
(g6
g7
S'49'
p7363
tp7364
Rp7365
(dp7366
g12
g7329
sbsVField
p7367
g1
(g6
g7
S'PORG'
p7368
tp7369
Rp7370
(dp7371
g12
g7367
sbsVTerm
p7372
g1
(g6
g7
S'Lutjanus vitta[PORG]'
p7373
tp7374
Rp7375
(dp7376
g12
g7372
sbsVExplode
p7377
g1
(g6
g7
g56
tp7378
Rp7379
(dp7380
g12
g7377
sbstp7381
Rp7382
(dp7383
g12
VTermSet
p7384
sbag1
(g2
g3
(dp7385
g7329
g1
(g6
g7
S'317705'
p7386
tp7387
Rp7388
(dp7389
g12
g7329
sbsg7367
g1
(g6
g7
S'title'
p7390
tp7391
Rp7392
(dp7393
g12
g7367
sbsg7372
g1
(g6
g7
S'CytB[title]'
p7394
tp7395
Rp7396
(dp7397
g12
g7372
sbsg7377
g1
(g6
g7
g77
tp7398
Rp7399
(dp7400
g12
g7377
sbstp7401
Rp7402
(dp7403
g12
g7384
sbag1
(g6
g7
S'AND'
p7404
tp7405
Rp7406
(dp7407
g12
VOP
p7408
sbatp7409
Rp7410
(dp7411
g12
g7360
sbsVRetStart
p7412
g1
(g6
g7
g93
tp7413
Rp7414
(dp7415
g12
g7412
sbsVTranslationSet
p7416
g1
(g18
g19
(lp7417
tp7418
Rp7419
(dp7420
g12
g7416
sbstp7421
Rp7422
(dp7423
g12
VeSearchResult
p7424
sbag1
(g2
g3
(dp7425
VCount
p7426
g1
(g6
g7
g287
tp7427
Rp7428
(dp7429
g12
g7426
sbsVRetMax
p7430
g1
(g6
g7
g287
tp7431
Rp7432
(dp7433
g12
g7430
sbsVIdList
p7434
g1
(g18
g19
(lp7435
g1
(g6
g7
S'320578887'
p7436
tp7437
Rp7438
(dp7439
g12
VId
p7440
sbag1
(g6
g7
S'320578885'
p7441
tp7442
Rp7443
(dp7444
g12
g7440
sbag1
(g6
g7
S'320578883'
p7445
tp7446
Rp7447
(dp7448
g12
g7440
sbatp7449
Rp7450
(dp7451
g12
g7434
sbsVQueryTranslation
p7452
g1
(g6
g7
S'Lutjanus vivanus[PORG] AND CytB[title]'
p7453
tp7454
Rp7455
(dp7456
g12
g7452
sbsVTranslationStack
p7457
g1
(g18
g19
(lp7458
g1
(g2
g3
(dp7459
g7426
g1
(g6
g7
S'28'
p7460
tp7461
Rp7462
(dp7463
g12
g7426
sbsVField
p7464
g1
(g6
g7
S'PORG'
p7465
tp7466
Rp7467
(dp7468
g12
g7464
sbsVTerm
p7469
g1
(g6
g7
S'Lutjanus vivanus[PORG]'
p7470
tp7471
Rp7472
(dp7473
g12
g7469
sbsVExplode
p7474
g1
(g6
g7
g56
tp7475
Rp7476
(dp7477
g12
g7474
sbstp7478
Rp7479
(dp7480
g12
VTermSet
p7481
sbag1
(g2
g3
(dp7482
g7426
g1
(g6
g7
S'317705'
p7483
tp7484
Rp7485
(dp7486
g12
g7426
sbsg7464
g1
(g6
g7
S'title'
p7487
tp7488
Rp7489
(dp7490
g12
g7464
sbsg7469
g1
(g6
g7
S'CytB[title]'
p7491
tp7492
Rp7493
(dp7494
g12
g7469
sbsg7474
g1
(g6
g7
g77
tp7495
Rp7496
(dp7497
g12
g7474
sbstp7498
Rp7499
(dp7500
g12
g7481
sbag1
(g6
g7
S'AND'
p7501
tp7502
Rp7503
(dp7504
g12
VOP
p7505
sbatp7506
Rp7507
(dp7508
g12
g7457
sbsVRetStart
p7509
g1
(g6
g7
g93
tp7510
Rp7511
(dp7512
g12
g7509
sbsVTranslationSet
p7513
g1
(g18
g19
(lp7514
tp7515
Rp7516
(dp7517
g12
g7513
sbstp7518
Rp7519
(dp7520
g12
VeSearchResult
p7521
sbag1
(g2
g3
(dp7522
VCount
p7523
g1
(g6
g7
g93
tp7524
Rp7525
(dp7526
g12
g7523
sbsVRetMax
p7527
g1
(g6
g7
g93
tp7528
Rp7529
(dp7530
g12
g7527
sbsVIdList
p7531
g1
(g18
g19
(lp7532
tp7533
Rp7534
(dp7535
g12
g7531
sbsVQueryTranslation
p7536
g1
(g6
g7
S'Macolor macularis[PORG] AND CytB[title]'
p7537
tp7538
Rp7539
(dp7540
g12
g7536
sbsVTranslationStack
p7541
g1
(g18
g19
(lp7542
g1
(g2
g3
(dp7543
g7523
g1
(g6
g7
g1720
tp7544
Rp7545
(dp7546
g12
g7523
sbsVField
p7547
g1
(g6
g7
S'PORG'
p7548
tp7549
Rp7550
(dp7551
g12
g7547
sbsVTerm
p7552
g1
(g6
g7
S'Macolor macularis[PORG]'
p7553
tp7554
Rp7555
(dp7556
g12
g7552
sbsVExplode
p7557
g1
(g6
g7
g56
tp7558
Rp7559
(dp7560
g12
g7557
sbstp7561
Rp7562
(dp7563
g12
VTermSet
p7564
sbag1
(g2
g3
(dp7565
g7523
g1
(g6
g7
S'317705'
p7566
tp7567
Rp7568
(dp7569
g12
g7523
sbsg7547
g1
(g6
g7
S'title'
p7570
tp7571
Rp7572
(dp7573
g12
g7547
sbsg7552
g1
(g6
g7
S'CytB[title]'
p7574
tp7575
Rp7576
(dp7577
g12
g7552
sbsg7557
g1
(g6
g7
g77
tp7578
Rp7579
(dp7580
g12
g7557
sbstp7581
Rp7582
(dp7583
g12
g7564
sbag1
(g6
g7
S'AND'
p7584
tp7585
Rp7586
(dp7587
g12
VOP
p7588
sbatp7589
Rp7590
(dp7591
g12
g7541
sbsVRetStart
p7592
g1
(g6
g7
g93
tp7593
Rp7594
(dp7595
g12
g7592
sbsVTranslationSet
p7596
g1
(g18
g19
(lp7597
tp7598
Rp7599
(dp7600
g12
g7596
sbstp7601
Rp7602
(dp7603
g12
VeSearchResult
p7604
sbag1
(g2
g3
(dp7605
VCount
p7606
g1
(g6
g7
g108
tp7607
Rp7608
(dp7609
g12
g7606
sbsVRetMax
p7610
g1
(g6
g7
g108
tp7611
Rp7612
(dp7613
g12
g7610
sbsVIdList
p7614
g1
(g18
g19
(lp7615
g1
(g6
g7
S'111114802'
p7616
tp7617
Rp7618
(dp7619
g12
VId
p7620
sbatp7621
Rp7622
(dp7623
g12
g7614
sbsVQueryTranslation
p7624
g1
(g6
g7
S'Macolor niger[PORG] AND CytB[title]'
p7625
tp7626
Rp7627
(dp7628
g12
g7624
sbsVTranslationStack
p7629
g1
(g18
g19
(lp7630
g1
(g2
g3
(dp7631
g7606
g1
(g6
g7
S'19'
p7632
tp7633
Rp7634
(dp7635
g12
g7606
sbsVField
p7636
g1
(g6
g7
S'PORG'
p7637
tp7638
Rp7639
(dp7640
g12
g7636
sbsVTerm
p7641
g1
(g6
g7
S'Macolor niger[PORG]'
p7642
tp7643
Rp7644
(dp7645
g12
g7641
sbsVExplode
p7646
g1
(g6
g7
g56
tp7647
Rp7648
(dp7649
g12
g7646
sbstp7650
Rp7651
(dp7652
g12
VTermSet
p7653
sbag1
(g2
g3
(dp7654
g7606
g1
(g6
g7
S'317705'
p7655
tp7656
Rp7657
(dp7658
g12
g7606
sbsg7636
g1
(g6
g7
S'title'
p7659
tp7660
Rp7661
(dp7662
g12
g7636
sbsg7641
g1
(g6
g7
S'CytB[title]'
p7663
tp7664
Rp7665
(dp7666
g12
g7641
sbsg7646
g1
(g6
g7
g77
tp7667
Rp7668
(dp7669
g12
g7646
sbstp7670
Rp7671
(dp7672
g12
g7653
sbag1
(g6
g7
S'AND'
p7673
tp7674
Rp7675
(dp7676
g12
VOP
p7677
sbatp7678
Rp7679
(dp7680
g12
g7629
sbsVRetStart
p7681
g1
(g6
g7
g93
tp7682
Rp7683
(dp7684
g12
g7681
sbsVTranslationSet
p7685
g1
(g18
g19
(lp7686
tp7687
Rp7688
(dp7689
g12
g7685
sbstp7690
Rp7691
(dp7692
g12
VeSearchResult
p7693
sbag1
(g2
g3
(dp7694
VCount
p7695
g1
(g6
g7
S'15'
p7696
tp7697
Rp7698
(dp7699
g12
g7695
sbsVRetMax
p7700
g1
(g6
g7
S'15'
p7701
tp7702
Rp7703
(dp7704
g12
g7700
sbsVIdList
p7705
g1
(g18
g19
(lp7706
g1
(g6
g7
S'320578893'
p7707
tp7708
Rp7709
(dp7710
g12
VId
p7711
sbag1
(g6
g7
S'320578891'
p7712
tp7713
Rp7714
(dp7715
g12
g7711
sbag1
(g6
g7
S'320578889'
p7716
tp7717
Rp7718
(dp7719
g12
g7711
sbag1
(g6
g7
S'756174959'
p7720
tp7721
Rp7722
(dp7723
g12
g7711
sbag1
(g6
g7
S'756174957'
p7724
tp7725
Rp7726
(dp7727
g12
g7711
sbag1
(g6
g7
S'756174955'
p7728
tp7729
Rp7730
(dp7731
g12
g7711
sbag1
(g6
g7
S'756174953'
p7732
tp7733
Rp7734
(dp7735
g12
g7711
sbag1
(g6
g7
S'756174951'
p7736
tp7737
Rp7738
(dp7739
g12
g7711
sbag1
(g6
g7
S'756174949'
p7740
tp7741
Rp7742
(dp7743
g12
g7711
sbag1
(g6
g7
S'756174947'
p7744
tp7745
Rp7746
(dp7747
g12
g7711
sbag1
(g6
g7
S'756174945'
p7748
tp7749
Rp7750
(dp7751
g12
g7711
sbag1
(g6
g7
S'756174943'
p7752
tp7753
Rp7754
(dp7755
g12
g7711
sbag1
(g6
g7
S'756174941'
p7756
tp7757
Rp7758
(dp7759
g12
g7711
sbag1
(g6
g7
S'756174939'
p7760
tp7761
Rp7762
(dp7763
g12
g7711
sbag1
(g6
g7
S'756174937'
p7764
tp7765
Rp7766
(dp7767
g12
g7711
sbatp7768
Rp7769
(dp7770
g12
g7705
sbsVQueryTranslation
p7771
g1
(g6
g7
S'Ocyurus chrysurus[PORG] AND CytB[title]'
p7772
tp7773
Rp7774
(dp7775
g12
g7771
sbsVTranslationStack
p7776
g1
(g18
g19
(lp7777
g1
(g2
g3
(dp7778
g7695
g1
(g6
g7
S'320'
p7779
tp7780
Rp7781
(dp7782
g12
g7695
sbsVField
p7783
g1
(g6
g7
S'PORG'
p7784
tp7785
Rp7786
(dp7787
g12
g7783
sbsVTerm
p7788
g1
(g6
g7
S'Ocyurus chrysurus[PORG]'
p7789
tp7790
Rp7791
(dp7792
g12
g7788
sbsVExplode
p7793
g1
(g6
g7
g56
tp7794
Rp7795
(dp7796
g12
g7793
sbstp7797
Rp7798
(dp7799
g12
VTermSet
p7800
sbag1
(g2
g3
(dp7801
g7695
g1
(g6
g7
S'317705'
p7802
tp7803
Rp7804
(dp7805
g12
g7695
sbsg7783
g1
(g6
g7
S'title'
p7806
tp7807
Rp7808
(dp7809
g12
g7783
sbsg7788
g1
(g6
g7
S'CytB[title]'
p7810
tp7811
Rp7812
(dp7813
g12
g7788
sbsg7793
g1
(g6
g7
g77
tp7814
Rp7815
(dp7816
g12
g7793
sbstp7817
Rp7818
(dp7819
g12
g7800
sbag1
(g6
g7
S'AND'
p7820
tp7821
Rp7822
(dp7823
g12
VOP
p7824
sbatp7825
Rp7826
(dp7827
g12
g7776
sbsVRetStart
p7828
g1
(g6
g7
g93
tp7829
Rp7830
(dp7831
g12
g7828
sbsVTranslationSet
p7832
g1
(g18
g19
(lp7833
tp7834
Rp7835
(dp7836
g12
g7832
sbstp7837
Rp7838
(dp7839
g12
VeSearchResult
p7840
sbag1
(g2
g3
(dp7841
VCount
p7842
g1
(g6
g7
g93
tp7843
Rp7844
(dp7845
g12
g7842
sbsVRetMax
p7846
g1
(g6
g7
g93
tp7847
Rp7848
(dp7849
g12
g7846
sbsVIdList
p7850
g1
(g18
g19
(lp7851
tp7852
Rp7853
(dp7854
g12
g7850
sbsVQueryTranslation
p7855
g1
(g6
g7
S'Paracaesio caerulea[PORG] AND CytB[title]'
p7856
tp7857
Rp7858
(dp7859
g12
g7855
sbsVTranslationStack
p7860
g1
(g18
g19
(lp7861
g1
(g2
g3
(dp7862
g7842
g1
(g6
g7
g108
tp7863
Rp7864
(dp7865
g12
g7842
sbsVField
p7866
g1
(g6
g7
S'PORG'
p7867
tp7868
Rp7869
(dp7870
g12
g7866
sbsVTerm
p7871
g1
(g6
g7
S'Paracaesio caerulea[PORG]'
p7872
tp7873
Rp7874
(dp7875
g12
g7871
sbsVExplode
p7876
g1
(g6
g7
g56
tp7877
Rp7878
(dp7879
g12
g7876
sbstp7880
Rp7881
(dp7882
g12
VTermSet
p7883
sbag1
(g2
g3
(dp7884
g7842
g1
(g6
g7
S'317705'
p7885
tp7886
Rp7887
(dp7888
g12
g7842
sbsg7866
g1
(g6
g7
S'title'
p7889
tp7890
Rp7891
(dp7892
g12
g7866
sbsg7871
g1
(g6
g7
S'CytB[title]'
p7893
tp7894
Rp7895
(dp7896
g12
g7871
sbsg7876
g1
(g6
g7
g77
tp7897
Rp7898
(dp7899
g12
g7876
sbstp7900
Rp7901
(dp7902
g12
g7883
sbag1
(g6
g7
S'AND'
p7903
tp7904
Rp7905
(dp7906
g12
VOP
p7907
sbatp7908
Rp7909
(dp7910
g12
g7860
sbsVRetStart
p7911
g1
(g6
g7
g93
tp7912
Rp7913
(dp7914
g12
g7911
sbsVTranslationSet
p7915
g1
(g18
g19
(lp7916
tp7917
Rp7918
(dp7919
g12
g7915
sbstp7920
Rp7921
(dp7922
g12
VeSearchResult
p7923
sbag1
(g2
g3
(dp7924
VCount
p7925
g1
(g6
g7
g93
tp7926
Rp7927
(dp7928
g12
g7925
sbsVRetMax
p7929
g1
(g6
g7
g93
tp7930
Rp7931
(dp7932
g12
g7929
sbsVIdList
p7933
g1
(g18
g19
(lp7934
tp7935
Rp7936
(dp7937
g12
g7933
sbsVRetStart
p7938
g1
(g6
g7
g93
tp7939
Rp7940
(dp7941
g12
g7938
sbsVErrorList
p7942
g1
(g1249
g3
(dp7943
VFieldNotFound
p7944
(lp7945
sVPhraseNotFound
p7946
(lp7947
g1
(g6
g7
S'Paracaesio gonzalesi[PORG]'
p7948
tp7949
Rp7950
(dp7951
g12
VPhraseNotFound
p7952
sbastp7953
Rp7954
(dp7955
g12
g7942
sg1263
(lp7956
g7946
ag7944
asbsVTranslationSet
p7957
g1
(g18
g19
(lp7958
tp7959
Rp7960
(dp7961
g12
g7957
sbsVWarningList
p7962
g1
(g1249
g3
(dp7963
VOutputMessage
p7964
(lp7965
g1
(g6
g7
S'No items found.'
p7966
tp7967
Rp7968
(dp7969
g12
VOutputMessage
p7970
sbasVPhraseIgnored
p7971
(lp7972
sVQuotedPhraseNotFound
p7973
(lp7974
stp7975
Rp7976
(dp7977
g12
g7962
sg1263
(lp7978
g7971
ag7973
ag7964
asbsVQueryTranslation
p7979
g1
(g6
g7
S'Paracaesio gonzalesi[PORG] AND CytB[title]'
p7980
tp7981
Rp7982
(dp7983
g12
g7979
sbstp7984
Rp7985
(dp7986
g12
VeSearchResult
p7987
sbag1
(g2
g3
(dp7988
VCount
p7989
g1
(g6
g7
g93
tp7990
Rp7991
(dp7992
g12
g7989
sbsVRetMax
p7993
g1
(g6
g7
g93
tp7994
Rp7995
(dp7996
g12
g7993
sbsVIdList
p7997
g1
(g18
g19
(lp7998
tp7999
Rp8000
(dp8001
g12
g7997
sbsVQueryTranslation
p8002
g1
(g6
g7
S'Paracaesio kusakarii[PORG] AND CytB[title]'
p8003
tp8004
Rp8005
(dp8006
g12
g8002
sbsVTranslationStack
p8007
g1
(g18
g19
(lp8008
g1
(g2
g3
(dp8009
g7989
g1
(g6
g7
g108
tp8010
Rp8011
(dp8012
g12
g7989
sbsVField
p8013
g1
(g6
g7
S'PORG'
p8014
tp8015
Rp8016
(dp8017
g12
g8013
sbsVTerm
p8018
g1
(g6
g7
S'Paracaesio kusakarii[PORG]'
p8019
tp8020
Rp8021
(dp8022
g12
g8018
sbsVExplode
p8023
g1
(g6
g7
g56
tp8024
Rp8025
(dp8026
g12
g8023
sbstp8027
Rp8028
(dp8029
g12
VTermSet
p8030
sbag1
(g2
g3
(dp8031
g7989
g1
(g6
g7
S'317705'
p8032
tp8033
Rp8034
(dp8035
g12
g7989
sbsg8013
g1
(g6
g7
S'title'
p8036
tp8037
Rp8038
(dp8039
g12
g8013
sbsg8018
g1
(g6
g7
S'CytB[title]'
p8040
tp8041
Rp8042
(dp8043
g12
g8018
sbsg8023
g1
(g6
g7
g77
tp8044
Rp8045
(dp8046
g12
g8023
sbstp8047
Rp8048
(dp8049
g12
g8030
sbag1
(g6
g7
S'AND'
p8050
tp8051
Rp8052
(dp8053
g12
VOP
p8054
sbatp8055
Rp8056
(dp8057
g12
g8007
sbsVRetStart
p8058
g1
(g6
g7
g93
tp8059
Rp8060
(dp8061
g12
g8058
sbsVTranslationSet
p8062
g1
(g18
g19
(lp8063
tp8064
Rp8065
(dp8066
g12
g8062
sbstp8067
Rp8068
(dp8069
g12
VeSearchResult
p8070
sbag1
(g2
g3
(dp8071
VCount
p8072
g1
(g6
g7
g93
tp8073
Rp8074
(dp8075
g12
g8072
sbsVRetMax
p8076
g1
(g6
g7
g93
tp8077
Rp8078
(dp8079
g12
g8076
sbsVIdList
p8080
g1
(g18
g19
(lp8081
tp8082
Rp8083
(dp8084
g12
g8080
sbsVRetStart
p8085
g1
(g6
g7
g93
tp8086
Rp8087
(dp8088
g12
g8085
sbsVErrorList
p8089
g1
(g1249
g3
(dp8090
VFieldNotFound
p8091
(lp8092
sVPhraseNotFound
p8093
(lp8094
g1
(g6
g7
S'Paracaesio paragrapsimodon[PORG]'
p8095
tp8096
Rp8097
(dp8098
g12
VPhraseNotFound
p8099
sbastp8100
Rp8101
(dp8102
g12
g8089
sg1263
(lp8103
g8093
ag8091
asbsVTranslationSet
p8104
g1
(g18
g19
(lp8105
tp8106
Rp8107
(dp8108
g12
g8104
sbsVWarningList
p8109
g1
(g1249
g3
(dp8110
VOutputMessage
p8111
(lp8112
g1
(g6
g7
S'No items found.'
p8113
tp8114
Rp8115
(dp8116
g12
VOutputMessage
p8117
sbasVPhraseIgnored
p8118
(lp8119
sVQuotedPhraseNotFound
p8120
(lp8121
stp8122
Rp8123
(dp8124
g12
g8109
sg1263
(lp8125
g8118
ag8120
ag8111
asbsVQueryTranslation
p8126
g1
(g6
g7
S'Paracaesio paragrapsimodon[PORG] AND CytB[title]'
p8127
tp8128
Rp8129
(dp8130
g12
g8126
sbstp8131
Rp8132
(dp8133
g12
VeSearchResult
p8134
sbag1
(g2
g3
(dp8135
VCount
p8136
g1
(g6
g7
g93
tp8137
Rp8138
(dp8139
g12
g8136
sbsVRetMax
p8140
g1
(g6
g7
g93
tp8141
Rp8142
(dp8143
g12
g8140
sbsVIdList
p8144
g1
(g18
g19
(lp8145
tp8146
Rp8147
(dp8148
g12
g8144
sbsVQueryTranslation
p8149
g1
(g6
g7
S'Paracaesio sordida[PORG] AND CytB[title]'
p8150
tp8151
Rp8152
(dp8153
g12
g8149
sbsVTranslationStack
p8154
g1
(g18
g19
(lp8155
g1
(g2
g3
(dp8156
g8136
g1
(g6
g7
S'10'
p8157
tp8158
Rp8159
(dp8160
g12
g8136
sbsVField
p8161
g1
(g6
g7
S'PORG'
p8162
tp8163
Rp8164
(dp8165
g12
g8161
sbsVTerm
p8166
g1
(g6
g7
S'Paracaesio sordida[PORG]'
p8167
tp8168
Rp8169
(dp8170
g12
g8166
sbsVExplode
p8171
g1
(g6
g7
g56
tp8172
Rp8173
(dp8174
g12
g8171
sbstp8175
Rp8176
(dp8177
g12
VTermSet
p8178
sbag1
(g2
g3
(dp8179
g8136
g1
(g6
g7
S'317705'
p8180
tp8181
Rp8182
(dp8183
g12
g8136
sbsg8161
g1
(g6
g7
S'title'
p8184
tp8185
Rp8186
(dp8187
g12
g8161
sbsg8166
g1
(g6
g7
S'CytB[title]'
p8188
tp8189
Rp8190
(dp8191
g12
g8166
sbsg8171
g1
(g6
g7
g77
tp8192
Rp8193
(dp8194
g12
g8171
sbstp8195
Rp8196
(dp8197
g12
g8178
sbag1
(g6
g7
S'AND'
p8198
tp8199
Rp8200
(dp8201
g12
VOP
p8202
sbatp8203
Rp8204
(dp8205
g12
g8154
sbsVRetStart
p8206
g1
(g6
g7
g93
tp8207
Rp8208
(dp8209
g12
g8206
sbsVTranslationSet
p8210
g1
(g18
g19
(lp8211
tp8212
Rp8213
(dp8214
g12
g8210
sbstp8215
Rp8216
(dp8217
g12
VeSearchResult
p8218
sbag1
(g2
g3
(dp8219
VCount
p8220
g1
(g6
g7
g93
tp8221
Rp8222
(dp8223
g12
g8220
sbsVRetMax
p8224
g1
(g6
g7
g93
tp8225
Rp8226
(dp8227
g12
g8224
sbsVIdList
p8228
g1
(g18
g19
(lp8229
tp8230
Rp8231
(dp8232
g12
g8228
sbsVQueryTranslation
p8233
g1
(g6
g7
S'Paracaesio stonei[PORG] AND CytB[title]'
p8234
tp8235
Rp8236
(dp8237
g12
g8233
sbsVTranslationStack
p8238
g1
(g18
g19
(lp8239
g1
(g2
g3
(dp8240
g8220
g1
(g6
g7
g108
tp8241
Rp8242
(dp8243
g12
g8220
sbsVField
p8244
g1
(g6
g7
S'PORG'
p8245
tp8246
Rp8247
(dp8248
g12
g8244
sbsVTerm
p8249
g1
(g6
g7
S'Paracaesio stonei[PORG]'
p8250
tp8251
Rp8252
(dp8253
g12
g8249
sbsVExplode
p8254
g1
(g6
g7
g56
tp8255
Rp8256
(dp8257
g12
g8254
sbstp8258
Rp8259
(dp8260
g12
VTermSet
p8261
sbag1
(g2
g3
(dp8262
g8220
g1
(g6
g7
S'317705'
p8263
tp8264
Rp8265
(dp8266
g12
g8220
sbsg8244
g1
(g6
g7
S'title'
p8267
tp8268
Rp8269
(dp8270
g12
g8244
sbsg8249
g1
(g6
g7
S'CytB[title]'
p8271
tp8272
Rp8273
(dp8274
g12
g8249
sbsg8254
g1
(g6
g7
g77
tp8275
Rp8276
(dp8277
g12
g8254
sbstp8278
Rp8279
(dp8280
g12
g8261
sbag1
(g6
g7
S'AND'
p8281
tp8282
Rp8283
(dp8284
g12
VOP
p8285
sbatp8286
Rp8287
(dp8288
g12
g8238
sbsVRetStart
p8289
g1
(g6
g7
g93
tp8290
Rp8291
(dp8292
g12
g8289
sbsVTranslationSet
p8293
g1
(g18
g19
(lp8294
tp8295
Rp8296
(dp8297
g12
g8293
sbstp8298
Rp8299
(dp8300
g12
VeSearchResult
p8301
sbag1
(g2
g3
(dp8302
VCount
p8303
g1
(g6
g7
g93
tp8304
Rp8305
(dp8306
g12
g8303
sbsVRetMax
p8307
g1
(g6
g7
g93
tp8308
Rp8309
(dp8310
g12
g8307
sbsVIdList
p8311
g1
(g18
g19
(lp8312
tp8313
Rp8314
(dp8315
g12
g8311
sbsVRetStart
p8316
g1
(g6
g7
g93
tp8317
Rp8318
(dp8319
g12
g8316
sbsVErrorList
p8320
g1
(g1249
g3
(dp8321
VFieldNotFound
p8322
(lp8323
sVPhraseNotFound
p8324
(lp8325
g1
(g6
g7
S'Paracaesio waltervadi[PORG]'
p8326
tp8327
Rp8328
(dp8329
g12
VPhraseNotFound
p8330
sbastp8331
Rp8332
(dp8333
g12
g8320
sg1263
(lp8334
g8324
ag8322
asbsVTranslationSet
p8335
g1
(g18
g19
(lp8336
tp8337
Rp8338
(dp8339
g12
g8335
sbsVWarningList
p8340
g1
(g1249
g3
(dp8341
VOutputMessage
p8342
(lp8343
g1
(g6
g7
S'No items found.'
p8344
tp8345
Rp8346
(dp8347
g12
VOutputMessage
p8348
sbasVPhraseIgnored
p8349
(lp8350
sVQuotedPhraseNotFound
p8351
(lp8352
stp8353
Rp8354
(dp8355
g12
g8340
sg1263
(lp8356
g8349
ag8351
ag8342
asbsVQueryTranslation
p8357
g1
(g6
g7
S'Paracaesio waltervadi[PORG] AND CytB[title]'
p8358
tp8359
Rp8360
(dp8361
g12
g8357
sbstp8362
Rp8363
(dp8364
g12
VeSearchResult
p8365
sbag1
(g2
g3
(dp8366
VCount
p8367
g1
(g6
g7
g93
tp8368
Rp8369
(dp8370
g12
g8367
sbsVRetMax
p8371
g1
(g6
g7
g93
tp8372
Rp8373
(dp8374
g12
g8371
sbsVIdList
p8375
g1
(g18
g19
(lp8376
tp8377
Rp8378
(dp8379
g12
g8375
sbsVQueryTranslation
p8380
g1
(g6
g7
S'Paracaesio xanthura[PORG] AND CytB[title]'
p8381
tp8382
Rp8383
(dp8384
g12
g8380
sbsVTranslationStack
p8385
g1
(g18
g19
(lp8386
g1
(g2
g3
(dp8387
g8367
g1
(g6
g7
g997
tp8388
Rp8389
(dp8390
g12
g8367
sbsVField
p8391
g1
(g6
g7
S'PORG'
p8392
tp8393
Rp8394
(dp8395
g12
g8391
sbsVTerm
p8396
g1
(g6
g7
S'Paracaesio xanthura[PORG]'
p8397
tp8398
Rp8399
(dp8400
g12
g8396
sbsVExplode
p8401
g1
(g6
g7
g56
tp8402
Rp8403
(dp8404
g12
g8401
sbstp8405
Rp8406
(dp8407
g12
VTermSet
p8408
sbag1
(g2
g3
(dp8409
g8367
g1
(g6
g7
S'317705'
p8410
tp8411
Rp8412
(dp8413
g12
g8367
sbsg8391
g1
(g6
g7
S'title'
p8414
tp8415
Rp8416
(dp8417
g12
g8391
sbsg8396
g1
(g6
g7
S'CytB[title]'
p8418
tp8419
Rp8420
(dp8421
g12
g8396
sbsg8401
g1
(g6
g7
g77
tp8422
Rp8423
(dp8424
g12
g8401
sbstp8425
Rp8426
(dp8427
g12
g8408
sbag1
(g6
g7
S'AND'
p8428
tp8429
Rp8430
(dp8431
g12
VOP
p8432
sbatp8433
Rp8434
(dp8435
g12
g8385
sbsVRetStart
p8436
g1
(g6
g7
g93
tp8437
Rp8438
(dp8439
g12
g8436
sbsVTranslationSet
p8440
g1
(g18
g19
(lp8441
tp8442
Rp8443
(dp8444
g12
g8440
sbstp8445
Rp8446
(dp8447
g12
VeSearchResult
p8448
sbag1
(g2
g3
(dp8449
VCount
p8450
g1
(g6
g7
g93
tp8451
Rp8452
(dp8453
g12
g8450
sbsVRetMax
p8454
g1
(g6
g7
g93
tp8455
Rp8456
(dp8457
g12
g8454
sbsVIdList
p8458
g1
(g18
g19
(lp8459
tp8460
Rp8461
(dp8462
g12
g8458
sbsVRetStart
p8463
g1
(g6
g7
g93
tp8464
Rp8465
(dp8466
g12
g8463
sbsVErrorList
p8467
g1
(g1249
g3
(dp8468
VFieldNotFound
p8469
(lp8470
sVPhraseNotFound
p8471
(lp8472
g1
(g6
g7
S'Parapristipomoides squamimaxillaris[PORG]'
p8473
tp8474
Rp8475
(dp8476
g12
VPhraseNotFound
p8477
sbastp8478
Rp8479
(dp8480
g12
g8467
sg1263
(lp8481
g8471
ag8469
asbsVTranslationSet
p8482
g1
(g18
g19
(lp8483
tp8484
Rp8485
(dp8486
g12
g8482
sbsVWarningList
p8487
g1
(g1249
g3
(dp8488
VOutputMessage
p8489
(lp8490
g1
(g6
g7
S'No items found.'
p8491
tp8492
Rp8493
(dp8494
g12
VOutputMessage
p8495
sbasVPhraseIgnored
p8496
(lp8497
sVQuotedPhraseNotFound
p8498
(lp8499
stp8500
Rp8501
(dp8502
g12
g8487
sg1263
(lp8503
g8496
ag8498
ag8489
asbsVQueryTranslation
p8504
g1
(g6
g7
S'Parapristipomoides squamimaxillaris[PORG] AND CytB[title]'
p8505
tp8506
Rp8507
(dp8508
g12
g8504
sbstp8509
Rp8510
(dp8511
g12
VeSearchResult
p8512
sbag1
(g2
g3
(dp8513
VCount
p8514
g1
(g6
g7
g108
tp8515
Rp8516
(dp8517
g12
g8514
sbsVRetMax
p8518
g1
(g6
g7
g108
tp8519
Rp8520
(dp8521
g12
g8518
sbsVIdList
p8522
g1
(g18
g19
(lp8523
g1
(g6
g7
S'926473905'
p8524
tp8525
Rp8526
(dp8527
g12
VId
p8528
sbatp8529
Rp8530
(dp8531
g12
g8522
sbsVQueryTranslation
p8532
g1
(g6
g7
S'Pinjalo lewisi[PORG] AND CytB[title]'
p8533
tp8534
Rp8535
(dp8536
g12
g8532
sbsVTranslationStack
p8537
g1
(g18
g19
(lp8538
g1
(g2
g3
(dp8539
g8514
g1
(g6
g7
g3367
tp8540
Rp8541
(dp8542
g12
g8514
sbsVField
p8543
g1
(g6
g7
S'PORG'
p8544
tp8545
Rp8546
(dp8547
g12
g8543
sbsVTerm
p8548
g1
(g6
g7
S'Pinjalo lewisi[PORG]'
p8549
tp8550
Rp8551
(dp8552
g12
g8548
sbsVExplode
p8553
g1
(g6
g7
g56
tp8554
Rp8555
(dp8556
g12
g8553
sbstp8557
Rp8558
(dp8559
g12
VTermSet
p8560
sbag1
(g2
g3
(dp8561
g8514
g1
(g6
g7
S'317705'
p8562
tp8563
Rp8564
(dp8565
g12
g8514
sbsg8543
g1
(g6
g7
S'title'
p8566
tp8567
Rp8568
(dp8569
g12
g8543
sbsg8548
g1
(g6
g7
S'CytB[title]'
p8570
tp8571
Rp8572
(dp8573
g12
g8548
sbsg8553
g1
(g6
g7
g77
tp8574
Rp8575
(dp8576
g12
g8553
sbstp8577
Rp8578
(dp8579
g12
g8560
sbag1
(g6
g7
S'AND'
p8580
tp8581
Rp8582
(dp8583
g12
VOP
p8584
sbatp8585
Rp8586
(dp8587
g12
g8537
sbsVRetStart
p8588
g1
(g6
g7
g93
tp8589
Rp8590
(dp8591
g12
g8588
sbsVTranslationSet
p8592
g1
(g18
g19
(lp8593
tp8594
Rp8595
(dp8596
g12
g8592
sbstp8597
Rp8598
(dp8599
g12
VeSearchResult
p8600
sbag1
(g2
g3
(dp8601
VCount
p8602
g1
(g6
g7
g93
tp8603
Rp8604
(dp8605
g12
g8602
sbsVRetMax
p8606
g1
(g6
g7
g93
tp8607
Rp8608
(dp8609
g12
g8606
sbsVIdList
p8610
g1
(g18
g19
(lp8611
tp8612
Rp8613
(dp8614
g12
g8610
sbsVQueryTranslation
p8615
g1
(g6
g7
S'Pinjalo pinjalo[PORG] AND CytB[title]'
p8616
tp8617
Rp8618
(dp8619
g12
g8615
sbsVTranslationStack
p8620
g1
(g18
g19
(lp8621
g1
(g2
g3
(dp8622
g8602
g1
(g6
g7
S'16'
p8623
tp8624
Rp8625
(dp8626
g12
g8602
sbsVField
p8627
g1
(g6
g7
S'PORG'
p8628
tp8629
Rp8630
(dp8631
g12
g8627
sbsVTerm
p8632
g1
(g6
g7
S'Pinjalo pinjalo[PORG]'
p8633
tp8634
Rp8635
(dp8636
g12
g8632
sbsVExplode
p8637
g1
(g6
g7
g56
tp8638
Rp8639
(dp8640
g12
g8637
sbstp8641
Rp8642
(dp8643
g12
VTermSet
p8644
sbag1
(g2
g3
(dp8645
g8602
g1
(g6
g7
S'317705'
p8646
tp8647
Rp8648
(dp8649
g12
g8602
sbsg8627
g1
(g6
g7
S'title'
p8650
tp8651
Rp8652
(dp8653
g12
g8627
sbsg8632
g1
(g6
g7
S'CytB[title]'
p8654
tp8655
Rp8656
(dp8657
g12
g8632
sbsg8637
g1
(g6
g7
g77
tp8658
Rp8659
(dp8660
g12
g8637
sbstp8661
Rp8662
(dp8663
g12
g8644
sbag1
(g6
g7
S'AND'
p8664
tp8665
Rp8666
(dp8667
g12
VOP
p8668
sbatp8669
Rp8670
(dp8671
g12
g8620
sbsVRetStart
p8672
g1
(g6
g7
g93
tp8673
Rp8674
(dp8675
g12
g8672
sbsVTranslationSet
p8676
g1
(g18
g19
(lp8677
tp8678
Rp8679
(dp8680
g12
g8676
sbstp8681
Rp8682
(dp8683
g12
VeSearchResult
p8684
sbag1
(g2
g3
(dp8685
VCount
p8686
g1
(g6
g7
g287
tp8687
Rp8688
(dp8689
g12
g8686
sbsVRetMax
p8690
g1
(g6
g7
g287
tp8691
Rp8692
(dp8693
g12
g8690
sbsVIdList
p8694
g1
(g18
g19
(lp8695
g1
(g6
g7
S'320578905'
p8696
tp8697
Rp8698
(dp8699
g12
VId
p8700
sbag1
(g6
g7
S'320578903'
p8701
tp8702
Rp8703
(dp8704
g12
g8700
sbag1
(g6
g7
S'320578901'
p8705
tp8706
Rp8707
(dp8708
g12
g8700
sbatp8709
Rp8710
(dp8711
g12
g8694
sbsVQueryTranslation
p8712
g1
(g6
g7
S'Pristipomoides aquilonaris[PORG] AND CytB[title]'
p8713
tp8714
Rp8715
(dp8716
g12
g8712
sbsVTranslationStack
p8717
g1
(g18
g19
(lp8718
g1
(g2
g3
(dp8719
g8686
g1
(g6
g7
S'26'
p8720
tp8721
Rp8722
(dp8723
g12
g8686
sbsVField
p8724
g1
(g6
g7
S'PORG'
p8725
tp8726
Rp8727
(dp8728
g12
g8724
sbsVTerm
p8729
g1
(g6
g7
S'Pristipomoides aquilonaris[PORG]'
p8730
tp8731
Rp8732
(dp8733
g12
g8729
sbsVExplode
p8734
g1
(g6
g7
g56
tp8735
Rp8736
(dp8737
g12
g8734
sbstp8738
Rp8739
(dp8740
g12
VTermSet
p8741
sbag1
(g2
g3
(dp8742
g8686
g1
(g6
g7
S'317705'
p8743
tp8744
Rp8745
(dp8746
g12
g8686
sbsg8724
g1
(g6
g7
S'title'
p8747
tp8748
Rp8749
(dp8750
g12
g8724
sbsg8729
g1
(g6
g7
S'CytB[title]'
p8751
tp8752
Rp8753
(dp8754
g12
g8729
sbsg8734
g1
(g6
g7
g77
tp8755
Rp8756
(dp8757
g12
g8734
sbstp8758
Rp8759
(dp8760
g12
g8741
sbag1
(g6
g7
S'AND'
p8761
tp8762
Rp8763
(dp8764
g12
VOP
p8765
sbatp8766
Rp8767
(dp8768
g12
g8717
sbsVRetStart
p8769
g1
(g6
g7
g93
tp8770
Rp8771
(dp8772
g12
g8769
sbsVTranslationSet
p8773
g1
(g18
g19
(lp8774
tp8775
Rp8776
(dp8777
g12
g8773
sbstp8778
Rp8779
(dp8780
g12
VeSearchResult
p8781
sbag1
(g2
g3
(dp8782
VCount
p8783
g1
(g6
g7
g93
tp8784
Rp8785
(dp8786
g12
g8783
sbsVRetMax
p8787
g1
(g6
g7
g93
tp8788
Rp8789
(dp8790
g12
g8787
sbsVIdList
p8791
g1
(g18
g19
(lp8792
tp8793
Rp8794
(dp8795
g12
g8791
sbsVQueryTranslation
p8796
g1
(g6
g7
S'Pristipomoides argyrogrammicus[PORG] AND CytB[title]'
p8797
tp8798
Rp8799
(dp8800
g12
g8796
sbsVTranslationStack
p8801
g1
(g18
g19
(lp8802
g1
(g2
g3
(dp8803
g8783
g1
(g6
g7
g468
tp8804
Rp8805
(dp8806
g12
g8783
sbsVField
p8807
g1
(g6
g7
S'PORG'
p8808
tp8809
Rp8810
(dp8811
g12
g8807
sbsVTerm
p8812
g1
(g6
g7
S'Pristipomoides argyrogrammicus[PORG]'
p8813
tp8814
Rp8815
(dp8816
g12
g8812
sbsVExplode
p8817
g1
(g6
g7
g56
tp8818
Rp8819
(dp8820
g12
g8817
sbstp8821
Rp8822
(dp8823
g12
VTermSet
p8824
sbag1
(g2
g3
(dp8825
g8783
g1
(g6
g7
S'317705'
p8826
tp8827
Rp8828
(dp8829
g12
g8783
sbsg8807
g1
(g6
g7
S'title'
p8830
tp8831
Rp8832
(dp8833
g12
g8807
sbsg8812
g1
(g6
g7
S'CytB[title]'
p8834
tp8835
Rp8836
(dp8837
g12
g8812
sbsg8817
g1
(g6
g7
g77
tp8838
Rp8839
(dp8840
g12
g8817
sbstp8841
Rp8842
(dp8843
g12
g8824
sbag1
(g6
g7
S'AND'
p8844
tp8845
Rp8846
(dp8847
g12
VOP
p8848
sbatp8849
Rp8850
(dp8851
g12
g8801
sbsVRetStart
p8852
g1
(g6
g7
g93
tp8853
Rp8854
(dp8855
g12
g8852
sbsVTranslationSet
p8856
g1
(g18
g19
(lp8857
tp8858
Rp8859
(dp8860
g12
g8856
sbstp8861
Rp8862
(dp8863
g12
VeSearchResult
p8864
sbag1
(g2
g3
(dp8865
VCount
p8866
g1
(g6
g7
g93
tp8867
Rp8868
(dp8869
g12
g8866
sbsVRetMax
p8870
g1
(g6
g7
g93
tp8871
Rp8872
(dp8873
g12
g8870
sbsVIdList
p8874
g1
(g18
g19
(lp8875
tp8876
Rp8877
(dp8878
g12
g8874
sbsVQueryTranslation
p8879
g1
(g6
g7
S'Pristipomoides auricilla[PORG] AND CytB[title]'
p8880
tp8881
Rp8882
(dp8883
g12
g8879
sbsVTranslationStack
p8884
g1
(g18
g19
(lp8885
g1
(g2
g3
(dp8886
g8866
g1
(g6
g7
S'11'
p8887
tp8888
Rp8889
(dp8890
g12
g8866
sbsVField
p8891
g1
(g6
g7
S'PORG'
p8892
tp8893
Rp8894
(dp8895
g12
g8891
sbsVTerm
p8896
g1
(g6
g7
S'Pristipomoides auricilla[PORG]'
p8897
tp8898
Rp8899
(dp8900
g12
g8896
sbsVExplode
p8901
g1
(g6
g7
g56
tp8902
Rp8903
(dp8904
g12
g8901
sbstp8905
Rp8906
(dp8907
g12
VTermSet
p8908
sbag1
(g2
g3
(dp8909
g8866
g1
(g6
g7
S'317705'
p8910
tp8911
Rp8912
(dp8913
g12
g8866
sbsg8891
g1
(g6
g7
S'title'
p8914
tp8915
Rp8916
(dp8917
g12
g8891
sbsg8896
g1
(g6
g7
S'CytB[title]'
p8918
tp8919
Rp8920
(dp8921
g12
g8896
sbsg8901
g1
(g6
g7
g77
tp8922
Rp8923
(dp8924
g12
g8901
sbstp8925
Rp8926
(dp8927
g12
g8908
sbag1
(g6
g7
S'AND'
p8928
tp8929
Rp8930
(dp8931
g12
VOP
p8932
sbatp8933
Rp8934
(dp8935
g12
g8884
sbsVRetStart
p8936
g1
(g6
g7
g93
tp8937
Rp8938
(dp8939
g12
g8936
sbsVTranslationSet
p8940
g1
(g18
g19
(lp8941
tp8942
Rp8943
(dp8944
g12
g8940
sbstp8945
Rp8946
(dp8947
g12
VeSearchResult
p8948
sbag1
(g2
g3
(dp8949
VCount
p8950
g1
(g6
g7
g108
tp8951
Rp8952
(dp8953
g12
g8950
sbsVRetMax
p8954
g1
(g6
g7
g108
tp8955
Rp8956
(dp8957
g12
g8954
sbsVIdList
p8958
g1
(g18
g19
(lp8959
g1
(g6
g7
S'1020878055'
p8960
tp8961
Rp8962
(dp8963
g12
VId
p8964
sbatp8965
Rp8966
(dp8967
g12
g8958
sbsVQueryTranslation
p8968
g1
(g6
g7
S'Pristipomoides filamentosus[PORG] AND CytB[title]'
p8969
tp8970
Rp8971
(dp8972
g12
g8968
sbsVTranslationStack
p8973
g1
(g18
g19
(lp8974
g1
(g2
g3
(dp8975
g8950
g1
(g6
g7
S'184'
p8976
tp8977
Rp8978
(dp8979
g12
g8950
sbsVField
p8980
g1
(g6
g7
S'PORG'
p8981
tp8982
Rp8983
(dp8984
g12
g8980
sbsVTerm
p8985
g1
(g6
g7
S'Pristipomoides filamentosus[PORG]'
p8986
tp8987
Rp8988
(dp8989
g12
g8985
sbsVExplode
p8990
g1
(g6
g7
g56
tp8991
Rp8992
(dp8993
g12
g8990
sbstp8994
Rp8995
(dp8996
g12
VTermSet
p8997
sbag1
(g2
g3
(dp8998
g8950
g1
(g6
g7
S'317705'
p8999
tp9000
Rp9001
(dp9002
g12
g8950
sbsg8980
g1
(g6
g7
S'title'
p9003
tp9004
Rp9005
(dp9006
g12
g8980
sbsg8985
g1
(g6
g7
S'CytB[title]'
p9007
tp9008
Rp9009
(dp9010
g12
g8985
sbsg8990
g1
(g6
g7
g77
tp9011
Rp9012
(dp9013
g12
g8990
sbstp9014
Rp9015
(dp9016
g12
g8997
sbag1
(g6
g7
S'AND'
p9017
tp9018
Rp9019
(dp9020
g12
VOP
p9021
sbatp9022
Rp9023
(dp9024
g12
g8973
sbsVRetStart
p9025
g1
(g6
g7
g93
tp9026
Rp9027
(dp9028
g12
g9025
sbsVTranslationSet
p9029
g1
(g18
g19
(lp9030
tp9031
Rp9032
(dp9033
g12
g9029
sbstp9034
Rp9035
(dp9036
g12
VeSearchResult
p9037
sbag1
(g2
g3
(dp9038
VCount
p9039
g1
(g6
g7
g93
tp9040
Rp9041
(dp9042
g12
g9039
sbsVRetMax
p9043
g1
(g6
g7
g93
tp9044
Rp9045
(dp9046
g12
g9043
sbsVIdList
p9047
g1
(g18
g19
(lp9048
tp9049
Rp9050
(dp9051
g12
g9047
sbsVQueryTranslation
p9052
g1
(g6
g7
S'Pristipomoides flavipinnis[PORG] AND CytB[title]'
p9053
tp9054
Rp9055
(dp9056
g12
g9052
sbsVTranslationStack
p9057
g1
(g18
g19
(lp9058
g1
(g2
g3
(dp9059
g9039
g1
(g6
g7
g108
tp9060
Rp9061
(dp9062
g12
g9039
sbsVField
p9063
g1
(g6
g7
S'PORG'
p9064
tp9065
Rp9066
(dp9067
g12
g9063
sbsVTerm
p9068
g1
(g6
g7
S'Pristipomoides flavipinnis[PORG]'
p9069
tp9070
Rp9071
(dp9072
g12
g9068
sbsVExplode
p9073
g1
(g6
g7
g56
tp9074
Rp9075
(dp9076
g12
g9073
sbstp9077
Rp9078
(dp9079
g12
VTermSet
p9080
sbag1
(g2
g3
(dp9081
g9039
g1
(g6
g7
S'317705'
p9082
tp9083
Rp9084
(dp9085
g12
g9039
sbsg9063
g1
(g6
g7
S'title'
p9086
tp9087
Rp9088
(dp9089
g12
g9063
sbsg9068
g1
(g6
g7
S'CytB[title]'
p9090
tp9091
Rp9092
(dp9093
g12
g9068
sbsg9073
g1
(g6
g7
g77
tp9094
Rp9095
(dp9096
g12
g9073
sbstp9097
Rp9098
(dp9099
g12
g9080
sbag1
(g6
g7
S'AND'
p9100
tp9101
Rp9102
(dp9103
g12
VOP
p9104
sbatp9105
Rp9106
(dp9107
g12
g9057
sbsVRetStart
p9108
g1
(g6
g7
g93
tp9109
Rp9110
(dp9111
g12
g9108
sbsVTranslationSet
p9112
g1
(g18
g19
(lp9113
tp9114
Rp9115
(dp9116
g12
g9112
sbstp9117
Rp9118
(dp9119
g12
VeSearchResult
p9120
sbag1
(g2
g3
(dp9121
VCount
p9122
g1
(g6
g7
g93
tp9123
Rp9124
(dp9125
g12
g9122
sbsVRetMax
p9126
g1
(g6
g7
g93
tp9127
Rp9128
(dp9129
g12
g9126
sbsVIdList
p9130
g1
(g18
g19
(lp9131
tp9132
Rp9133
(dp9134
g12
g9130
sbsVRetStart
p9135
g1
(g6
g7
g93
tp9136
Rp9137
(dp9138
g12
g9135
sbsVErrorList
p9139
g1
(g1249
g3
(dp9140
VFieldNotFound
p9141
(lp9142
sVPhraseNotFound
p9143
(lp9144
g1
(g6
g7
S'Pristipomoides freemani[PORG]'
p9145
tp9146
Rp9147
(dp9148
g12
VPhraseNotFound
p9149
sbastp9150
Rp9151
(dp9152
g12
g9139
sg1263
(lp9153
g9143
ag9141
asbsVTranslationSet
p9154
g1
(g18
g19
(lp9155
tp9156
Rp9157
(dp9158
g12
g9154
sbsVWarningList
p9159
g1
(g1249
g3
(dp9160
VOutputMessage
p9161
(lp9162
g1
(g6
g7
S'No items found.'
p9163
tp9164
Rp9165
(dp9166
g12
VOutputMessage
p9167
sbasVPhraseIgnored
p9168
(lp9169
sVQuotedPhraseNotFound
p9170
(lp9171
stp9172
Rp9173
(dp9174
g12
g9159
sg1263
(lp9175
g9168
ag9170
ag9161
asbsVQueryTranslation
p9176
g1
(g6
g7
S'Pristipomoides freemani[PORG] AND CytB[title]'
p9177
tp9178
Rp9179
(dp9180
g12
g9176
sbstp9181
Rp9182
(dp9183
g12
VeSearchResult
p9184
sbag1
(g2
g3
(dp9185
VCount
p9186
g1
(g6
g7
g93
tp9187
Rp9188
(dp9189
g12
g9186
sbsVRetMax
p9190
g1
(g6
g7
g93
tp9191
Rp9192
(dp9193
g12
g9190
sbsVIdList
p9194
g1
(g18
g19
(lp9195
tp9196
Rp9197
(dp9198
g12
g9194
sbsVRetStart
p9199
g1
(g6
g7
g93
tp9200
Rp9201
(dp9202
g12
g9199
sbsVErrorList
p9203
g1
(g1249
g3
(dp9204
VFieldNotFound
p9205
(lp9206
sVPhraseNotFound
p9207
(lp9208
g1
(g6
g7
S'Pristipomoides macrophthalmus[PORG]'
p9209
tp9210
Rp9211
(dp9212
g12
VPhraseNotFound
p9213
sbastp9214
Rp9215
(dp9216
g12
g9203
sg1263
(lp9217
g9207
ag9205
asbsVTranslationSet
p9218
g1
(g18
g19
(lp9219
tp9220
Rp9221
(dp9222
g12
g9218
sbsVWarningList
p9223
g1
(g1249
g3
(dp9224
VOutputMessage
p9225
(lp9226
g1
(g6
g7
S'No items found.'
p9227
tp9228
Rp9229
(dp9230
g12
VOutputMessage
p9231
sbasVPhraseIgnored
p9232
(lp9233
sVQuotedPhraseNotFound
p9234
(lp9235
stp9236
Rp9237
(dp9238
g12
g9223
sg1263
(lp9239
g9232
ag9234
ag9225
asbsVQueryTranslation
p9240
g1
(g6
g7
S'Pristipomoides macrophthalmus[PORG] AND CytB[title]'
p9241
tp9242
Rp9243
(dp9244
g12
g9240
sbstp9245
Rp9246
(dp9247
g12
VeSearchResult
p9248
sbag1
(g2
g3
(dp9249
VCount
p9250
g1
(g6
g7
g93
tp9251
Rp9252
(dp9253
g12
g9250
sbsVRetMax
p9254
g1
(g6
g7
g93
tp9255
Rp9256
(dp9257
g12
g9254
sbsVIdList
p9258
g1
(g18
g19
(lp9259
tp9260
Rp9261
(dp9262
g12
g9258
sbsVQueryTranslation
p9263
g1
(g6
g7
S'Pristipomoides multidens[PORG] AND CytB[title]'
p9264
tp9265
Rp9266
(dp9267
g12
g9263
sbsVTranslationStack
p9268
g1
(g18
g19
(lp9269
g1
(g2
g3
(dp9270
g9250
g1
(g6
g7
S'93'
p9271
tp9272
Rp9273
(dp9274
g12
g9250
sbsVField
p9275
g1
(g6
g7
S'PORG'
p9276
tp9277
Rp9278
(dp9279
g12
g9275
sbsVTerm
p9280
g1
(g6
g7
S'Pristipomoides multidens[PORG]'
p9281
tp9282
Rp9283
(dp9284
g12
g9280
sbsVExplode
p9285
g1
(g6
g7
g56
tp9286
Rp9287
(dp9288
g12
g9285
sbstp9289
Rp9290
(dp9291
g12
VTermSet
p9292
sbag1
(g2
g3
(dp9293
g9250
g1
(g6
g7
S'317705'
p9294
tp9295
Rp9296
(dp9297
g12
g9250
sbsg9275
g1
(g6
g7
S'title'
p9298
tp9299
Rp9300
(dp9301
g12
g9275
sbsg9280
g1
(g6
g7
S'CytB[title]'
p9302
tp9303
Rp9304
(dp9305
g12
g9280
sbsg9285
g1
(g6
g7
g77
tp9306
Rp9307
(dp9308
g12
g9285
sbstp9309
Rp9310
(dp9311
g12
g9292
sbag1
(g6
g7
S'AND'
p9312
tp9313
Rp9314
(dp9315
g12
VOP
p9316
sbatp9317
Rp9318
(dp9319
g12
g9268
sbsVRetStart
p9320
g1
(g6
g7
g93
tp9321
Rp9322
(dp9323
g12
g9320
sbsVTranslationSet
p9324
g1
(g18
g19
(lp9325
tp9326
Rp9327
(dp9328
g12
g9324
sbstp9329
Rp9330
(dp9331
g12
VeSearchResult
p9332
sbag1
(g2
g3
(dp9333
VCount
p9334
g1
(g6
g7
g93
tp9335
Rp9336
(dp9337
g12
g9334
sbsVRetMax
p9338
g1
(g6
g7
g93
tp9339
Rp9340
(dp9341
g12
g9338
sbsVIdList
p9342
g1
(g18
g19
(lp9343
tp9344
Rp9345
(dp9346
g12
g9342
sbsVQueryTranslation
p9347
g1
(g6
g7
S'Pristipomoides sieboldii[PORG] AND CytB[title]'
p9348
tp9349
Rp9350
(dp9351
g12
g9347
sbsVTranslationStack
p9352
g1
(g18
g19
(lp9353
g1
(g2
g3
(dp9354
g9334
g1
(g6
g7
g737
tp9355
Rp9356
(dp9357
g12
g9334
sbsVField
p9358
g1
(g6
g7
S'PORG'
p9359
tp9360
Rp9361
(dp9362
g12
g9358
sbsVTerm
p9363
g1
(g6
g7
S'Pristipomoides sieboldii[PORG]'
p9364
tp9365
Rp9366
(dp9367
g12
g9363
sbsVExplode
p9368
g1
(g6
g7
g56
tp9369
Rp9370
(dp9371
g12
g9368
sbstp9372
Rp9373
(dp9374
g12
VTermSet
p9375
sbag1
(g2
g3
(dp9376
g9334
g1
(g6
g7
S'317705'
p9377
tp9378
Rp9379
(dp9380
g12
g9334
sbsg9358
g1
(g6
g7
S'title'
p9381
tp9382
Rp9383
(dp9384
g12
g9358
sbsg9363
g1
(g6
g7
S'CytB[title]'
p9385
tp9386
Rp9387
(dp9388
g12
g9363
sbsg9368
g1
(g6
g7
g77
tp9389
Rp9390
(dp9391
g12
g9368
sbstp9392
Rp9393
(dp9394
g12
g9375
sbag1
(g6
g7
S'AND'
p9395
tp9396
Rp9397
(dp9398
g12
VOP
p9399
sbatp9400
Rp9401
(dp9402
g12
g9352
sbsVRetStart
p9403
g1
(g6
g7
g93
tp9404
Rp9405
(dp9406
g12
g9403
sbsVTranslationSet
p9407
g1
(g18
g19
(lp9408
tp9409
Rp9410
(dp9411
g12
g9407
sbstp9412
Rp9413
(dp9414
g12
VeSearchResult
p9415
sbag1
(g2
g3
(dp9416
VCount
p9417
g1
(g6
g7
g93
tp9418
Rp9419
(dp9420
g12
g9417
sbsVRetMax
p9421
g1
(g6
g7
g93
tp9422
Rp9423
(dp9424
g12
g9421
sbsVIdList
p9425
g1
(g18
g19
(lp9426
tp9427
Rp9428
(dp9429
g12
g9425
sbsVQueryTranslation
p9430
g1
(g6
g7
S'Pristipomoides typus[PORG] AND CytB[title]'
p9431
tp9432
Rp9433
(dp9434
g12
g9430
sbsVTranslationStack
p9435
g1
(g18
g19
(lp9436
g1
(g2
g3
(dp9437
g9417
g1
(g6
g7
g468
tp9438
Rp9439
(dp9440
g12
g9417
sbsVField
p9441
g1
(g6
g7
S'PORG'
p9442
tp9443
Rp9444
(dp9445
g12
g9441
sbsVTerm
p9446
g1
(g6
g7
S'Pristipomoides typus[PORG]'
p9447
tp9448
Rp9449
(dp9450
g12
g9446
sbsVExplode
p9451
g1
(g6
g7
g56
tp9452
Rp9453
(dp9454
g12
g9451
sbstp9455
Rp9456
(dp9457
g12
VTermSet
p9458
sbag1
(g2
g3
(dp9459
g9417
g1
(g6
g7
S'317705'
p9460
tp9461
Rp9462
(dp9463
g12
g9417
sbsg9441
g1
(g6
g7
S'title'
p9464
tp9465
Rp9466
(dp9467
g12
g9441
sbsg9446
g1
(g6
g7
S'CytB[title]'
p9468
tp9469
Rp9470
(dp9471
g12
g9446
sbsg9451
g1
(g6
g7
g77
tp9472
Rp9473
(dp9474
g12
g9451
sbstp9475
Rp9476
(dp9477
g12
g9458
sbag1
(g6
g7
S'AND'
p9478
tp9479
Rp9480
(dp9481
g12
VOP
p9482
sbatp9483
Rp9484
(dp9485
g12
g9435
sbsVRetStart
p9486
g1
(g6
g7
g93
tp9487
Rp9488
(dp9489
g12
g9486
sbsVTranslationSet
p9490
g1
(g18
g19
(lp9491
tp9492
Rp9493
(dp9494
g12
g9490
sbstp9495
Rp9496
(dp9497
g12
VeSearchResult
p9498
sbag1
(g2
g3
(dp9499
VCount
p9500
g1
(g6
g7
g93
tp9501
Rp9502
(dp9503
g12
g9500
sbsVRetMax
p9504
g1
(g6
g7
g93
tp9505
Rp9506
(dp9507
g12
g9504
sbsVIdList
p9508
g1
(g18
g19
(lp9509
tp9510
Rp9511
(dp9512
g12
g9508
sbsVQueryTranslation
p9513
g1
(g6
g7
S'Pristipomoides zonatus[PORG] AND CytB[title]'
p9514
tp9515
Rp9516
(dp9517
g12
g9513
sbsVTranslationStack
p9518
g1
(g18
g19
(lp9519
g1
(g2
g3
(dp9520
g9500
g1
(g6
g7
g108
tp9521
Rp9522
(dp9523
g12
g9500
sbsVField
p9524
g1
(g6
g7
S'PORG'
p9525
tp9526
Rp9527
(dp9528
g12
g9524
sbsVTerm
p9529
g1
(g6
g7
S'Pristipomoides zonatus[PORG]'
p9530
tp9531
Rp9532
(dp9533
g12
g9529
sbsVExplode
p9534
g1
(g6
g7
g56
tp9535
Rp9536
(dp9537
g12
g9534
sbstp9538
Rp9539
(dp9540
g12
VTermSet
p9541
sbag1
(g2
g3
(dp9542
g9500
g1
(g6
g7
S'317705'
p9543
tp9544
Rp9545
(dp9546
g12
g9500
sbsg9524
g1
(g6
g7
S'title'
p9547
tp9548
Rp9549
(dp9550
g12
g9524
sbsg9529
g1
(g6
g7
S'CytB[title]'
p9551
tp9552
Rp9553
(dp9554
g12
g9529
sbsg9534
g1
(g6
g7
g77
tp9555
Rp9556
(dp9557
g12
g9534
sbstp9558
Rp9559
(dp9560
g12
g9541
sbag1
(g6
g7
S'AND'
p9561
tp9562
Rp9563
(dp9564
g12
VOP
p9565
sbatp9566
Rp9567
(dp9568
g12
g9518
sbsVRetStart
p9569
g1
(g6
g7
g93
tp9570
Rp9571
(dp9572
g12
g9569
sbsVTranslationSet
p9573
g1
(g18
g19
(lp9574
tp9575
Rp9576
(dp9577
g12
g9573
sbstp9578
Rp9579
(dp9580
g12
VeSearchResult
p9581
sbag1
(g2
g3
(dp9582
VCount
p9583
g1
(g6
g7
g93
tp9584
Rp9585
(dp9586
g12
g9583
sbsVRetMax
p9587
g1
(g6
g7
g93
tp9588
Rp9589
(dp9590
g12
g9587
sbsVIdList
p9591
g1
(g18
g19
(lp9592
tp9593
Rp9594
(dp9595
g12
g9591
sbsVQueryTranslation
p9596
g1
(g6
g7
S'Randallichthys filamentosus[PORG] AND CytB[title]'
p9597
tp9598
Rp9599
(dp9600
g12
g9596
sbsVTranslationStack
p9601
g1
(g18
g19
(lp9602
g1
(g2
g3
(dp9603
g9583
g1
(g6
g7
g8
tp9604
Rp9605
(dp9606
g12
g9583
sbsVField
p9607
g1
(g6
g7
S'PORG'
p9608
tp9609
Rp9610
(dp9611
g12
g9607
sbsVTerm
p9612
g1
(g6
g7
S'Randallichthys filamentosus[PORG]'
p9613
tp9614
Rp9615
(dp9616
g12
g9612
sbsVExplode
p9617
g1
(g6
g7
g56
tp9618
Rp9619
(dp9620
g12
g9617
sbstp9621
Rp9622
(dp9623
g12
VTermSet
p9624
sbag1
(g2
g3
(dp9625
g9583
g1
(g6
g7
S'317705'
p9626
tp9627
Rp9628
(dp9629
g12
g9583
sbsg9607
g1
(g6
g7
S'title'
p9630
tp9631
Rp9632
(dp9633
g12
g9607
sbsg9612
g1
(g6
g7
S'CytB[title]'
p9634
tp9635
Rp9636
(dp9637
g12
g9612
sbsg9617
g1
(g6
g7
g77
tp9638
Rp9639
(dp9640
g12
g9617
sbstp9641
Rp9642
(dp9643
g12
g9624
sbag1
(g6
g7
S'AND'
p9644
tp9645
Rp9646
(dp9647
g12
VOP
p9648
sbatp9649
Rp9650
(dp9651
g12
g9601
sbsVRetStart
p9652
g1
(g6
g7
g93
tp9653
Rp9654
(dp9655
g12
g9652
sbsVTranslationSet
p9656
g1
(g18
g19
(lp9657
tp9658
Rp9659
(dp9660
g12
g9656
sbstp9661
Rp9662
(dp9663
g12
VeSearchResult
p9664
sbag1
(g2
g3
(dp9665
VCount
p9666
g1
(g6
g7
g3367
tp9667
Rp9668
(dp9669
g12
g9666
sbsVRetMax
p9670
g1
(g6
g7
g3367
tp9671
Rp9672
(dp9673
g12
g9670
sbsVIdList
p9674
g1
(g18
g19
(lp9675
g1
(g6
g7
S'320578899'
p9676
tp9677
Rp9678
(dp9679
g12
VId
p9680
sbag1
(g6
g7
S'320578897'
p9681
tp9682
Rp9683
(dp9684
g12
g9680
sbag1
(g6
g7
S'320578895'
p9685
tp9686
Rp9687
(dp9688
g12
g9680
sbag1
(g6
g7
S'31745625'
p9689
tp9690
Rp9691
(dp9692
g12
g9680
sbag1
(g6
g7
S'31745621'
p9693
tp9694
Rp9695
(dp9696
g12
g9680
sbag1
(g6
g7
S'31745599'
p9697
tp9698
Rp9699
(dp9700
g12
g9680
sbatp9701
Rp9702
(dp9703
g12
g9674
sbsVQueryTranslation
p9704
g1
(g6
g7
S'Rhomboplites aurorubens[PORG] AND CytB[title]'
p9705
tp9706
Rp9707
(dp9708
g12
g9704
sbsVTranslationStack
p9709
g1
(g18
g19
(lp9710
g1
(g2
g3
(dp9711
g9666
g1
(g6
g7
S'60'
p9712
tp9713
Rp9714
(dp9715
g12
g9666
sbsVField
p9716
g1
(g6
g7
S'PORG'
p9717
tp9718
Rp9719
(dp9720
g12
g9716
sbsVTerm
p9721
g1
(g6
g7
S'Rhomboplites aurorubens[PORG]'
p9722
tp9723
Rp9724
(dp9725
g12
g9721
sbsVExplode
p9726
g1
(g6
g7
g56
tp9727
Rp9728
(dp9729
g12
g9726
sbstp9730
Rp9731
(dp9732
g12
VTermSet
p9733
sbag1
(g2
g3
(dp9734
g9666
g1
(g6
g7
S'317705'
p9735
tp9736
Rp9737
(dp9738
g12
g9666
sbsg9716
g1
(g6
g7
S'title'
p9739
tp9740
Rp9741
(dp9742
g12
g9716
sbsg9721
g1
(g6
g7
S'CytB[title]'
p9743
tp9744
Rp9745
(dp9746
g12
g9721
sbsg9726
g1
(g6
g7
g77
tp9747
Rp9748
(dp9749
g12
g9726
sbstp9750
Rp9751
(dp9752
g12
g9733
sbag1
(g6
g7
S'AND'
p9753
tp9754
Rp9755
(dp9756
g12
VOP
p9757
sbatp9758
Rp9759
(dp9760
g12
g9709
sbsVRetStart
p9761
g1
(g6
g7
g93
tp9762
Rp9763
(dp9764
g12
g9761
sbsVTranslationSet
p9765
g1
(g18
g19
(lp9766
tp9767
Rp9768
(dp9769
g12
g9765
sbstp9770
Rp9771
(dp9772
g12
VeSearchResult
p9773
sbag1
(g2
g3
(dp9774
VCount
p9775
g1
(g6
g7
g108
tp9776
Rp9777
(dp9778
g12
g9775
sbsVRetMax
p9779
g1
(g6
g7
g108
tp9780
Rp9781
(dp9782
g12
g9779
sbsVIdList
p9783
g1
(g18
g19
(lp9784
g1
(g6
g7
S'111114810'
p9785
tp9786
Rp9787
(dp9788
g12
VId
p9789
sbatp9790
Rp9791
(dp9792
g12
g9783
sbsVQueryTranslation
p9793
g1
(g6
g7
S'Symphorichthys spilurus[PORG] AND CytB[title]'
p9794
tp9795
Rp9796
(dp9797
g12
g9793
sbsVTranslationStack
p9798
g1
(g18
g19
(lp9799
g1
(g2
g3
(dp9800
g9775
g1
(g6
g7
g2127
tp9801
Rp9802
(dp9803
g12
g9775
sbsVField
p9804
g1
(g6
g7
S'PORG'
p9805
tp9806
Rp9807
(dp9808
g12
g9804
sbsVTerm
p9809
g1
(g6
g7
S'Symphorichthys spilurus[PORG]'
p9810
tp9811
Rp9812
(dp9813
g12
g9809
sbsVExplode
p9814
g1
(g6
g7
g56
tp9815
Rp9816
(dp9817
g12
g9814
sbstp9818
Rp9819
(dp9820
g12
VTermSet
p9821
sbag1
(g2
g3
(dp9822
g9775
g1
(g6
g7
S'317705'
p9823
tp9824
Rp9825
(dp9826
g12
g9775
sbsg9804
g1
(g6
g7
S'title'
p9827
tp9828
Rp9829
(dp9830
g12
g9804
sbsg9809
g1
(g6
g7
S'CytB[title]'
p9831
tp9832
Rp9833
(dp9834
g12
g9809
sbsg9814
g1
(g6
g7
g77
tp9835
Rp9836
(dp9837
g12
g9814
sbstp9838
Rp9839
(dp9840
g12
g9821
sbag1
(g6
g7
S'AND'
p9841
tp9842
Rp9843
(dp9844
g12
VOP
p9845
sbatp9846
Rp9847
(dp9848
g12
g9798
sbsVRetStart
p9849
g1
(g6
g7
g93
tp9850
Rp9851
(dp9852
g12
g9849
sbsVTranslationSet
p9853
g1
(g18
g19
(lp9854
tp9855
Rp9856
(dp9857
g12
g9853
sbstp9858
Rp9859
(dp9860
g12
VeSearchResult
p9861
sbag1
(g2
g3
(dp9862
VCount
p9863
g1
(g6
g7
g108
tp9864
Rp9865
(dp9866
g12
g9863
sbsVRetMax
p9867
g1
(g6
g7
g108
tp9868
Rp9869
(dp9870
g12
g9867
sbsVIdList
p9871
g1
(g18
g19
(lp9872
g1
(g6
g7
S'111114812'
p9873
tp9874
Rp9875
(dp9876
g12
VId
p9877
sbatp9878
Rp9879
(dp9880
g12
g9871
sbsVQueryTranslation
p9881
g1
(g6
g7
S'Symphorus nematophorus[PORG] AND CytB[title]'
p9882
tp9883
Rp9884
(dp9885
g12
g9881
sbsVTranslationStack
p9886
g1
(g18
g19
(lp9887
g1
(g2
g3
(dp9888
g9863
g1
(g6
g7
g468
tp9889
Rp9890
(dp9891
g12
g9863
sbsVField
p9892
g1
(g6
g7
S'PORG'
p9893
tp9894
Rp9895
(dp9896
g12
g9892
sbsVTerm
p9897
g1
(g6
g7
S'Symphorus nematophorus[PORG]'
p9898
tp9899
Rp9900
(dp9901
g12
g9897
sbsVExplode
p9902
g1
(g6
g7
g56
tp9903
Rp9904
(dp9905
g12
g9902
sbstp9906
Rp9907
(dp9908
g12
VTermSet
p9909
sbag1
(g2
g3
(dp9910
g9863
g1
(g6
g7
S'317705'
p9911
tp9912
Rp9913
(dp9914
g12
g9863
sbsg9892
g1
(g6
g7
S'title'
p9915
tp9916
Rp9917
(dp9918
g12
g9892
sbsg9897
g1
(g6
g7
S'CytB[title]'
p9919
tp9920
Rp9921
(dp9922
g12
g9897
sbsg9902
g1
(g6
g7
g77
tp9923
Rp9924
(dp9925
g12
g9902
sbstp9926
Rp9927
(dp9928
g12
g9909
sbag1
(g6
g7
S'AND'
p9929
tp9930
Rp9931
(dp9932
g12
VOP
p9933
sbatp9934
Rp9935
(dp9936
g12
g9886
sbsVRetStart
p9937
g1
(g6
g7
g93
tp9938
Rp9939
(dp9940
g12
g9937
sbsVTranslationSet
p9941
g1
(g18
g19
(lp9942
tp9943
Rp9944
(dp9945
g12
g9941
sbstp9946
Rp9947
(dp9948
g12
VeSearchResult
p9949
sba.