(lp0
ccopy_reg
_reconstructor
p1
(cBio.Entrez.Parser
DictionaryElement
p2
c__builtin__
dict
p3
(dp4
VCount
p5
g1
(cBio.Entrez.Parser
StringElement
p6
c__builtin__
str
p7
S'1'
p8
tp9
Rp10
(dp11
S'tag'
p12
g5
sbsVRetMax
p13
g1
(g6
g7
g8
tp14
Rp15
(dp16
g12
g13
sbsVIdList
p17
g1
(cBio.Entrez.Parser
ListElement
p18
c__builtin__
list
p19
(lp20
g1
(g6
g7
S'332167956'
p21
tp22
Rp23
(dp24
g12
VId
p25
sbatp26
Rp27
(dp28
g12
g17
sbsVQueryTranslation
p29
g1
(g6
g7
S'Aphareus furca[PORG] AND RAG1[title]'
p30
tp31
Rp32
(dp33
g12
g29
sbsVTranslationStack
p34
g1
(g18
g19
(lp35
g1
(g2
g3
(dp36
g5
g1
(g6
g7
S'26'
p37
tp38
Rp39
(dp40
g12
g5
sbsVField
p41
g1
(g6
g7
S'PORG'
p42
tp43
Rp44
(dp45
g12
g41
sbsVTerm
p46
g1
(g6
g7
S'Aphareus furca[PORG]'
p47
tp48
Rp49
(dp50
g12
g46
sbsVExplode
p51
g1
(g6
g7
S'Y'
p52
tp53
Rp54
(dp55
g12
g51
sbstp56
Rp57
(dp58
g12
VTermSet
p59
sbag1
(g2
g3
(dp60
g5
g1
(g6
g7
S'31479'
p61
tp62
Rp63
(dp64
g12
g5
sbsg41
g1
(g6
g7
S'title'
p65
tp66
Rp67
(dp68
g12
g41
sbsg46
g1
(g6
g7
S'RAG1[title]'
p69
tp70
Rp71
(dp72
g12
g46
sbsg51
g1
(g6
g7
S'N'
p73
tp74
Rp75
(dp76
g12
g51
sbstp77
Rp78
(dp79
g12
g59
sbag1
(g6
g7
S'AND'
p80
tp81
Rp82
(dp83
g12
VOP
p84
sbatp85
Rp86
(dp87
g12
g34
sbsVRetStart
p88
g1
(g6
g7
S'0'
p89
tp90
Rp91
(dp92
g12
g88
sbsVTranslationSet
p93
g1
(g18
g19
(lp94
tp95
Rp96
(dp97
g12
g93
sbstp98
Rp99
(dp100
g12
VeSearchResult
p101
sbag1
(g2
g3
(dp102
VCount
p103
g1
(g6
g7
g89
tp104
Rp105
(dp106
g12
g103
sbsVRetMax
p107
g1
(g6
g7
g89
tp108
Rp109
(dp110
g12
g107
sbsVIdList
p111
g1
(g18
g19
(lp112
tp113
Rp114
(dp115
g12
g111
sbsVQueryTranslation
p116
g1
(g6
g7
S'Aphareus rutilans[PORG] AND RAG1[title]'
p117
tp118
Rp119
(dp120
g12
g116
sbsVTranslationStack
p121
g1
(g18
g19
(lp122
g1
(g2
g3
(dp123
g103
g1
(g6
g7
S'12'
p124
tp125
Rp126
(dp127
g12
g103
sbsVField
p128
g1
(g6
g7
S'PORG'
p129
tp130
Rp131
(dp132
g12
g128
sbsVTerm
p133
g1
(g6
g7
S'Aphareus rutilans[PORG]'
p134
tp135
Rp136
(dp137
g12
g133
sbsVExplode
p138
g1
(g6
g7
g52
tp139
Rp140
(dp141
g12
g138
sbstp142
Rp143
(dp144
g12
VTermSet
p145
sbag1
(g2
g3
(dp146
g103
g1
(g6
g7
S'31479'
p147
tp148
Rp149
(dp150
g12
g103
sbsg128
g1
(g6
g7
S'title'
p151
tp152
Rp153
(dp154
g12
g128
sbsg133
g1
(g6
g7
S'RAG1[title]'
p155
tp156
Rp157
(dp158
g12
g133
sbsg138
g1
(g6
g7
g73
tp159
Rp160
(dp161
g12
g138
sbstp162
Rp163
(dp164
g12
g145
sbag1
(g6
g7
S'AND'
p165
tp166
Rp167
(dp168
g12
VOP
p169
sbatp170
Rp171
(dp172
g12
g121
sbsVRetStart
p173
g1
(g6
g7
g89
tp174
Rp175
(dp176
g12
g173
sbsVTranslationSet
p177
g1
(g18
g19
(lp178
tp179
Rp180
(dp181
g12
g177
sbstp182
Rp183
(dp184
g12
VeSearchResult
p185
sbag1
(g2
g3
(dp186
VCount
p187
g1
(g6
g7
g89
tp188
Rp189
(dp190
g12
g187
sbsVRetMax
p191
g1
(g6
g7
g89
tp192
Rp193
(dp194
g12
g191
sbsVIdList
p195
g1
(g18
g19
(lp196
tp197
Rp198
(dp199
g12
g195
sbsVQueryTranslation
p200
g1
(g6
g7
S'Aprion virescens[PORG] AND RAG1[title]'
p201
tp202
Rp203
(dp204
g12
g200
sbsVTranslationStack
p205
g1
(g18
g19
(lp206
g1
(g2
g3
(dp207
g187
g1
(g6
g7
S'19'
p208
tp209
Rp210
(dp211
g12
g187
sbsVField
p212
g1
(g6
g7
S'PORG'
p213
tp214
Rp215
(dp216
g12
g212
sbsVTerm
p217
g1
(g6
g7
S'Aprion virescens[PORG]'
p218
tp219
Rp220
(dp221
g12
g217
sbsVExplode
p222
g1
(g6
g7
g52
tp223
Rp224
(dp225
g12
g222
sbstp226
Rp227
(dp228
g12
VTermSet
p229
sbag1
(g2
g3
(dp230
g187
g1
(g6
g7
S'31479'
p231
tp232
Rp233
(dp234
g12
g187
sbsg212
g1
(g6
g7
S'title'
p235
tp236
Rp237
(dp238
g12
g212
sbsg217
g1
(g6
g7
S'RAG1[title]'
p239
tp240
Rp241
(dp242
g12
g217
sbsg222
g1
(g6
g7
g73
tp243
Rp244
(dp245
g12
g222
sbstp246
Rp247
(dp248
g12
g229
sbag1
(g6
g7
S'AND'
p249
tp250
Rp251
(dp252
g12
VOP
p253
sbatp254
Rp255
(dp256
g12
g205
sbsVRetStart
p257
g1
(g6
g7
g89
tp258
Rp259
(dp260
g12
g257
sbsVTranslationSet
p261
g1
(g18
g19
(lp262
tp263
Rp264
(dp265
g12
g261
sbstp266
Rp267
(dp268
g12
VeSearchResult
p269
sbag1
(g2
g3
(dp270
VCount
p271
g1
(g6
g7
g89
tp272
Rp273
(dp274
g12
g271
sbsVRetMax
p275
g1
(g6
g7
g89
tp276
Rp277
(dp278
g12
g275
sbsVIdList
p279
g1
(g18
g19
(lp280
tp281
Rp282
(dp283
g12
g279
sbsVQueryTranslation
p284
g1
(g6
g7
S'Apsilus dentatus[PORG] AND RAG1[title]'
p285
tp286
Rp287
(dp288
g12
g284
sbsVTranslationStack
p289
g1
(g18
g19
(lp290
g1
(g2
g3
(dp291
g271
g1
(g6
g7
S'19'
p292
tp293
Rp294
(dp295
g12
g271
sbsVField
p296
g1
(g6
g7
S'PORG'
p297
tp298
Rp299
(dp300
g12
g296
sbsVTerm
p301
g1
(g6
g7
S'Apsilus dentatus[PORG]'
p302
tp303
Rp304
(dp305
g12
g301
sbsVExplode
p306
g1
(g6
g7
g52
tp307
Rp308
(dp309
g12
g306
sbstp310
Rp311
(dp312
g12
VTermSet
p313
sbag1
(g2
g3
(dp314
g271
g1
(g6
g7
S'31479'
p315
tp316
Rp317
(dp318
g12
g271
sbsg296
g1
(g6
g7
S'title'
p319
tp320
Rp321
(dp322
g12
g296
sbsg301
g1
(g6
g7
S'RAG1[title]'
p323
tp324
Rp325
(dp326
g12
g301
sbsg306
g1
(g6
g7
g73
tp327
Rp328
(dp329
g12
g306
sbstp330
Rp331
(dp332
g12
g313
sbag1
(g6
g7
S'AND'
p333
tp334
Rp335
(dp336
g12
VOP
p337
sbatp338
Rp339
(dp340
g12
g289
sbsVRetStart
p341
g1
(g6
g7
g89
tp342
Rp343
(dp344
g12
g341
sbsVTranslationSet
p345
g1
(g18
g19
(lp346
tp347
Rp348
(dp349
g12
g345
sbstp350
Rp351
(dp352
g12
VeSearchResult
p353
sbag1
(g2
g3
(dp354
VCount
p355
g1
(g6
g7
g89
tp356
Rp357
(dp358
g12
g355
sbsVRetMax
p359
g1
(g6
g7
g89
tp360
Rp361
(dp362
g12
g359
sbsVIdList
p363
g1
(g18
g19
(lp364
tp365
Rp366
(dp367
g12
g363
sbsVQueryTranslation
p368
g1
(g6
g7
S'Apsilus fuscus[PORG] AND RAG1[title]'
p369
tp370
Rp371
(dp372
g12
g368
sbsVTranslationStack
p373
g1
(g18
g19
(lp374
g1
(g2
g3
(dp375
g355
g1
(g6
g7
S'3'
p376
tp377
Rp378
(dp379
g12
g355
sbsVField
p380
g1
(g6
g7
S'PORG'
p381
tp382
Rp383
(dp384
g12
g380
sbsVTerm
p385
g1
(g6
g7
S'Apsilus fuscus[PORG]'
p386
tp387
Rp388
(dp389
g12
g385
sbsVExplode
p390
g1
(g6
g7
g52
tp391
Rp392
(dp393
g12
g390
sbstp394
Rp395
(dp396
g12
VTermSet
p397
sbag1
(g2
g3
(dp398
g355
g1
(g6
g7
S'31479'
p399
tp400
Rp401
(dp402
g12
g355
sbsg380
g1
(g6
g7
S'title'
p403
tp404
Rp405
(dp406
g12
g380
sbsg385
g1
(g6
g7
S'RAG1[title]'
p407
tp408
Rp409
(dp410
g12
g385
sbsg390
g1
(g6
g7
g73
tp411
Rp412
(dp413
g12
g390
sbstp414
Rp415
(dp416
g12
g397
sbag1
(g6
g7
S'AND'
p417
tp418
Rp419
(dp420
g12
VOP
p421
sbatp422
Rp423
(dp424
g12
g373
sbsVRetStart
p425
g1
(g6
g7
g89
tp426
Rp427
(dp428
g12
g425
sbsVTranslationSet
p429
g1
(g18
g19
(lp430
tp431
Rp432
(dp433
g12
g429
sbstp434
Rp435
(dp436
g12
VeSearchResult
p437
sbag1
(g2
g3
(dp438
VCount
p439
g1
(g6
g7
g89
tp440
Rp441
(dp442
g12
g439
sbsVRetMax
p443
g1
(g6
g7
g89
tp444
Rp445
(dp446
g12
g443
sbsVIdList
p447
g1
(g18
g19
(lp448
tp449
Rp450
(dp451
g12
g447
sbsVQueryTranslation
p452
g1
(g6
g7
S'Etelis carbunculus[PORG] AND RAG1[title]'
p453
tp454
Rp455
(dp456
g12
g452
sbsVTranslationStack
p457
g1
(g18
g19
(lp458
g1
(g2
g3
(dp459
g439
g1
(g6
g7
S'100'
p460
tp461
Rp462
(dp463
g12
g439
sbsVField
p464
g1
(g6
g7
S'PORG'
p465
tp466
Rp467
(dp468
g12
g464
sbsVTerm
p469
g1
(g6
g7
S'Etelis carbunculus[PORG]'
p470
tp471
Rp472
(dp473
g12
g469
sbsVExplode
p474
g1
(g6
g7
g52
tp475
Rp476
(dp477
g12
g474
sbstp478
Rp479
(dp480
g12
VTermSet
p481
sbag1
(g2
g3
(dp482
g439
g1
(g6
g7
S'31479'
p483
tp484
Rp485
(dp486
g12
g439
sbsg464
g1
(g6
g7
S'title'
p487
tp488
Rp489
(dp490
g12
g464
sbsg469
g1
(g6
g7
S'RAG1[title]'
p491
tp492
Rp493
(dp494
g12
g469
sbsg474
g1
(g6
g7
g73
tp495
Rp496
(dp497
g12
g474
sbstp498
Rp499
(dp500
g12
g481
sbag1
(g6
g7
S'AND'
p501
tp502
Rp503
(dp504
g12
VOP
p505
sbatp506
Rp507
(dp508
g12
g457
sbsVRetStart
p509
g1
(g6
g7
g89
tp510
Rp511
(dp512
g12
g509
sbsVTranslationSet
p513
g1
(g18
g19
(lp514
tp515
Rp516
(dp517
g12
g513
sbstp518
Rp519
(dp520
g12
VeSearchResult
p521
sbag1
(g2
g3
(dp522
VCount
p523
g1
(g6
g7
g89
tp524
Rp525
(dp526
g12
g523
sbsVRetMax
p527
g1
(g6
g7
g89
tp528
Rp529
(dp530
g12
g527
sbsVIdList
p531
g1
(g18
g19
(lp532
tp533
Rp534
(dp535
g12
g531
sbsVQueryTranslation
p536
g1
(g6
g7
S'Etelis coruscans[PORG] AND RAG1[title]'
p537
tp538
Rp539
(dp540
g12
g536
sbsVTranslationStack
p541
g1
(g18
g19
(lp542
g1
(g2
g3
(dp543
g523
g1
(g6
g7
S'138'
p544
tp545
Rp546
(dp547
g12
g523
sbsVField
p548
g1
(g6
g7
S'PORG'
p549
tp550
Rp551
(dp552
g12
g548
sbsVTerm
p553
g1
(g6
g7
S'Etelis coruscans[PORG]'
p554
tp555
Rp556
(dp557
g12
g553
sbsVExplode
p558
g1
(g6
g7
g52
tp559
Rp560
(dp561
g12
g558
sbstp562
Rp563
(dp564
g12
VTermSet
p565
sbag1
(g2
g3
(dp566
g523
g1
(g6
g7
S'31479'
p567
tp568
Rp569
(dp570
g12
g523
sbsg548
g1
(g6
g7
S'title'
p571
tp572
Rp573
(dp574
g12
g548
sbsg553
g1
(g6
g7
S'RAG1[title]'
p575
tp576
Rp577
(dp578
g12
g553
sbsg558
g1
(g6
g7
g73
tp579
Rp580
(dp581
g12
g558
sbstp582
Rp583
(dp584
g12
g565
sbag1
(g6
g7
S'AND'
p585
tp586
Rp587
(dp588
g12
VOP
p589
sbatp590
Rp591
(dp592
g12
g541
sbsVRetStart
p593
g1
(g6
g7
g89
tp594
Rp595
(dp596
g12
g593
sbsVTranslationSet
p597
g1
(g18
g19
(lp598
tp599
Rp600
(dp601
g12
g597
sbstp602
Rp603
(dp604
g12
VeSearchResult
p605
sbag1
(g2
g3
(dp606
VCount
p607
g1
(g6
g7
g89
tp608
Rp609
(dp610
g12
g607
sbsVRetMax
p611
g1
(g6
g7
g89
tp612
Rp613
(dp614
g12
g611
sbsVIdList
p615
g1
(g18
g19
(lp616
tp617
Rp618
(dp619
g12
g615
sbsVQueryTranslation
p620
g1
(g6
g7
S'Etelis oculatus[PORG] AND RAG1[title]'
p621
tp622
Rp623
(dp624
g12
g620
sbsVTranslationStack
p625
g1
(g18
g19
(lp626
g1
(g2
g3
(dp627
g607
g1
(g6
g7
S'34'
p628
tp629
Rp630
(dp631
g12
g607
sbsVField
p632
g1
(g6
g7
S'PORG'
p633
tp634
Rp635
(dp636
g12
g632
sbsVTerm
p637
g1
(g6
g7
S'Etelis oculatus[PORG]'
p638
tp639
Rp640
(dp641
g12
g637
sbsVExplode
p642
g1
(g6
g7
g52
tp643
Rp644
(dp645
g12
g642
sbstp646
Rp647
(dp648
g12
VTermSet
p649
sbag1
(g2
g3
(dp650
g607
g1
(g6
g7
S'31479'
p651
tp652
Rp653
(dp654
g12
g607
sbsg632
g1
(g6
g7
S'title'
p655
tp656
Rp657
(dp658
g12
g632
sbsg637
g1
(g6
g7
S'RAG1[title]'
p659
tp660
Rp661
(dp662
g12
g637
sbsg642
g1
(g6
g7
g73
tp663
Rp664
(dp665
g12
g642
sbstp666
Rp667
(dp668
g12
g649
sbag1
(g6
g7
S'AND'
p669
tp670
Rp671
(dp672
g12
VOP
p673
sbatp674
Rp675
(dp676
g12
g625
sbsVRetStart
p677
g1
(g6
g7
g89
tp678
Rp679
(dp680
g12
g677
sbsVTranslationSet
p681
g1
(g18
g19
(lp682
tp683
Rp684
(dp685
g12
g681
sbstp686
Rp687
(dp688
g12
VeSearchResult
p689
sbag1
(g2
g3
(dp690
VCount
p691
g1
(g6
g7
g89
tp692
Rp693
(dp694
g12
g691
sbsVRetMax
p695
g1
(g6
g7
g89
tp696
Rp697
(dp698
g12
g695
sbsVIdList
p699
g1
(g18
g19
(lp700
tp701
Rp702
(dp703
g12
g699
sbsVQueryTranslation
p704
g1
(g6
g7
S'Etelis radiosus[PORG] AND RAG1[title]'
p705
tp706
Rp707
(dp708
g12
g704
sbsVTranslationStack
p709
g1
(g18
g19
(lp710
g1
(g2
g3
(dp711
g691
g1
(g6
g7
S'43'
p712
tp713
Rp714
(dp715
g12
g691
sbsVField
p716
g1
(g6
g7
S'PORG'
p717
tp718
Rp719
(dp720
g12
g716
sbsVTerm
p721
g1
(g6
g7
S'Etelis radiosus[PORG]'
p722
tp723
Rp724
(dp725
g12
g721
sbsVExplode
p726
g1
(g6
g7
g52
tp727
Rp728
(dp729
g12
g726
sbstp730
Rp731
(dp732
g12
VTermSet
p733
sbag1
(g2
g3
(dp734
g691
g1
(g6
g7
S'31479'
p735
tp736
Rp737
(dp738
g12
g691
sbsg716
g1
(g6
g7
S'title'
p739
tp740
Rp741
(dp742
g12
g716
sbsg721
g1
(g6
g7
S'RAG1[title]'
p743
tp744
Rp745
(dp746
g12
g721
sbsg726
g1
(g6
g7
g73
tp747
Rp748
(dp749
g12
g726
sbstp750
Rp751
(dp752
g12
g733
sbag1
(g6
g7
S'AND'
p753
tp754
Rp755
(dp756
g12
VOP
p757
sbatp758
Rp759
(dp760
g12
g709
sbsVRetStart
p761
g1
(g6
g7
g89
tp762
Rp763
(dp764
g12
g761
sbsVTranslationSet
p765
g1
(g18
g19
(lp766
tp767
Rp768
(dp769
g12
g765
sbstp770
Rp771
(dp772
g12
VeSearchResult
p773
sbag1
(g2
g3
(dp774
VCount
p775
g1
(g6
g7
g89
tp776
Rp777
(dp778
g12
g775
sbsVRetMax
p779
g1
(g6
g7
g89
tp780
Rp781
(dp782
g12
g779
sbsVIdList
p783
g1
(g18
g19
(lp784
tp785
Rp786
(dp787
g12
g783
sbsVQueryTranslation
p788
g1
(g6
g7
S'Hoplopagrus guentherii[PORG] AND RAG1[title]'
p789
tp790
Rp791
(dp792
g12
g788
sbsVTranslationStack
p793
g1
(g18
g19
(lp794
g1
(g2
g3
(dp795
g775
g1
(g6
g7
S'9'
p796
tp797
Rp798
(dp799
g12
g775
sbsVField
p800
g1
(g6
g7
S'PORG'
p801
tp802
Rp803
(dp804
g12
g800
sbsVTerm
p805
g1
(g6
g7
S'Hoplopagrus guentherii[PORG]'
p806
tp807
Rp808
(dp809
g12
g805
sbsVExplode
p810
g1
(g6
g7
g52
tp811
Rp812
(dp813
g12
g810
sbstp814
Rp815
(dp816
g12
VTermSet
p817
sbag1
(g2
g3
(dp818
g775
g1
(g6
g7
S'31479'
p819
tp820
Rp821
(dp822
g12
g775
sbsg800
g1
(g6
g7
S'title'
p823
tp824
Rp825
(dp826
g12
g800
sbsg805
g1
(g6
g7
S'RAG1[title]'
p827
tp828
Rp829
(dp830
g12
g805
sbsg810
g1
(g6
g7
g73
tp831
Rp832
(dp833
g12
g810
sbstp834
Rp835
(dp836
g12
g817
sbag1
(g6
g7
S'AND'
p837
tp838
Rp839
(dp840
g12
VOP
p841
sbatp842
Rp843
(dp844
g12
g793
sbsVRetStart
p845
g1
(g6
g7
g89
tp846
Rp847
(dp848
g12
g845
sbsVTranslationSet
p849
g1
(g18
g19
(lp850
tp851
Rp852
(dp853
g12
g849
sbstp854
Rp855
(dp856
g12
VeSearchResult
p857
sbag1
(g2
g3
(dp858
VCount
p859
g1
(g6
g7
g89
tp860
Rp861
(dp862
g12
g859
sbsVRetMax
p863
g1
(g6
g7
g89
tp864
Rp865
(dp866
g12
g863
sbsVIdList
p867
g1
(g18
g19
(lp868
tp869
Rp870
(dp871
g12
g867
sbsVQueryTranslation
p872
g1
(g6
g7
S'Lipocheilus carnolabrum[PORG] AND RAG1[title]'
p873
tp874
Rp875
(dp876
g12
g872
sbsVTranslationStack
p877
g1
(g18
g19
(lp878
g1
(g2
g3
(dp879
g859
g1
(g6
g7
g8
tp880
Rp881
(dp882
g12
g859
sbsVField
p883
g1
(g6
g7
S'PORG'
p884
tp885
Rp886
(dp887
g12
g883
sbsVTerm
p888
g1
(g6
g7
S'Lipocheilus carnolabrum[PORG]'
p889
tp890
Rp891
(dp892
g12
g888
sbsVExplode
p893
g1
(g6
g7
g52
tp894
Rp895
(dp896
g12
g893
sbstp897
Rp898
(dp899
g12
VTermSet
p900
sbag1
(g2
g3
(dp901
g859
g1
(g6
g7
S'31479'
p902
tp903
Rp904
(dp905
g12
g859
sbsg883
g1
(g6
g7
S'title'
p906
tp907
Rp908
(dp909
g12
g883
sbsg888
g1
(g6
g7
S'RAG1[title]'
p910
tp911
Rp912
(dp913
g12
g888
sbsg893
g1
(g6
g7
g73
tp914
Rp915
(dp916
g12
g893
sbstp917
Rp918
(dp919
g12
g900
sbag1
(g6
g7
S'AND'
p920
tp921
Rp922
(dp923
g12
VOP
p924
sbatp925
Rp926
(dp927
g12
g877
sbsVRetStart
p928
g1
(g6
g7
g89
tp929
Rp930
(dp931
g12
g928
sbsVTranslationSet
p932
g1
(g18
g19
(lp933
tp934
Rp935
(dp936
g12
g932
sbstp937
Rp938
(dp939
g12
VeSearchResult
p940
sbag1
(g2
g3
(dp941
VCount
p942
g1
(g6
g7
g89
tp943
Rp944
(dp945
g12
g942
sbsVRetMax
p946
g1
(g6
g7
g89
tp947
Rp948
(dp949
g12
g946
sbsVIdList
p950
g1
(g18
g19
(lp951
tp952
Rp953
(dp954
g12
g950
sbsVQueryTranslation
p955
g1
(g6
g7
S'Lutjanus adetii[PORG] AND RAG1[title]'
p956
tp957
Rp958
(dp959
g12
g955
sbsVTranslationStack
p960
g1
(g18
g19
(lp961
g1
(g2
g3
(dp962
g942
g1
(g6
g7
S'4'
p963
tp964
Rp965
(dp966
g12
g942
sbsVField
p967
g1
(g6
g7
S'PORG'
p968
tp969
Rp970
(dp971
g12
g967
sbsVTerm
p972
g1
(g6
g7
S'Lutjanus adetii[PORG]'
p973
tp974
Rp975
(dp976
g12
g972
sbsVExplode
p977
g1
(g6
g7
g52
tp978
Rp979
(dp980
g12
g977
sbstp981
Rp982
(dp983
g12
VTermSet
p984
sbag1
(g2
g3
(dp985
g942
g1
(g6
g7
S'31479'
p986
tp987
Rp988
(dp989
g12
g942
sbsg967
g1
(g6
g7
S'title'
p990
tp991
Rp992
(dp993
g12
g967
sbsg972
g1
(g6
g7
S'RAG1[title]'
p994
tp995
Rp996
(dp997
g12
g972
sbsg977
g1
(g6
g7
g73
tp998
Rp999
(dp1000
g12
g977
sbstp1001
Rp1002
(dp1003
g12
g984
sbag1
(g6
g7
S'AND'
p1004
tp1005
Rp1006
(dp1007
g12
VOP
p1008
sbatp1009
Rp1010
(dp1011
g12
g960
sbsVRetStart
p1012
g1
(g6
g7
g89
tp1013
Rp1014
(dp1015
g12
g1012
sbsVTranslationSet
p1016
g1
(g18
g19
(lp1017
tp1018
Rp1019
(dp1020
g12
g1016
sbstp1021
Rp1022
(dp1023
g12
VeSearchResult
p1024
sbag1
(g2
g3
(dp1025
VCount
p1026
g1
(g6
g7
g89
tp1027
Rp1028
(dp1029
g12
g1026
sbsVRetMax
p1030
g1
(g6
g7
g89
tp1031
Rp1032
(dp1033
g12
g1030
sbsVIdList
p1034
g1
(g18
g19
(lp1035
tp1036
Rp1037
(dp1038
g12
g1034
sbsVRetStart
p1039
g1
(g6
g7
g89
tp1040
Rp1041
(dp1042
g12
g1039
sbsVErrorList
p1043
g1
(cBio.Entrez.Parser
StructureElement
p1044
g3
(dp1045
VFieldNotFound
p1046
(lp1047
sVPhraseNotFound
p1048
(lp1049
g1
(g6
g7
S'Lutjanus agennes[PORG]'
p1050
tp1051
Rp1052
(dp1053
g12
VPhraseNotFound
p1054
sbastp1055
Rp1056
(dp1057
g12
g1043
sS'listkeys'
p1058
(lp1059
g1048
ag1046
asbsVTranslationSet
p1060
g1
(g18
g19
(lp1061
tp1062
Rp1063
(dp1064
g12
g1060
sbsVWarningList
p1065
g1
(g1044
g3
(dp1066
VOutputMessage
p1067
(lp1068
g1
(g6
g7
S'No items found.'
p1069
tp1070
Rp1071
(dp1072
g12
VOutputMessage
p1073
sbasVPhraseIgnored
p1074
(lp1075
sVQuotedPhraseNotFound
p1076
(lp1077
stp1078
Rp1079
(dp1080
g12
g1065
sg1058
(lp1081
g1074
ag1076
ag1067
asbsVQueryTranslation
p1082
g1
(g6
g7
S'Lutjanus agennes[PORG] AND RAG1[title]'
p1083
tp1084
Rp1085
(dp1086
g12
g1082
sbstp1087
Rp1088
(dp1089
g12
VeSearchResult
p1090
sbag1
(g2
g3
(dp1091
VCount
p1092
g1
(g6
g7
g89
tp1093
Rp1094
(dp1095
g12
g1092
sbsVRetMax
p1096
g1
(g6
g7
g89
tp1097
Rp1098
(dp1099
g12
g1096
sbsVIdList
p1100
g1
(g18
g19
(lp1101
tp1102
Rp1103
(dp1104
g12
g1100
sbsVRetStart
p1105
g1
(g6
g7
g89
tp1106
Rp1107
(dp1108
g12
g1105
sbsVErrorList
p1109
g1
(g1044
g3
(dp1110
VFieldNotFound
p1111
(lp1112
sVPhraseNotFound
p1113
(lp1114
g1
(g6
g7
S'Lutjanus alexandrei[PORG]'
p1115
tp1116
Rp1117
(dp1118
g12
VPhraseNotFound
p1119
sbastp1120
Rp1121
(dp1122
g12
g1109
sg1058
(lp1123
g1113
ag1111
asbsVTranslationSet
p1124
g1
(g18
g19
(lp1125
tp1126
Rp1127
(dp1128
g12
g1124
sbsVWarningList
p1129
g1
(g1044
g3
(dp1130
VOutputMessage
p1131
(lp1132
g1
(g6
g7
S'No items found.'
p1133
tp1134
Rp1135
(dp1136
g12
VOutputMessage
p1137
sbasVPhraseIgnored
p1138
(lp1139
sVQuotedPhraseNotFound
p1140
(lp1141
stp1142
Rp1143
(dp1144
g12
g1129
sg1058
(lp1145
g1138
ag1140
ag1131
asbsVQueryTranslation
p1146
g1
(g6
g7
S'Lutjanus alexandrei[PORG] AND RAG1[title]'
p1147
tp1148
Rp1149
(dp1150
g12
g1146
sbstp1151
Rp1152
(dp1153
g12
VeSearchResult
p1154
sbag1
(g2
g3
(dp1155
VCount
p1156
g1
(g6
g7
g89
tp1157
Rp1158
(dp1159
g12
g1156
sbsVRetMax
p1160
g1
(g6
g7
g89
tp1161
Rp1162
(dp1163
g12
g1160
sbsVIdList
p1164
g1
(g18
g19
(lp1165
tp1166
Rp1167
(dp1168
g12
g1164
sbsVRetStart
p1169
g1
(g6
g7
g89
tp1170
Rp1171
(dp1172
g12
g1169
sbsVErrorList
p1173
g1
(g1044
g3
(dp1174
VFieldNotFound
p1175
(lp1176
sVPhraseNotFound
p1177
(lp1178
g1
(g6
g7
S'Lutjanus ambiguus[PORG]'
p1179
tp1180
Rp1181
(dp1182
g12
VPhraseNotFound
p1183
sbastp1184
Rp1185
(dp1186
g12
g1173
sg1058
(lp1187
g1177
ag1175
asbsVTranslationSet
p1188
g1
(g18
g19
(lp1189
tp1190
Rp1191
(dp1192
g12
g1188
sbsVWarningList
p1193
g1
(g1044
g3
(dp1194
VOutputMessage
p1195
(lp1196
g1
(g6
g7
S'No items found.'
p1197
tp1198
Rp1199
(dp1200
g12
VOutputMessage
p1201
sbasVPhraseIgnored
p1202
(lp1203
sVQuotedPhraseNotFound
p1204
(lp1205
stp1206
Rp1207
(dp1208
g12
g1193
sg1058
(lp1209
g1202
ag1204
ag1195
asbsVQueryTranslation
p1210
g1
(g6
g7
S'Lutjanus ambiguus[PORG] AND RAG1[title]'
p1211
tp1212
Rp1213
(dp1214
g12
g1210
sbstp1215
Rp1216
(dp1217
g12
VeSearchResult
p1218
sbag1
(g2
g3
(dp1219
VCount
p1220
g1
(g6
g7
S'2'
p1221
tp1222
Rp1223
(dp1224
g12
g1220
sbsVRetMax
p1225
g1
(g6
g7
g1221
tp1226
Rp1227
(dp1228
g12
g1225
sbsVIdList
p1229
g1
(g18
g19
(lp1230
g1
(g6
g7
S'140271070'
p1231
tp1232
Rp1233
(dp1234
g12
VId
p1235
sbag1
(g6
g7
S'120544776'
p1236
tp1237
Rp1238
(dp1239
g12
g1235
sbatp1240
Rp1241
(dp1242
g12
g1229
sbsVQueryTranslation
p1243
g1
(g6
g7
S'Lutjanus analis[PORG] AND RAG1[title]'
p1244
tp1245
Rp1246
(dp1247
g12
g1243
sbsVTranslationStack
p1248
g1
(g18
g19
(lp1249
g1
(g2
g3
(dp1250
g1220
g1
(g6
g7
S'175'
p1251
tp1252
Rp1253
(dp1254
g12
g1220
sbsVField
p1255
g1
(g6
g7
S'PORG'
p1256
tp1257
Rp1258
(dp1259
g12
g1255
sbsVTerm
p1260
g1
(g6
g7
S'Lutjanus analis[PORG]'
p1261
tp1262
Rp1263
(dp1264
g12
g1260
sbsVExplode
p1265
g1
(g6
g7
g52
tp1266
Rp1267
(dp1268
g12
g1265
sbstp1269
Rp1270
(dp1271
g12
VTermSet
p1272
sbag1
(g2
g3
(dp1273
g1220
g1
(g6
g7
S'31479'
p1274
tp1275
Rp1276
(dp1277
g12
g1220
sbsg1255
g1
(g6
g7
S'title'
p1278
tp1279
Rp1280
(dp1281
g12
g1255
sbsg1260
g1
(g6
g7
S'RAG1[title]'
p1282
tp1283
Rp1284
(dp1285
g12
g1260
sbsg1265
g1
(g6
g7
g73
tp1286
Rp1287
(dp1288
g12
g1265
sbstp1289
Rp1290
(dp1291
g12
g1272
sbag1
(g6
g7
S'AND'
p1292
tp1293
Rp1294
(dp1295
g12
VOP
p1296
sbatp1297
Rp1298
(dp1299
g12
g1248
sbsVRetStart
p1300
g1
(g6
g7
g89
tp1301
Rp1302
(dp1303
g12
g1300
sbsVTranslationSet
p1304
g1
(g18
g19
(lp1305
tp1306
Rp1307
(dp1308
g12
g1304
sbstp1309
Rp1310
(dp1311
g12
VeSearchResult
p1312
sbag1
(g2
g3
(dp1313
VCount
p1314
g1
(g6
g7
g89
tp1315
Rp1316
(dp1317
g12
g1314
sbsVRetMax
p1318
g1
(g6
g7
g89
tp1319
Rp1320
(dp1321
g12
g1318
sbsVIdList
p1322
g1
(g18
g19
(lp1323
tp1324
Rp1325
(dp1326
g12
g1322
sbsVQueryTranslation
p1327
g1
(g6
g7
S'Lutjanus apodus[PORG] AND RAG1[title]'
p1328
tp1329
Rp1330
(dp1331
g12
g1327
sbsVTranslationStack
p1332
g1
(g18
g19
(lp1333
g1
(g2
g3
(dp1334
g1314
g1
(g6
g7
S'68'
p1335
tp1336
Rp1337
(dp1338
g12
g1314
sbsVField
p1339
g1
(g6
g7
S'PORG'
p1340
tp1341
Rp1342
(dp1343
g12
g1339
sbsVTerm
p1344
g1
(g6
g7
S'Lutjanus apodus[PORG]'
p1345
tp1346
Rp1347
(dp1348
g12
g1344
sbsVExplode
p1349
g1
(g6
g7
g52
tp1350
Rp1351
(dp1352
g12
g1349
sbstp1353
Rp1354
(dp1355
g12
VTermSet
p1356
sbag1
(g2
g3
(dp1357
g1314
g1
(g6
g7
S'31479'
p1358
tp1359
Rp1360
(dp1361
g12
g1314
sbsg1339
g1
(g6
g7
S'title'
p1362
tp1363
Rp1364
(dp1365
g12
g1339
sbsg1344
g1
(g6
g7
S'RAG1[title]'
p1366
tp1367
Rp1368
(dp1369
g12
g1344
sbsg1349
g1
(g6
g7
g73
tp1370
Rp1371
(dp1372
g12
g1349
sbstp1373
Rp1374
(dp1375
g12
g1356
sbag1
(g6
g7
S'AND'
p1376
tp1377
Rp1378
(dp1379
g12
VOP
p1380
sbatp1381
Rp1382
(dp1383
g12
g1332
sbsVRetStart
p1384
g1
(g6
g7
g89
tp1385
Rp1386
(dp1387
g12
g1384
sbsVTranslationSet
p1388
g1
(g18
g19
(lp1389
tp1390
Rp1391
(dp1392
g12
g1388
sbstp1393
Rp1394
(dp1395
g12
VeSearchResult
p1396
sbag1
(g2
g3
(dp1397
VCount
p1398
g1
(g6
g7
g89
tp1399
Rp1400
(dp1401
g12
g1398
sbsVRetMax
p1402
g1
(g6
g7
g89
tp1403
Rp1404
(dp1405
g12
g1402
sbsVIdList
p1406
g1
(g18
g19
(lp1407
tp1408
Rp1409
(dp1410
g12
g1406
sbsVQueryTranslation
p1411
g1
(g6
g7
S'Lutjanus aratus[PORG] AND RAG1[title]'
p1412
tp1413
Rp1414
(dp1415
g12
g1411
sbsVTranslationStack
p1416
g1
(g18
g19
(lp1417
g1
(g2
g3
(dp1418
g1398
g1
(g6
g7
g796
tp1419
Rp1420
(dp1421
g12
g1398
sbsVField
p1422
g1
(g6
g7
S'PORG'
p1423
tp1424
Rp1425
(dp1426
g12
g1422
sbsVTerm
p1427
g1
(g6
g7
S'Lutjanus aratus[PORG]'
p1428
tp1429
Rp1430
(dp1431
g12
g1427
sbsVExplode
p1432
g1
(g6
g7
g52
tp1433
Rp1434
(dp1435
g12
g1432
sbstp1436
Rp1437
(dp1438
g12
VTermSet
p1439
sbag1
(g2
g3
(dp1440
g1398
g1
(g6
g7
S'31479'
p1441
tp1442
Rp1443
(dp1444
g12
g1398
sbsg1422
g1
(g6
g7
S'title'
p1445
tp1446
Rp1447
(dp1448
g12
g1422
sbsg1427
g1
(g6
g7
S'RAG1[title]'
p1449
tp1450
Rp1451
(dp1452
g12
g1427
sbsg1432
g1
(g6
g7
g73
tp1453
Rp1454
(dp1455
g12
g1432
sbstp1456
Rp1457
(dp1458
g12
g1439
sbag1
(g6
g7
S'AND'
p1459
tp1460
Rp1461
(dp1462
g12
VOP
p1463
sbatp1464
Rp1465
(dp1466
g12
g1416
sbsVRetStart
p1467
g1
(g6
g7
g89
tp1468
Rp1469
(dp1470
g12
g1467
sbsVTranslationSet
p1471
g1
(g18
g19
(lp1472
tp1473
Rp1474
(dp1475
g12
g1471
sbstp1476
Rp1477
(dp1478
g12
VeSearchResult
p1479
sbag1
(g2
g3
(dp1480
VCount
p1481
g1
(g6
g7
g8
tp1482
Rp1483
(dp1484
g12
g1481
sbsVRetMax
p1485
g1
(g6
g7
g8
tp1486
Rp1487
(dp1488
g12
g1485
sbsVIdList
p1489
g1
(g18
g19
(lp1490
g1
(g6
g7
S'193875589'
p1491
tp1492
Rp1493
(dp1494
g12
VId
p1495
sbatp1496
Rp1497
(dp1498
g12
g1489
sbsVQueryTranslation
p1499
g1
(g6
g7
S'Lutjanus argentimaculatus[PORG] AND RAG1[title]'
p1500
tp1501
Rp1502
(dp1503
g12
g1499
sbsVTranslationStack
p1504
g1
(g18
g19
(lp1505
g1
(g2
g3
(dp1506
g1481
g1
(g6
g7
S'177'
p1507
tp1508
Rp1509
(dp1510
g12
g1481
sbsVField
p1511
g1
(g6
g7
S'PORG'
p1512
tp1513
Rp1514
(dp1515
g12
g1511
sbsVTerm
p1516
g1
(g6
g7
S'Lutjanus argentimaculatus[PORG]'
p1517
tp1518
Rp1519
(dp1520
g12
g1516
sbsVExplode
p1521
g1
(g6
g7
g52
tp1522
Rp1523
(dp1524
g12
g1521
sbstp1525
Rp1526
(dp1527
g12
VTermSet
p1528
sbag1
(g2
g3
(dp1529
g1481
g1
(g6
g7
S'31479'
p1530
tp1531
Rp1532
(dp1533
g12
g1481
sbsg1511
g1
(g6
g7
S'title'
p1534
tp1535
Rp1536
(dp1537
g12
g1511
sbsg1516
g1
(g6
g7
S'RAG1[title]'
p1538
tp1539
Rp1540
(dp1541
g12
g1516
sbsg1521
g1
(g6
g7
g73
tp1542
Rp1543
(dp1544
g12
g1521
sbstp1545
Rp1546
(dp1547
g12
g1528
sbag1
(g6
g7
S'AND'
p1548
tp1549
Rp1550
(dp1551
g12
VOP
p1552
sbatp1553
Rp1554
(dp1555
g12
g1504
sbsVRetStart
p1556
g1
(g6
g7
g89
tp1557
Rp1558
(dp1559
g12
g1556
sbsVTranslationSet
p1560
g1
(g18
g19
(lp1561
tp1562
Rp1563
(dp1564
g12
g1560
sbstp1565
Rp1566
(dp1567
g12
VeSearchResult
p1568
sbag1
(g2
g3
(dp1569
VCount
p1570
g1
(g6
g7
g89
tp1571
Rp1572
(dp1573
g12
g1570
sbsVRetMax
p1574
g1
(g6
g7
g89
tp1575
Rp1576
(dp1577
g12
g1574
sbsVIdList
p1578
g1
(g18
g19
(lp1579
tp1580
Rp1581
(dp1582
g12
g1578
sbsVQueryTranslation
p1583
g1
(g6
g7
S'Lutjanus argentiventris[PORG] AND RAG1[title]'
p1584
tp1585
Rp1586
(dp1587
g12
g1583
sbsVTranslationStack
p1588
g1
(g18
g19
(lp1589
g1
(g2
g3
(dp1590
g1570
g1
(g6
g7
S'27'
p1591
tp1592
Rp1593
(dp1594
g12
g1570
sbsVField
p1595
g1
(g6
g7
S'PORG'
p1596
tp1597
Rp1598
(dp1599
g12
g1595
sbsVTerm
p1600
g1
(g6
g7
S'Lutjanus argentiventris[PORG]'
p1601
tp1602
Rp1603
(dp1604
g12
g1600
sbsVExplode
p1605
g1
(g6
g7
g52
tp1606
Rp1607
(dp1608
g12
g1605
sbstp1609
Rp1610
(dp1611
g12
VTermSet
p1612
sbag1
(g2
g3
(dp1613
g1570
g1
(g6
g7
S'31479'
p1614
tp1615
Rp1616
(dp1617
g12
g1570
sbsg1595
g1
(g6
g7
S'title'
p1618
tp1619
Rp1620
(dp1621
g12
g1595
sbsg1600
g1
(g6
g7
S'RAG1[title]'
p1622
tp1623
Rp1624
(dp1625
g12
g1600
sbsg1605
g1
(g6
g7
g73
tp1626
Rp1627
(dp1628
g12
g1605
sbstp1629
Rp1630
(dp1631
g12
g1612
sbag1
(g6
g7
S'AND'
p1632
tp1633
Rp1634
(dp1635
g12
VOP
p1636
sbatp1637
Rp1638
(dp1639
g12
g1588
sbsVRetStart
p1640
g1
(g6
g7
g89
tp1641
Rp1642
(dp1643
g12
g1640
sbsVTranslationSet
p1644
g1
(g18
g19
(lp1645
tp1646
Rp1647
(dp1648
g12
g1644
sbstp1649
Rp1650
(dp1651
g12
VeSearchResult
p1652
sbag1
(g2
g3
(dp1653
VCount
p1654
g1
(g6
g7
g8
tp1655
Rp1656
(dp1657
g12
g1654
sbsVRetMax
p1658
g1
(g6
g7
g8
tp1659
Rp1660
(dp1661
g12
g1658
sbsVIdList
p1662
g1
(g18
g19
(lp1663
g1
(g6
g7
S'193875591'
p1664
tp1665
Rp1666
(dp1667
g12
VId
p1668
sbatp1669
Rp1670
(dp1671
g12
g1662
sbsVQueryTranslation
p1672
g1
(g6
g7
S'Lutjanus bengalensis[PORG] AND RAG1[title]'
p1673
tp1674
Rp1675
(dp1676
g12
g1672
sbsVTranslationStack
p1677
g1
(g18
g19
(lp1678
g1
(g2
g3
(dp1679
g1654
g1
(g6
g7
S'33'
p1680
tp1681
Rp1682
(dp1683
g12
g1654
sbsVField
p1684
g1
(g6
g7
S'PORG'
p1685
tp1686
Rp1687
(dp1688
g12
g1684
sbsVTerm
p1689
g1
(g6
g7
S'Lutjanus bengalensis[PORG]'
p1690
tp1691
Rp1692
(dp1693
g12
g1689
sbsVExplode
p1694
g1
(g6
g7
g52
tp1695
Rp1696
(dp1697
g12
g1694
sbstp1698
Rp1699
(dp1700
g12
VTermSet
p1701
sbag1
(g2
g3
(dp1702
g1654
g1
(g6
g7
S'31479'
p1703
tp1704
Rp1705
(dp1706
g12
g1654
sbsg1684
g1
(g6
g7
S'title'
p1707
tp1708
Rp1709
(dp1710
g12
g1684
sbsg1689
g1
(g6
g7
S'RAG1[title]'
p1711
tp1712
Rp1713
(dp1714
g12
g1689
sbsg1694
g1
(g6
g7
g73
tp1715
Rp1716
(dp1717
g12
g1694
sbstp1718
Rp1719
(dp1720
g12
g1701
sbag1
(g6
g7
S'AND'
p1721
tp1722
Rp1723
(dp1724
g12
VOP
p1725
sbatp1726
Rp1727
(dp1728
g12
g1677
sbsVRetStart
p1729
g1
(g6
g7
g89
tp1730
Rp1731
(dp1732
g12
g1729
sbsVTranslationSet
p1733
g1
(g18
g19
(lp1734
tp1735
Rp1736
(dp1737
g12
g1733
sbstp1738
Rp1739
(dp1740
g12
VeSearchResult
p1741
sbag1
(g2
g3
(dp1742
VCount
p1743
g1
(g6
g7
g8
tp1744
Rp1745
(dp1746
g12
g1743
sbsVRetMax
p1747
g1
(g6
g7
g8
tp1748
Rp1749
(dp1750
g12
g1747
sbsVIdList
p1751
g1
(g18
g19
(lp1752
g1
(g6
g7
S'394339707'
p1753
tp1754
Rp1755
(dp1756
g12
VId
p1757
sbatp1758
Rp1759
(dp1760
g12
g1751
sbsVQueryTranslation
p1761
g1
(g6
g7
S'Lutjanus biguttatus[PORG] AND RAG1[title]'
p1762
tp1763
Rp1764
(dp1765
g12
g1761
sbsVTranslationStack
p1766
g1
(g18
g19
(lp1767
g1
(g2
g3
(dp1768
g1743
g1
(g6
g7
S'16'
p1769
tp1770
Rp1771
(dp1772
g12
g1743
sbsVField
p1773
g1
(g6
g7
S'PORG'
p1774
tp1775
Rp1776
(dp1777
g12
g1773
sbsVTerm
p1778
g1
(g6
g7
S'Lutjanus biguttatus[PORG]'
p1779
tp1780
Rp1781
(dp1782
g12
g1778
sbsVExplode
p1783
g1
(g6
g7
g52
tp1784
Rp1785
(dp1786
g12
g1783
sbstp1787
Rp1788
(dp1789
g12
VTermSet
p1790
sbag1
(g2
g3
(dp1791
g1743
g1
(g6
g7
S'31479'
p1792
tp1793
Rp1794
(dp1795
g12
g1743
sbsg1773
g1
(g6
g7
S'title'
p1796
tp1797
Rp1798
(dp1799
g12
g1773
sbsg1778
g1
(g6
g7
S'RAG1[title]'
p1800
tp1801
Rp1802
(dp1803
g12
g1778
sbsg1783
g1
(g6
g7
g73
tp1804
Rp1805
(dp1806
g12
g1783
sbstp1807
Rp1808
(dp1809
g12
g1790
sbag1
(g6
g7
S'AND'
p1810
tp1811
Rp1812
(dp1813
g12
VOP
p1814
sbatp1815
Rp1816
(dp1817
g12
g1766
sbsVRetStart
p1818
g1
(g6
g7
g89
tp1819
Rp1820
(dp1821
g12
g1818
sbsVTranslationSet
p1822
g1
(g18
g19
(lp1823
tp1824
Rp1825
(dp1826
g12
g1822
sbstp1827
Rp1828
(dp1829
g12
VeSearchResult
p1830
sbag1
(g2
g3
(dp1831
VCount
p1832
g1
(g6
g7
g89
tp1833
Rp1834
(dp1835
g12
g1832
sbsVRetMax
p1836
g1
(g6
g7
g89
tp1837
Rp1838
(dp1839
g12
g1836
sbsVIdList
p1840
g1
(g18
g19
(lp1841
tp1842
Rp1843
(dp1844
g12
g1840
sbsVQueryTranslation
p1845
g1
(g6
g7
S'Lutjanus bitaeniatus[PORG] AND RAG1[title]'
p1846
tp1847
Rp1848
(dp1849
g12
g1845
sbsVTranslationStack
p1850
g1
(g18
g19
(lp1851
g1
(g2
g3
(dp1852
g1832
g1
(g6
g7
S'5'
p1853
tp1854
Rp1855
(dp1856
g12
g1832
sbsVField
p1857
g1
(g6
g7
S'PORG'
p1858
tp1859
Rp1860
(dp1861
g12
g1857
sbsVTerm
p1862
g1
(g6
g7
S'Lutjanus bitaeniatus[PORG]'
p1863
tp1864
Rp1865
(dp1866
g12
g1862
sbsVExplode
p1867
g1
(g6
g7
g52
tp1868
Rp1869
(dp1870
g12
g1867
sbstp1871
Rp1872
(dp1873
g12
VTermSet
p1874
sbag1
(g2
g3
(dp1875
g1832
g1
(g6
g7
S'31479'
p1876
tp1877
Rp1878
(dp1879
g12
g1832
sbsg1857
g1
(g6
g7
S'title'
p1880
tp1881
Rp1882
(dp1883
g12
g1857
sbsg1862
g1
(g6
g7
S'RAG1[title]'
p1884
tp1885
Rp1886
(dp1887
g12
g1862
sbsg1867
g1
(g6
g7
g73
tp1888
Rp1889
(dp1890
g12
g1867
sbstp1891
Rp1892
(dp1893
g12
g1874
sbag1
(g6
g7
S'AND'
p1894
tp1895
Rp1896
(dp1897
g12
VOP
p1898
sbatp1899
Rp1900
(dp1901
g12
g1850
sbsVRetStart
p1902
g1
(g6
g7
g89
tp1903
Rp1904
(dp1905
g12
g1902
sbsVTranslationSet
p1906
g1
(g18
g19
(lp1907
tp1908
Rp1909
(dp1910
g12
g1906
sbstp1911
Rp1912
(dp1913
g12
VeSearchResult
p1914
sbag1
(g2
g3
(dp1915
VCount
p1916
g1
(g6
g7
g89
tp1917
Rp1918
(dp1919
g12
g1916
sbsVRetMax
p1920
g1
(g6
g7
g89
tp1921
Rp1922
(dp1923
g12
g1920
sbsVIdList
p1924
g1
(g18
g19
(lp1925
tp1926
Rp1927
(dp1928
g12
g1924
sbsVQueryTranslation
p1929
g1
(g6
g7
S'Lutjanus bohar[PORG] AND RAG1[title]'
p1930
tp1931
Rp1932
(dp1933
g12
g1929
sbsVTranslationStack
p1934
g1
(g18
g19
(lp1935
g1
(g2
g3
(dp1936
g1916
g1
(g6
g7
S'17'
p1937
tp1938
Rp1939
(dp1940
g12
g1916
sbsVField
p1941
g1
(g6
g7
S'PORG'
p1942
tp1943
Rp1944
(dp1945
g12
g1941
sbsVTerm
p1946
g1
(g6
g7
S'Lutjanus bohar[PORG]'
p1947
tp1948
Rp1949
(dp1950
g12
g1946
sbsVExplode
p1951
g1
(g6
g7
g52
tp1952
Rp1953
(dp1954
g12
g1951
sbstp1955
Rp1956
(dp1957
g12
VTermSet
p1958
sbag1
(g2
g3
(dp1959
g1916
g1
(g6
g7
S'31479'
p1960
tp1961
Rp1962
(dp1963
g12
g1916
sbsg1941
g1
(g6
g7
S'title'
p1964
tp1965
Rp1966
(dp1967
g12
g1941
sbsg1946
g1
(g6
g7
S'RAG1[title]'
p1968
tp1969
Rp1970
(dp1971
g12
g1946
sbsg1951
g1
(g6
g7
g73
tp1972
Rp1973
(dp1974
g12
g1951
sbstp1975
Rp1976
(dp1977
g12
g1958
sbag1
(g6
g7
S'AND'
p1978
tp1979
Rp1980
(dp1981
g12
VOP
p1982
sbatp1983
Rp1984
(dp1985
g12
g1934
sbsVRetStart
p1986
g1
(g6
g7
g89
tp1987
Rp1988
(dp1989
g12
g1986
sbsVTranslationSet
p1990
g1
(g18
g19
(lp1991
tp1992
Rp1993
(dp1994
g12
g1990
sbstp1995
Rp1996
(dp1997
g12
VeSearchResult
p1998
sbag1
(g2
g3
(dp1999
VCount
p2000
g1
(g6
g7
g89
tp2001
Rp2002
(dp2003
g12
g2000
sbsVRetMax
p2004
g1
(g6
g7
g89
tp2005
Rp2006
(dp2007
g12
g2004
sbsVIdList
p2008
g1
(g18
g19
(lp2009
tp2010
Rp2011
(dp2012
g12
g2008
sbsVQueryTranslation
p2013
g1
(g6
g7
S'Lutjanus boutton[PORG] AND RAG1[title]'
p2014
tp2015
Rp2016
(dp2017
g12
g2013
sbsVTranslationStack
p2018
g1
(g18
g19
(lp2019
g1
(g2
g3
(dp2020
g2000
g1
(g6
g7
g8
tp2021
Rp2022
(dp2023
g12
g2000
sbsVField
p2024
g1
(g6
g7
S'PORG'
p2025
tp2026
Rp2027
(dp2028
g12
g2024
sbsVTerm
p2029
g1
(g6
g7
S'Lutjanus boutton[PORG]'
p2030
tp2031
Rp2032
(dp2033
g12
g2029
sbsVExplode
p2034
g1
(g6
g7
g52
tp2035
Rp2036
(dp2037
g12
g2034
sbstp2038
Rp2039
(dp2040
g12
VTermSet
p2041
sbag1
(g2
g3
(dp2042
g2000
g1
(g6
g7
S'31479'
p2043
tp2044
Rp2045
(dp2046
g12
g2000
sbsg2024
g1
(g6
g7
S'title'
p2047
tp2048
Rp2049
(dp2050
g12
g2024
sbsg2029
g1
(g6
g7
S'RAG1[title]'
p2051
tp2052
Rp2053
(dp2054
g12
g2029
sbsg2034
g1
(g6
g7
g73
tp2055
Rp2056
(dp2057
g12
g2034
sbstp2058
Rp2059
(dp2060
g12
g2041
sbag1
(g6
g7
S'AND'
p2061
tp2062
Rp2063
(dp2064
g12
VOP
p2065
sbatp2066
Rp2067
(dp2068
g12
g2018
sbsVRetStart
p2069
g1
(g6
g7
g89
tp2070
Rp2071
(dp2072
g12
g2069
sbsVTranslationSet
p2073
g1
(g18
g19
(lp2074
tp2075
Rp2076
(dp2077
g12
g2073
sbstp2078
Rp2079
(dp2080
g12
VeSearchResult
p2081
sbag1
(g2
g3
(dp2082
VCount
p2083
g1
(g6
g7
g89
tp2084
Rp2085
(dp2086
g12
g2083
sbsVRetMax
p2087
g1
(g6
g7
g89
tp2088
Rp2089
(dp2090
g12
g2087
sbsVIdList
p2091
g1
(g18
g19
(lp2092
tp2093
Rp2094
(dp2095
g12
g2091
sbsVQueryTranslation
p2096
g1
(g6
g7
S'Lutjanus buccanella[PORG] AND RAG1[title]'
p2097
tp2098
Rp2099
(dp2100
g12
g2096
sbsVTranslationStack
p2101
g1
(g18
g19
(lp2102
g1
(g2
g3
(dp2103
g2083
g1
(g6
g7
S'18'
p2104
tp2105
Rp2106
(dp2107
g12
g2083
sbsVField
p2108
g1
(g6
g7
S'PORG'
p2109
tp2110
Rp2111
(dp2112
g12
g2108
sbsVTerm
p2113
g1
(g6
g7
S'Lutjanus buccanella[PORG]'
p2114
tp2115
Rp2116
(dp2117
g12
g2113
sbsVExplode
p2118
g1
(g6
g7
g52
tp2119
Rp2120
(dp2121
g12
g2118
sbstp2122
Rp2123
(dp2124
g12
VTermSet
p2125
sbag1
(g2
g3
(dp2126
g2083
g1
(g6
g7
S'31479'
p2127
tp2128
Rp2129
(dp2130
g12
g2083
sbsg2108
g1
(g6
g7
S'title'
p2131
tp2132
Rp2133
(dp2134
g12
g2108
sbsg2113
g1
(g6
g7
S'RAG1[title]'
p2135
tp2136
Rp2137
(dp2138
g12
g2113
sbsg2118
g1
(g6
g7
g73
tp2139
Rp2140
(dp2141
g12
g2118
sbstp2142
Rp2143
(dp2144
g12
g2125
sbag1
(g6
g7
S'AND'
p2145
tp2146
Rp2147
(dp2148
g12
VOP
p2149
sbatp2150
Rp2151
(dp2152
g12
g2101
sbsVRetStart
p2153
g1
(g6
g7
g89
tp2154
Rp2155
(dp2156
g12
g2153
sbsVTranslationSet
p2157
g1
(g18
g19
(lp2158
tp2159
Rp2160
(dp2161
g12
g2157
sbstp2162
Rp2163
(dp2164
g12
VeSearchResult
p2165
sbag1
(g2
g3
(dp2166
VCount
p2167
g1
(g6
g7
g89
tp2168
Rp2169
(dp2170
g12
g2167
sbsVRetMax
p2171
g1
(g6
g7
g89
tp2172
Rp2173
(dp2174
g12
g2171
sbsVIdList
p2175
g1
(g18
g19
(lp2176
tp2177
Rp2178
(dp2179
g12
g2175
sbsVQueryTranslation
p2180
g1
(g6
g7
S'Lutjanus campechanus[PORG] AND RAG1[title]'
p2181
tp2182
Rp2183
(dp2184
g12
g2180
sbsVTranslationStack
p2185
g1
(g18
g19
(lp2186
g1
(g2
g3
(dp2187
g2167
g1
(g6
g7
S'449'
p2188
tp2189
Rp2190
(dp2191
g12
g2167
sbsVField
p2192
g1
(g6
g7
S'PORG'
p2193
tp2194
Rp2195
(dp2196
g12
g2192
sbsVTerm
p2197
g1
(g6
g7
S'Lutjanus campechanus[PORG]'
p2198
tp2199
Rp2200
(dp2201
g12
g2197
sbsVExplode
p2202
g1
(g6
g7
g52
tp2203
Rp2204
(dp2205
g12
g2202
sbstp2206
Rp2207
(dp2208
g12
VTermSet
p2209
sbag1
(g2
g3
(dp2210
g2167
g1
(g6
g7
S'31479'
p2211
tp2212
Rp2213
(dp2214
g12
g2167
sbsg2192
g1
(g6
g7
S'title'
p2215
tp2216
Rp2217
(dp2218
g12
g2192
sbsg2197
g1
(g6
g7
S'RAG1[title]'
p2219
tp2220
Rp2221
(dp2222
g12
g2197
sbsg2202
g1
(g6
g7
g73
tp2223
Rp2224
(dp2225
g12
g2202
sbstp2226
Rp2227
(dp2228
g12
g2209
sbag1
(g6
g7
S'AND'
p2229
tp2230
Rp2231
(dp2232
g12
VOP
p2233
sbatp2234
Rp2235
(dp2236
g12
g2185
sbsVRetStart
p2237
g1
(g6
g7
g89
tp2238
Rp2239
(dp2240
g12
g2237
sbsVTranslationSet
p2241
g1
(g18
g19
(lp2242
tp2243
Rp2244
(dp2245
g12
g2241
sbstp2246
Rp2247
(dp2248
g12
VeSearchResult
p2249
sbag1
(g2
g3
(dp2250
VCount
p2251
g1
(g6
g7
g89
tp2252
Rp2253
(dp2254
g12
g2251
sbsVRetMax
p2255
g1
(g6
g7
g89
tp2256
Rp2257
(dp2258
g12
g2255
sbsVIdList
p2259
g1
(g18
g19
(lp2260
tp2261
Rp2262
(dp2263
g12
g2259
sbsVQueryTranslation
p2264
g1
(g6
g7
S'Lutjanus carponotatus[PORG] AND RAG1[title]'
p2265
tp2266
Rp2267
(dp2268
g12
g2264
sbsVTranslationStack
p2269
g1
(g18
g19
(lp2270
g1
(g2
g3
(dp2271
g2251
g1
(g6
g7
S'223'
p2272
tp2273
Rp2274
(dp2275
g12
g2251
sbsVField
p2276
g1
(g6
g7
S'PORG'
p2277
tp2278
Rp2279
(dp2280
g12
g2276
sbsVTerm
p2281
g1
(g6
g7
S'Lutjanus carponotatus[PORG]'
p2282
tp2283
Rp2284
(dp2285
g12
g2281
sbsVExplode
p2286
g1
(g6
g7
g52
tp2287
Rp2288
(dp2289
g12
g2286
sbstp2290
Rp2291
(dp2292
g12
VTermSet
p2293
sbag1
(g2
g3
(dp2294
g2251
g1
(g6
g7
S'31479'
p2295
tp2296
Rp2297
(dp2298
g12
g2251
sbsg2276
g1
(g6
g7
S'title'
p2299
tp2300
Rp2301
(dp2302
g12
g2276
sbsg2281
g1
(g6
g7
S'RAG1[title]'
p2303
tp2304
Rp2305
(dp2306
g12
g2281
sbsg2286
g1
(g6
g7
g73
tp2307
Rp2308
(dp2309
g12
g2286
sbstp2310
Rp2311
(dp2312
g12
g2293
sbag1
(g6
g7
S'AND'
p2313
tp2314
Rp2315
(dp2316
g12
VOP
p2317
sbatp2318
Rp2319
(dp2320
g12
g2269
sbsVRetStart
p2321
g1
(g6
g7
g89
tp2322
Rp2323
(dp2324
g12
g2321
sbsVTranslationSet
p2325
g1
(g18
g19
(lp2326
tp2327
Rp2328
(dp2329
g12
g2325
sbstp2330
Rp2331
(dp2332
g12
VeSearchResult
p2333
sbag1
(g2
g3
(dp2334
VCount
p2335
g1
(g6
g7
g89
tp2336
Rp2337
(dp2338
g12
g2335
sbsVRetMax
p2339
g1
(g6
g7
g89
tp2340
Rp2341
(dp2342
g12
g2339
sbsVIdList
p2343
g1
(g18
g19
(lp2344
tp2345
Rp2346
(dp2347
g12
g2343
sbsVRetStart
p2348
g1
(g6
g7
g89
tp2349
Rp2350
(dp2351
g12
g2348
sbsVErrorList
p2352
g1
(g1044
g3
(dp2353
VFieldNotFound
p2354
(lp2355
sVPhraseNotFound
p2356
(lp2357
g1
(g6
g7
S'Lutjanus coeruleolineatus[PORG]'
p2358
tp2359
Rp2360
(dp2361
g12
VPhraseNotFound
p2362
sbastp2363
Rp2364
(dp2365
g12
g2352
sg1058
(lp2366
g2356
ag2354
asbsVTranslationSet
p2367
g1
(g18
g19
(lp2368
tp2369
Rp2370
(dp2371
g12
g2367
sbsVWarningList
p2372
g1
(g1044
g3
(dp2373
VOutputMessage
p2374
(lp2375
g1
(g6
g7
S'No items found.'
p2376
tp2377
Rp2378
(dp2379
g12
VOutputMessage
p2380
sbasVPhraseIgnored
p2381
(lp2382
sVQuotedPhraseNotFound
p2383
(lp2384
stp2385
Rp2386
(dp2387
g12
g2372
sg1058
(lp2388
g2381
ag2383
ag2374
asbsVQueryTranslation
p2389
g1
(g6
g7
S'Lutjanus coeruleolineatus[PORG] AND RAG1[title]'
p2390
tp2391
Rp2392
(dp2393
g12
g2389
sbstp2394
Rp2395
(dp2396
g12
VeSearchResult
p2397
sbag1
(g2
g3
(dp2398
VCount
p2399
g1
(g6
g7
g89
tp2400
Rp2401
(dp2402
g12
g2399
sbsVRetMax
p2403
g1
(g6
g7
g89
tp2404
Rp2405
(dp2406
g12
g2403
sbsVIdList
p2407
g1
(g18
g19
(lp2408
tp2409
Rp2410
(dp2411
g12
g2407
sbsVQueryTranslation
p2412
g1
(g6
g7
S'Lutjanus colorado[PORG] AND RAG1[title]'
p2413
tp2414
Rp2415
(dp2416
g12
g2412
sbsVTranslationStack
p2417
g1
(g18
g19
(lp2418
g1
(g2
g3
(dp2419
g2399
g1
(g6
g7
S'8'
p2420
tp2421
Rp2422
(dp2423
g12
g2399
sbsVField
p2424
g1
(g6
g7
S'PORG'
p2425
tp2426
Rp2427
(dp2428
g12
g2424
sbsVTerm
p2429
g1
(g6
g7
S'Lutjanus colorado[PORG]'
p2430
tp2431
Rp2432
(dp2433
g12
g2429
sbsVExplode
p2434
g1
(g6
g7
g52
tp2435
Rp2436
(dp2437
g12
g2434
sbstp2438
Rp2439
(dp2440
g12
VTermSet
p2441
sbag1
(g2
g3
(dp2442
g2399
g1
(g6
g7
S'31479'
p2443
tp2444
Rp2445
(dp2446
g12
g2399
sbsg2424
g1
(g6
g7
S'title'
p2447
tp2448
Rp2449
(dp2450
g12
g2424
sbsg2429
g1
(g6
g7
S'RAG1[title]'
p2451
tp2452
Rp2453
(dp2454
g12
g2429
sbsg2434
g1
(g6
g7
g73
tp2455
Rp2456
(dp2457
g12
g2434
sbstp2458
Rp2459
(dp2460
g12
g2441
sbag1
(g6
g7
S'AND'
p2461
tp2462
Rp2463
(dp2464
g12
VOP
p2465
sbatp2466
Rp2467
(dp2468
g12
g2417
sbsVRetStart
p2469
g1
(g6
g7
g89
tp2470
Rp2471
(dp2472
g12
g2469
sbsVTranslationSet
p2473
g1
(g18
g19
(lp2474
tp2475
Rp2476
(dp2477
g12
g2473
sbstp2478
Rp2479
(dp2480
g12
VeSearchResult
p2481
sbag1
(g2
g3
(dp2482
VCount
p2483
g1
(g6
g7
g89
tp2484
Rp2485
(dp2486
g12
g2483
sbsVRetMax
p2487
g1
(g6
g7
g89
tp2488
Rp2489
(dp2490
g12
g2487
sbsVIdList
p2491
g1
(g18
g19
(lp2492
tp2493
Rp2494
(dp2495
g12
g2491
sbsVQueryTranslation
p2496
g1
(g6
g7
S'Lutjanus cyanopterus[PORG] AND RAG1[title]'
p2497
tp2498
Rp2499
(dp2500
g12
g2496
sbsVTranslationStack
p2501
g1
(g18
g19
(lp2502
g1
(g2
g3
(dp2503
g2483
g1
(g6
g7
S'18'
p2504
tp2505
Rp2506
(dp2507
g12
g2483
sbsVField
p2508
g1
(g6
g7
S'PORG'
p2509
tp2510
Rp2511
(dp2512
g12
g2508
sbsVTerm
p2513
g1
(g6
g7
S'Lutjanus cyanopterus[PORG]'
p2514
tp2515
Rp2516
(dp2517
g12
g2513
sbsVExplode
p2518
g1
(g6
g7
g52
tp2519
Rp2520
(dp2521
g12
g2518
sbstp2522
Rp2523
(dp2524
g12
VTermSet
p2525
sbag1
(g2
g3
(dp2526
g2483
g1
(g6
g7
S'31479'
p2527
tp2528
Rp2529
(dp2530
g12
g2483
sbsg2508
g1
(g6
g7
S'title'
p2531
tp2532
Rp2533
(dp2534
g12
g2508
sbsg2513
g1
(g6
g7
S'RAG1[title]'
p2535
tp2536
Rp2537
(dp2538
g12
g2513
sbsg2518
g1
(g6
g7
g73
tp2539
Rp2540
(dp2541
g12
g2518
sbstp2542
Rp2543
(dp2544
g12
g2525
sbag1
(g6
g7
S'AND'
p2545
tp2546
Rp2547
(dp2548
g12
VOP
p2549
sbatp2550
Rp2551
(dp2552
g12
g2501
sbsVRetStart
p2553
g1
(g6
g7
g89
tp2554
Rp2555
(dp2556
g12
g2553
sbsVTranslationSet
p2557
g1
(g18
g19
(lp2558
tp2559
Rp2560
(dp2561
g12
g2557
sbstp2562
Rp2563
(dp2564
g12
VeSearchResult
p2565
sbag1
(g2
g3
(dp2566
VCount
p2567
g1
(g6
g7
g89
tp2568
Rp2569
(dp2570
g12
g2567
sbsVRetMax
p2571
g1
(g6
g7
g89
tp2572
Rp2573
(dp2574
g12
g2571
sbsVIdList
p2575
g1
(g18
g19
(lp2576
tp2577
Rp2578
(dp2579
g12
g2575
sbsVQueryTranslation
p2580
g1
(g6
g7
S'Lutjanus decussatus[PORG] AND RAG1[title]'
p2581
tp2582
Rp2583
(dp2584
g12
g2580
sbsVTranslationStack
p2585
g1
(g18
g19
(lp2586
g1
(g2
g3
(dp2587
g2567
g1
(g6
g7
g796
tp2588
Rp2589
(dp2590
g12
g2567
sbsVField
p2591
g1
(g6
g7
S'PORG'
p2592
tp2593
Rp2594
(dp2595
g12
g2591
sbsVTerm
p2596
g1
(g6
g7
S'Lutjanus decussatus[PORG]'
p2597
tp2598
Rp2599
(dp2600
g12
g2596
sbsVExplode
p2601
g1
(g6
g7
g52
tp2602
Rp2603
(dp2604
g12
g2601
sbstp2605
Rp2606
(dp2607
g12
VTermSet
p2608
sbag1
(g2
g3
(dp2609
g2567
g1
(g6
g7
S'31479'
p2610
tp2611
Rp2612
(dp2613
g12
g2567
sbsg2591
g1
(g6
g7
S'title'
p2614
tp2615
Rp2616
(dp2617
g12
g2591
sbsg2596
g1
(g6
g7
S'RAG1[title]'
p2618
tp2619
Rp2620
(dp2621
g12
g2596
sbsg2601
g1
(g6
g7
g73
tp2622
Rp2623
(dp2624
g12
g2601
sbstp2625
Rp2626
(dp2627
g12
g2608
sbag1
(g6
g7
S'AND'
p2628
tp2629
Rp2630
(dp2631
g12
VOP
p2632
sbatp2633
Rp2634
(dp2635
g12
g2585
sbsVRetStart
p2636
g1
(g6
g7
g89
tp2637
Rp2638
(dp2639
g12
g2636
sbsVTranslationSet
p2640
g1
(g18
g19
(lp2641
tp2642
Rp2643
(dp2644
g12
g2640
sbstp2645
Rp2646
(dp2647
g12
VeSearchResult
p2648
sbag1
(g2
g3
(dp2649
VCount
p2650
g1
(g6
g7
g8
tp2651
Rp2652
(dp2653
g12
g2650
sbsVRetMax
p2654
g1
(g6
g7
g8
tp2655
Rp2656
(dp2657
g12
g2654
sbsVIdList
p2658
g1
(g18
g19
(lp2659
g1
(g6
g7
S'166092529'
p2660
tp2661
Rp2662
(dp2663
g12
VId
p2664
sbatp2665
Rp2666
(dp2667
g12
g2658
sbsVQueryTranslation
p2668
g1
(g6
g7
S'Lutjanus dentatus[PORG] AND RAG1[title]'
p2669
tp2670
Rp2671
(dp2672
g12
g2668
sbsVTranslationStack
p2673
g1
(g18
g19
(lp2674
g1
(g2
g3
(dp2675
g2650
g1
(g6
g7
g8
tp2676
Rp2677
(dp2678
g12
g2650
sbsVField
p2679
g1
(g6
g7
S'PORG'
p2680
tp2681
Rp2682
(dp2683
g12
g2679
sbsVTerm
p2684
g1
(g6
g7
S'Lutjanus dentatus[PORG]'
p2685
tp2686
Rp2687
(dp2688
g12
g2684
sbsVExplode
p2689
g1
(g6
g7
g52
tp2690
Rp2691
(dp2692
g12
g2689
sbstp2693
Rp2694
(dp2695
g12
VTermSet
p2696
sbag1
(g2
g3
(dp2697
g2650
g1
(g6
g7
S'31479'
p2698
tp2699
Rp2700
(dp2701
g12
g2650
sbsg2679
g1
(g6
g7
S'title'
p2702
tp2703
Rp2704
(dp2705
g12
g2679
sbsg2684
g1
(g6
g7
S'RAG1[title]'
p2706
tp2707
Rp2708
(dp2709
g12
g2684
sbsg2689
g1
(g6
g7
g73
tp2710
Rp2711
(dp2712
g12
g2689
sbstp2713
Rp2714
(dp2715
g12
g2696
sbag1
(g6
g7
S'AND'
p2716
tp2717
Rp2718
(dp2719
g12
VOP
p2720
sbatp2721
Rp2722
(dp2723
g12
g2673
sbsVRetStart
p2724
g1
(g6
g7
g89
tp2725
Rp2726
(dp2727
g12
g2724
sbsVTranslationSet
p2728
g1
(g18
g19
(lp2729
tp2730
Rp2731
(dp2732
g12
g2728
sbstp2733
Rp2734
(dp2735
g12
VeSearchResult
p2736
sbag1
(g2
g3
(dp2737
VCount
p2738
g1
(g6
g7
g89
tp2739
Rp2740
(dp2741
g12
g2738
sbsVRetMax
p2742
g1
(g6
g7
g89
tp2743
Rp2744
(dp2745
g12
g2742
sbsVIdList
p2746
g1
(g18
g19
(lp2747
tp2748
Rp2749
(dp2750
g12
g2746
sbsVQueryTranslation
p2751
g1
(g6
g7
S'Lutjanus dodecacanthoides[PORG] AND RAG1[title]'
p2752
tp2753
Rp2754
(dp2755
g12
g2751
sbsVTranslationStack
p2756
g1
(g18
g19
(lp2757
g1
(g2
g3
(dp2758
g2738
g1
(g6
g7
g376
tp2759
Rp2760
(dp2761
g12
g2738
sbsVField
p2762
g1
(g6
g7
S'PORG'
p2763
tp2764
Rp2765
(dp2766
g12
g2762
sbsVTerm
p2767
g1
(g6
g7
S'Lutjanus dodecacanthoides[PORG]'
p2768
tp2769
Rp2770
(dp2771
g12
g2767
sbsVExplode
p2772
g1
(g6
g7
g52
tp2773
Rp2774
(dp2775
g12
g2772
sbstp2776
Rp2777
(dp2778
g12
VTermSet
p2779
sbag1
(g2
g3
(dp2780
g2738
g1
(g6
g7
S'31479'
p2781
tp2782
Rp2783
(dp2784
g12
g2738
sbsg2762
g1
(g6
g7
S'title'
p2785
tp2786
Rp2787
(dp2788
g12
g2762
sbsg2767
g1
(g6
g7
S'RAG1[title]'
p2789
tp2790
Rp2791
(dp2792
g12
g2767
sbsg2772
g1
(g6
g7
g73
tp2793
Rp2794
(dp2795
g12
g2772
sbstp2796
Rp2797
(dp2798
g12
g2779
sbag1
(g6
g7
S'AND'
p2799
tp2800
Rp2801
(dp2802
g12
VOP
p2803
sbatp2804
Rp2805
(dp2806
g12
g2756
sbsVRetStart
p2807
g1
(g6
g7
g89
tp2808
Rp2809
(dp2810
g12
g2807
sbsVTranslationSet
p2811
g1
(g18
g19
(lp2812
tp2813
Rp2814
(dp2815
g12
g2811
sbstp2816
Rp2817
(dp2818
g12
VeSearchResult
p2819
sbag1
(g2
g3
(dp2820
VCount
p2821
g1
(g6
g7
g89
tp2822
Rp2823
(dp2824
g12
g2821
sbsVRetMax
p2825
g1
(g6
g7
g89
tp2826
Rp2827
(dp2828
g12
g2825
sbsVIdList
p2829
g1
(g18
g19
(lp2830
tp2831
Rp2832
(dp2833
g12
g2829
sbsVQueryTranslation
p2834
g1
(g6
g7
S'Lutjanus ehrenbergii[PORG] AND RAG1[title]'
p2835
tp2836
Rp2837
(dp2838
g12
g2834
sbsVTranslationStack
p2839
g1
(g18
g19
(lp2840
g1
(g2
g3
(dp2841
g2821
g1
(g6
g7
S'17'
p2842
tp2843
Rp2844
(dp2845
g12
g2821
sbsVField
p2846
g1
(g6
g7
S'PORG'
p2847
tp2848
Rp2849
(dp2850
g12
g2846
sbsVTerm
p2851
g1
(g6
g7
S'Lutjanus ehrenbergii[PORG]'
p2852
tp2853
Rp2854
(dp2855
g12
g2851
sbsVExplode
p2856
g1
(g6
g7
g52
tp2857
Rp2858
(dp2859
g12
g2856
sbstp2860
Rp2861
(dp2862
g12
VTermSet
p2863
sbag1
(g2
g3
(dp2864
g2821
g1
(g6
g7
S'31479'
p2865
tp2866
Rp2867
(dp2868
g12
g2821
sbsg2846
g1
(g6
g7
S'title'
p2869
tp2870
Rp2871
(dp2872
g12
g2846
sbsg2851
g1
(g6
g7
S'RAG1[title]'
p2873
tp2874
Rp2875
(dp2876
g12
g2851
sbsg2856
g1
(g6
g7
g73
tp2877
Rp2878
(dp2879
g12
g2856
sbstp2880
Rp2881
(dp2882
g12
g2863
sbag1
(g6
g7
S'AND'
p2883
tp2884
Rp2885
(dp2886
g12
VOP
p2887
sbatp2888
Rp2889
(dp2890
g12
g2839
sbsVRetStart
p2891
g1
(g6
g7
g89
tp2892
Rp2893
(dp2894
g12
g2891
sbsVTranslationSet
p2895
g1
(g18
g19
(lp2896
tp2897
Rp2898
(dp2899
g12
g2895
sbstp2900
Rp2901
(dp2902
g12
VeSearchResult
p2903
sbag1
(g2
g3
(dp2904
VCount
p2905
g1
(g6
g7
g89
tp2906
Rp2907
(dp2908
g12
g2905
sbsVRetMax
p2909
g1
(g6
g7
g89
tp2910
Rp2911
(dp2912
g12
g2909
sbsVIdList
p2913
g1
(g18
g19
(lp2914
tp2915
Rp2916
(dp2917
g12
g2913
sbsVRetStart
p2918
g1
(g6
g7
g89
tp2919
Rp2920
(dp2921
g12
g2918
sbsVErrorList
p2922
g1
(g1044
g3
(dp2923
VFieldNotFound
p2924
(lp2925
sVPhraseNotFound
p2926
(lp2927
g1
(g6
g7
S'Lutjanus endecacanthus[PORG]'
p2928
tp2929
Rp2930
(dp2931
g12
VPhraseNotFound
p2932
sbastp2933
Rp2934
(dp2935
g12
g2922
sg1058
(lp2936
g2926
ag2924
asbsVTranslationSet
p2937
g1
(g18
g19
(lp2938
tp2939
Rp2940
(dp2941
g12
g2937
sbsVWarningList
p2942
g1
(g1044
g3
(dp2943
VOutputMessage
p2944
(lp2945
g1
(g6
g7
S'No items found.'
p2946
tp2947
Rp2948
(dp2949
g12
VOutputMessage
p2950
sbasVPhraseIgnored
p2951
(lp2952
sVQuotedPhraseNotFound
p2953
(lp2954
stp2955
Rp2956
(dp2957
g12
g2942
sg1058
(lp2958
g2951
ag2953
ag2944
asbsVQueryTranslation
p2959
g1
(g6
g7
S'Lutjanus endecacanthus[PORG] AND RAG1[title]'
p2960
tp2961
Rp2962
(dp2963
g12
g2959
sbstp2964
Rp2965
(dp2966
g12
VeSearchResult
p2967
sbag1
(g2
g3
(dp2968
VCount
p2969
g1
(g6
g7
g8
tp2970
Rp2971
(dp2972
g12
g2969
sbsVRetMax
p2973
g1
(g6
g7
g8
tp2974
Rp2975
(dp2976
g12
g2973
sbsVIdList
p2977
g1
(g18
g19
(lp2978
g1
(g6
g7
S'193875593'
p2979
tp2980
Rp2981
(dp2982
g12
VId
p2983
sbatp2984
Rp2985
(dp2986
g12
g2977
sbsVQueryTranslation
p2987
g1
(g6
g7
S'Lutjanus erythropterus[PORG] AND RAG1[title]'
p2988
tp2989
Rp2990
(dp2991
g12
g2987
sbsVTranslationStack
p2992
g1
(g18
g19
(lp2993
g1
(g2
g3
(dp2994
g2969
g1
(g6
g7
S'263'
p2995
tp2996
Rp2997
(dp2998
g12
g2969
sbsVField
p2999
g1
(g6
g7
S'PORG'
p3000
tp3001
Rp3002
(dp3003
g12
g2999
sbsVTerm
p3004
g1
(g6
g7
S'Lutjanus erythropterus[PORG]'
p3005
tp3006
Rp3007
(dp3008
g12
g3004
sbsVExplode
p3009
g1
(g6
g7
g52
tp3010
Rp3011
(dp3012
g12
g3009
sbstp3013
Rp3014
(dp3015
g12
VTermSet
p3016
sbag1
(g2
g3
(dp3017
g2969
g1
(g6
g7
S'31479'
p3018
tp3019
Rp3020
(dp3021
g12
g2969
sbsg2999
g1
(g6
g7
S'title'
p3022
tp3023
Rp3024
(dp3025
g12
g2999
sbsg3004
g1
(g6
g7
S'RAG1[title]'
p3026
tp3027
Rp3028
(dp3029
g12
g3004
sbsg3009
g1
(g6
g7
g73
tp3030
Rp3031
(dp3032
g12
g3009
sbstp3033
Rp3034
(dp3035
g12
g3016
sbag1
(g6
g7
S'AND'
p3036
tp3037
Rp3038
(dp3039
g12
VOP
p3040
sbatp3041
Rp3042
(dp3043
g12
g2992
sbsVRetStart
p3044
g1
(g6
g7
g89
tp3045
Rp3046
(dp3047
g12
g3044
sbsVTranslationSet
p3048
g1
(g18
g19
(lp3049
tp3050
Rp3051
(dp3052
g12
g3048
sbstp3053
Rp3054
(dp3055
g12
VeSearchResult
p3056
sbag1
(g2
g3
(dp3057
VCount
p3058
g1
(g6
g7
g89
tp3059
Rp3060
(dp3061
g12
g3058
sbsVRetMax
p3062
g1
(g6
g7
g89
tp3063
Rp3064
(dp3065
g12
g3062
sbsVIdList
p3066
g1
(g18
g19
(lp3067
tp3068
Rp3069
(dp3070
g12
g3066
sbsVRetStart
p3071
g1
(g6
g7
g89
tp3072
Rp3073
(dp3074
g12
g3071
sbsVErrorList
p3075
g1
(g1044
g3
(dp3076
VFieldNotFound
p3077
(lp3078
sVPhraseNotFound
p3079
(lp3080
g1
(g6
g7
S'Lutjanus fulgens[PORG]'
p3081
tp3082
Rp3083
(dp3084
g12
VPhraseNotFound
p3085
sbastp3086
Rp3087
(dp3088
g12
g3075
sg1058
(lp3089
g3079
ag3077
asbsVTranslationSet
p3090
g1
(g18
g19
(lp3091
tp3092
Rp3093
(dp3094
g12
g3090
sbsVWarningList
p3095
g1
(g1044
g3
(dp3096
VOutputMessage
p3097
(lp3098
g1
(g6
g7
S'No items found.'
p3099
tp3100
Rp3101
(dp3102
g12
VOutputMessage
p3103
sbasVPhraseIgnored
p3104
(lp3105
sVQuotedPhraseNotFound
p3106
(lp3107
stp3108
Rp3109
(dp3110
g12
g3095
sg1058
(lp3111
g3104
ag3106
ag3097
asbsVQueryTranslation
p3112
g1
(g6
g7
S'Lutjanus fulgens[PORG] AND RAG1[title]'
p3113
tp3114
Rp3115
(dp3116
g12
g3112
sbstp3117
Rp3118
(dp3119
g12
VeSearchResult
p3120
sbag1
(g2
g3
(dp3121
VCount
p3122
g1
(g6
g7
g1221
tp3123
Rp3124
(dp3125
g12
g3122
sbsVRetMax
p3126
g1
(g6
g7
g1221
tp3127
Rp3128
(dp3129
g12
g3126
sbsVIdList
p3130
g1
(g18
g19
(lp3131
g1
(g6
g7
S'193875595'
p3132
tp3133
Rp3134
(dp3135
g12
VId
p3136
sbag1
(g6
g7
S'332168012'
p3137
tp3138
Rp3139
(dp3140
g12
g3136
sbatp3141
Rp3142
(dp3143
g12
g3130
sbsVQueryTranslation
p3144
g1
(g6
g7
S'Lutjanus fulviflamma[PORG] AND RAG1[title]'
p3145
tp3146
Rp3147
(dp3148
g12
g3144
sbsVTranslationStack
p3149
g1
(g18
g19
(lp3150
g1
(g2
g3
(dp3151
g3122
g1
(g6
g7
S'78'
p3152
tp3153
Rp3154
(dp3155
g12
g3122
sbsVField
p3156
g1
(g6
g7
S'PORG'
p3157
tp3158
Rp3159
(dp3160
g12
g3156
sbsVTerm
p3161
g1
(g6
g7
S'Lutjanus fulviflamma[PORG]'
p3162
tp3163
Rp3164
(dp3165
g12
g3161
sbsVExplode
p3166
g1
(g6
g7
g52
tp3167
Rp3168
(dp3169
g12
g3166
sbstp3170
Rp3171
(dp3172
g12
VTermSet
p3173
sbag1
(g2
g3
(dp3174
g3122
g1
(g6
g7
S'31479'
p3175
tp3176
Rp3177
(dp3178
g12
g3122
sbsg3156
g1
(g6
g7
S'title'
p3179
tp3180
Rp3181
(dp3182
g12
g3156
sbsg3161
g1
(g6
g7
S'RAG1[title]'
p3183
tp3184
Rp3185
(dp3186
g12
g3161
sbsg3166
g1
(g6
g7
g73
tp3187
Rp3188
(dp3189
g12
g3166
sbstp3190
Rp3191
(dp3192
g12
g3173
sbag1
(g6
g7
S'AND'
p3193
tp3194
Rp3195
(dp3196
g12
VOP
p3197
sbatp3198
Rp3199
(dp3200
g12
g3149
sbsVRetStart
p3201
g1
(g6
g7
g89
tp3202
Rp3203
(dp3204
g12
g3201
sbsVTranslationSet
p3205
g1
(g18
g19
(lp3206
tp3207
Rp3208
(dp3209
g12
g3205
sbstp3210
Rp3211
(dp3212
g12
VeSearchResult
p3213
sbag1
(g2
g3
(dp3214
VCount
p3215
g1
(g6
g7
g8
tp3216
Rp3217
(dp3218
g12
g3215
sbsVRetMax
p3219
g1
(g6
g7
g8
tp3220
Rp3221
(dp3222
g12
g3219
sbsVIdList
p3223
g1
(g18
g19
(lp3224
g1
(g6
g7
S'193875615'
p3225
tp3226
Rp3227
(dp3228
g12
VId
p3229
sbatp3230
Rp3231
(dp3232
g12
g3223
sbsVQueryTranslation
p3233
g1
(g6
g7
S'Lutjanus fulvus[PORG] AND RAG1[title]'
p3234
tp3235
Rp3236
(dp3237
g12
g3233
sbsVTranslationStack
p3238
g1
(g18
g19
(lp3239
g1
(g2
g3
(dp3240
g3215
g1
(g6
g7
S'75'
p3241
tp3242
Rp3243
(dp3244
g12
g3215
sbsVField
p3245
g1
(g6
g7
S'PORG'
p3246
tp3247
Rp3248
(dp3249
g12
g3245
sbsVTerm
p3250
g1
(g6
g7
S'Lutjanus fulvus[PORG]'
p3251
tp3252
Rp3253
(dp3254
g12
g3250
sbsVExplode
p3255
g1
(g6
g7
g52
tp3256
Rp3257
(dp3258
g12
g3255
sbstp3259
Rp3260
(dp3261
g12
VTermSet
p3262
sbag1
(g2
g3
(dp3263
g3215
g1
(g6
g7
S'31479'
p3264
tp3265
Rp3266
(dp3267
g12
g3215
sbsg3245
g1
(g6
g7
S'title'
p3268
tp3269
Rp3270
(dp3271
g12
g3245
sbsg3250
g1
(g6
g7
S'RAG1[title]'
p3272
tp3273
Rp3274
(dp3275
g12
g3250
sbsg3255
g1
(g6
g7
g73
tp3276
Rp3277
(dp3278
g12
g3255
sbstp3279
Rp3280
(dp3281
g12
g3262
sbag1
(g6
g7
S'AND'
p3282
tp3283
Rp3284
(dp3285
g12
VOP
p3286
sbatp3287
Rp3288
(dp3289
g12
g3238
sbsVRetStart
p3290
g1
(g6
g7
g89
tp3291
Rp3292
(dp3293
g12
g3290
sbsVTranslationSet
p3294
g1
(g18
g19
(lp3295
tp3296
Rp3297
(dp3298
g12
g3294
sbstp3299
Rp3300
(dp3301
g12
VeSearchResult
p3302
sbag1
(g2
g3
(dp3303
VCount
p3304
g1
(g6
g7
g89
tp3305
Rp3306
(dp3307
g12
g3304
sbsVRetMax
p3308
g1
(g6
g7
g89
tp3309
Rp3310
(dp3311
g12
g3308
sbsVIdList
p3312
g1
(g18
g19
(lp3313
tp3314
Rp3315
(dp3316
g12
g3312
sbsVRetStart
p3317
g1
(g6
g7
g89
tp3318
Rp3319
(dp3320
g12
g3317
sbsVErrorList
p3321
g1
(g1044
g3
(dp3322
VFieldNotFound
p3323
(lp3324
sVPhraseNotFound
p3325
(lp3326
g1
(g6
g7
S'Lutjanus fuscescens[PORG]'
p3327
tp3328
Rp3329
(dp3330
g12
VPhraseNotFound
p3331
sbastp3332
Rp3333
(dp3334
g12
g3321
sg1058
(lp3335
g3325
ag3323
asbsVTranslationSet
p3336
g1
(g18
g19
(lp3337
tp3338
Rp3339
(dp3340
g12
g3336
sbsVWarningList
p3341
g1
(g1044
g3
(dp3342
VOutputMessage
p3343
(lp3344
g1
(g6
g7
S'No items found.'
p3345
tp3346
Rp3347
(dp3348
g12
VOutputMessage
p3349
sbasVPhraseIgnored
p3350
(lp3351
sVQuotedPhraseNotFound
p3352
(lp3353
stp3354
Rp3355
(dp3356
g12
g3341
sg1058
(lp3357
g3350
ag3352
ag3343
asbsVQueryTranslation
p3358
g1
(g6
g7
S'Lutjanus fuscescens[PORG] AND RAG1[title]'
p3359
tp3360
Rp3361
(dp3362
g12
g3358
sbstp3363
Rp3364
(dp3365
g12
VeSearchResult
p3366
sbag1
(g2
g3
(dp3367
VCount
p3368
g1
(g6
g7
g89
tp3369
Rp3370
(dp3371
g12
g3368
sbsVRetMax
p3372
g1
(g6
g7
g89
tp3373
Rp3374
(dp3375
g12
g3372
sbsVIdList
p3376
g1
(g18
g19
(lp3377
tp3378
Rp3379
(dp3380
g12
g3376
sbsVQueryTranslation
p3381
g1
(g6
g7
S'Lutjanus gibbus[PORG] AND RAG1[title]'
p3382
tp3383
Rp3384
(dp3385
g12
g3381
sbsVTranslationStack
p3386
g1
(g18
g19
(lp3387
g1
(g2
g3
(dp3388
g3368
g1
(g6
g7
S'12'
p3389
tp3390
Rp3391
(dp3392
g12
g3368
sbsVField
p3393
g1
(g6
g7
S'PORG'
p3394
tp3395
Rp3396
(dp3397
g12
g3393
sbsVTerm
p3398
g1
(g6
g7
S'Lutjanus gibbus[PORG]'
p3399
tp3400
Rp3401
(dp3402
g12
g3398
sbsVExplode
p3403
g1
(g6
g7
g52
tp3404
Rp3405
(dp3406
g12
g3403
sbstp3407
Rp3408
(dp3409
g12
VTermSet
p3410
sbag1
(g2
g3
(dp3411
g3368
g1
(g6
g7
S'31479'
p3412
tp3413
Rp3414
(dp3415
g12
g3368
sbsg3393
g1
(g6
g7
S'title'
p3416
tp3417
Rp3418
(dp3419
g12
g3393
sbsg3398
g1
(g6
g7
S'RAG1[title]'
p3420
tp3421
Rp3422
(dp3423
g12
g3398
sbsg3403
g1
(g6
g7
g73
tp3424
Rp3425
(dp3426
g12
g3403
sbstp3427
Rp3428
(dp3429
g12
g3410
sbag1
(g6
g7
S'AND'
p3430
tp3431
Rp3432
(dp3433
g12
VOP
p3434
sbatp3435
Rp3436
(dp3437
g12
g3386
sbsVRetStart
p3438
g1
(g6
g7
g89
tp3439
Rp3440
(dp3441
g12
g3438
sbsVTranslationSet
p3442
g1
(g18
g19
(lp3443
tp3444
Rp3445
(dp3446
g12
g3442
sbstp3447
Rp3448
(dp3449
g12
VeSearchResult
p3450
sbag1
(g2
g3
(dp3451
VCount
p3452
g1
(g6
g7
g89
tp3453
Rp3454
(dp3455
g12
g3452
sbsVRetMax
p3456
g1
(g6
g7
g89
tp3457
Rp3458
(dp3459
g12
g3456
sbsVIdList
p3460
g1
(g18
g19
(lp3461
tp3462
Rp3463
(dp3464
g12
g3460
sbsVQueryTranslation
p3465
g1
(g6
g7
S'Lutjanus goldiei[PORG] AND RAG1[title]'
p3466
tp3467
Rp3468
(dp3469
g12
g3465
sbsVTranslationStack
p3470
g1
(g18
g19
(lp3471
g1
(g2
g3
(dp3472
g3452
g1
(g6
g7
g8
tp3473
Rp3474
(dp3475
g12
g3452
sbsVField
p3476
g1
(g6
g7
S'PORG'
p3477
tp3478
Rp3479
(dp3480
g12
g3476
sbsVTerm
p3481
g1
(g6
g7
S'Lutjanus goldiei[PORG]'
p3482
tp3483
Rp3484
(dp3485
g12
g3481
sbsVExplode
p3486
g1
(g6
g7
g52
tp3487
Rp3488
(dp3489
g12
g3486
sbstp3490
Rp3491
(dp3492
g12
VTermSet
p3493
sbag1
(g2
g3
(dp3494
g3452
g1
(g6
g7
S'31479'
p3495
tp3496
Rp3497
(dp3498
g12
g3452
sbsg3476
g1
(g6
g7
S'title'
p3499
tp3500
Rp3501
(dp3502
g12
g3476
sbsg3481
g1
(g6
g7
S'RAG1[title]'
p3503
tp3504
Rp3505
(dp3506
g12
g3481
sbsg3486
g1
(g6
g7
g73
tp3507
Rp3508
(dp3509
g12
g3486
sbstp3510
Rp3511
(dp3512
g12
g3493
sbag1
(g6
g7
S'AND'
p3513
tp3514
Rp3515
(dp3516
g12
VOP
p3517
sbatp3518
Rp3519
(dp3520
g12
g3470
sbsVRetStart
p3521
g1
(g6
g7
g89
tp3522
Rp3523
(dp3524
g12
g3521
sbsVTranslationSet
p3525
g1
(g18
g19
(lp3526
tp3527
Rp3528
(dp3529
g12
g3525
sbstp3530
Rp3531
(dp3532
g12
VeSearchResult
p3533
sbag1
(g2
g3
(dp3534
VCount
p3535
g1
(g6
g7
g89
tp3536
Rp3537
(dp3538
g12
g3535
sbsVRetMax
p3539
g1
(g6
g7
g89
tp3540
Rp3541
(dp3542
g12
g3539
sbsVIdList
p3543
g1
(g18
g19
(lp3544
tp3545
Rp3546
(dp3547
g12
g3543
sbsVRetStart
p3548
g1
(g6
g7
g89
tp3549
Rp3550
(dp3551
g12
g3548
sbsVErrorList
p3552
g1
(g1044
g3
(dp3553
VFieldNotFound
p3554
(lp3555
sVPhraseNotFound
p3556
(lp3557
g1
(g6
g7
S'Lutjanus goreensis[PORG]'
p3558
tp3559
Rp3560
(dp3561
g12
VPhraseNotFound
p3562
sbastp3563
Rp3564
(dp3565
g12
g3552
sg1058
(lp3566
g3556
ag3554
asbsVTranslationSet
p3567
g1
(g18
g19
(lp3568
tp3569
Rp3570
(dp3571
g12
g3567
sbsVWarningList
p3572
g1
(g1044
g3
(dp3573
VOutputMessage
p3574
(lp3575
g1
(g6
g7
S'No items found.'
p3576
tp3577
Rp3578
(dp3579
g12
VOutputMessage
p3580
sbasVPhraseIgnored
p3581
(lp3582
sVQuotedPhraseNotFound
p3583
(lp3584
stp3585
Rp3586
(dp3587
g12
g3572
sg1058
(lp3588
g3581
ag3583
ag3574
asbsVQueryTranslation
p3589
g1
(g6
g7
S'Lutjanus goreensis[PORG] AND RAG1[title]'
p3590
tp3591
Rp3592
(dp3593
g12
g3589
sbstp3594
Rp3595
(dp3596
g12
VeSearchResult
p3597
sbag1
(g2
g3
(dp3598
VCount
p3599
g1
(g6
g7
g8
tp3600
Rp3601
(dp3602
g12
g3599
sbsVRetMax
p3603
g1
(g6
g7
g8
tp3604
Rp3605
(dp3606
g12
g3603
sbsVIdList
p3607
g1
(g18
g19
(lp3608
g1
(g6
g7
S'531996101'
p3609
tp3610
Rp3611
(dp3612
g12
VId
p3613
sbatp3614
Rp3615
(dp3616
g12
g3607
sbsVQueryTranslation
p3617
g1
(g6
g7
S'Lutjanus griseus[PORG] AND RAG1[title]'
p3618
tp3619
Rp3620
(dp3621
g12
g3617
sbsVTranslationStack
p3622
g1
(g18
g19
(lp3623
g1
(g2
g3
(dp3624
g3599
g1
(g6
g7
S'116'
p3625
tp3626
Rp3627
(dp3628
g12
g3599
sbsVField
p3629
g1
(g6
g7
S'PORG'
p3630
tp3631
Rp3632
(dp3633
g12
g3629
sbsVTerm
p3634
g1
(g6
g7
S'Lutjanus griseus[PORG]'
p3635
tp3636
Rp3637
(dp3638
g12
g3634
sbsVExplode
p3639
g1
(g6
g7
g52
tp3640
Rp3641
(dp3642
g12
g3639
sbstp3643
Rp3644
(dp3645
g12
VTermSet
p3646
sbag1
(g2
g3
(dp3647
g3599
g1
(g6
g7
S'31479'
p3648
tp3649
Rp3650
(dp3651
g12
g3599
sbsg3629
g1
(g6
g7
S'title'
p3652
tp3653
Rp3654
(dp3655
g12
g3629
sbsg3634
g1
(g6
g7
S'RAG1[title]'
p3656
tp3657
Rp3658
(dp3659
g12
g3634
sbsg3639
g1
(g6
g7
g73
tp3660
Rp3661
(dp3662
g12
g3639
sbstp3663
Rp3664
(dp3665
g12
g3646
sbag1
(g6
g7
S'AND'
p3666
tp3667
Rp3668
(dp3669
g12
VOP
p3670
sbatp3671
Rp3672
(dp3673
g12
g3622
sbsVRetStart
p3674
g1
(g6
g7
g89
tp3675
Rp3676
(dp3677
g12
g3674
sbsVTranslationSet
p3678
g1
(g18
g19
(lp3679
tp3680
Rp3681
(dp3682
g12
g3678
sbstp3683
Rp3684
(dp3685
g12
VeSearchResult
p3686
sbag1
(g2
g3
(dp3687
VCount
p3688
g1
(g6
g7
g89
tp3689
Rp3690
(dp3691
g12
g3688
sbsVRetMax
p3692
g1
(g6
g7
g89
tp3693
Rp3694
(dp3695
g12
g3692
sbsVIdList
p3696
g1
(g18
g19
(lp3697
tp3698
Rp3699
(dp3700
g12
g3696
sbsVRetStart
p3701
g1
(g6
g7
g89
tp3702
Rp3703
(dp3704
g12
g3701
sbsVErrorList
p3705
g1
(g1044
g3
(dp3706
VFieldNotFound
p3707
(lp3708
sVPhraseNotFound
p3709
(lp3710
g1
(g6
g7
S'Lutjanus guilcheri[PORG]'
p3711
tp3712
Rp3713
(dp3714
g12
VPhraseNotFound
p3715
sbastp3716
Rp3717
(dp3718
g12
g3705
sg1058
(lp3719
g3709
ag3707
asbsVTranslationSet
p3720
g1
(g18
g19
(lp3721
tp3722
Rp3723
(dp3724
g12
g3720
sbsVWarningList
p3725
g1
(g1044
g3
(dp3726
VOutputMessage
p3727
(lp3728
g1
(g6
g7
S'No items found.'
p3729
tp3730
Rp3731
(dp3732
g12
VOutputMessage
p3733
sbasVPhraseIgnored
p3734
(lp3735
sVQuotedPhraseNotFound
p3736
(lp3737
stp3738
Rp3739
(dp3740
g12
g3725
sg1058
(lp3741
g3734
ag3736
ag3727
asbsVQueryTranslation
p3742
g1
(g6
g7
S'Lutjanus guilcheri[PORG] AND RAG1[title]'
p3743
tp3744
Rp3745
(dp3746
g12
g3742
sbstp3747
Rp3748
(dp3749
g12
VeSearchResult
p3750
sbag1
(g2
g3
(dp3751
VCount
p3752
g1
(g6
g7
g89
tp3753
Rp3754
(dp3755
g12
g3752
sbsVRetMax
p3756
g1
(g6
g7
g89
tp3757
Rp3758
(dp3759
g12
g3756
sbsVIdList
p3760
g1
(g18
g19
(lp3761
tp3762
Rp3763
(dp3764
g12
g3760
sbsVQueryTranslation
p3765
g1
(g6
g7
S'Lutjanus guttatus[PORG] AND RAG1[title]'
p3766
tp3767
Rp3768
(dp3769
g12
g3765
sbsVTranslationStack
p3770
g1
(g18
g19
(lp3771
g1
(g2
g3
(dp3772
g3752
g1
(g6
g7
S'27'
p3773
tp3774
Rp3775
(dp3776
g12
g3752
sbsVField
p3777
g1
(g6
g7
S'PORG'
p3778
tp3779
Rp3780
(dp3781
g12
g3777
sbsVTerm
p3782
g1
(g6
g7
S'Lutjanus guttatus[PORG]'
p3783
tp3784
Rp3785
(dp3786
g12
g3782
sbsVExplode
p3787
g1
(g6
g7
g52
tp3788
Rp3789
(dp3790
g12
g3787
sbstp3791
Rp3792
(dp3793
g12
VTermSet
p3794
sbag1
(g2
g3
(dp3795
g3752
g1
(g6
g7
S'31479'
p3796
tp3797
Rp3798
(dp3799
g12
g3752
sbsg3777
g1
(g6
g7
S'title'
p3800
tp3801
Rp3802
(dp3803
g12
g3777
sbsg3782
g1
(g6
g7
S'RAG1[title]'
p3804
tp3805
Rp3806
(dp3807
g12
g3782
sbsg3787
g1
(g6
g7
g73
tp3808
Rp3809
(dp3810
g12
g3787
sbstp3811
Rp3812
(dp3813
g12
g3794
sbag1
(g6
g7
S'AND'
p3814
tp3815
Rp3816
(dp3817
g12
VOP
p3818
sbatp3819
Rp3820
(dp3821
g12
g3770
sbsVRetStart
p3822
g1
(g6
g7
g89
tp3823
Rp3824
(dp3825
g12
g3822
sbsVTranslationSet
p3826
g1
(g18
g19
(lp3827
tp3828
Rp3829
(dp3830
g12
g3826
sbstp3831
Rp3832
(dp3833
g12
VeSearchResult
p3834
sbag1
(g2
g3
(dp3835
VCount
p3836
g1
(g6
g7
g89
tp3837
Rp3838
(dp3839
g12
g3836
sbsVRetMax
p3840
g1
(g6
g7
g89
tp3841
Rp3842
(dp3843
g12
g3840
sbsVIdList
p3844
g1
(g18
g19
(lp3845
tp3846
Rp3847
(dp3848
g12
g3844
sbsVQueryTranslation
p3849
g1
(g6
g7
S'Lutjanus indicus[PORG] AND RAG1[title]'
p3850
tp3851
Rp3852
(dp3853
g12
g3849
sbsVTranslationStack
p3854
g1
(g18
g19
(lp3855
g1
(g2
g3
(dp3856
g3836
g1
(g6
g7
S'67'
p3857
tp3858
Rp3859
(dp3860
g12
g3836
sbsVField
p3861
g1
(g6
g7
S'PORG'
p3862
tp3863
Rp3864
(dp3865
g12
g3861
sbsVTerm
p3866
g1
(g6
g7
S'Lutjanus indicus[PORG]'
p3867
tp3868
Rp3869
(dp3870
g12
g3866
sbsVExplode
p3871
g1
(g6
g7
g52
tp3872
Rp3873
(dp3874
g12
g3871
sbstp3875
Rp3876
(dp3877
g12
VTermSet
p3878
sbag1
(g2
g3
(dp3879
g3836
g1
(g6
g7
S'31479'
p3880
tp3881
Rp3882
(dp3883
g12
g3836
sbsg3861
g1
(g6
g7
S'title'
p3884
tp3885
Rp3886
(dp3887
g12
g3861
sbsg3866
g1
(g6
g7
S'RAG1[title]'
p3888
tp3889
Rp3890
(dp3891
g12
g3866
sbsg3871
g1
(g6
g7
g73
tp3892
Rp3893
(dp3894
g12
g3871
sbstp3895
Rp3896
(dp3897
g12
g3878
sbag1
(g6
g7
S'AND'
p3898
tp3899
Rp3900
(dp3901
g12
VOP
p3902
sbatp3903
Rp3904
(dp3905
g12
g3854
sbsVRetStart
p3906
g1
(g6
g7
g89
tp3907
Rp3908
(dp3909
g12
g3906
sbsVTranslationSet
p3910
g1
(g18
g19
(lp3911
tp3912
Rp3913
(dp3914
g12
g3910
sbstp3915
Rp3916
(dp3917
g12
VeSearchResult
p3918
sbag1
(g2
g3
(dp3919
VCount
p3920
g1
(g6
g7
g89
tp3921
Rp3922
(dp3923
g12
g3920
sbsVRetMax
p3924
g1
(g6
g7
g89
tp3925
Rp3926
(dp3927
g12
g3924
sbsVIdList
p3928
g1
(g18
g19
(lp3929
tp3930
Rp3931
(dp3932
g12
g3928
sbsVQueryTranslation
p3933
g1
(g6
g7
S'Lutjanus inermis[PORG] AND RAG1[title]'
p3934
tp3935
Rp3936
(dp3937
g12
g3933
sbsVTranslationStack
p3938
g1
(g18
g19
(lp3939
g1
(g2
g3
(dp3940
g3920
g1
(g6
g7
g796
tp3941
Rp3942
(dp3943
g12
g3920
sbsVField
p3944
g1
(g6
g7
S'PORG'
p3945
tp3946
Rp3947
(dp3948
g12
g3944
sbsVTerm
p3949
g1
(g6
g7
S'Lutjanus inermis[PORG]'
p3950
tp3951
Rp3952
(dp3953
g12
g3949
sbsVExplode
p3954
g1
(g6
g7
g52
tp3955
Rp3956
(dp3957
g12
g3954
sbstp3958
Rp3959
(dp3960
g12
VTermSet
p3961
sbag1
(g2
g3
(dp3962
g3920
g1
(g6
g7
S'31479'
p3963
tp3964
Rp3965
(dp3966
g12
g3920
sbsg3944
g1
(g6
g7
S'title'
p3967
tp3968
Rp3969
(dp3970
g12
g3944
sbsg3949
g1
(g6
g7
S'RAG1[title]'
p3971
tp3972
Rp3973
(dp3974
g12
g3949
sbsg3954
g1
(g6
g7
g73
tp3975
Rp3976
(dp3977
g12
g3954
sbstp3978
Rp3979
(dp3980
g12
g3961
sbag1
(g6
g7
S'AND'
p3981
tp3982
Rp3983
(dp3984
g12
VOP
p3985
sbatp3986
Rp3987
(dp3988
g12
g3938
sbsVRetStart
p3989
g1
(g6
g7
g89
tp3990
Rp3991
(dp3992
g12
g3989
sbsVTranslationSet
p3993
g1
(g18
g19
(lp3994
tp3995
Rp3996
(dp3997
g12
g3993
sbstp3998
Rp3999
(dp4000
g12
VeSearchResult
p4001
sbag1
(g2
g3
(dp4002
VCount
p4003
g1
(g6
g7
g89
tp4004
Rp4005
(dp4006
g12
g4003
sbsVRetMax
p4007
g1
(g6
g7
g89
tp4008
Rp4009
(dp4010
g12
g4007
sbsVIdList
p4011
g1
(g18
g19
(lp4012
tp4013
Rp4014
(dp4015
g12
g4011
sbsVQueryTranslation
p4016
g1
(g6
g7
S'Lutjanus jocu[PORG] AND RAG1[title]'
p4017
tp4018
Rp4019
(dp4020
g12
g4016
sbsVTranslationStack
p4021
g1
(g18
g19
(lp4022
g1
(g2
g3
(dp4023
g4003
g1
(g6
g7
S'45'
p4024
tp4025
Rp4026
(dp4027
g12
g4003
sbsVField
p4028
g1
(g6
g7
S'PORG'
p4029
tp4030
Rp4031
(dp4032
g12
g4028
sbsVTerm
p4033
g1
(g6
g7
S'Lutjanus jocu[PORG]'
p4034
tp4035
Rp4036
(dp4037
g12
g4033
sbsVExplode
p4038
g1
(g6
g7
g52
tp4039
Rp4040
(dp4041
g12
g4038
sbstp4042
Rp4043
(dp4044
g12
VTermSet
p4045
sbag1
(g2
g3
(dp4046
g4003
g1
(g6
g7
S'31479'
p4047
tp4048
Rp4049
(dp4050
g12
g4003
sbsg4028
g1
(g6
g7
S'title'
p4051
tp4052
Rp4053
(dp4054
g12
g4028
sbsg4033
g1
(g6
g7
S'RAG1[title]'
p4055
tp4056
Rp4057
(dp4058
g12
g4033
sbsg4038
g1
(g6
g7
g73
tp4059
Rp4060
(dp4061
g12
g4038
sbstp4062
Rp4063
(dp4064
g12
g4045
sbag1
(g6
g7
S'AND'
p4065
tp4066
Rp4067
(dp4068
g12
VOP
p4069
sbatp4070
Rp4071
(dp4072
g12
g4021
sbsVRetStart
p4073
g1
(g6
g7
g89
tp4074
Rp4075
(dp4076
g12
g4073
sbsVTranslationSet
p4077
g1
(g18
g19
(lp4078
tp4079
Rp4080
(dp4081
g12
g4077
sbstp4082
Rp4083
(dp4084
g12
VeSearchResult
p4085
sbag1
(g2
g3
(dp4086
VCount
p4087
g1
(g6
g7
g8
tp4088
Rp4089
(dp4090
g12
g4087
sbsVRetMax
p4091
g1
(g6
g7
g8
tp4092
Rp4093
(dp4094
g12
g4091
sbsVIdList
p4095
g1
(g18
g19
(lp4096
g1
(g6
g7
S'193875597'
p4097
tp4098
Rp4099
(dp4100
g12
VId
p4101
sbatp4102
Rp4103
(dp4104
g12
g4095
sbsVQueryTranslation
p4105
g1
(g6
g7
S'Lutjanus johnii[PORG] AND RAG1[title]'
p4106
tp4107
Rp4108
(dp4109
g12
g4105
sbsVTranslationStack
p4110
g1
(g18
g19
(lp4111
g1
(g2
g3
(dp4112
g4087
g1
(g6
g7
S'145'
p4113
tp4114
Rp4115
(dp4116
g12
g4087
sbsVField
p4117
g1
(g6
g7
S'PORG'
p4118
tp4119
Rp4120
(dp4121
g12
g4117
sbsVTerm
p4122
g1
(g6
g7
S'Lutjanus johnii[PORG]'
p4123
tp4124
Rp4125
(dp4126
g12
g4122
sbsVExplode
p4127
g1
(g6
g7
g52
tp4128
Rp4129
(dp4130
g12
g4127
sbstp4131
Rp4132
(dp4133
g12
VTermSet
p4134
sbag1
(g2
g3
(dp4135
g4087
g1
(g6
g7
S'31479'
p4136
tp4137
Rp4138
(dp4139
g12
g4087
sbsg4117
g1
(g6
g7
S'title'
p4140
tp4141
Rp4142
(dp4143
g12
g4117
sbsg4122
g1
(g6
g7
S'RAG1[title]'
p4144
tp4145
Rp4146
(dp4147
g12
g4122
sbsg4127
g1
(g6
g7
g73
tp4148
Rp4149
(dp4150
g12
g4127
sbstp4151
Rp4152
(dp4153
g12
g4134
sbag1
(g6
g7
S'AND'
p4154
tp4155
Rp4156
(dp4157
g12
VOP
p4158
sbatp4159
Rp4160
(dp4161
g12
g4110
sbsVRetStart
p4162
g1
(g6
g7
g89
tp4163
Rp4164
(dp4165
g12
g4162
sbsVTranslationSet
p4166
g1
(g18
g19
(lp4167
tp4168
Rp4169
(dp4170
g12
g4166
sbstp4171
Rp4172
(dp4173
g12
VeSearchResult
p4174
sbag1
(g2
g3
(dp4175
VCount
p4176
g1
(g6
g7
g89
tp4177
Rp4178
(dp4179
g12
g4176
sbsVRetMax
p4180
g1
(g6
g7
g89
tp4181
Rp4182
(dp4183
g12
g4180
sbsVIdList
p4184
g1
(g18
g19
(lp4185
tp4186
Rp4187
(dp4188
g12
g4184
sbsVRetStart
p4189
g1
(g6
g7
g89
tp4190
Rp4191
(dp4192
g12
g4189
sbsVErrorList
p4193
g1
(g1044
g3
(dp4194
VFieldNotFound
p4195
(lp4196
sVPhraseNotFound
p4197
(lp4198
g1
(g6
g7
S'Lutjanus jordani[PORG]'
p4199
tp4200
Rp4201
(dp4202
g12
VPhraseNotFound
p4203
sbastp4204
Rp4205
(dp4206
g12
g4193
sg1058
(lp4207
g4197
ag4195
asbsVTranslationSet
p4208
g1
(g18
g19
(lp4209
tp4210
Rp4211
(dp4212
g12
g4208
sbsVWarningList
p4213
g1
(g1044
g3
(dp4214
VOutputMessage
p4215
(lp4216
g1
(g6
g7
S'No items found.'
p4217
tp4218
Rp4219
(dp4220
g12
VOutputMessage
p4221
sbasVPhraseIgnored
p4222
(lp4223
sVQuotedPhraseNotFound
p4224
(lp4225
stp4226
Rp4227
(dp4228
g12
g4213
sg1058
(lp4229
g4222
ag4224
ag4215
asbsVQueryTranslation
p4230
g1
(g6
g7
S'Lutjanus jordani[PORG] AND RAG1[title]'
p4231
tp4232
Rp4233
(dp4234
g12
g4230
sbstp4235
Rp4236
(dp4237
g12
VeSearchResult
p4238
sbag1
(g2
g3
(dp4239
VCount
p4240
g1
(g6
g7
g8
tp4241
Rp4242
(dp4243
g12
g4240
sbsVRetMax
p4244
g1
(g6
g7
g8
tp4245
Rp4246
(dp4247
g12
g4244
sbsVIdList
p4248
g1
(g18
g19
(lp4249
g1
(g6
g7
S'193875599'
p4250
tp4251
Rp4252
(dp4253
g12
VId
p4254
sbatp4255
Rp4256
(dp4257
g12
g4248
sbsVQueryTranslation
p4258
g1
(g6
g7
S'Lutjanus kasmira[PORG] AND RAG1[title]'
p4259
tp4260
Rp4261
(dp4262
g12
g4258
sbsVTranslationStack
p4263
g1
(g18
g19
(lp4264
g1
(g2
g3
(dp4265
g4240
g1
(g6
g7
S'573'
p4266
tp4267
Rp4268
(dp4269
g12
g4240
sbsVField
p4270
g1
(g6
g7
S'PORG'
p4271
tp4272
Rp4273
(dp4274
g12
g4270
sbsVTerm
p4275
g1
(g6
g7
S'Lutjanus kasmira[PORG]'
p4276
tp4277
Rp4278
(dp4279
g12
g4275
sbsVExplode
p4280
g1
(g6
g7
g52
tp4281
Rp4282
(dp4283
g12
g4280
sbstp4284
Rp4285
(dp4286
g12
VTermSet
p4287
sbag1
(g2
g3
(dp4288
g4240
g1
(g6
g7
S'31479'
p4289
tp4290
Rp4291
(dp4292
g12
g4240
sbsg4270
g1
(g6
g7
S'title'
p4293
tp4294
Rp4295
(dp4296
g12
g4270
sbsg4275
g1
(g6
g7
S'RAG1[title]'
p4297
tp4298
Rp4299
(dp4300
g12
g4275
sbsg4280
g1
(g6
g7
g73
tp4301
Rp4302
(dp4303
g12
g4280
sbstp4304
Rp4305
(dp4306
g12
g4287
sbag1
(g6
g7
S'AND'
p4307
tp4308
Rp4309
(dp4310
g12
VOP
p4311
sbatp4312
Rp4313
(dp4314
g12
g4263
sbsVRetStart
p4315
g1
(g6
g7
g89
tp4316
Rp4317
(dp4318
g12
g4315
sbsVTranslationSet
p4319
g1
(g18
g19
(lp4320
tp4321
Rp4322
(dp4323
g12
g4319
sbstp4324
Rp4325
(dp4326
g12
VeSearchResult
p4327
sbag1
(g2
g3
(dp4328
VCount
p4329
g1
(g6
g7
g89
tp4330
Rp4331
(dp4332
g12
g4329
sbsVRetMax
p4333
g1
(g6
g7
g89
tp4334
Rp4335
(dp4336
g12
g4333
sbsVIdList
p4337
g1
(g18
g19
(lp4338
tp4339
Rp4340
(dp4341
g12
g4337
sbsVQueryTranslation
p4342
g1
(g6
g7
S'Lutjanus lemniscatus[PORG] AND RAG1[title]'
p4343
tp4344
Rp4345
(dp4346
g12
g4342
sbsVTranslationStack
p4347
g1
(g18
g19
(lp4348
g1
(g2
g3
(dp4349
g4329
g1
(g6
g7
g963
tp4350
Rp4351
(dp4352
g12
g4329
sbsVField
p4353
g1
(g6
g7
S'PORG'
p4354
tp4355
Rp4356
(dp4357
g12
g4353
sbsVTerm
p4358
g1
(g6
g7
S'Lutjanus lemniscatus[PORG]'
p4359
tp4360
Rp4361
(dp4362
g12
g4358
sbsVExplode
p4363
g1
(g6
g7
g52
tp4364
Rp4365
(dp4366
g12
g4363
sbstp4367
Rp4368
(dp4369
g12
VTermSet
p4370
sbag1
(g2
g3
(dp4371
g4329
g1
(g6
g7
S'31479'
p4372
tp4373
Rp4374
(dp4375
g12
g4329
sbsg4353
g1
(g6
g7
S'title'
p4376
tp4377
Rp4378
(dp4379
g12
g4353
sbsg4358
g1
(g6
g7
S'RAG1[title]'
p4380
tp4381
Rp4382
(dp4383
g12
g4358
sbsg4363
g1
(g6
g7
g73
tp4384
Rp4385
(dp4386
g12
g4363
sbstp4387
Rp4388
(dp4389
g12
g4370
sbag1
(g6
g7
S'AND'
p4390
tp4391
Rp4392
(dp4393
g12
VOP
p4394
sbatp4395
Rp4396
(dp4397
g12
g4347
sbsVRetStart
p4398
g1
(g6
g7
g89
tp4399
Rp4400
(dp4401
g12
g4398
sbsVTranslationSet
p4402
g1
(g18
g19
(lp4403
tp4404
Rp4405
(dp4406
g12
g4402
sbstp4407
Rp4408
(dp4409
g12
VeSearchResult
p4410
sbag1
(g2
g3
(dp4411
VCount
p4412
g1
(g6
g7
g89
tp4413
Rp4414
(dp4415
g12
g4412
sbsVRetMax
p4416
g1
(g6
g7
g89
tp4417
Rp4418
(dp4419
g12
g4416
sbsVIdList
p4420
g1
(g18
g19
(lp4421
tp4422
Rp4423
(dp4424
g12
g4420
sbsVQueryTranslation
p4425
g1
(g6
g7
S'Lutjanus lunulatus[PORG] AND RAG1[title]'
p4426
tp4427
Rp4428
(dp4429
g12
g4425
sbsVTranslationStack
p4430
g1
(g18
g19
(lp4431
g1
(g2
g3
(dp4432
g4412
g1
(g6
g7
g1221
tp4433
Rp4434
(dp4435
g12
g4412
sbsVField
p4436
g1
(g6
g7
S'PORG'
p4437
tp4438
Rp4439
(dp4440
g12
g4436
sbsVTerm
p4441
g1
(g6
g7
S'Lutjanus lunulatus[PORG]'
p4442
tp4443
Rp4444
(dp4445
g12
g4441
sbsVExplode
p4446
g1
(g6
g7
g52
tp4447
Rp4448
(dp4449
g12
g4446
sbstp4450
Rp4451
(dp4452
g12
VTermSet
p4453
sbag1
(g2
g3
(dp4454
g4412
g1
(g6
g7
S'31479'
p4455
tp4456
Rp4457
(dp4458
g12
g4412
sbsg4436
g1
(g6
g7
S'title'
p4459
tp4460
Rp4461
(dp4462
g12
g4436
sbsg4441
g1
(g6
g7
S'RAG1[title]'
p4463
tp4464
Rp4465
(dp4466
g12
g4441
sbsg4446
g1
(g6
g7
g73
tp4467
Rp4468
(dp4469
g12
g4446
sbstp4470
Rp4471
(dp4472
g12
g4453
sbag1
(g6
g7
S'AND'
p4473
tp4474
Rp4475
(dp4476
g12
VOP
p4477
sbatp4478
Rp4479
(dp4480
g12
g4430
sbsVRetStart
p4481
g1
(g6
g7
g89
tp4482
Rp4483
(dp4484
g12
g4481
sbsVTranslationSet
p4485
g1
(g18
g19
(lp4486
tp4487
Rp4488
(dp4489
g12
g4485
sbstp4490
Rp4491
(dp4492
g12
VeSearchResult
p4493
sbag1
(g2
g3
(dp4494
VCount
p4495
g1
(g6
g7
g8
tp4496
Rp4497
(dp4498
g12
g4495
sbsVRetMax
p4499
g1
(g6
g7
g8
tp4500
Rp4501
(dp4502
g12
g4499
sbsVIdList
p4503
g1
(g18
g19
(lp4504
g1
(g6
g7
S'193875601'
p4505
tp4506
Rp4507
(dp4508
g12
VId
p4509
sbatp4510
Rp4511
(dp4512
g12
g4503
sbsVQueryTranslation
p4513
g1
(g6
g7
S'Lutjanus lutjanus[PORG] AND RAG1[title]'
p4514
tp4515
Rp4516
(dp4517
g12
g4513
sbsVTranslationStack
p4518
g1
(g18
g19
(lp4519
g1
(g2
g3
(dp4520
g4495
g1
(g6
g7
S'43'
p4521
tp4522
Rp4523
(dp4524
g12
g4495
sbsVField
p4525
g1
(g6
g7
S'PORG'
p4526
tp4527
Rp4528
(dp4529
g12
g4525
sbsVTerm
p4530
g1
(g6
g7
S'Lutjanus lutjanus[PORG]'
p4531
tp4532
Rp4533
(dp4534
g12
g4530
sbsVExplode
p4535
g1
(g6
g7
g52
tp4536
Rp4537
(dp4538
g12
g4535
sbstp4539
Rp4540
(dp4541
g12
VTermSet
p4542
sbag1
(g2
g3
(dp4543
g4495
g1
(g6
g7
S'31479'
p4544
tp4545
Rp4546
(dp4547
g12
g4495
sbsg4525
g1
(g6
g7
S'title'
p4548
tp4549
Rp4550
(dp4551
g12
g4525
sbsg4530
g1
(g6
g7
S'RAG1[title]'
p4552
tp4553
Rp4554
(dp4555
g12
g4530
sbsg4535
g1
(g6
g7
g73
tp4556
Rp4557
(dp4558
g12
g4535
sbstp4559
Rp4560
(dp4561
g12
g4542
sbag1
(g6
g7
S'AND'
p4562
tp4563
Rp4564
(dp4565
g12
VOP
p4566
sbatp4567
Rp4568
(dp4569
g12
g4518
sbsVRetStart
p4570
g1
(g6
g7
g89
tp4571
Rp4572
(dp4573
g12
g4570
sbsVTranslationSet
p4574
g1
(g18
g19
(lp4575
tp4576
Rp4577
(dp4578
g12
g4574
sbstp4579
Rp4580
(dp4581
g12
VeSearchResult
p4582
sbag1
(g2
g3
(dp4583
VCount
p4584
g1
(g6
g7
g89
tp4585
Rp4586
(dp4587
g12
g4584
sbsVRetMax
p4588
g1
(g6
g7
g89
tp4589
Rp4590
(dp4591
g12
g4588
sbsVIdList
p4592
g1
(g18
g19
(lp4593
tp4594
Rp4595
(dp4596
g12
g4592
sbsVQueryTranslation
p4597
g1
(g6
g7
S'Lutjanus madras[PORG] AND RAG1[title]'
p4598
tp4599
Rp4600
(dp4601
g12
g4597
sbsVTranslationStack
p4602
g1
(g18
g19
(lp4603
g1
(g2
g3
(dp4604
g4584
g1
(g6
g7
S'15'
p4605
tp4606
Rp4607
(dp4608
g12
g4584
sbsVField
p4609
g1
(g6
g7
S'PORG'
p4610
tp4611
Rp4612
(dp4613
g12
g4609
sbsVTerm
p4614
g1
(g6
g7
S'Lutjanus madras[PORG]'
p4615
tp4616
Rp4617
(dp4618
g12
g4614
sbsVExplode
p4619
g1
(g6
g7
g52
tp4620
Rp4621
(dp4622
g12
g4619
sbstp4623
Rp4624
(dp4625
g12
VTermSet
p4626
sbag1
(g2
g3
(dp4627
g4584
g1
(g6
g7
S'31479'
p4628
tp4629
Rp4630
(dp4631
g12
g4584
sbsg4609
g1
(g6
g7
S'title'
p4632
tp4633
Rp4634
(dp4635
g12
g4609
sbsg4614
g1
(g6
g7
S'RAG1[title]'
p4636
tp4637
Rp4638
(dp4639
g12
g4614
sbsg4619
g1
(g6
g7
g73
tp4640
Rp4641
(dp4642
g12
g4619
sbstp4643
Rp4644
(dp4645
g12
g4626
sbag1
(g6
g7
S'AND'
p4646
tp4647
Rp4648
(dp4649
g12
VOP
p4650
sbatp4651
Rp4652
(dp4653
g12
g4602
sbsVRetStart
p4654
g1
(g6
g7
g89
tp4655
Rp4656
(dp4657
g12
g4654
sbsVTranslationSet
p4658
g1
(g18
g19
(lp4659
tp4660
Rp4661
(dp4662
g12
g4658
sbstp4663
Rp4664
(dp4665
g12
VeSearchResult
p4666
sbag1
(g2
g3
(dp4667
VCount
p4668
g1
(g6
g7
g8
tp4669
Rp4670
(dp4671
g12
g4668
sbsVRetMax
p4672
g1
(g6
g7
g8
tp4673
Rp4674
(dp4675
g12
g4672
sbsVIdList
p4676
g1
(g18
g19
(lp4677
g1
(g6
g7
S'164417778'
p4678
tp4679
Rp4680
(dp4681
g12
VId
p4682
sbatp4683
Rp4684
(dp4685
g12
g4676
sbsVQueryTranslation
p4686
g1
(g6
g7
S'Lutjanus mahogoni[PORG] AND RAG1[title]'
p4687
tp4688
Rp4689
(dp4690
g12
g4686
sbsVTranslationStack
p4691
g1
(g18
g19
(lp4692
g1
(g2
g3
(dp4693
g4668
g1
(g6
g7
S'40'
p4694
tp4695
Rp4696
(dp4697
g12
g4668
sbsVField
p4698
g1
(g6
g7
S'PORG'
p4699
tp4700
Rp4701
(dp4702
g12
g4698
sbsVTerm
p4703
g1
(g6
g7
S'Lutjanus mahogoni[PORG]'
p4704
tp4705
Rp4706
(dp4707
g12
g4703
sbsVExplode
p4708
g1
(g6
g7
g52
tp4709
Rp4710
(dp4711
g12
g4708
sbstp4712
Rp4713
(dp4714
g12
VTermSet
p4715
sbag1
(g2
g3
(dp4716
g4668
g1
(g6
g7
S'31479'
p4717
tp4718
Rp4719
(dp4720
g12
g4668
sbsg4698
g1
(g6
g7
S'title'
p4721
tp4722
Rp4723
(dp4724
g12
g4698
sbsg4703
g1
(g6
g7
S'RAG1[title]'
p4725
tp4726
Rp4727
(dp4728
g12
g4703
sbsg4708
g1
(g6
g7
g73
tp4729
Rp4730
(dp4731
g12
g4708
sbstp4732
Rp4733
(dp4734
g12
g4715
sbag1
(g6
g7
S'AND'
p4735
tp4736
Rp4737
(dp4738
g12
VOP
p4739
sbatp4740
Rp4741
(dp4742
g12
g4691
sbsVRetStart
p4743
g1
(g6
g7
g89
tp4744
Rp4745
(dp4746
g12
g4743
sbsVTranslationSet
p4747
g1
(g18
g19
(lp4748
tp4749
Rp4750
(dp4751
g12
g4747
sbstp4752
Rp4753
(dp4754
g12
VeSearchResult
p4755
sbag1
(g2
g3
(dp4756
VCount
p4757
g1
(g6
g7
g8
tp4758
Rp4759
(dp4760
g12
g4757
sbsVRetMax
p4761
g1
(g6
g7
g8
tp4762
Rp4763
(dp4764
g12
g4761
sbsVIdList
p4765
g1
(g18
g19
(lp4766
g1
(g6
g7
S'193875603'
p4767
tp4768
Rp4769
(dp4770
g12
VId
p4771
sbatp4772
Rp4773
(dp4774
g12
g4765
sbsVQueryTranslation
p4775
g1
(g6
g7
S'Lutjanus malabaricus[PORG] AND RAG1[title]'
p4776
tp4777
Rp4778
(dp4779
g12
g4775
sbsVTranslationStack
p4780
g1
(g18
g19
(lp4781
g1
(g2
g3
(dp4782
g4757
g1
(g6
g7
S'49'
p4783
tp4784
Rp4785
(dp4786
g12
g4757
sbsVField
p4787
g1
(g6
g7
S'PORG'
p4788
tp4789
Rp4790
(dp4791
g12
g4787
sbsVTerm
p4792
g1
(g6
g7
S'Lutjanus malabaricus[PORG]'
p4793
tp4794
Rp4795
(dp4796
g12
g4792
sbsVExplode
p4797
g1
(g6
g7
g52
tp4798
Rp4799
(dp4800
g12
g4797
sbstp4801
Rp4802
(dp4803
g12
VTermSet
p4804
sbag1
(g2
g3
(dp4805
g4757
g1
(g6
g7
S'31479'
p4806
tp4807
Rp4808
(dp4809
g12
g4757
sbsg4787
g1
(g6
g7
S'title'
p4810
tp4811
Rp4812
(dp4813
g12
g4787
sbsg4792
g1
(g6
g7
S'RAG1[title]'
p4814
tp4815
Rp4816
(dp4817
g12
g4792
sbsg4797
g1
(g6
g7
g73
tp4818
Rp4819
(dp4820
g12
g4797
sbstp4821
Rp4822
(dp4823
g12
g4804
sbag1
(g6
g7
S'AND'
p4824
tp4825
Rp4826
(dp4827
g12
VOP
p4828
sbatp4829
Rp4830
(dp4831
g12
g4780
sbsVRetStart
p4832
g1
(g6
g7
g89
tp4833
Rp4834
(dp4835
g12
g4832
sbsVTranslationSet
p4836
g1
(g18
g19
(lp4837
tp4838
Rp4839
(dp4840
g12
g4836
sbstp4841
Rp4842
(dp4843
g12
VeSearchResult
p4844
sbag1
(g2
g3
(dp4845
VCount
p4846
g1
(g6
g7
g89
tp4847
Rp4848
(dp4849
g12
g4846
sbsVRetMax
p4850
g1
(g6
g7
g89
tp4851
Rp4852
(dp4853
g12
g4850
sbsVIdList
p4854
g1
(g18
g19
(lp4855
tp4856
Rp4857
(dp4858
g12
g4854
sbsVRetStart
p4859
g1
(g6
g7
g89
tp4860
Rp4861
(dp4862
g12
g4859
sbsVErrorList
p4863
g1
(g1044
g3
(dp4864
VFieldNotFound
p4865
(lp4866
sVPhraseNotFound
p4867
(lp4868
g1
(g6
g7
S'Lutjanus maxweberi[PORG]'
p4869
tp4870
Rp4871
(dp4872
g12
VPhraseNotFound
p4873
sbastp4874
Rp4875
(dp4876
g12
g4863
sg1058
(lp4877
g4867
ag4865
asbsVTranslationSet
p4878
g1
(g18
g19
(lp4879
tp4880
Rp4881
(dp4882
g12
g4878
sbsVWarningList
p4883
g1
(g1044
g3
(dp4884
VOutputMessage
p4885
(lp4886
g1
(g6
g7
S'No items found.'
p4887
tp4888
Rp4889
(dp4890
g12
VOutputMessage
p4891
sbasVPhraseIgnored
p4892
(lp4893
sVQuotedPhraseNotFound
p4894
(lp4895
stp4896
Rp4897
(dp4898
g12
g4883
sg1058
(lp4899
g4892
ag4894
ag4885
asbsVQueryTranslation
p4900
g1
(g6
g7
S'Lutjanus maxweberi[PORG] AND RAG1[title]'
p4901
tp4902
Rp4903
(dp4904
g12
g4900
sbstp4905
Rp4906
(dp4907
g12
VeSearchResult
p4908
sbag1
(g2
g3
(dp4909
VCount
p4910
g1
(g6
g7
g89
tp4911
Rp4912
(dp4913
g12
g4910
sbsVRetMax
p4914
g1
(g6
g7
g89
tp4915
Rp4916
(dp4917
g12
g4914
sbsVIdList
p4918
g1
(g18
g19
(lp4919
tp4920
Rp4921
(dp4922
g12
g4918
sbsVRetStart
p4923
g1
(g6
g7
g89
tp4924
Rp4925
(dp4926
g12
g4923
sbsVErrorList
p4927
g1
(g1044
g3
(dp4928
VFieldNotFound
p4929
(lp4930
sVPhraseNotFound
p4931
(lp4932
g1
(g6
g7
S'Lutjanus mizenkoi[PORG]'
p4933
tp4934
Rp4935
(dp4936
g12
VPhraseNotFound
p4937
sbastp4938
Rp4939
(dp4940
g12
g4927
sg1058
(lp4941
g4931
ag4929
asbsVTranslationSet
p4942
g1
(g18
g19
(lp4943
tp4944
Rp4945
(dp4946
g12
g4942
sbsVWarningList
p4947
g1
(g1044
g3
(dp4948
VOutputMessage
p4949
(lp4950
g1
(g6
g7
S'No items found.'
p4951
tp4952
Rp4953
(dp4954
g12
VOutputMessage
p4955
sbasVPhraseIgnored
p4956
(lp4957
sVQuotedPhraseNotFound
p4958
(lp4959
stp4960
Rp4961
(dp4962
g12
g4947
sg1058
(lp4963
g4956
ag4958
ag4949
asbsVQueryTranslation
p4964
g1
(g6
g7
S'Lutjanus mizenkoi[PORG] AND RAG1[title]'
p4965
tp4966
Rp4967
(dp4968
g12
g4964
sbstp4969
Rp4970
(dp4971
g12
VeSearchResult
p4972
sbag1
(g2
g3
(dp4973
VCount
p4974
g1
(g6
g7
g89
tp4975
Rp4976
(dp4977
g12
g4974
sbsVRetMax
p4978
g1
(g6
g7
g89
tp4979
Rp4980
(dp4981
g12
g4978
sbsVIdList
p4982
g1
(g18
g19
(lp4983
tp4984
Rp4985
(dp4986
g12
g4982
sbsVQueryTranslation
p4987
g1
(g6
g7
S'Lutjanus monostigma[PORG] AND RAG1[title]'
p4988
tp4989
Rp4990
(dp4991
g12
g4987
sbsVTranslationStack
p4992
g1
(g18
g19
(lp4993
g1
(g2
g3
(dp4994
g4974
g1
(g6
g7
S'13'
p4995
tp4996
Rp4997
(dp4998
g12
g4974
sbsVField
p4999
g1
(g6
g7
S'PORG'
p5000
tp5001
Rp5002
(dp5003
g12
g4999
sbsVTerm
p5004
g1
(g6
g7
S'Lutjanus monostigma[PORG]'
p5005
tp5006
Rp5007
(dp5008
g12
g5004
sbsVExplode
p5009
g1
(g6
g7
g52
tp5010
Rp5011
(dp5012
g12
g5009
sbstp5013
Rp5014
(dp5015
g12
VTermSet
p5016
sbag1
(g2
g3
(dp5017
g4974
g1
(g6
g7
S'31479'
p5018
tp5019
Rp5020
(dp5021
g12
g4974
sbsg4999
g1
(g6
g7
S'title'
p5022
tp5023
Rp5024
(dp5025
g12
g4999
sbsg5004
g1
(g6
g7
S'RAG1[title]'
p5026
tp5027
Rp5028
(dp5029
g12
g5004
sbsg5009
g1
(g6
g7
g73
tp5030
Rp5031
(dp5032
g12
g5009
sbstp5033
Rp5034
(dp5035
g12
g5016
sbag1
(g6
g7
S'AND'
p5036
tp5037
Rp5038
(dp5039
g12
VOP
p5040
sbatp5041
Rp5042
(dp5043
g12
g4992
sbsVRetStart
p5044
g1
(g6
g7
g89
tp5045
Rp5046
(dp5047
g12
g5044
sbsVTranslationSet
p5048
g1
(g18
g19
(lp5049
tp5050
Rp5051
(dp5052
g12
g5048
sbstp5053
Rp5054
(dp5055
g12
VeSearchResult
p5056
sbag1
(g2
g3
(dp5057
VCount
p5058
g1
(g6
g7
g89
tp5059
Rp5060
(dp5061
g12
g5058
sbsVRetMax
p5062
g1
(g6
g7
g89
tp5063
Rp5064
(dp5065
g12
g5062
sbsVIdList
p5066
g1
(g18
g19
(lp5067
tp5068
Rp5069
(dp5070
g12
g5066
sbsVQueryTranslation
p5071
g1
(g6
g7
S'Lutjanus notatus[PORG] AND RAG1[title]'
p5072
tp5073
Rp5074
(dp5075
g12
g5071
sbsVTranslationStack
p5076
g1
(g18
g19
(lp5077
g1
(g2
g3
(dp5078
g5058
g1
(g6
g7
g2420
tp5079
Rp5080
(dp5081
g12
g5058
sbsVField
p5082
g1
(g6
g7
S'PORG'
p5083
tp5084
Rp5085
(dp5086
g12
g5082
sbsVTerm
p5087
g1
(g6
g7
S'Lutjanus notatus[PORG]'
p5088
tp5089
Rp5090
(dp5091
g12
g5087
sbsVExplode
p5092
g1
(g6
g7
g52
tp5093
Rp5094
(dp5095
g12
g5092
sbstp5096
Rp5097
(dp5098
g12
VTermSet
p5099
sbag1
(g2
g3
(dp5100
g5058
g1
(g6
g7
S'31479'
p5101
tp5102
Rp5103
(dp5104
g12
g5058
sbsg5082
g1
(g6
g7
S'title'
p5105
tp5106
Rp5107
(dp5108
g12
g5082
sbsg5087
g1
(g6
g7
S'RAG1[title]'
p5109
tp5110
Rp5111
(dp5112
g12
g5087
sbsg5092
g1
(g6
g7
g73
tp5113
Rp5114
(dp5115
g12
g5092
sbstp5116
Rp5117
(dp5118
g12
g5099
sbag1
(g6
g7
S'AND'
p5119
tp5120
Rp5121
(dp5122
g12
VOP
p5123
sbatp5124
Rp5125
(dp5126
g12
g5076
sbsVRetStart
p5127
g1
(g6
g7
g89
tp5128
Rp5129
(dp5130
g12
g5127
sbsVTranslationSet
p5131
g1
(g18
g19
(lp5132
tp5133
Rp5134
(dp5135
g12
g5131
sbstp5136
Rp5137
(dp5138
g12
VeSearchResult
p5139
sbag1
(g2
g3
(dp5140
VCount
p5141
g1
(g6
g7
g89
tp5142
Rp5143
(dp5144
g12
g5141
sbsVRetMax
p5145
g1
(g6
g7
g89
tp5146
Rp5147
(dp5148
g12
g5145
sbsVIdList
p5149
g1
(g18
g19
(lp5150
tp5151
Rp5152
(dp5153
g12
g5149
sbsVQueryTranslation
p5154
g1
(g6
g7
S'Lutjanus novemfasciatus[PORG] AND RAG1[title]'
p5155
tp5156
Rp5157
(dp5158
g12
g5154
sbsVTranslationStack
p5159
g1
(g18
g19
(lp5160
g1
(g2
g3
(dp5161
g5141
g1
(g6
g7
S'11'
p5162
tp5163
Rp5164
(dp5165
g12
g5141
sbsVField
p5166
g1
(g6
g7
S'PORG'
p5167
tp5168
Rp5169
(dp5170
g12
g5166
sbsVTerm
p5171
g1
(g6
g7
S'Lutjanus novemfasciatus[PORG]'
p5172
tp5173
Rp5174
(dp5175
g12
g5171
sbsVExplode
p5176
g1
(g6
g7
g52
tp5177
Rp5178
(dp5179
g12
g5176
sbstp5180
Rp5181
(dp5182
g12
VTermSet
p5183
sbag1
(g2
g3
(dp5184
g5141
g1
(g6
g7
S'31479'
p5185
tp5186
Rp5187
(dp5188
g12
g5141
sbsg5166
g1
(g6
g7
S'title'
p5189
tp5190
Rp5191
(dp5192
g12
g5166
sbsg5171
g1
(g6
g7
S'RAG1[title]'
p5193
tp5194
Rp5195
(dp5196
g12
g5171
sbsg5176
g1
(g6
g7
g73
tp5197
Rp5198
(dp5199
g12
g5176
sbstp5200
Rp5201
(dp5202
g12
g5183
sbag1
(g6
g7
S'AND'
p5203
tp5204
Rp5205
(dp5206
g12
VOP
p5207
sbatp5208
Rp5209
(dp5210
g12
g5159
sbsVRetStart
p5211
g1
(g6
g7
g89
tp5212
Rp5213
(dp5214
g12
g5211
sbsVTranslationSet
p5215
g1
(g18
g19
(lp5216
tp5217
Rp5218
(dp5219
g12
g5215
sbstp5220
Rp5221
(dp5222
g12
VeSearchResult
p5223
sbag1
(g2
g3
(dp5224
VCount
p5225
g1
(g6
g7
g8
tp5226
Rp5227
(dp5228
g12
g5225
sbsVRetMax
p5229
g1
(g6
g7
g8
tp5230
Rp5231
(dp5232
g12
g5229
sbsVIdList
p5233
g1
(g18
g19
(lp5234
g1
(g6
g7
S'193875613'
p5235
tp5236
Rp5237
(dp5238
g12
VId
p5239
sbatp5240
Rp5241
(dp5242
g12
g5233
sbsVQueryTranslation
p5243
g1
(g6
g7
S'Lutjanus ophuysenii[PORG] AND RAG1[title]'
p5244
tp5245
Rp5246
(dp5247
g12
g5243
sbsVTranslationStack
p5248
g1
(g18
g19
(lp5249
g1
(g2
g3
(dp5250
g5225
g1
(g6
g7
S'24'
p5251
tp5252
Rp5253
(dp5254
g12
g5225
sbsVField
p5255
g1
(g6
g7
S'PORG'
p5256
tp5257
Rp5258
(dp5259
g12
g5255
sbsVTerm
p5260
g1
(g6
g7
S'Lutjanus ophuysenii[PORG]'
p5261
tp5262
Rp5263
(dp5264
g12
g5260
sbsVExplode
p5265
g1
(g6
g7
g52
tp5266
Rp5267
(dp5268
g12
g5265
sbstp5269
Rp5270
(dp5271
g12
VTermSet
p5272
sbag1
(g2
g3
(dp5273
g5225
g1
(g6
g7
S'31479'
p5274
tp5275
Rp5276
(dp5277
g12
g5225
sbsg5255
g1
(g6
g7
S'title'
p5278
tp5279
Rp5280
(dp5281
g12
g5255
sbsg5260
g1
(g6
g7
S'RAG1[title]'
p5282
tp5283
Rp5284
(dp5285
g12
g5260
sbsg5265
g1
(g6
g7
g73
tp5286
Rp5287
(dp5288
g12
g5265
sbstp5289
Rp5290
(dp5291
g12
g5272
sbag1
(g6
g7
S'AND'
p5292
tp5293
Rp5294
(dp5295
g12
VOP
p5296
sbatp5297
Rp5298
(dp5299
g12
g5248
sbsVRetStart
p5300
g1
(g6
g7
g89
tp5301
Rp5302
(dp5303
g12
g5300
sbsVTranslationSet
p5304
g1
(g18
g19
(lp5305
tp5306
Rp5307
(dp5308
g12
g5304
sbstp5309
Rp5310
(dp5311
g12
VeSearchResult
p5312
sbag1
(g2
g3
(dp5313
VCount
p5314
g1
(g6
g7
g89
tp5315
Rp5316
(dp5317
g12
g5314
sbsVRetMax
p5318
g1
(g6
g7
g89
tp5319
Rp5320
(dp5321
g12
g5318
sbsVIdList
p5322
g1
(g18
g19
(lp5323
tp5324
Rp5325
(dp5326
g12
g5322
sbsVQueryTranslation
p5327
g1
(g6
g7
S'Lutjanus papuensis[PORG] AND RAG1[title]'
p5328
tp5329
Rp5330
(dp5331
g12
g5327
sbsVTranslationStack
p5332
g1
(g18
g19
(lp5333
g1
(g2
g3
(dp5334
g5314
g1
(g6
g7
g1221
tp5335
Rp5336
(dp5337
g12
g5314
sbsVField
p5338
g1
(g6
g7
S'PORG'
p5339
tp5340
Rp5341
(dp5342
g12
g5338
sbsVTerm
p5343
g1
(g6
g7
S'Lutjanus papuensis[PORG]'
p5344
tp5345
Rp5346
(dp5347
g12
g5343
sbsVExplode
p5348
g1
(g6
g7
g52
tp5349
Rp5350
(dp5351
g12
g5348
sbstp5352
Rp5353
(dp5354
g12
VTermSet
p5355
sbag1
(g2
g3
(dp5356
g5314
g1
(g6
g7
S'31479'
p5357
tp5358
Rp5359
(dp5360
g12
g5314
sbsg5338
g1
(g6
g7
S'title'
p5361
tp5362
Rp5363
(dp5364
g12
g5338
sbsg5343
g1
(g6
g7
S'RAG1[title]'
p5365
tp5366
Rp5367
(dp5368
g12
g5343
sbsg5348
g1
(g6
g7
g73
tp5369
Rp5370
(dp5371
g12
g5348
sbstp5372
Rp5373
(dp5374
g12
g5355
sbag1
(g6
g7
S'AND'
p5375
tp5376
Rp5377
(dp5378
g12
VOP
p5379
sbatp5380
Rp5381
(dp5382
g12
g5332
sbsVRetStart
p5383
g1
(g6
g7
g89
tp5384
Rp5385
(dp5386
g12
g5383
sbsVTranslationSet
p5387
g1
(g18
g19
(lp5388
tp5389
Rp5390
(dp5391
g12
g5387
sbstp5392
Rp5393
(dp5394
g12
VeSearchResult
p5395
sbag1
(g2
g3
(dp5396
VCount
p5397
g1
(g6
g7
g89
tp5398
Rp5399
(dp5400
g12
g5397
sbsVRetMax
p5401
g1
(g6
g7
g89
tp5402
Rp5403
(dp5404
g12
g5401
sbsVIdList
p5405
g1
(g18
g19
(lp5406
tp5407
Rp5408
(dp5409
g12
g5405
sbsVQueryTranslation
p5410
g1
(g6
g7
S'Lutjanus peru[PORG] AND RAG1[title]'
p5411
tp5412
Rp5413
(dp5414
g12
g5410
sbsVTranslationStack
p5415
g1
(g18
g19
(lp5416
g1
(g2
g3
(dp5417
g5397
g1
(g6
g7
S'34'
p5418
tp5419
Rp5420
(dp5421
g12
g5397
sbsVField
p5422
g1
(g6
g7
S'PORG'
p5423
tp5424
Rp5425
(dp5426
g12
g5422
sbsVTerm
p5427
g1
(g6
g7
S'Lutjanus peru[PORG]'
p5428
tp5429
Rp5430
(dp5431
g12
g5427
sbsVExplode
p5432
g1
(g6
g7
g52
tp5433
Rp5434
(dp5435
g12
g5432
sbstp5436
Rp5437
(dp5438
g12
VTermSet
p5439
sbag1
(g2
g3
(dp5440
g5397
g1
(g6
g7
S'31479'
p5441
tp5442
Rp5443
(dp5444
g12
g5397
sbsg5422
g1
(g6
g7
S'title'
p5445
tp5446
Rp5447
(dp5448
g12
g5422
sbsg5427
g1
(g6
g7
S'RAG1[title]'
p5449
tp5450
Rp5451
(dp5452
g12
g5427
sbsg5432
g1
(g6
g7
g73
tp5453
Rp5454
(dp5455
g12
g5432
sbstp5456
Rp5457
(dp5458
g12
g5439
sbag1
(g6
g7
S'AND'
p5459
tp5460
Rp5461
(dp5462
g12
VOP
p5463
sbatp5464
Rp5465
(dp5466
g12
g5415
sbsVRetStart
p5467
g1
(g6
g7
g89
tp5468
Rp5469
(dp5470
g12
g5467
sbsVTranslationSet
p5471
g1
(g18
g19
(lp5472
tp5473
Rp5474
(dp5475
g12
g5471
sbstp5476
Rp5477
(dp5478
g12
VeSearchResult
p5479
sbag1
(g2
g3
(dp5480
VCount
p5481
g1
(g6
g7
g8
tp5482
Rp5483
(dp5484
g12
g5481
sbsVRetMax
p5485
g1
(g6
g7
g8
tp5486
Rp5487
(dp5488
g12
g5485
sbsVIdList
p5489
g1
(g18
g19
(lp5490
g1
(g6
g7
S'667699324'
p5491
tp5492
Rp5493
(dp5494
g12
VId
p5495
sbatp5496
Rp5497
(dp5498
g12
g5489
sbsVQueryTranslation
p5499
g1
(g6
g7
S'Lutjanus purpureus[PORG] AND RAG1[title]'
p5500
tp5501
Rp5502
(dp5503
g12
g5499
sbsVTranslationStack
p5504
g1
(g18
g19
(lp5505
g1
(g2
g3
(dp5506
g5481
g1
(g6
g7
S'899'
p5507
tp5508
Rp5509
(dp5510
g12
g5481
sbsVField
p5511
g1
(g6
g7
S'PORG'
p5512
tp5513
Rp5514
(dp5515
g12
g5511
sbsVTerm
p5516
g1
(g6
g7
S'Lutjanus purpureus[PORG]'
p5517
tp5518
Rp5519
(dp5520
g12
g5516
sbsVExplode
p5521
g1
(g6
g7
g52
tp5522
Rp5523
(dp5524
g12
g5521
sbstp5525
Rp5526
(dp5527
g12
VTermSet
p5528
sbag1
(g2
g3
(dp5529
g5481
g1
(g6
g7
S'31479'
p5530
tp5531
Rp5532
(dp5533
g12
g5481
sbsg5511
g1
(g6
g7
S'title'
p5534
tp5535
Rp5536
(dp5537
g12
g5511
sbsg5516
g1
(g6
g7
S'RAG1[title]'
p5538
tp5539
Rp5540
(dp5541
g12
g5516
sbsg5521
g1
(g6
g7
g73
tp5542
Rp5543
(dp5544
g12
g5521
sbstp5545
Rp5546
(dp5547
g12
g5528
sbag1
(g6
g7
S'AND'
p5548
tp5549
Rp5550
(dp5551
g12
VOP
p5552
sbatp5553
Rp5554
(dp5555
g12
g5504
sbsVRetStart
p5556
g1
(g6
g7
g89
tp5557
Rp5558
(dp5559
g12
g5556
sbsVTranslationSet
p5560
g1
(g18
g19
(lp5561
tp5562
Rp5563
(dp5564
g12
g5560
sbstp5565
Rp5566
(dp5567
g12
VeSearchResult
p5568
sbag1
(g2
g3
(dp5569
VCount
p5570
g1
(g6
g7
g89
tp5571
Rp5572
(dp5573
g12
g5570
sbsVRetMax
p5574
g1
(g6
g7
g89
tp5575
Rp5576
(dp5577
g12
g5574
sbsVIdList
p5578
g1
(g18
g19
(lp5579
tp5580
Rp5581
(dp5582
g12
g5578
sbsVQueryTranslation
p5583
g1
(g6
g7
S'Lutjanus quinquelineatus[PORG] AND RAG1[title]'
p5584
tp5585
Rp5586
(dp5587
g12
g5583
sbsVTranslationStack
p5588
g1
(g18
g19
(lp5589
g1
(g2
g3
(dp5590
g5570
g1
(g6
g7
S'13'
p5591
tp5592
Rp5593
(dp5594
g12
g5570
sbsVField
p5595
g1
(g6
g7
S'PORG'
p5596
tp5597
Rp5598
(dp5599
g12
g5595
sbsVTerm
p5600
g1
(g6
g7
S'Lutjanus quinquelineatus[PORG]'
p5601
tp5602
Rp5603
(dp5604
g12
g5600
sbsVExplode
p5605
g1
(g6
g7
g52
tp5606
Rp5607
(dp5608
g12
g5605
sbstp5609
Rp5610
(dp5611
g12
VTermSet
p5612
sbag1
(g2
g3
(dp5613
g5570
g1
(g6
g7
S'31479'
p5614
tp5615
Rp5616
(dp5617
g12
g5570
sbsg5595
g1
(g6
g7
S'title'
p5618
tp5619
Rp5620
(dp5621
g12
g5595
sbsg5600
g1
(g6
g7
S'RAG1[title]'
p5622
tp5623
Rp5624
(dp5625
g12
g5600
sbsg5605
g1
(g6
g7
g73
tp5626
Rp5627
(dp5628
g12
g5605
sbstp5629
Rp5630
(dp5631
g12
g5612
sbag1
(g6
g7
S'AND'
p5632
tp5633
Rp5634
(dp5635
g12
VOP
p5636
sbatp5637
Rp5638
(dp5639
g12
g5588
sbsVRetStart
p5640
g1
(g6
g7
g89
tp5641
Rp5642
(dp5643
g12
g5640
sbsVTranslationSet
p5644
g1
(g18
g19
(lp5645
tp5646
Rp5647
(dp5648
g12
g5644
sbstp5649
Rp5650
(dp5651
g12
VeSearchResult
p5652
sbag1
(g2
g3
(dp5653
VCount
p5654
g1
(g6
g7
g89
tp5655
Rp5656
(dp5657
g12
g5654
sbsVRetMax
p5658
g1
(g6
g7
g89
tp5659
Rp5660
(dp5661
g12
g5658
sbsVIdList
p5662
g1
(g18
g19
(lp5663
tp5664
Rp5665
(dp5666
g12
g5662
sbsVQueryTranslation
p5667
g1
(g6
g7
S'Lutjanus rivulatus[PORG] AND RAG1[title]'
p5668
tp5669
Rp5670
(dp5671
g12
g5667
sbsVTranslationStack
p5672
g1
(g18
g19
(lp5673
g1
(g2
g3
(dp5674
g5654
g1
(g6
g7
S'15'
p5675
tp5676
Rp5677
(dp5678
g12
g5654
sbsVField
p5679
g1
(g6
g7
S'PORG'
p5680
tp5681
Rp5682
(dp5683
g12
g5679
sbsVTerm
p5684
g1
(g6
g7
S'Lutjanus rivulatus[PORG]'
p5685
tp5686
Rp5687
(dp5688
g12
g5684
sbsVExplode
p5689
g1
(g6
g7
g52
tp5690
Rp5691
(dp5692
g12
g5689
sbstp5693
Rp5694
(dp5695
g12
VTermSet
p5696
sbag1
(g2
g3
(dp5697
g5654
g1
(g6
g7
S'31479'
p5698
tp5699
Rp5700
(dp5701
g12
g5654
sbsg5679
g1
(g6
g7
S'title'
p5702
tp5703
Rp5704
(dp5705
g12
g5679
sbsg5684
g1
(g6
g7
S'RAG1[title]'
p5706
tp5707
Rp5708
(dp5709
g12
g5684
sbsg5689
g1
(g6
g7
g73
tp5710
Rp5711
(dp5712
g12
g5689
sbstp5713
Rp5714
(dp5715
g12
g5696
sbag1
(g6
g7
S'AND'
p5716
tp5717
Rp5718
(dp5719
g12
VOP
p5720
sbatp5721
Rp5722
(dp5723
g12
g5672
sbsVRetStart
p5724
g1
(g6
g7
g89
tp5725
Rp5726
(dp5727
g12
g5724
sbsVTranslationSet
p5728
g1
(g18
g19
(lp5729
tp5730
Rp5731
(dp5732
g12
g5728
sbstp5733
Rp5734
(dp5735
g12
VeSearchResult
p5736
sbag1
(g2
g3
(dp5737
VCount
p5738
g1
(g6
g7
g89
tp5739
Rp5740
(dp5741
g12
g5738
sbsVRetMax
p5742
g1
(g6
g7
g89
tp5743
Rp5744
(dp5745
g12
g5742
sbsVIdList
p5746
g1
(g18
g19
(lp5747
tp5748
Rp5749
(dp5750
g12
g5746
sbsVQueryTranslation
p5751
g1
(g6
g7
S'Lutjanus rufolineatus[PORG] AND RAG1[title]'
p5752
tp5753
Rp5754
(dp5755
g12
g5751
sbsVTranslationStack
p5756
g1
(g18
g19
(lp5757
g1
(g2
g3
(dp5758
g5738
g1
(g6
g7
g8
tp5759
Rp5760
(dp5761
g12
g5738
sbsVField
p5762
g1
(g6
g7
S'PORG'
p5763
tp5764
Rp5765
(dp5766
g12
g5762
sbsVTerm
p5767
g1
(g6
g7
S'Lutjanus rufolineatus[PORG]'
p5768
tp5769
Rp5770
(dp5771
g12
g5767
sbsVExplode
p5772
g1
(g6
g7
g52
tp5773
Rp5774
(dp5775
g12
g5772
sbstp5776
Rp5777
(dp5778
g12
VTermSet
p5779
sbag1
(g2
g3
(dp5780
g5738
g1
(g6
g7
S'31479'
p5781
tp5782
Rp5783
(dp5784
g12
g5738
sbsg5762
g1
(g6
g7
S'title'
p5785
tp5786
Rp5787
(dp5788
g12
g5762
sbsg5767
g1
(g6
g7
S'RAG1[title]'
p5789
tp5790
Rp5791
(dp5792
g12
g5767
sbsg5772
g1
(g6
g7
g73
tp5793
Rp5794
(dp5795
g12
g5772
sbstp5796
Rp5797
(dp5798
g12
g5779
sbag1
(g6
g7
S'AND'
p5799
tp5800
Rp5801
(dp5802
g12
VOP
p5803
sbatp5804
Rp5805
(dp5806
g12
g5756
sbsVRetStart
p5807
g1
(g6
g7
g89
tp5808
Rp5809
(dp5810
g12
g5807
sbsVTranslationSet
p5811
g1
(g18
g19
(lp5812
tp5813
Rp5814
(dp5815
g12
g5811
sbstp5816
Rp5817
(dp5818
g12
VeSearchResult
p5819
sbag1
(g2
g3
(dp5820
VCount
p5821
g1
(g6
g7
g8
tp5822
Rp5823
(dp5824
g12
g5821
sbsVRetMax
p5825
g1
(g6
g7
g8
tp5826
Rp5827
(dp5828
g12
g5825
sbsVIdList
p5829
g1
(g18
g19
(lp5830
g1
(g6
g7
S'193875605'
p5831
tp5832
Rp5833
(dp5834
g12
VId
p5835
sbatp5836
Rp5837
(dp5838
g12
g5829
sbsVQueryTranslation
p5839
g1
(g6
g7
S'Lutjanus russellii[PORG] AND RAG1[title]'
p5840
tp5841
Rp5842
(dp5843
g12
g5839
sbsVTranslationStack
p5844
g1
(g18
g19
(lp5845
g1
(g2
g3
(dp5846
g5821
g1
(g6
g7
S'213'
p5847
tp5848
Rp5849
(dp5850
g12
g5821
sbsVField
p5851
g1
(g6
g7
S'PORG'
p5852
tp5853
Rp5854
(dp5855
g12
g5851
sbsVTerm
p5856
g1
(g6
g7
S'Lutjanus russellii[PORG]'
p5857
tp5858
Rp5859
(dp5860
g12
g5856
sbsVExplode
p5861
g1
(g6
g7
g52
tp5862
Rp5863
(dp5864
g12
g5861
sbstp5865
Rp5866
(dp5867
g12
VTermSet
p5868
sbag1
(g2
g3
(dp5869
g5821
g1
(g6
g7
S'31479'
p5870
tp5871
Rp5872
(dp5873
g12
g5821
sbsg5851
g1
(g6
g7
S'title'
p5874
tp5875
Rp5876
(dp5877
g12
g5851
sbsg5856
g1
(g6
g7
S'RAG1[title]'
p5878
tp5879
Rp5880
(dp5881
g12
g5856
sbsg5861
g1
(g6
g7
g73
tp5882
Rp5883
(dp5884
g12
g5861
sbstp5885
Rp5886
(dp5887
g12
g5868
sbag1
(g6
g7
S'AND'
p5888
tp5889
Rp5890
(dp5891
g12
VOP
p5892
sbatp5893
Rp5894
(dp5895
g12
g5844
sbsVRetStart
p5896
g1
(g6
g7
g89
tp5897
Rp5898
(dp5899
g12
g5896
sbsVTranslationSet
p5900
g1
(g18
g19
(lp5901
tp5902
Rp5903
(dp5904
g12
g5900
sbstp5905
Rp5906
(dp5907
g12
VeSearchResult
p5908
sbag1
(g2
g3
(dp5909
VCount
p5910
g1
(g6
g7
g8
tp5911
Rp5912
(dp5913
g12
g5910
sbsVRetMax
p5914
g1
(g6
g7
g8
tp5915
Rp5916
(dp5917
g12
g5914
sbsVIdList
p5918
g1
(g18
g19
(lp5919
g1
(g6
g7
S'336044158'
p5920
tp5921
Rp5922
(dp5923
g12
VId
p5924
sbatp5925
Rp5926
(dp5927
g12
g5918
sbsVQueryTranslation
p5928
g1
(g6
g7
S'Lutjanus sanguineus[PORG] AND RAG1[title]'
p5929
tp5930
Rp5931
(dp5932
g12
g5928
sbsVTranslationStack
p5933
g1
(g18
g19
(lp5934
g1
(g2
g3
(dp5935
g5910
g1
(g6
g7
S'55'
p5936
tp5937
Rp5938
(dp5939
g12
g5910
sbsVField
p5940
g1
(g6
g7
S'PORG'
p5941
tp5942
Rp5943
(dp5944
g12
g5940
sbsVTerm
p5945
g1
(g6
g7
S'Lutjanus sanguineus[PORG]'
p5946
tp5947
Rp5948
(dp5949
g12
g5945
sbsVExplode
p5950
g1
(g6
g7
g52
tp5951
Rp5952
(dp5953
g12
g5950
sbstp5954
Rp5955
(dp5956
g12
VTermSet
p5957
sbag1
(g2
g3
(dp5958
g5910
g1
(g6
g7
S'31479'
p5959
tp5960
Rp5961
(dp5962
g12
g5910
sbsg5940
g1
(g6
g7
S'title'
p5963
tp5964
Rp5965
(dp5966
g12
g5940
sbsg5945
g1
(g6
g7
S'RAG1[title]'
p5967
tp5968
Rp5969
(dp5970
g12
g5945
sbsg5950
g1
(g6
g7
g73
tp5971
Rp5972
(dp5973
g12
g5950
sbstp5974
Rp5975
(dp5976
g12
g5957
sbag1
(g6
g7
S'AND'
p5977
tp5978
Rp5979
(dp5980
g12
VOP
p5981
sbatp5982
Rp5983
(dp5984
g12
g5933
sbsVRetStart
p5985
g1
(g6
g7
g89
tp5986
Rp5987
(dp5988
g12
g5985
sbsVTranslationSet
p5989
g1
(g18
g19
(lp5990
tp5991
Rp5992
(dp5993
g12
g5989
sbstp5994
Rp5995
(dp5996
g12
VeSearchResult
p5997
sbag1
(g2
g3
(dp5998
VCount
p5999
g1
(g6
g7
g8
tp6000
Rp6001
(dp6002
g12
g5999
sbsVRetMax
p6003
g1
(g6
g7
g8
tp6004
Rp6005
(dp6006
g12
g6003
sbsVIdList
p6007
g1
(g18
g19
(lp6008
g1
(g6
g7
S'193875607'
p6009
tp6010
Rp6011
(dp6012
g12
VId
p6013
sbatp6014
Rp6015
(dp6016
g12
g6007
sbsVQueryTranslation
p6017
g1
(g6
g7
S'Lutjanus sebae[PORG] AND RAG1[title]'
p6018
tp6019
Rp6020
(dp6021
g12
g6017
sbsVTranslationStack
p6022
g1
(g18
g19
(lp6023
g1
(g2
g3
(dp6024
g5999
g1
(g6
g7
S'134'
p6025
tp6026
Rp6027
(dp6028
g12
g5999
sbsVField
p6029
g1
(g6
g7
S'PORG'
p6030
tp6031
Rp6032
(dp6033
g12
g6029
sbsVTerm
p6034
g1
(g6
g7
S'Lutjanus sebae[PORG]'
p6035
tp6036
Rp6037
(dp6038
g12
g6034
sbsVExplode
p6039
g1
(g6
g7
g52
tp6040
Rp6041
(dp6042
g12
g6039
sbstp6043
Rp6044
(dp6045
g12
VTermSet
p6046
sbag1
(g2
g3
(dp6047
g5999
g1
(g6
g7
S'31479'
p6048
tp6049
Rp6050
(dp6051
g12
g5999
sbsg6029
g1
(g6
g7
S'title'
p6052
tp6053
Rp6054
(dp6055
g12
g6029
sbsg6034
g1
(g6
g7
S'RAG1[title]'
p6056
tp6057
Rp6058
(dp6059
g12
g6034
sbsg6039
g1
(g6
g7
g73
tp6060
Rp6061
(dp6062
g12
g6039
sbstp6063
Rp6064
(dp6065
g12
g6046
sbag1
(g6
g7
S'AND'
p6066
tp6067
Rp6068
(dp6069
g12
VOP
p6070
sbatp6071
Rp6072
(dp6073
g12
g6022
sbsVRetStart
p6074
g1
(g6
g7
g89
tp6075
Rp6076
(dp6077
g12
g6074
sbsVTranslationSet
p6078
g1
(g18
g19
(lp6079
tp6080
Rp6081
(dp6082
g12
g6078
sbstp6083
Rp6084
(dp6085
g12
VeSearchResult
p6086
sbag1
(g2
g3
(dp6087
VCount
p6088
g1
(g6
g7
g89
tp6089
Rp6090
(dp6091
g12
g6088
sbsVRetMax
p6092
g1
(g6
g7
g89
tp6093
Rp6094
(dp6095
g12
g6092
sbsVIdList
p6096
g1
(g18
g19
(lp6097
tp6098
Rp6099
(dp6100
g12
g6096
sbsVRetStart
p6101
g1
(g6
g7
g89
tp6102
Rp6103
(dp6104
g12
g6101
sbsVErrorList
p6105
g1
(g1044
g3
(dp6106
VFieldNotFound
p6107
(lp6108
sVPhraseNotFound
p6109
(lp6110
g1
(g6
g7
S'Lutjanus semicinctus[PORG]'
p6111
tp6112
Rp6113
(dp6114
g12
VPhraseNotFound
p6115
sbastp6116
Rp6117
(dp6118
g12
g6105
sg1058
(lp6119
g6109
ag6107
asbsVTranslationSet
p6120
g1
(g18
g19
(lp6121
tp6122
Rp6123
(dp6124
g12
g6120
sbsVWarningList
p6125
g1
(g1044
g3
(dp6126
VOutputMessage
p6127
(lp6128
g1
(g6
g7
S'No items found.'
p6129
tp6130
Rp6131
(dp6132
g12
VOutputMessage
p6133
sbasVPhraseIgnored
p6134
(lp6135
sVQuotedPhraseNotFound
p6136
(lp6137
stp6138
Rp6139
(dp6140
g12
g6125
sg1058
(lp6141
g6134
ag6136
ag6127
asbsVQueryTranslation
p6142
g1
(g6
g7
S'Lutjanus semicinctus[PORG] AND RAG1[title]'
p6143
tp6144
Rp6145
(dp6146
g12
g6142
sbstp6147
Rp6148
(dp6149
g12
VeSearchResult
p6150
sbag1
(g2
g3
(dp6151
VCount
p6152
g1
(g6
g7
g8
tp6153
Rp6154
(dp6155
g12
g6152
sbsVRetMax
p6156
g1
(g6
g7
g8
tp6157
Rp6158
(dp6159
g12
g6156
sbsVIdList
p6160
g1
(g18
g19
(lp6161
g1
(g6
g7
S'193875611'
p6162
tp6163
Rp6164
(dp6165
g12
VId
p6166
sbatp6167
Rp6168
(dp6169
g12
g6160
sbsVQueryTranslation
p6170
g1
(g6
g7
S'Lutjanus stellatus[PORG] AND RAG1[title]'
p6171
tp6172
Rp6173
(dp6174
g12
g6170
sbsVTranslationStack
p6175
g1
(g18
g19
(lp6176
g1
(g2
g3
(dp6177
g6152
g1
(g6
g7
S'58'
p6178
tp6179
Rp6180
(dp6181
g12
g6152
sbsVField
p6182
g1
(g6
g7
S'PORG'
p6183
tp6184
Rp6185
(dp6186
g12
g6182
sbsVTerm
p6187
g1
(g6
g7
S'Lutjanus stellatus[PORG]'
p6188
tp6189
Rp6190
(dp6191
g12
g6187
sbsVExplode
p6192
g1
(g6
g7
g52
tp6193
Rp6194
(dp6195
g12
g6192
sbstp6196
Rp6197
(dp6198
g12
VTermSet
p6199
sbag1
(g2
g3
(dp6200
g6152
g1
(g6
g7
S'31479'
p6201
tp6202
Rp6203
(dp6204
g12
g6152
sbsg6182
g1
(g6
g7
S'title'
p6205
tp6206
Rp6207
(dp6208
g12
g6182
sbsg6187
g1
(g6
g7
S'RAG1[title]'
p6209
tp6210
Rp6211
(dp6212
g12
g6187
sbsg6192
g1
(g6
g7
g73
tp6213
Rp6214
(dp6215
g12
g6192
sbstp6216
Rp6217
(dp6218
g12
g6199
sbag1
(g6
g7
S'AND'
p6219
tp6220
Rp6221
(dp6222
g12
VOP
p6223
sbatp6224
Rp6225
(dp6226
g12
g6175
sbsVRetStart
p6227
g1
(g6
g7
g89
tp6228
Rp6229
(dp6230
g12
g6227
sbsVTranslationSet
p6231
g1
(g18
g19
(lp6232
tp6233
Rp6234
(dp6235
g12
g6231
sbstp6236
Rp6237
(dp6238
g12
VeSearchResult
p6239
sbag1
(g2
g3
(dp6240
VCount
p6241
g1
(g6
g7
g89
tp6242
Rp6243
(dp6244
g12
g6241
sbsVRetMax
p6245
g1
(g6
g7
g89
tp6246
Rp6247
(dp6248
g12
g6245
sbsVIdList
p6249
g1
(g18
g19
(lp6250
tp6251
Rp6252
(dp6253
g12
g6249
sbsVQueryTranslation
p6254
g1
(g6
g7
S'Lutjanus synagris[PORG] AND RAG1[title]'
p6255
tp6256
Rp6257
(dp6258
g12
g6254
sbsVTranslationStack
p6259
g1
(g18
g19
(lp6260
g1
(g2
g3
(dp6261
g6241
g1
(g6
g7
S'148'
p6262
tp6263
Rp6264
(dp6265
g12
g6241
sbsVField
p6266
g1
(g6
g7
S'PORG'
p6267
tp6268
Rp6269
(dp6270
g12
g6266
sbsVTerm
p6271
g1
(g6
g7
S'Lutjanus synagris[PORG]'
p6272
tp6273
Rp6274
(dp6275
g12
g6271
sbsVExplode
p6276
g1
(g6
g7
g52
tp6277
Rp6278
(dp6279
g12
g6276
sbstp6280
Rp6281
(dp6282
g12
VTermSet
p6283
sbag1
(g2
g3
(dp6284
g6241
g1
(g6
g7
S'31479'
p6285
tp6286
Rp6287
(dp6288
g12
g6241
sbsg6266
g1
(g6
g7
S'title'
p6289
tp6290
Rp6291
(dp6292
g12
g6266
sbsg6271
g1
(g6
g7
S'RAG1[title]'
p6293
tp6294
Rp6295
(dp6296
g12
g6271
sbsg6276
g1
(g6
g7
g73
tp6297
Rp6298
(dp6299
g12
g6276
sbstp6300
Rp6301
(dp6302
g12
g6283
sbag1
(g6
g7
S'AND'
p6303
tp6304
Rp6305
(dp6306
g12
VOP
p6307
sbatp6308
Rp6309
(dp6310
g12
g6259
sbsVRetStart
p6311
g1
(g6
g7
g89
tp6312
Rp6313
(dp6314
g12
g6311
sbsVTranslationSet
p6315
g1
(g18
g19
(lp6316
tp6317
Rp6318
(dp6319
g12
g6315
sbstp6320
Rp6321
(dp6322
g12
VeSearchResult
p6323
sbag1
(g2
g3
(dp6324
VCount
p6325
g1
(g6
g7
g89
tp6326
Rp6327
(dp6328
g12
g6325
sbsVRetMax
p6329
g1
(g6
g7
g89
tp6330
Rp6331
(dp6332
g12
g6329
sbsVIdList
p6333
g1
(g18
g19
(lp6334
tp6335
Rp6336
(dp6337
g12
g6333
sbsVQueryTranslation
p6338
g1
(g6
g7
S'Lutjanus timoriensis[PORG] AND RAG1[title]'
p6339
tp6340
Rp6341
(dp6342
g12
g6338
sbsVTranslationStack
p6343
g1
(g18
g19
(lp6344
g1
(g2
g3
(dp6345
g6325
g1
(g6
g7
g376
tp6346
Rp6347
(dp6348
g12
g6325
sbsVField
p6349
g1
(g6
g7
S'PORG'
p6350
tp6351
Rp6352
(dp6353
g12
g6349
sbsVTerm
p6354
g1
(g6
g7
S'Lutjanus timoriensis[PORG]'
p6355
tp6356
Rp6357
(dp6358
g12
g6354
sbsVExplode
p6359
g1
(g6
g7
g52
tp6360
Rp6361
(dp6362
g12
g6359
sbstp6363
Rp6364
(dp6365
g12
VTermSet
p6366
sbag1
(g2
g3
(dp6367
g6325
g1
(g6
g7
S'31479'
p6368
tp6369
Rp6370
(dp6371
g12
g6325
sbsg6349
g1
(g6
g7
S'title'
p6372
tp6373
Rp6374
(dp6375
g12
g6349
sbsg6354
g1
(g6
g7
S'RAG1[title]'
p6376
tp6377
Rp6378
(dp6379
g12
g6354
sbsg6359
g1
(g6
g7
g73
tp6380
Rp6381
(dp6382
g12
g6359
sbstp6383
Rp6384
(dp6385
g12
g6366
sbag1
(g6
g7
S'AND'
p6386
tp6387
Rp6388
(dp6389
g12
VOP
p6390
sbatp6391
Rp6392
(dp6393
g12
g6343
sbsVRetStart
p6394
g1
(g6
g7
g89
tp6395
Rp6396
(dp6397
g12
g6394
sbsVTranslationSet
p6398
g1
(g18
g19
(lp6399
tp6400
Rp6401
(dp6402
g12
g6398
sbstp6403
Rp6404
(dp6405
g12
VeSearchResult
p6406
sbag1
(g2
g3
(dp6407
VCount
p6408
g1
(g6
g7
g89
tp6409
Rp6410
(dp6411
g12
g6408
sbsVRetMax
p6412
g1
(g6
g7
g89
tp6413
Rp6414
(dp6415
g12
g6412
sbsVIdList
p6416
g1
(g18
g19
(lp6417
tp6418
Rp6419
(dp6420
g12
g6416
sbsVQueryTranslation
p6421
g1
(g6
g7
S'Lutjanus viridis[PORG] AND RAG1[title]'
p6422
tp6423
Rp6424
(dp6425
g12
g6421
sbsVTranslationStack
p6426
g1
(g18
g19
(lp6427
g1
(g2
g3
(dp6428
g6408
g1
(g6
g7
g796
tp6429
Rp6430
(dp6431
g12
g6408
sbsVField
p6432
g1
(g6
g7
S'PORG'
p6433
tp6434
Rp6435
(dp6436
g12
g6432
sbsVTerm
p6437
g1
(g6
g7
S'Lutjanus viridis[PORG]'
p6438
tp6439
Rp6440
(dp6441
g12
g6437
sbsVExplode
p6442
g1
(g6
g7
g52
tp6443
Rp6444
(dp6445
g12
g6442
sbstp6446
Rp6447
(dp6448
g12
VTermSet
p6449
sbag1
(g2
g3
(dp6450
g6408
g1
(g6
g7
S'31479'
p6451
tp6452
Rp6453
(dp6454
g12
g6408
sbsg6432
g1
(g6
g7
S'title'
p6455
tp6456
Rp6457
(dp6458
g12
g6432
sbsg6437
g1
(g6
g7
S'RAG1[title]'
p6459
tp6460
Rp6461
(dp6462
g12
g6437
sbsg6442
g1
(g6
g7
g73
tp6463
Rp6464
(dp6465
g12
g6442
sbstp6466
Rp6467
(dp6468
g12
g6449
sbag1
(g6
g7
S'AND'
p6469
tp6470
Rp6471
(dp6472
g12
VOP
p6473
sbatp6474
Rp6475
(dp6476
g12
g6426
sbsVRetStart
p6477
g1
(g6
g7
g89
tp6478
Rp6479
(dp6480
g12
g6477
sbsVTranslationSet
p6481
g1
(g18
g19
(lp6482
tp6483
Rp6484
(dp6485
g12
g6481
sbstp6486
Rp6487
(dp6488
g12
VeSearchResult
p6489
sbag1
(g2
g3
(dp6490
VCount
p6491
g1
(g6
g7
g8
tp6492
Rp6493
(dp6494
g12
g6491
sbsVRetMax
p6495
g1
(g6
g7
g8
tp6496
Rp6497
(dp6498
g12
g6495
sbsVIdList
p6499
g1
(g18
g19
(lp6500
g1
(g6
g7
S'193875609'
p6501
tp6502
Rp6503
(dp6504
g12
VId
p6505
sbatp6506
Rp6507
(dp6508
g12
g6499
sbsVQueryTranslation
p6509
g1
(g6
g7
S'Lutjanus vitta[PORG] AND RAG1[title]'
p6510
tp6511
Rp6512
(dp6513
g12
g6509
sbsVTranslationStack
p6514
g1
(g18
g19
(lp6515
g1
(g2
g3
(dp6516
g6491
g1
(g6
g7
S'49'
p6517
tp6518
Rp6519
(dp6520
g12
g6491
sbsVField
p6521
g1
(g6
g7
S'PORG'
p6522
tp6523
Rp6524
(dp6525
g12
g6521
sbsVTerm
p6526
g1
(g6
g7
S'Lutjanus vitta[PORG]'
p6527
tp6528
Rp6529
(dp6530
g12
g6526
sbsVExplode
p6531
g1
(g6
g7
g52
tp6532
Rp6533
(dp6534
g12
g6531
sbstp6535
Rp6536
(dp6537
g12
VTermSet
p6538
sbag1
(g2
g3
(dp6539
g6491
g1
(g6
g7
S'31479'
p6540
tp6541
Rp6542
(dp6543
g12
g6491
sbsg6521
g1
(g6
g7
S'title'
p6544
tp6545
Rp6546
(dp6547
g12
g6521
sbsg6526
g1
(g6
g7
S'RAG1[title]'
p6548
tp6549
Rp6550
(dp6551
g12
g6526
sbsg6531
g1
(g6
g7
g73
tp6552
Rp6553
(dp6554
g12
g6531
sbstp6555
Rp6556
(dp6557
g12
g6538
sbag1
(g6
g7
S'AND'
p6558
tp6559
Rp6560
(dp6561
g12
VOP
p6562
sbatp6563
Rp6564
(dp6565
g12
g6514
sbsVRetStart
p6566
g1
(g6
g7
g89
tp6567
Rp6568
(dp6569
g12
g6566
sbsVTranslationSet
p6570
g1
(g18
g19
(lp6571
tp6572
Rp6573
(dp6574
g12
g6570
sbstp6575
Rp6576
(dp6577
g12
VeSearchResult
p6578
sbag1
(g2
g3
(dp6579
VCount
p6580
g1
(g6
g7
g89
tp6581
Rp6582
(dp6583
g12
g6580
sbsVRetMax
p6584
g1
(g6
g7
g89
tp6585
Rp6586
(dp6587
g12
g6584
sbsVIdList
p6588
g1
(g18
g19
(lp6589
tp6590
Rp6591
(dp6592
g12
g6588
sbsVQueryTranslation
p6593
g1
(g6
g7
S'Lutjanus vivanus[PORG] AND RAG1[title]'
p6594
tp6595
Rp6596
(dp6597
g12
g6593
sbsVTranslationStack
p6598
g1
(g18
g19
(lp6599
g1
(g2
g3
(dp6600
g6580
g1
(g6
g7
S'28'
p6601
tp6602
Rp6603
(dp6604
g12
g6580
sbsVField
p6605
g1
(g6
g7
S'PORG'
p6606
tp6607
Rp6608
(dp6609
g12
g6605
sbsVTerm
p6610
g1
(g6
g7
S'Lutjanus vivanus[PORG]'
p6611
tp6612
Rp6613
(dp6614
g12
g6610
sbsVExplode
p6615
g1
(g6
g7
g52
tp6616
Rp6617
(dp6618
g12
g6615
sbstp6619
Rp6620
(dp6621
g12
VTermSet
p6622
sbag1
(g2
g3
(dp6623
g6580
g1
(g6
g7
S'31479'
p6624
tp6625
Rp6626
(dp6627
g12
g6580
sbsg6605
g1
(g6
g7
S'title'
p6628
tp6629
Rp6630
(dp6631
g12
g6605
sbsg6610
g1
(g6
g7
S'RAG1[title]'
p6632
tp6633
Rp6634
(dp6635
g12
g6610
sbsg6615
g1
(g6
g7
g73
tp6636
Rp6637
(dp6638
g12
g6615
sbstp6639
Rp6640
(dp6641
g12
g6622
sbag1
(g6
g7
S'AND'
p6642
tp6643
Rp6644
(dp6645
g12
VOP
p6646
sbatp6647
Rp6648
(dp6649
g12
g6598
sbsVRetStart
p6650
g1
(g6
g7
g89
tp6651
Rp6652
(dp6653
g12
g6650
sbsVTranslationSet
p6654
g1
(g18
g19
(lp6655
tp6656
Rp6657
(dp6658
g12
g6654
sbstp6659
Rp6660
(dp6661
g12
VeSearchResult
p6662
sbag1
(g2
g3
(dp6663
VCount
p6664
g1
(g6
g7
g89
tp6665
Rp6666
(dp6667
g12
g6664
sbsVRetMax
p6668
g1
(g6
g7
g89
tp6669
Rp6670
(dp6671
g12
g6668
sbsVIdList
p6672
g1
(g18
g19
(lp6673
tp6674
Rp6675
(dp6676
g12
g6672
sbsVQueryTranslation
p6677
g1
(g6
g7
S'Macolor macularis[PORG] AND RAG1[title]'
p6678
tp6679
Rp6680
(dp6681
g12
g6677
sbsVTranslationStack
p6682
g1
(g18
g19
(lp6683
g1
(g2
g3
(dp6684
g6664
g1
(g6
g7
g2420
tp6685
Rp6686
(dp6687
g12
g6664
sbsVField
p6688
g1
(g6
g7
S'PORG'
p6689
tp6690
Rp6691
(dp6692
g12
g6688
sbsVTerm
p6693
g1
(g6
g7
S'Macolor macularis[PORG]'
p6694
tp6695
Rp6696
(dp6697
g12
g6693
sbsVExplode
p6698
g1
(g6
g7
g52
tp6699
Rp6700
(dp6701
g12
g6698
sbstp6702
Rp6703
(dp6704
g12
VTermSet
p6705
sbag1
(g2
g3
(dp6706
g6664
g1
(g6
g7
S'31479'
p6707
tp6708
Rp6709
(dp6710
g12
g6664
sbsg6688
g1
(g6
g7
S'title'
p6711
tp6712
Rp6713
(dp6714
g12
g6688
sbsg6693
g1
(g6
g7
S'RAG1[title]'
p6715
tp6716
Rp6717
(dp6718
g12
g6693
sbsg6698
g1
(g6
g7
g73
tp6719
Rp6720
(dp6721
g12
g6698
sbstp6722
Rp6723
(dp6724
g12
g6705
sbag1
(g6
g7
S'AND'
p6725
tp6726
Rp6727
(dp6728
g12
VOP
p6729
sbatp6730
Rp6731
(dp6732
g12
g6682
sbsVRetStart
p6733
g1
(g6
g7
g89
tp6734
Rp6735
(dp6736
g12
g6733
sbsVTranslationSet
p6737
g1
(g18
g19
(lp6738
tp6739
Rp6740
(dp6741
g12
g6737
sbstp6742
Rp6743
(dp6744
g12
VeSearchResult
p6745
sbag1
(g2
g3
(dp6746
VCount
p6747
g1
(g6
g7
g89
tp6748
Rp6749
(dp6750
g12
g6747
sbsVRetMax
p6751
g1
(g6
g7
g89
tp6752
Rp6753
(dp6754
g12
g6751
sbsVIdList
p6755
g1
(g18
g19
(lp6756
tp6757
Rp6758
(dp6759
g12
g6755
sbsVQueryTranslation
p6760
g1
(g6
g7
S'Macolor niger[PORG] AND RAG1[title]'
p6761
tp6762
Rp6763
(dp6764
g12
g6760
sbsVTranslationStack
p6765
g1
(g18
g19
(lp6766
g1
(g2
g3
(dp6767
g6747
g1
(g6
g7
S'19'
p6768
tp6769
Rp6770
(dp6771
g12
g6747
sbsVField
p6772
g1
(g6
g7
S'PORG'
p6773
tp6774
Rp6775
(dp6776
g12
g6772
sbsVTerm
p6777
g1
(g6
g7
S'Macolor niger[PORG]'
p6778
tp6779
Rp6780
(dp6781
g12
g6777
sbsVExplode
p6782
g1
(g6
g7
g52
tp6783
Rp6784
(dp6785
g12
g6782
sbstp6786
Rp6787
(dp6788
g12
VTermSet
p6789
sbag1
(g2
g3
(dp6790
g6747
g1
(g6
g7
S'31479'
p6791
tp6792
Rp6793
(dp6794
g12
g6747
sbsg6772
g1
(g6
g7
S'title'
p6795
tp6796
Rp6797
(dp6798
g12
g6772
sbsg6777
g1
(g6
g7
S'RAG1[title]'
p6799
tp6800
Rp6801
(dp6802
g12
g6777
sbsg6782
g1
(g6
g7
g73
tp6803
Rp6804
(dp6805
g12
g6782
sbstp6806
Rp6807
(dp6808
g12
g6789
sbag1
(g6
g7
S'AND'
p6809
tp6810
Rp6811
(dp6812
g12
VOP
p6813
sbatp6814
Rp6815
(dp6816
g12
g6765
sbsVRetStart
p6817
g1
(g6
g7
g89
tp6818
Rp6819
(dp6820
g12
g6817
sbsVTranslationSet
p6821
g1
(g18
g19
(lp6822
tp6823
Rp6824
(dp6825
g12
g6821
sbstp6826
Rp6827
(dp6828
g12
VeSearchResult
p6829
sbag1
(g2
g3
(dp6830
VCount
p6831
g1
(g6
g7
g1221
tp6832
Rp6833
(dp6834
g12
g6831
sbsVRetMax
p6835
g1
(g6
g7
g1221
tp6836
Rp6837
(dp6838
g12
g6835
sbsVIdList
p6839
g1
(g18
g19
(lp6840
g1
(g6
g7
S'667699326'
p6841
tp6842
Rp6843
(dp6844
g12
VId
p6845
sbag1
(g6
g7
S'394339709'
p6846
tp6847
Rp6848
(dp6849
g12
g6845
sbatp6850
Rp6851
(dp6852
g12
g6839
sbsVQueryTranslation
p6853
g1
(g6
g7
S'Ocyurus chrysurus[PORG] AND RAG1[title]'
p6854
tp6855
Rp6856
(dp6857
g12
g6853
sbsVTranslationStack
p6858
g1
(g18
g19
(lp6859
g1
(g2
g3
(dp6860
g6831
g1
(g6
g7
S'320'
p6861
tp6862
Rp6863
(dp6864
g12
g6831
sbsVField
p6865
g1
(g6
g7
S'PORG'
p6866
tp6867
Rp6868
(dp6869
g12
g6865
sbsVTerm
p6870
g1
(g6
g7
S'Ocyurus chrysurus[PORG]'
p6871
tp6872
Rp6873
(dp6874
g12
g6870
sbsVExplode
p6875
g1
(g6
g7
g52
tp6876
Rp6877
(dp6878
g12
g6875
sbstp6879
Rp6880
(dp6881
g12
VTermSet
p6882
sbag1
(g2
g3
(dp6883
g6831
g1
(g6
g7
S'31479'
p6884
tp6885
Rp6886
(dp6887
g12
g6831
sbsg6865
g1
(g6
g7
S'title'
p6888
tp6889
Rp6890
(dp6891
g12
g6865
sbsg6870
g1
(g6
g7
S'RAG1[title]'
p6892
tp6893
Rp6894
(dp6895
g12
g6870
sbsg6875
g1
(g6
g7
g73
tp6896
Rp6897
(dp6898
g12
g6875
sbstp6899
Rp6900
(dp6901
g12
g6882
sbag1
(g6
g7
S'AND'
p6902
tp6903
Rp6904
(dp6905
g12
VOP
p6906
sbatp6907
Rp6908
(dp6909
g12
g6858
sbsVRetStart
p6910
g1
(g6
g7
g89
tp6911
Rp6912
(dp6913
g12
g6910
sbsVTranslationSet
p6914
g1
(g18
g19
(lp6915
tp6916
Rp6917
(dp6918
g12
g6914
sbstp6919
Rp6920
(dp6921
g12
VeSearchResult
p6922
sbag1
(g2
g3
(dp6923
VCount
p6924
g1
(g6
g7
g89
tp6925
Rp6926
(dp6927
g12
g6924
sbsVRetMax
p6928
g1
(g6
g7
g89
tp6929
Rp6930
(dp6931
g12
g6928
sbsVIdList
p6932
g1
(g18
g19
(lp6933
tp6934
Rp6935
(dp6936
g12
g6932
sbsVQueryTranslation
p6937
g1
(g6
g7
S'Paracaesio caerulea[PORG] AND RAG1[title]'
p6938
tp6939
Rp6940
(dp6941
g12
g6937
sbsVTranslationStack
p6942
g1
(g18
g19
(lp6943
g1
(g2
g3
(dp6944
g6924
g1
(g6
g7
g8
tp6945
Rp6946
(dp6947
g12
g6924
sbsVField
p6948
g1
(g6
g7
S'PORG'
p6949
tp6950
Rp6951
(dp6952
g12
g6948
sbsVTerm
p6953
g1
(g6
g7
S'Paracaesio caerulea[PORG]'
p6954
tp6955
Rp6956
(dp6957
g12
g6953
sbsVExplode
p6958
g1
(g6
g7
g52
tp6959
Rp6960
(dp6961
g12
g6958
sbstp6962
Rp6963
(dp6964
g12
VTermSet
p6965
sbag1
(g2
g3
(dp6966
g6924
g1
(g6
g7
S'31479'
p6967
tp6968
Rp6969
(dp6970
g12
g6924
sbsg6948
g1
(g6
g7
S'title'
p6971
tp6972
Rp6973
(dp6974
g12
g6948
sbsg6953
g1
(g6
g7
S'RAG1[title]'
p6975
tp6976
Rp6977
(dp6978
g12
g6953
sbsg6958
g1
(g6
g7
g73
tp6979
Rp6980
(dp6981
g12
g6958
sbstp6982
Rp6983
(dp6984
g12
g6965
sbag1
(g6
g7
S'AND'
p6985
tp6986
Rp6987
(dp6988
g12
VOP
p6989
sbatp6990
Rp6991
(dp6992
g12
g6942
sbsVRetStart
p6993
g1
(g6
g7
g89
tp6994
Rp6995
(dp6996
g12
g6993
sbsVTranslationSet
p6997
g1
(g18
g19
(lp6998
tp6999
Rp7000
(dp7001
g12
g6997
sbstp7002
Rp7003
(dp7004
g12
VeSearchResult
p7005
sbag1
(g2
g3
(dp7006
VCount
p7007
g1
(g6
g7
g89
tp7008
Rp7009
(dp7010
g12
g7007
sbsVRetMax
p7011
g1
(g6
g7
g89
tp7012
Rp7013
(dp7014
g12
g7011
sbsVIdList
p7015
g1
(g18
g19
(lp7016
tp7017
Rp7018
(dp7019
g12
g7015
sbsVRetStart
p7020
g1
(g6
g7
g89
tp7021
Rp7022
(dp7023
g12
g7020
sbsVErrorList
p7024
g1
(g1044
g3
(dp7025
VFieldNotFound
p7026
(lp7027
sVPhraseNotFound
p7028
(lp7029
g1
(g6
g7
S'Paracaesio gonzalesi[PORG]'
p7030
tp7031
Rp7032
(dp7033
g12
VPhraseNotFound
p7034
sbastp7035
Rp7036
(dp7037
g12
g7024
sg1058
(lp7038
g7028
ag7026
asbsVTranslationSet
p7039
g1
(g18
g19
(lp7040
tp7041
Rp7042
(dp7043
g12
g7039
sbsVWarningList
p7044
g1
(g1044
g3
(dp7045
VOutputMessage
p7046
(lp7047
g1
(g6
g7
S'No items found.'
p7048
tp7049
Rp7050
(dp7051
g12
VOutputMessage
p7052
sbasVPhraseIgnored
p7053
(lp7054
sVQuotedPhraseNotFound
p7055
(lp7056
stp7057
Rp7058
(dp7059
g12
g7044
sg1058
(lp7060
g7053
ag7055
ag7046
asbsVQueryTranslation
p7061
g1
(g6
g7
S'Paracaesio gonzalesi[PORG] AND RAG1[title]'
p7062
tp7063
Rp7064
(dp7065
g12
g7061
sbstp7066
Rp7067
(dp7068
g12
VeSearchResult
p7069
sbag1
(g2
g3
(dp7070
VCount
p7071
g1
(g6
g7
g89
tp7072
Rp7073
(dp7074
g12
g7071
sbsVRetMax
p7075
g1
(g6
g7
g89
tp7076
Rp7077
(dp7078
g12
g7075
sbsVIdList
p7079
g1
(g18
g19
(lp7080
tp7081
Rp7082
(dp7083
g12
g7079
sbsVQueryTranslation
p7084
g1
(g6
g7
S'Paracaesio kusakarii[PORG] AND RAG1[title]'
p7085
tp7086
Rp7087
(dp7088
g12
g7084
sbsVTranslationStack
p7089
g1
(g18
g19
(lp7090
g1
(g2
g3
(dp7091
g7071
g1
(g6
g7
g8
tp7092
Rp7093
(dp7094
g12
g7071
sbsVField
p7095
g1
(g6
g7
S'PORG'
p7096
tp7097
Rp7098
(dp7099
g12
g7095
sbsVTerm
p7100
g1
(g6
g7
S'Paracaesio kusakarii[PORG]'
p7101
tp7102
Rp7103
(dp7104
g12
g7100
sbsVExplode
p7105
g1
(g6
g7
g52
tp7106
Rp7107
(dp7108
g12
g7105
sbstp7109
Rp7110
(dp7111
g12
VTermSet
p7112
sbag1
(g2
g3
(dp7113
g7071
g1
(g6
g7
S'31479'
p7114
tp7115
Rp7116
(dp7117
g12
g7071
sbsg7095
g1
(g6
g7
S'title'
p7118
tp7119
Rp7120
(dp7121
g12
g7095
sbsg7100
g1
(g6
g7
S'RAG1[title]'
p7122
tp7123
Rp7124
(dp7125
g12
g7100
sbsg7105
g1
(g6
g7
g73
tp7126
Rp7127
(dp7128
g12
g7105
sbstp7129
Rp7130
(dp7131
g12
g7112
sbag1
(g6
g7
S'AND'
p7132
tp7133
Rp7134
(dp7135
g12
VOP
p7136
sbatp7137
Rp7138
(dp7139
g12
g7089
sbsVRetStart
p7140
g1
(g6
g7
g89
tp7141
Rp7142
(dp7143
g12
g7140
sbsVTranslationSet
p7144
g1
(g18
g19
(lp7145
tp7146
Rp7147
(dp7148
g12
g7144
sbstp7149
Rp7150
(dp7151
g12
VeSearchResult
p7152
sbag1
(g2
g3
(dp7153
VCount
p7154
g1
(g6
g7
g89
tp7155
Rp7156
(dp7157
g12
g7154
sbsVRetMax
p7158
g1
(g6
g7
g89
tp7159
Rp7160
(dp7161
g12
g7158
sbsVIdList
p7162
g1
(g18
g19
(lp7163
tp7164
Rp7165
(dp7166
g12
g7162
sbsVRetStart
p7167
g1
(g6
g7
g89
tp7168
Rp7169
(dp7170
g12
g7167
sbsVErrorList
p7171
g1
(g1044
g3
(dp7172
VFieldNotFound
p7173
(lp7174
sVPhraseNotFound
p7175
(lp7176
g1
(g6
g7
S'Paracaesio paragrapsimodon[PORG]'
p7177
tp7178
Rp7179
(dp7180
g12
VPhraseNotFound
p7181
sbastp7182
Rp7183
(dp7184
g12
g7171
sg1058
(lp7185
g7175
ag7173
asbsVTranslationSet
p7186
g1
(g18
g19
(lp7187
tp7188
Rp7189
(dp7190
g12
g7186
sbsVWarningList
p7191
g1
(g1044
g3
(dp7192
VOutputMessage
p7193
(lp7194
g1
(g6
g7
S'No items found.'
p7195
tp7196
Rp7197
(dp7198
g12
VOutputMessage
p7199
sbasVPhraseIgnored
p7200
(lp7201
sVQuotedPhraseNotFound
p7202
(lp7203
stp7204
Rp7205
(dp7206
g12
g7191
sg1058
(lp7207
g7200
ag7202
ag7193
asbsVQueryTranslation
p7208
g1
(g6
g7
S'Paracaesio paragrapsimodon[PORG] AND RAG1[title]'
p7209
tp7210
Rp7211
(dp7212
g12
g7208
sbstp7213
Rp7214
(dp7215
g12
VeSearchResult
p7216
sbag1
(g2
g3
(dp7217
VCount
p7218
g1
(g6
g7
g89
tp7219
Rp7220
(dp7221
g12
g7218
sbsVRetMax
p7222
g1
(g6
g7
g89
tp7223
Rp7224
(dp7225
g12
g7222
sbsVIdList
p7226
g1
(g18
g19
(lp7227
tp7228
Rp7229
(dp7230
g12
g7226
sbsVQueryTranslation
p7231
g1
(g6
g7
S'Paracaesio sordida[PORG] AND RAG1[title]'
p7232
tp7233
Rp7234
(dp7235
g12
g7231
sbsVTranslationStack
p7236
g1
(g18
g19
(lp7237
g1
(g2
g3
(dp7238
g7218
g1
(g6
g7
S'10'
p7239
tp7240
Rp7241
(dp7242
g12
g7218
sbsVField
p7243
g1
(g6
g7
S'PORG'
p7244
tp7245
Rp7246
(dp7247
g12
g7243
sbsVTerm
p7248
g1
(g6
g7
S'Paracaesio sordida[PORG]'
p7249
tp7250
Rp7251
(dp7252
g12
g7248
sbsVExplode
p7253
g1
(g6
g7
g52
tp7254
Rp7255
(dp7256
g12
g7253
sbstp7257
Rp7258
(dp7259
g12
VTermSet
p7260
sbag1
(g2
g3
(dp7261
g7218
g1
(g6
g7
S'31479'
p7262
tp7263
Rp7264
(dp7265
g12
g7218
sbsg7243
g1
(g6
g7
S'title'
p7266
tp7267
Rp7268
(dp7269
g12
g7243
sbsg7248
g1
(g6
g7
S'RAG1[title]'
p7270
tp7271
Rp7272
(dp7273
g12
g7248
sbsg7253
g1
(g6
g7
g73
tp7274
Rp7275
(dp7276
g12
g7253
sbstp7277
Rp7278
(dp7279
g12
g7260
sbag1
(g6
g7
S'AND'
p7280
tp7281
Rp7282
(dp7283
g12
VOP
p7284
sbatp7285
Rp7286
(dp7287
g12
g7236
sbsVRetStart
p7288
g1
(g6
g7
g89
tp7289
Rp7290
(dp7291
g12
g7288
sbsVTranslationSet
p7292
g1
(g18
g19
(lp7293
tp7294
Rp7295
(dp7296
g12
g7292
sbstp7297
Rp7298
(dp7299
g12
VeSearchResult
p7300
sbag1
(g2
g3
(dp7301
VCount
p7302
g1
(g6
g7
g89
tp7303
Rp7304
(dp7305
g12
g7302
sbsVRetMax
p7306
g1
(g6
g7
g89
tp7307
Rp7308
(dp7309
g12
g7306
sbsVIdList
p7310
g1
(g18
g19
(lp7311
tp7312
Rp7313
(dp7314
g12
g7310
sbsVQueryTranslation
p7315
g1
(g6
g7
S'Paracaesio stonei[PORG] AND RAG1[title]'
p7316
tp7317
Rp7318
(dp7319
g12
g7315
sbsVTranslationStack
p7320
g1
(g18
g19
(lp7321
g1
(g2
g3
(dp7322
g7302
g1
(g6
g7
g8
tp7323
Rp7324
(dp7325
g12
g7302
sbsVField
p7326
g1
(g6
g7
S'PORG'
p7327
tp7328
Rp7329
(dp7330
g12
g7326
sbsVTerm
p7331
g1
(g6
g7
S'Paracaesio stonei[PORG]'
p7332
tp7333
Rp7334
(dp7335
g12
g7331
sbsVExplode
p7336
g1
(g6
g7
g52
tp7337
Rp7338
(dp7339
g12
g7336
sbstp7340
Rp7341
(dp7342
g12
VTermSet
p7343
sbag1
(g2
g3
(dp7344
g7302
g1
(g6
g7
S'31479'
p7345
tp7346
Rp7347
(dp7348
g12
g7302
sbsg7326
g1
(g6
g7
S'title'
p7349
tp7350
Rp7351
(dp7352
g12
g7326
sbsg7331
g1
(g6
g7
S'RAG1[title]'
p7353
tp7354
Rp7355
(dp7356
g12
g7331
sbsg7336
g1
(g6
g7
g73
tp7357
Rp7358
(dp7359
g12
g7336
sbstp7360
Rp7361
(dp7362
g12
g7343
sbag1
(g6
g7
S'AND'
p7363
tp7364
Rp7365
(dp7366
g12
VOP
p7367
sbatp7368
Rp7369
(dp7370
g12
g7320
sbsVRetStart
p7371
g1
(g6
g7
g89
tp7372
Rp7373
(dp7374
g12
g7371
sbsVTranslationSet
p7375
g1
(g18
g19
(lp7376
tp7377
Rp7378
(dp7379
g12
g7375
sbstp7380
Rp7381
(dp7382
g12
VeSearchResult
p7383
sbag1
(g2
g3
(dp7384
VCount
p7385
g1
(g6
g7
g89
tp7386
Rp7387
(dp7388
g12
g7385
sbsVRetMax
p7389
g1
(g6
g7
g89
tp7390
Rp7391
(dp7392
g12
g7389
sbsVIdList
p7393
g1
(g18
g19
(lp7394
tp7395
Rp7396
(dp7397
g12
g7393
sbsVRetStart
p7398
g1
(g6
g7
g89
tp7399
Rp7400
(dp7401
g12
g7398
sbsVErrorList
p7402
g1
(g1044
g3
(dp7403
VFieldNotFound
p7404
(lp7405
sVPhraseNotFound
p7406
(lp7407
g1
(g6
g7
S'Paracaesio waltervadi[PORG]'
p7408
tp7409
Rp7410
(dp7411
g12
VPhraseNotFound
p7412
sbastp7413
Rp7414
(dp7415
g12
g7402
sg1058
(lp7416
g7406
ag7404
asbsVTranslationSet
p7417
g1
(g18
g19
(lp7418
tp7419
Rp7420
(dp7421
g12
g7417
sbsVWarningList
p7422
g1
(g1044
g3
(dp7423
VOutputMessage
p7424
(lp7425
g1
(g6
g7
S'No items found.'
p7426
tp7427
Rp7428
(dp7429
g12
VOutputMessage
p7430
sbasVPhraseIgnored
p7431
(lp7432
sVQuotedPhraseNotFound
p7433
(lp7434
stp7435
Rp7436
(dp7437
g12
g7422
sg1058
(lp7438
g7431
ag7433
ag7424
asbsVQueryTranslation
p7439
g1
(g6
g7
S'Paracaesio waltervadi[PORG] AND RAG1[title]'
p7440
tp7441
Rp7442
(dp7443
g12
g7439
sbstp7444
Rp7445
(dp7446
g12
VeSearchResult
p7447
sbag1
(g2
g3
(dp7448
VCount
p7449
g1
(g6
g7
g89
tp7450
Rp7451
(dp7452
g12
g7449
sbsVRetMax
p7453
g1
(g6
g7
g89
tp7454
Rp7455
(dp7456
g12
g7453
sbsVIdList
p7457
g1
(g18
g19
(lp7458
tp7459
Rp7460
(dp7461
g12
g7457
sbsVQueryTranslation
p7462
g1
(g6
g7
S'Paracaesio xanthura[PORG] AND RAG1[title]'
p7463
tp7464
Rp7465
(dp7466
g12
g7462
sbsVTranslationStack
p7467
g1
(g18
g19
(lp7468
g1
(g2
g3
(dp7469
g7449
g1
(g6
g7
g796
tp7470
Rp7471
(dp7472
g12
g7449
sbsVField
p7473
g1
(g6
g7
S'PORG'
p7474
tp7475
Rp7476
(dp7477
g12
g7473
sbsVTerm
p7478
g1
(g6
g7
S'Paracaesio xanthura[PORG]'
p7479
tp7480
Rp7481
(dp7482
g12
g7478
sbsVExplode
p7483
g1
(g6
g7
g52
tp7484
Rp7485
(dp7486
g12
g7483
sbstp7487
Rp7488
(dp7489
g12
VTermSet
p7490
sbag1
(g2
g3
(dp7491
g7449
g1
(g6
g7
S'31479'
p7492
tp7493
Rp7494
(dp7495
g12
g7449
sbsg7473
g1
(g6
g7
S'title'
p7496
tp7497
Rp7498
(dp7499
g12
g7473
sbsg7478
g1
(g6
g7
S'RAG1[title]'
p7500
tp7501
Rp7502
(dp7503
g12
g7478
sbsg7483
g1
(g6
g7
g73
tp7504
Rp7505
(dp7506
g12
g7483
sbstp7507
Rp7508
(dp7509
g12
g7490
sbag1
(g6
g7
S'AND'
p7510
tp7511
Rp7512
(dp7513
g12
VOP
p7514
sbatp7515
Rp7516
(dp7517
g12
g7467
sbsVRetStart
p7518
g1
(g6
g7
g89
tp7519
Rp7520
(dp7521
g12
g7518
sbsVTranslationSet
p7522
g1
(g18
g19
(lp7523
tp7524
Rp7525
(dp7526
g12
g7522
sbstp7527
Rp7528
(dp7529
g12
VeSearchResult
p7530
sbag1
(g2
g3
(dp7531
VCount
p7532
g1
(g6
g7
g89
tp7533
Rp7534
(dp7535
g12
g7532
sbsVRetMax
p7536
g1
(g6
g7
g89
tp7537
Rp7538
(dp7539
g12
g7536
sbsVIdList
p7540
g1
(g18
g19
(lp7541
tp7542
Rp7543
(dp7544
g12
g7540
sbsVRetStart
p7545
g1
(g6
g7
g89
tp7546
Rp7547
(dp7548
g12
g7545
sbsVErrorList
p7549
g1
(g1044
g3
(dp7550
VFieldNotFound
p7551
(lp7552
sVPhraseNotFound
p7553
(lp7554
g1
(g6
g7
S'Parapristipomoides squamimaxillaris[PORG]'
p7555
tp7556
Rp7557
(dp7558
g12
VPhraseNotFound
p7559
sbastp7560
Rp7561
(dp7562
g12
g7549
sg1058
(lp7563
g7553
ag7551
asbsVTranslationSet
p7564
g1
(g18
g19
(lp7565
tp7566
Rp7567
(dp7568
g12
g7564
sbsVWarningList
p7569
g1
(g1044
g3
(dp7570
VOutputMessage
p7571
(lp7572
g1
(g6
g7
S'No items found.'
p7573
tp7574
Rp7575
(dp7576
g12
VOutputMessage
p7577
sbasVPhraseIgnored
p7578
(lp7579
sVQuotedPhraseNotFound
p7580
(lp7581
stp7582
Rp7583
(dp7584
g12
g7569
sg1058
(lp7585
g7578
ag7580
ag7571
asbsVQueryTranslation
p7586
g1
(g6
g7
S'Parapristipomoides squamimaxillaris[PORG] AND RAG1[title]'
p7587
tp7588
Rp7589
(dp7590
g12
g7586
sbstp7591
Rp7592
(dp7593
g12
VeSearchResult
p7594
sbag1
(g2
g3
(dp7595
VCount
p7596
g1
(g6
g7
g89
tp7597
Rp7598
(dp7599
g12
g7596
sbsVRetMax
p7600
g1
(g6
g7
g89
tp7601
Rp7602
(dp7603
g12
g7600
sbsVIdList
p7604
g1
(g18
g19
(lp7605
tp7606
Rp7607
(dp7608
g12
g7604
sbsVQueryTranslation
p7609
g1
(g6
g7
S'Pinjalo lewisi[PORG] AND RAG1[title]'
p7610
tp7611
Rp7612
(dp7613
g12
g7609
sbsVTranslationStack
p7614
g1
(g18
g19
(lp7615
g1
(g2
g3
(dp7616
g7596
g1
(g6
g7
S'6'
p7617
tp7618
Rp7619
(dp7620
g12
g7596
sbsVField
p7621
g1
(g6
g7
S'PORG'
p7622
tp7623
Rp7624
(dp7625
g12
g7621
sbsVTerm
p7626
g1
(g6
g7
S'Pinjalo lewisi[PORG]'
p7627
tp7628
Rp7629
(dp7630
g12
g7626
sbsVExplode
p7631
g1
(g6
g7
g52
tp7632
Rp7633
(dp7634
g12
g7631
sbstp7635
Rp7636
(dp7637
g12
VTermSet
p7638
sbag1
(g2
g3
(dp7639
g7596
g1
(g6
g7
S'31479'
p7640
tp7641
Rp7642
(dp7643
g12
g7596
sbsg7621
g1
(g6
g7
S'title'
p7644
tp7645
Rp7646
(dp7647
g12
g7621
sbsg7626
g1
(g6
g7
S'RAG1[title]'
p7648
tp7649
Rp7650
(dp7651
g12
g7626
sbsg7631
g1
(g6
g7
g73
tp7652
Rp7653
(dp7654
g12
g7631
sbstp7655
Rp7656
(dp7657
g12
g7638
sbag1
(g6
g7
S'AND'
p7658
tp7659
Rp7660
(dp7661
g12
VOP
p7662
sbatp7663
Rp7664
(dp7665
g12
g7614
sbsVRetStart
p7666
g1
(g6
g7
g89
tp7667
Rp7668
(dp7669
g12
g7666
sbsVTranslationSet
p7670
g1
(g18
g19
(lp7671
tp7672
Rp7673
(dp7674
g12
g7670
sbstp7675
Rp7676
(dp7677
g12
VeSearchResult
p7678
sbag1
(g2
g3
(dp7679
VCount
p7680
g1
(g6
g7
g8
tp7681
Rp7682
(dp7683
g12
g7680
sbsVRetMax
p7684
g1
(g6
g7
g8
tp7685
Rp7686
(dp7687
g12
g7684
sbsVIdList
p7688
g1
(g18
g19
(lp7689
g1
(g6
g7
S'166092557'
p7690
tp7691
Rp7692
(dp7693
g12
VId
p7694
sbatp7695
Rp7696
(dp7697
g12
g7688
sbsVQueryTranslation
p7698
g1
(g6
g7
S'Pinjalo pinjalo[PORG] AND RAG1[title]'
p7699
tp7700
Rp7701
(dp7702
g12
g7698
sbsVTranslationStack
p7703
g1
(g18
g19
(lp7704
g1
(g2
g3
(dp7705
g7680
g1
(g6
g7
S'16'
p7706
tp7707
Rp7708
(dp7709
g12
g7680
sbsVField
p7710
g1
(g6
g7
S'PORG'
p7711
tp7712
Rp7713
(dp7714
g12
g7710
sbsVTerm
p7715
g1
(g6
g7
S'Pinjalo pinjalo[PORG]'
p7716
tp7717
Rp7718
(dp7719
g12
g7715
sbsVExplode
p7720
g1
(g6
g7
g52
tp7721
Rp7722
(dp7723
g12
g7720
sbstp7724
Rp7725
(dp7726
g12
VTermSet
p7727
sbag1
(g2
g3
(dp7728
g7680
g1
(g6
g7
S'31479'
p7729
tp7730
Rp7731
(dp7732
g12
g7680
sbsg7710
g1
(g6
g7
S'title'
p7733
tp7734
Rp7735
(dp7736
g12
g7710
sbsg7715
g1
(g6
g7
S'RAG1[title]'
p7737
tp7738
Rp7739
(dp7740
g12
g7715
sbsg7720
g1
(g6
g7
g73
tp7741
Rp7742
(dp7743
g12
g7720
sbstp7744
Rp7745
(dp7746
g12
g7727
sbag1
(g6
g7
S'AND'
p7747
tp7748
Rp7749
(dp7750
g12
VOP
p7751
sbatp7752
Rp7753
(dp7754
g12
g7703
sbsVRetStart
p7755
g1
(g6
g7
g89
tp7756
Rp7757
(dp7758
g12
g7755
sbsVTranslationSet
p7759
g1
(g18
g19
(lp7760
tp7761
Rp7762
(dp7763
g12
g7759
sbstp7764
Rp7765
(dp7766
g12
VeSearchResult
p7767
sbag1
(g2
g3
(dp7768
VCount
p7769
g1
(g6
g7
g89
tp7770
Rp7771
(dp7772
g12
g7769
sbsVRetMax
p7773
g1
(g6
g7
g89
tp7774
Rp7775
(dp7776
g12
g7773
sbsVIdList
p7777
g1
(g18
g19
(lp7778
tp7779
Rp7780
(dp7781
g12
g7777
sbsVQueryTranslation
p7782
g1
(g6
g7
S'Pristipomoides aquilonaris[PORG] AND RAG1[title]'
p7783
tp7784
Rp7785
(dp7786
g12
g7782
sbsVTranslationStack
p7787
g1
(g18
g19
(lp7788
g1
(g2
g3
(dp7789
g7769
g1
(g6
g7
S'26'
p7790
tp7791
Rp7792
(dp7793
g12
g7769
sbsVField
p7794
g1
(g6
g7
S'PORG'
p7795
tp7796
Rp7797
(dp7798
g12
g7794
sbsVTerm
p7799
g1
(g6
g7
S'Pristipomoides aquilonaris[PORG]'
p7800
tp7801
Rp7802
(dp7803
g12
g7799
sbsVExplode
p7804
g1
(g6
g7
g52
tp7805
Rp7806
(dp7807
g12
g7804
sbstp7808
Rp7809
(dp7810
g12
VTermSet
p7811
sbag1
(g2
g3
(dp7812
g7769
g1
(g6
g7
S'31479'
p7813
tp7814
Rp7815
(dp7816
g12
g7769
sbsg7794
g1
(g6
g7
S'title'
p7817
tp7818
Rp7819
(dp7820
g12
g7794
sbsg7799
g1
(g6
g7
S'RAG1[title]'
p7821
tp7822
Rp7823
(dp7824
g12
g7799
sbsg7804
g1
(g6
g7
g73
tp7825
Rp7826
(dp7827
g12
g7804
sbstp7828
Rp7829
(dp7830
g12
g7811
sbag1
(g6
g7
S'AND'
p7831
tp7832
Rp7833
(dp7834
g12
VOP
p7835
sbatp7836
Rp7837
(dp7838
g12
g7787
sbsVRetStart
p7839
g1
(g6
g7
g89
tp7840
Rp7841
(dp7842
g12
g7839
sbsVTranslationSet
p7843
g1
(g18
g19
(lp7844
tp7845
Rp7846
(dp7847
g12
g7843
sbstp7848
Rp7849
(dp7850
g12
VeSearchResult
p7851
sbag1
(g2
g3
(dp7852
VCount
p7853
g1
(g6
g7
g89
tp7854
Rp7855
(dp7856
g12
g7853
sbsVRetMax
p7857
g1
(g6
g7
g89
tp7858
Rp7859
(dp7860
g12
g7857
sbsVIdList
p7861
g1
(g18
g19
(lp7862
tp7863
Rp7864
(dp7865
g12
g7861
sbsVQueryTranslation
p7866
g1
(g6
g7
S'Pristipomoides argyrogrammicus[PORG] AND RAG1[title]'
p7867
tp7868
Rp7869
(dp7870
g12
g7866
sbsVTranslationStack
p7871
g1
(g18
g19
(lp7872
g1
(g2
g3
(dp7873
g7853
g1
(g6
g7
g963
tp7874
Rp7875
(dp7876
g12
g7853
sbsVField
p7877
g1
(g6
g7
S'PORG'
p7878
tp7879
Rp7880
(dp7881
g12
g7877
sbsVTerm
p7882
g1
(g6
g7
S'Pristipomoides argyrogrammicus[PORG]'
p7883
tp7884
Rp7885
(dp7886
g12
g7882
sbsVExplode
p7887
g1
(g6
g7
g52
tp7888
Rp7889
(dp7890
g12
g7887
sbstp7891
Rp7892
(dp7893
g12
VTermSet
p7894
sbag1
(g2
g3
(dp7895
g7853
g1
(g6
g7
S'31479'
p7896
tp7897
Rp7898
(dp7899
g12
g7853
sbsg7877
g1
(g6
g7
S'title'
p7900
tp7901
Rp7902
(dp7903
g12
g7877
sbsg7882
g1
(g6
g7
S'RAG1[title]'
p7904
tp7905
Rp7906
(dp7907
g12
g7882
sbsg7887
g1
(g6
g7
g73
tp7908
Rp7909
(dp7910
g12
g7887
sbstp7911
Rp7912
(dp7913
g12
g7894
sbag1
(g6
g7
S'AND'
p7914
tp7915
Rp7916
(dp7917
g12
VOP
p7918
sbatp7919
Rp7920
(dp7921
g12
g7871
sbsVRetStart
p7922
g1
(g6
g7
g89
tp7923
Rp7924
(dp7925
g12
g7922
sbsVTranslationSet
p7926
g1
(g18
g19
(lp7927
tp7928
Rp7929
(dp7930
g12
g7926
sbstp7931
Rp7932
(dp7933
g12
VeSearchResult
p7934
sbag1
(g2
g3
(dp7935
VCount
p7936
g1
(g6
g7
g89
tp7937
Rp7938
(dp7939
g12
g7936
sbsVRetMax
p7940
g1
(g6
g7
g89
tp7941
Rp7942
(dp7943
g12
g7940
sbsVIdList
p7944
g1
(g18
g19
(lp7945
tp7946
Rp7947
(dp7948
g12
g7944
sbsVQueryTranslation
p7949
g1
(g6
g7
S'Pristipomoides auricilla[PORG] AND RAG1[title]'
p7950
tp7951
Rp7952
(dp7953
g12
g7949
sbsVTranslationStack
p7954
g1
(g18
g19
(lp7955
g1
(g2
g3
(dp7956
g7936
g1
(g6
g7
S'11'
p7957
tp7958
Rp7959
(dp7960
g12
g7936
sbsVField
p7961
g1
(g6
g7
S'PORG'
p7962
tp7963
Rp7964
(dp7965
g12
g7961
sbsVTerm
p7966
g1
(g6
g7
S'Pristipomoides auricilla[PORG]'
p7967
tp7968
Rp7969
(dp7970
g12
g7966
sbsVExplode
p7971
g1
(g6
g7
g52
tp7972
Rp7973
(dp7974
g12
g7971
sbstp7975
Rp7976
(dp7977
g12
VTermSet
p7978
sbag1
(g2
g3
(dp7979
g7936
g1
(g6
g7
S'31479'
p7980
tp7981
Rp7982
(dp7983
g12
g7936
sbsg7961
g1
(g6
g7
S'title'
p7984
tp7985
Rp7986
(dp7987
g12
g7961
sbsg7966
g1
(g6
g7
S'RAG1[title]'
p7988
tp7989
Rp7990
(dp7991
g12
g7966
sbsg7971
g1
(g6
g7
g73
tp7992
Rp7993
(dp7994
g12
g7971
sbstp7995
Rp7996
(dp7997
g12
g7978
sbag1
(g6
g7
S'AND'
p7998
tp7999
Rp8000
(dp8001
g12
VOP
p8002
sbatp8003
Rp8004
(dp8005
g12
g7954
sbsVRetStart
p8006
g1
(g6
g7
g89
tp8007
Rp8008
(dp8009
g12
g8006
sbsVTranslationSet
p8010
g1
(g18
g19
(lp8011
tp8012
Rp8013
(dp8014
g12
g8010
sbstp8015
Rp8016
(dp8017
g12
VeSearchResult
p8018
sbag1
(g2
g3
(dp8019
VCount
p8020
g1
(g6
g7
g89
tp8021
Rp8022
(dp8023
g12
g8020
sbsVRetMax
p8024
g1
(g6
g7
g89
tp8025
Rp8026
(dp8027
g12
g8024
sbsVIdList
p8028
g1
(g18
g19
(lp8029
tp8030
Rp8031
(dp8032
g12
g8028
sbsVQueryTranslation
p8033
g1
(g6
g7
S'Pristipomoides filamentosus[PORG] AND RAG1[title]'
p8034
tp8035
Rp8036
(dp8037
g12
g8033
sbsVTranslationStack
p8038
g1
(g18
g19
(lp8039
g1
(g2
g3
(dp8040
g8020
g1
(g6
g7
S'184'
p8041
tp8042
Rp8043
(dp8044
g12
g8020
sbsVField
p8045
g1
(g6
g7
S'PORG'
p8046
tp8047
Rp8048
(dp8049
g12
g8045
sbsVTerm
p8050
g1
(g6
g7
S'Pristipomoides filamentosus[PORG]'
p8051
tp8052
Rp8053
(dp8054
g12
g8050
sbsVExplode
p8055
g1
(g6
g7
g52
tp8056
Rp8057
(dp8058
g12
g8055
sbstp8059
Rp8060
(dp8061
g12
VTermSet
p8062
sbag1
(g2
g3
(dp8063
g8020
g1
(g6
g7
S'31479'
p8064
tp8065
Rp8066
(dp8067
g12
g8020
sbsg8045
g1
(g6
g7
S'title'
p8068
tp8069
Rp8070
(dp8071
g12
g8045
sbsg8050
g1
(g6
g7
S'RAG1[title]'
p8072
tp8073
Rp8074
(dp8075
g12
g8050
sbsg8055
g1
(g6
g7
g73
tp8076
Rp8077
(dp8078
g12
g8055
sbstp8079
Rp8080
(dp8081
g12
g8062
sbag1
(g6
g7
S'AND'
p8082
tp8083
Rp8084
(dp8085
g12
VOP
p8086
sbatp8087
Rp8088
(dp8089
g12
g8038
sbsVRetStart
p8090
g1
(g6
g7
g89
tp8091
Rp8092
(dp8093
g12
g8090
sbsVTranslationSet
p8094
g1
(g18
g19
(lp8095
tp8096
Rp8097
(dp8098
g12
g8094
sbstp8099
Rp8100
(dp8101
g12
VeSearchResult
p8102
sbag1
(g2
g3
(dp8103
VCount
p8104
g1
(g6
g7
g89
tp8105
Rp8106
(dp8107
g12
g8104
sbsVRetMax
p8108
g1
(g6
g7
g89
tp8109
Rp8110
(dp8111
g12
g8108
sbsVIdList
p8112
g1
(g18
g19
(lp8113
tp8114
Rp8115
(dp8116
g12
g8112
sbsVQueryTranslation
p8117
g1
(g6
g7
S'Pristipomoides flavipinnis[PORG] AND RAG1[title]'
p8118
tp8119
Rp8120
(dp8121
g12
g8117
sbsVTranslationStack
p8122
g1
(g18
g19
(lp8123
g1
(g2
g3
(dp8124
g8104
g1
(g6
g7
g8
tp8125
Rp8126
(dp8127
g12
g8104
sbsVField
p8128
g1
(g6
g7
S'PORG'
p8129
tp8130
Rp8131
(dp8132
g12
g8128
sbsVTerm
p8133
g1
(g6
g7
S'Pristipomoides flavipinnis[PORG]'
p8134
tp8135
Rp8136
(dp8137
g12
g8133
sbsVExplode
p8138
g1
(g6
g7
g52
tp8139
Rp8140
(dp8141
g12
g8138
sbstp8142
Rp8143
(dp8144
g12
VTermSet
p8145
sbag1
(g2
g3
(dp8146
g8104
g1
(g6
g7
S'31479'
p8147
tp8148
Rp8149
(dp8150
g12
g8104
sbsg8128
g1
(g6
g7
S'title'
p8151
tp8152
Rp8153
(dp8154
g12
g8128
sbsg8133
g1
(g6
g7
S'RAG1[title]'
p8155
tp8156
Rp8157
(dp8158
g12
g8133
sbsg8138
g1
(g6
g7
g73
tp8159
Rp8160
(dp8161
g12
g8138
sbstp8162
Rp8163
(dp8164
g12
g8145
sbag1
(g6
g7
S'AND'
p8165
tp8166
Rp8167
(dp8168
g12
VOP
p8169
sbatp8170
Rp8171
(dp8172
g12
g8122
sbsVRetStart
p8173
g1
(g6
g7
g89
tp8174
Rp8175
(dp8176
g12
g8173
sbsVTranslationSet
p8177
g1
(g18
g19
(lp8178
tp8179
Rp8180
(dp8181
g12
g8177
sbstp8182
Rp8183
(dp8184
g12
VeSearchResult
p8185
sbag1
(g2
g3
(dp8186
VCount
p8187
g1
(g6
g7
g89
tp8188
Rp8189
(dp8190
g12
g8187
sbsVRetMax
p8191
g1
(g6
g7
g89
tp8192
Rp8193
(dp8194
g12
g8191
sbsVIdList
p8195
g1
(g18
g19
(lp8196
tp8197
Rp8198
(dp8199
g12
g8195
sbsVRetStart
p8200
g1
(g6
g7
g89
tp8201
Rp8202
(dp8203
g12
g8200
sbsVErrorList
p8204
g1
(g1044
g3
(dp8205
VFieldNotFound
p8206
(lp8207
sVPhraseNotFound
p8208
(lp8209
g1
(g6
g7
S'Pristipomoides freemani[PORG]'
p8210
tp8211
Rp8212
(dp8213
g12
VPhraseNotFound
p8214
sbastp8215
Rp8216
(dp8217
g12
g8204
sg1058
(lp8218
g8208
ag8206
asbsVTranslationSet
p8219
g1
(g18
g19
(lp8220
tp8221
Rp8222
(dp8223
g12
g8219
sbsVWarningList
p8224
g1
(g1044
g3
(dp8225
VOutputMessage
p8226
(lp8227
g1
(g6
g7
S'No items found.'
p8228
tp8229
Rp8230
(dp8231
g12
VOutputMessage
p8232
sbasVPhraseIgnored
p8233
(lp8234
sVQuotedPhraseNotFound
p8235
(lp8236
stp8237
Rp8238
(dp8239
g12
g8224
sg1058
(lp8240
g8233
ag8235
ag8226
asbsVQueryTranslation
p8241
g1
(g6
g7
S'Pristipomoides freemani[PORG] AND RAG1[title]'
p8242
tp8243
Rp8244
(dp8245
g12
g8241
sbstp8246
Rp8247
(dp8248
g12
VeSearchResult
p8249
sbag1
(g2
g3
(dp8250
VCount
p8251
g1
(g6
g7
g89
tp8252
Rp8253
(dp8254
g12
g8251
sbsVRetMax
p8255
g1
(g6
g7
g89
tp8256
Rp8257
(dp8258
g12
g8255
sbsVIdList
p8259
g1
(g18
g19
(lp8260
tp8261
Rp8262
(dp8263
g12
g8259
sbsVRetStart
p8264
g1
(g6
g7
g89
tp8265
Rp8266
(dp8267
g12
g8264
sbsVErrorList
p8268
g1
(g1044
g3
(dp8269
VFieldNotFound
p8270
(lp8271
sVPhraseNotFound
p8272
(lp8273
g1
(g6
g7
S'Pristipomoides macrophthalmus[PORG]'
p8274
tp8275
Rp8276
(dp8277
g12
VPhraseNotFound
p8278
sbastp8279
Rp8280
(dp8281
g12
g8268
sg1058
(lp8282
g8272
ag8270
asbsVTranslationSet
p8283
g1
(g18
g19
(lp8284
tp8285
Rp8286
(dp8287
g12
g8283
sbsVWarningList
p8288
g1
(g1044
g3
(dp8289
VOutputMessage
p8290
(lp8291
g1
(g6
g7
S'No items found.'
p8292
tp8293
Rp8294
(dp8295
g12
VOutputMessage
p8296
sbasVPhraseIgnored
p8297
(lp8298
sVQuotedPhraseNotFound
p8299
(lp8300
stp8301
Rp8302
(dp8303
g12
g8288
sg1058
(lp8304
g8297
ag8299
ag8290
asbsVQueryTranslation
p8305
g1
(g6
g7
S'Pristipomoides macrophthalmus[PORG] AND RAG1[title]'
p8306
tp8307
Rp8308
(dp8309
g12
g8305
sbstp8310
Rp8311
(dp8312
g12
VeSearchResult
p8313
sbag1
(g2
g3
(dp8314
VCount
p8315
g1
(g6
g7
g89
tp8316
Rp8317
(dp8318
g12
g8315
sbsVRetMax
p8319
g1
(g6
g7
g89
tp8320
Rp8321
(dp8322
g12
g8319
sbsVIdList
p8323
g1
(g18
g19
(lp8324
tp8325
Rp8326
(dp8327
g12
g8323
sbsVQueryTranslation
p8328
g1
(g6
g7
S'Pristipomoides multidens[PORG] AND RAG1[title]'
p8329
tp8330
Rp8331
(dp8332
g12
g8328
sbsVTranslationStack
p8333
g1
(g18
g19
(lp8334
g1
(g2
g3
(dp8335
g8315
g1
(g6
g7
S'93'
p8336
tp8337
Rp8338
(dp8339
g12
g8315
sbsVField
p8340
g1
(g6
g7
S'PORG'
p8341
tp8342
Rp8343
(dp8344
g12
g8340
sbsVTerm
p8345
g1
(g6
g7
S'Pristipomoides multidens[PORG]'
p8346
tp8347
Rp8348
(dp8349
g12
g8345
sbsVExplode
p8350
g1
(g6
g7
g52
tp8351
Rp8352
(dp8353
g12
g8350
sbstp8354
Rp8355
(dp8356
g12
VTermSet
p8357
sbag1
(g2
g3
(dp8358
g8315
g1
(g6
g7
S'31479'
p8359
tp8360
Rp8361
(dp8362
g12
g8315
sbsg8340
g1
(g6
g7
S'title'
p8363
tp8364
Rp8365
(dp8366
g12
g8340
sbsg8345
g1
(g6
g7
S'RAG1[title]'
p8367
tp8368
Rp8369
(dp8370
g12
g8345
sbsg8350
g1
(g6
g7
g73
tp8371
Rp8372
(dp8373
g12
g8350
sbstp8374
Rp8375
(dp8376
g12
g8357
sbag1
(g6
g7
S'AND'
p8377
tp8378
Rp8379
(dp8380
g12
VOP
p8381
sbatp8382
Rp8383
(dp8384
g12
g8333
sbsVRetStart
p8385
g1
(g6
g7
g89
tp8386
Rp8387
(dp8388
g12
g8385
sbsVTranslationSet
p8389
g1
(g18
g19
(lp8390
tp8391
Rp8392
(dp8393
g12
g8389
sbstp8394
Rp8395
(dp8396
g12
VeSearchResult
p8397
sbag1
(g2
g3
(dp8398
VCount
p8399
g1
(g6
g7
g89
tp8400
Rp8401
(dp8402
g12
g8399
sbsVRetMax
p8403
g1
(g6
g7
g89
tp8404
Rp8405
(dp8406
g12
g8403
sbsVIdList
p8407
g1
(g18
g19
(lp8408
tp8409
Rp8410
(dp8411
g12
g8407
sbsVQueryTranslation
p8412
g1
(g6
g7
S'Pristipomoides sieboldii[PORG] AND RAG1[title]'
p8413
tp8414
Rp8415
(dp8416
g12
g8412
sbsVTranslationStack
p8417
g1
(g18
g19
(lp8418
g1
(g2
g3
(dp8419
g8399
g1
(g6
g7
S'7'
p8420
tp8421
Rp8422
(dp8423
g12
g8399
sbsVField
p8424
g1
(g6
g7
S'PORG'
p8425
tp8426
Rp8427
(dp8428
g12
g8424
sbsVTerm
p8429
g1
(g6
g7
S'Pristipomoides sieboldii[PORG]'
p8430
tp8431
Rp8432
(dp8433
g12
g8429
sbsVExplode
p8434
g1
(g6
g7
g52
tp8435
Rp8436
(dp8437
g12
g8434
sbstp8438
Rp8439
(dp8440
g12
VTermSet
p8441
sbag1
(g2
g3
(dp8442
g8399
g1
(g6
g7
S'31479'
p8443
tp8444
Rp8445
(dp8446
g12
g8399
sbsg8424
g1
(g6
g7
S'title'
p8447
tp8448
Rp8449
(dp8450
g12
g8424
sbsg8429
g1
(g6
g7
S'RAG1[title]'
p8451
tp8452
Rp8453
(dp8454
g12
g8429
sbsg8434
g1
(g6
g7
g73
tp8455
Rp8456
(dp8457
g12
g8434
sbstp8458
Rp8459
(dp8460
g12
g8441
sbag1
(g6
g7
S'AND'
p8461
tp8462
Rp8463
(dp8464
g12
VOP
p8465
sbatp8466
Rp8467
(dp8468
g12
g8417
sbsVRetStart
p8469
g1
(g6
g7
g89
tp8470
Rp8471
(dp8472
g12
g8469
sbsVTranslationSet
p8473
g1
(g18
g19
(lp8474
tp8475
Rp8476
(dp8477
g12
g8473
sbstp8478
Rp8479
(dp8480
g12
VeSearchResult
p8481
sbag1
(g2
g3
(dp8482
VCount
p8483
g1
(g6
g7
g89
tp8484
Rp8485
(dp8486
g12
g8483
sbsVRetMax
p8487
g1
(g6
g7
g89
tp8488
Rp8489
(dp8490
g12
g8487
sbsVIdList
p8491
g1
(g18
g19
(lp8492
tp8493
Rp8494
(dp8495
g12
g8491
sbsVQueryTranslation
p8496
g1
(g6
g7
S'Pristipomoides typus[PORG] AND RAG1[title]'
p8497
tp8498
Rp8499
(dp8500
g12
g8496
sbsVTranslationStack
p8501
g1
(g18
g19
(lp8502
g1
(g2
g3
(dp8503
g8483
g1
(g6
g7
g963
tp8504
Rp8505
(dp8506
g12
g8483
sbsVField
p8507
g1
(g6
g7
S'PORG'
p8508
tp8509
Rp8510
(dp8511
g12
g8507
sbsVTerm
p8512
g1
(g6
g7
S'Pristipomoides typus[PORG]'
p8513
tp8514
Rp8515
(dp8516
g12
g8512
sbsVExplode
p8517
g1
(g6
g7
g52
tp8518
Rp8519
(dp8520
g12
g8517
sbstp8521
Rp8522
(dp8523
g12
VTermSet
p8524
sbag1
(g2
g3
(dp8525
g8483
g1
(g6
g7
S'31479'
p8526
tp8527
Rp8528
(dp8529
g12
g8483
sbsg8507
g1
(g6
g7
S'title'
p8530
tp8531
Rp8532
(dp8533
g12
g8507
sbsg8512
g1
(g6
g7
S'RAG1[title]'
p8534
tp8535
Rp8536
(dp8537
g12
g8512
sbsg8517
g1
(g6
g7
g73
tp8538
Rp8539
(dp8540
g12
g8517
sbstp8541
Rp8542
(dp8543
g12
g8524
sbag1
(g6
g7
S'AND'
p8544
tp8545
Rp8546
(dp8547
g12
VOP
p8548
sbatp8549
Rp8550
(dp8551
g12
g8501
sbsVRetStart
p8552
g1
(g6
g7
g89
tp8553
Rp8554
(dp8555
g12
g8552
sbsVTranslationSet
p8556
g1
(g18
g19
(lp8557
tp8558
Rp8559
(dp8560
g12
g8556
sbstp8561
Rp8562
(dp8563
g12
VeSearchResult
p8564
sbag1
(g2
g3
(dp8565
VCount
p8566
g1
(g6
g7
g89
tp8567
Rp8568
(dp8569
g12
g8566
sbsVRetMax
p8570
g1
(g6
g7
g89
tp8571
Rp8572
(dp8573
g12
g8570
sbsVIdList
p8574
g1
(g18
g19
(lp8575
tp8576
Rp8577
(dp8578
g12
g8574
sbsVQueryTranslation
p8579
g1
(g6
g7
S'Pristipomoides zonatus[PORG] AND RAG1[title]'
p8580
tp8581
Rp8582
(dp8583
g12
g8579
sbsVTranslationStack
p8584
g1
(g18
g19
(lp8585
g1
(g2
g3
(dp8586
g8566
g1
(g6
g7
g8
tp8587
Rp8588
(dp8589
g12
g8566
sbsVField
p8590
g1
(g6
g7
S'PORG'
p8591
tp8592
Rp8593
(dp8594
g12
g8590
sbsVTerm
p8595
g1
(g6
g7
S'Pristipomoides zonatus[PORG]'
p8596
tp8597
Rp8598
(dp8599
g12
g8595
sbsVExplode
p8600
g1
(g6
g7
g52
tp8601
Rp8602
(dp8603
g12
g8600
sbstp8604
Rp8605
(dp8606
g12
VTermSet
p8607
sbag1
(g2
g3
(dp8608
g8566
g1
(g6
g7
S'31479'
p8609
tp8610
Rp8611
(dp8612
g12
g8566
sbsg8590
g1
(g6
g7
S'title'
p8613
tp8614
Rp8615
(dp8616
g12
g8590
sbsg8595
g1
(g6
g7
S'RAG1[title]'
p8617
tp8618
Rp8619
(dp8620
g12
g8595
sbsg8600
g1
(g6
g7
g73
tp8621
Rp8622
(dp8623
g12
g8600
sbstp8624
Rp8625
(dp8626
g12
g8607
sbag1
(g6
g7
S'AND'
p8627
tp8628
Rp8629
(dp8630
g12
VOP
p8631
sbatp8632
Rp8633
(dp8634
g12
g8584
sbsVRetStart
p8635
g1
(g6
g7
g89
tp8636
Rp8637
(dp8638
g12
g8635
sbsVTranslationSet
p8639
g1
(g18
g19
(lp8640
tp8641
Rp8642
(dp8643
g12
g8639
sbstp8644
Rp8645
(dp8646
g12
VeSearchResult
p8647
sbag1
(g2
g3
(dp8648
VCount
p8649
g1
(g6
g7
g89
tp8650
Rp8651
(dp8652
g12
g8649
sbsVRetMax
p8653
g1
(g6
g7
g89
tp8654
Rp8655
(dp8656
g12
g8653
sbsVIdList
p8657
g1
(g18
g19
(lp8658
tp8659
Rp8660
(dp8661
g12
g8657
sbsVQueryTranslation
p8662
g1
(g6
g7
S'Randallichthys filamentosus[PORG] AND RAG1[title]'
p8663
tp8664
Rp8665
(dp8666
g12
g8662
sbsVTranslationStack
p8667
g1
(g18
g19
(lp8668
g1
(g2
g3
(dp8669
g8649
g1
(g6
g7
g1221
tp8670
Rp8671
(dp8672
g12
g8649
sbsVField
p8673
g1
(g6
g7
S'PORG'
p8674
tp8675
Rp8676
(dp8677
g12
g8673
sbsVTerm
p8678
g1
(g6
g7
S'Randallichthys filamentosus[PORG]'
p8679
tp8680
Rp8681
(dp8682
g12
g8678
sbsVExplode
p8683
g1
(g6
g7
g52
tp8684
Rp8685
(dp8686
g12
g8683
sbstp8687
Rp8688
(dp8689
g12
VTermSet
p8690
sbag1
(g2
g3
(dp8691
g8649
g1
(g6
g7
S'31479'
p8692
tp8693
Rp8694
(dp8695
g12
g8649
sbsg8673
g1
(g6
g7
S'title'
p8696
tp8697
Rp8698
(dp8699
g12
g8673
sbsg8678
g1
(g6
g7
S'RAG1[title]'
p8700
tp8701
Rp8702
(dp8703
g12
g8678
sbsg8683
g1
(g6
g7
g73
tp8704
Rp8705
(dp8706
g12
g8683
sbstp8707
Rp8708
(dp8709
g12
g8690
sbag1
(g6
g7
S'AND'
p8710
tp8711
Rp8712
(dp8713
g12
VOP
p8714
sbatp8715
Rp8716
(dp8717
g12
g8667
sbsVRetStart
p8718
g1
(g6
g7
g89
tp8719
Rp8720
(dp8721
g12
g8718
sbsVTranslationSet
p8722
g1
(g18
g19
(lp8723
tp8724
Rp8725
(dp8726
g12
g8722
sbstp8727
Rp8728
(dp8729
g12
VeSearchResult
p8730
sbag1
(g2
g3
(dp8731
VCount
p8732
g1
(g6
g7
g8
tp8733
Rp8734
(dp8735
g12
g8732
sbsVRetMax
p8736
g1
(g6
g7
g8
tp8737
Rp8738
(dp8739
g12
g8736
sbsVIdList
p8740
g1
(g18
g19
(lp8741
g1
(g6
g7
S'531996251'
p8742
tp8743
Rp8744
(dp8745
g12
VId
p8746
sbatp8747
Rp8748
(dp8749
g12
g8740
sbsVQueryTranslation
p8750
g1
(g6
g7
S'Rhomboplites aurorubens[PORG] AND RAG1[title]'
p8751
tp8752
Rp8753
(dp8754
g12
g8750
sbsVTranslationStack
p8755
g1
(g18
g19
(lp8756
g1
(g2
g3
(dp8757
g8732
g1
(g6
g7
S'60'
p8758
tp8759
Rp8760
(dp8761
g12
g8732
sbsVField
p8762
g1
(g6
g7
S'PORG'
p8763
tp8764
Rp8765
(dp8766
g12
g8762
sbsVTerm
p8767
g1
(g6
g7
S'Rhomboplites aurorubens[PORG]'
p8768
tp8769
Rp8770
(dp8771
g12
g8767
sbsVExplode
p8772
g1
(g6
g7
g52
tp8773
Rp8774
(dp8775
g12
g8772
sbstp8776
Rp8777
(dp8778
g12
VTermSet
p8779
sbag1
(g2
g3
(dp8780
g8732
g1
(g6
g7
S'31479'
p8781
tp8782
Rp8783
(dp8784
g12
g8732
sbsg8762
g1
(g6
g7
S'title'
p8785
tp8786
Rp8787
(dp8788
g12
g8762
sbsg8767
g1
(g6
g7
S'RAG1[title]'
p8789
tp8790
Rp8791
(dp8792
g12
g8767
sbsg8772
g1
(g6
g7
g73
tp8793
Rp8794
(dp8795
g12
g8772
sbstp8796
Rp8797
(dp8798
g12
g8779
sbag1
(g6
g7
S'AND'
p8799
tp8800
Rp8801
(dp8802
g12
VOP
p8803
sbatp8804
Rp8805
(dp8806
g12
g8755
sbsVRetStart
p8807
g1
(g6
g7
g89
tp8808
Rp8809
(dp8810
g12
g8807
sbsVTranslationSet
p8811
g1
(g18
g19
(lp8812
tp8813
Rp8814
(dp8815
g12
g8811
sbstp8816
Rp8817
(dp8818
g12
VeSearchResult
p8819
sbag1
(g2
g3
(dp8820
VCount
p8821
g1
(g6
g7
g89
tp8822
Rp8823
(dp8824
g12
g8821
sbsVRetMax
p8825
g1
(g6
g7
g89
tp8826
Rp8827
(dp8828
g12
g8825
sbsVIdList
p8829
g1
(g18
g19
(lp8830
tp8831
Rp8832
(dp8833
g12
g8829
sbsVQueryTranslation
p8834
g1
(g6
g7
S'Symphorichthys spilurus[PORG] AND RAG1[title]'
p8835
tp8836
Rp8837
(dp8838
g12
g8834
sbsVTranslationStack
p8839
g1
(g18
g19
(lp8840
g1
(g2
g3
(dp8841
g8821
g1
(g6
g7
g1853
tp8842
Rp8843
(dp8844
g12
g8821
sbsVField
p8845
g1
(g6
g7
S'PORG'
p8846
tp8847
Rp8848
(dp8849
g12
g8845
sbsVTerm
p8850
g1
(g6
g7
S'Symphorichthys spilurus[PORG]'
p8851
tp8852
Rp8853
(dp8854
g12
g8850
sbsVExplode
p8855
g1
(g6
g7
g52
tp8856
Rp8857
(dp8858
g12
g8855
sbstp8859
Rp8860
(dp8861
g12
VTermSet
p8862
sbag1
(g2
g3
(dp8863
g8821
g1
(g6
g7
S'31479'
p8864
tp8865
Rp8866
(dp8867
g12
g8821
sbsg8845
g1
(g6
g7
S'title'
p8868
tp8869
Rp8870
(dp8871
g12
g8845
sbsg8850
g1
(g6
g7
S'RAG1[title]'
p8872
tp8873
Rp8874
(dp8875
g12
g8850
sbsg8855
g1
(g6
g7
g73
tp8876
Rp8877
(dp8878
g12
g8855
sbstp8879
Rp8880
(dp8881
g12
g8862
sbag1
(g6
g7
S'AND'
p8882
tp8883
Rp8884
(dp8885
g12
VOP
p8886
sbatp8887
Rp8888
(dp8889
g12
g8839
sbsVRetStart
p8890
g1
(g6
g7
g89
tp8891
Rp8892
(dp8893
g12
g8890
sbsVTranslationSet
p8894
g1
(g18
g19
(lp8895
tp8896
Rp8897
(dp8898
g12
g8894
sbstp8899
Rp8900
(dp8901
g12
VeSearchResult
p8902
sbag1
(g2
g3
(dp8903
VCount
p8904
g1
(g6
g7
g8
tp8905
Rp8906
(dp8907
g12
g8904
sbsVRetMax
p8908
g1
(g6
g7
g8
tp8909
Rp8910
(dp8911
g12
g8908
sbsVIdList
p8912
g1
(g18
g19
(lp8913
g1
(g6
g7
S'166092589'
p8914
tp8915
Rp8916
(dp8917
g12
VId
p8918
sbatp8919
Rp8920
(dp8921
g12
g8912
sbsVQueryTranslation
p8922
g1
(g6
g7
S'Symphorus nematophorus[PORG] AND RAG1[title]'
p8923
tp8924
Rp8925
(dp8926
g12
g8922
sbsVTranslationStack
p8927
g1
(g18
g19
(lp8928
g1
(g2
g3
(dp8929
g8904
g1
(g6
g7
g963
tp8930
Rp8931
(dp8932
g12
g8904
sbsVField
p8933
g1
(g6
g7
S'PORG'
p8934
tp8935
Rp8936
(dp8937
g12
g8933
sbsVTerm
p8938
g1
(g6
g7
S'Symphorus nematophorus[PORG]'
p8939
tp8940
Rp8941
(dp8942
g12
g8938
sbsVExplode
p8943
g1
(g6
g7
g52
tp8944
Rp8945
(dp8946
g12
g8943
sbstp8947
Rp8948
(dp8949
g12
VTermSet
p8950
sbag1
(g2
g3
(dp8951
g8904
g1
(g6
g7
S'31479'
p8952
tp8953
Rp8954
(dp8955
g12
g8904
sbsg8933
g1
(g6
g7
S'title'
p8956
tp8957
Rp8958
(dp8959
g12
g8933
sbsg8938
g1
(g6
g7
S'RAG1[title]'
p8960
tp8961
Rp8962
(dp8963
g12
g8938
sbsg8943
g1
(g6
g7
g73
tp8964
Rp8965
(dp8966
g12
g8943
sbstp8967
Rp8968
(dp8969
g12
g8950
sbag1
(g6
g7
S'AND'
p8970
tp8971
Rp8972
(dp8973
g12
VOP
p8974
sbatp8975
Rp8976
(dp8977
g12
g8927
sbsVRetStart
p8978
g1
(g6
g7
g89
tp8979
Rp8980
(dp8981
g12
g8978
sbsVTranslationSet
p8982
g1
(g18
g19
(lp8983
tp8984
Rp8985
(dp8986
g12
g8982
sbstp8987
Rp8988
(dp8989
g12
VeSearchResult
p8990
sba.