(lp0
ccopy_reg
_reconstructor
p1
(cBio.Entrez.Parser
DictionaryElement
p2
c__builtin__
dict
p3
(dp4
VCount
p5
g1
(cBio.Entrez.Parser
StringElement
p6
c__builtin__
str
p7
S'0'
p8
tp9
Rp10
(dp11
S'tag'
p12
g5
sbsVRetMax
p13
g1
(g6
g7
g8
tp14
Rp15
(dp16
g12
g13
sbsVIdList
p17
g1
(cBio.Entrez.Parser
ListElement
p18
c__builtin__
list
p19
(lp20
tp21
Rp22
(dp23
g12
g17
sbsVQueryTranslation
p24
g1
(g6
g7
S'Aphareus furca[PORG] AND Rhodopsin[title]'
p25
tp26
Rp27
(dp28
g12
g24
sbsVTranslationStack
p29
g1
(g18
g19
(lp30
g1
(g2
g3
(dp31
g5
g1
(g6
g7
S'26'
p32
tp33
Rp34
(dp35
g12
g5
sbsVField
p36
g1
(g6
g7
S'PORG'
p37
tp38
Rp39
(dp40
g12
g36
sbsVTerm
p41
g1
(g6
g7
S'Aphareus furca[PORG]'
p42
tp43
Rp44
(dp45
g12
g41
sbsVExplode
p46
g1
(g6
g7
S'Y'
p47
tp48
Rp49
(dp50
g12
g46
sbstp51
Rp52
(dp53
g12
VTermSet
p54
sbag1
(g2
g3
(dp55
g5
g1
(g6
g7
S'27665'
p56
tp57
Rp58
(dp59
g12
g5
sbsg36
g1
(g6
g7
S'title'
p60
tp61
Rp62
(dp63
g12
g36
sbsg41
g1
(g6
g7
S'Rhodopsin[title]'
p64
tp65
Rp66
(dp67
g12
g41
sbsg46
g1
(g6
g7
S'N'
p68
tp69
Rp70
(dp71
g12
g46
sbstp72
Rp73
(dp74
g12
g54
sbag1
(g6
g7
S'AND'
p75
tp76
Rp77
(dp78
g12
VOP
p79
sbatp80
Rp81
(dp82
g12
g29
sbsVRetStart
p83
g1
(g6
g7
g8
tp84
Rp85
(dp86
g12
g83
sbsVTranslationSet
p87
g1
(g18
g19
(lp88
tp89
Rp90
(dp91
g12
g87
sbstp92
Rp93
(dp94
g12
VeSearchResult
p95
sbag1
(g2
g3
(dp96
VCount
p97
g1
(g6
g7
g8
tp98
Rp99
(dp100
g12
g97
sbsVRetMax
p101
g1
(g6
g7
g8
tp102
Rp103
(dp104
g12
g101
sbsVIdList
p105
g1
(g18
g19
(lp106
tp107
Rp108
(dp109
g12
g105
sbsVQueryTranslation
p110
g1
(g6
g7
S'Aphareus rutilans[PORG] AND Rhodopsin[title]'
p111
tp112
Rp113
(dp114
g12
g110
sbsVTranslationStack
p115
g1
(g18
g19
(lp116
g1
(g2
g3
(dp117
g97
g1
(g6
g7
S'12'
p118
tp119
Rp120
(dp121
g12
g97
sbsVField
p122
g1
(g6
g7
S'PORG'
p123
tp124
Rp125
(dp126
g12
g122
sbsVTerm
p127
g1
(g6
g7
S'Aphareus rutilans[PORG]'
p128
tp129
Rp130
(dp131
g12
g127
sbsVExplode
p132
g1
(g6
g7
g47
tp133
Rp134
(dp135
g12
g132
sbstp136
Rp137
(dp138
g12
VTermSet
p139
sbag1
(g2
g3
(dp140
g97
g1
(g6
g7
S'27665'
p141
tp142
Rp143
(dp144
g12
g97
sbsg122
g1
(g6
g7
S'title'
p145
tp146
Rp147
(dp148
g12
g122
sbsg127
g1
(g6
g7
S'Rhodopsin[title]'
p149
tp150
Rp151
(dp152
g12
g127
sbsg132
g1
(g6
g7
g68
tp153
Rp154
(dp155
g12
g132
sbstp156
Rp157
(dp158
g12
g139
sbag1
(g6
g7
S'AND'
p159
tp160
Rp161
(dp162
g12
VOP
p163
sbatp164
Rp165
(dp166
g12
g115
sbsVRetStart
p167
g1
(g6
g7
g8
tp168
Rp169
(dp170
g12
g167
sbsVTranslationSet
p171
g1
(g18
g19
(lp172
tp173
Rp174
(dp175
g12
g171
sbstp176
Rp177
(dp178
g12
VeSearchResult
p179
sbag1
(g2
g3
(dp180
VCount
p181
g1
(g6
g7
g8
tp182
Rp183
(dp184
g12
g181
sbsVRetMax
p185
g1
(g6
g7
g8
tp186
Rp187
(dp188
g12
g185
sbsVIdList
p189
g1
(g18
g19
(lp190
tp191
Rp192
(dp193
g12
g189
sbsVQueryTranslation
p194
g1
(g6
g7
S'Aprion virescens[PORG] AND Rhodopsin[title]'
p195
tp196
Rp197
(dp198
g12
g194
sbsVTranslationStack
p199
g1
(g18
g19
(lp200
g1
(g2
g3
(dp201
g181
g1
(g6
g7
S'19'
p202
tp203
Rp204
(dp205
g12
g181
sbsVField
p206
g1
(g6
g7
S'PORG'
p207
tp208
Rp209
(dp210
g12
g206
sbsVTerm
p211
g1
(g6
g7
S'Aprion virescens[PORG]'
p212
tp213
Rp214
(dp215
g12
g211
sbsVExplode
p216
g1
(g6
g7
g47
tp217
Rp218
(dp219
g12
g216
sbstp220
Rp221
(dp222
g12
VTermSet
p223
sbag1
(g2
g3
(dp224
g181
g1
(g6
g7
S'27665'
p225
tp226
Rp227
(dp228
g12
g181
sbsg206
g1
(g6
g7
S'title'
p229
tp230
Rp231
(dp232
g12
g206
sbsg211
g1
(g6
g7
S'Rhodopsin[title]'
p233
tp234
Rp235
(dp236
g12
g211
sbsg216
g1
(g6
g7
g68
tp237
Rp238
(dp239
g12
g216
sbstp240
Rp241
(dp242
g12
g223
sbag1
(g6
g7
S'AND'
p243
tp244
Rp245
(dp246
g12
VOP
p247
sbatp248
Rp249
(dp250
g12
g199
sbsVRetStart
p251
g1
(g6
g7
g8
tp252
Rp253
(dp254
g12
g251
sbsVTranslationSet
p255
g1
(g18
g19
(lp256
tp257
Rp258
(dp259
g12
g255
sbstp260
Rp261
(dp262
g12
VeSearchResult
p263
sbag1
(g2
g3
(dp264
VCount
p265
g1
(g6
g7
g8
tp266
Rp267
(dp268
g12
g265
sbsVRetMax
p269
g1
(g6
g7
g8
tp270
Rp271
(dp272
g12
g269
sbsVIdList
p273
g1
(g18
g19
(lp274
tp275
Rp276
(dp277
g12
g273
sbsVQueryTranslation
p278
g1
(g6
g7
S'Apsilus dentatus[PORG] AND Rhodopsin[title]'
p279
tp280
Rp281
(dp282
g12
g278
sbsVTranslationStack
p283
g1
(g18
g19
(lp284
g1
(g2
g3
(dp285
g265
g1
(g6
g7
S'19'
p286
tp287
Rp288
(dp289
g12
g265
sbsVField
p290
g1
(g6
g7
S'PORG'
p291
tp292
Rp293
(dp294
g12
g290
sbsVTerm
p295
g1
(g6
g7
S'Apsilus dentatus[PORG]'
p296
tp297
Rp298
(dp299
g12
g295
sbsVExplode
p300
g1
(g6
g7
g47
tp301
Rp302
(dp303
g12
g300
sbstp304
Rp305
(dp306
g12
VTermSet
p307
sbag1
(g2
g3
(dp308
g265
g1
(g6
g7
S'27665'
p309
tp310
Rp311
(dp312
g12
g265
sbsg290
g1
(g6
g7
S'title'
p313
tp314
Rp315
(dp316
g12
g290
sbsg295
g1
(g6
g7
S'Rhodopsin[title]'
p317
tp318
Rp319
(dp320
g12
g295
sbsg300
g1
(g6
g7
g68
tp321
Rp322
(dp323
g12
g300
sbstp324
Rp325
(dp326
g12
g307
sbag1
(g6
g7
S'AND'
p327
tp328
Rp329
(dp330
g12
VOP
p331
sbatp332
Rp333
(dp334
g12
g283
sbsVRetStart
p335
g1
(g6
g7
g8
tp336
Rp337
(dp338
g12
g335
sbsVTranslationSet
p339
g1
(g18
g19
(lp340
tp341
Rp342
(dp343
g12
g339
sbstp344
Rp345
(dp346
g12
VeSearchResult
p347
sbag1
(g2
g3
(dp348
VCount
p349
g1
(g6
g7
S'1'
p350
tp351
Rp352
(dp353
g12
g349
sbsVRetMax
p354
g1
(g6
g7
g350
tp355
Rp356
(dp357
g12
g354
sbsVIdList
p358
g1
(g18
g19
(lp359
g1
(g6
g7
S'204308309'
p360
tp361
Rp362
(dp363
g12
VId
p364
sbatp365
Rp366
(dp367
g12
g358
sbsVQueryTranslation
p368
g1
(g6
g7
S'Apsilus fuscus[PORG] AND Rhodopsin[title]'
p369
tp370
Rp371
(dp372
g12
g368
sbsVTranslationStack
p373
g1
(g18
g19
(lp374
g1
(g2
g3
(dp375
g349
g1
(g6
g7
S'3'
p376
tp377
Rp378
(dp379
g12
g349
sbsVField
p380
g1
(g6
g7
S'PORG'
p381
tp382
Rp383
(dp384
g12
g380
sbsVTerm
p385
g1
(g6
g7
S'Apsilus fuscus[PORG]'
p386
tp387
Rp388
(dp389
g12
g385
sbsVExplode
p390
g1
(g6
g7
g47
tp391
Rp392
(dp393
g12
g390
sbstp394
Rp395
(dp396
g12
VTermSet
p397
sbag1
(g2
g3
(dp398
g349
g1
(g6
g7
S'27665'
p399
tp400
Rp401
(dp402
g12
g349
sbsg380
g1
(g6
g7
S'title'
p403
tp404
Rp405
(dp406
g12
g380
sbsg385
g1
(g6
g7
S'Rhodopsin[title]'
p407
tp408
Rp409
(dp410
g12
g385
sbsg390
g1
(g6
g7
g68
tp411
Rp412
(dp413
g12
g390
sbstp414
Rp415
(dp416
g12
g397
sbag1
(g6
g7
S'AND'
p417
tp418
Rp419
(dp420
g12
VOP
p421
sbatp422
Rp423
(dp424
g12
g373
sbsVRetStart
p425
g1
(g6
g7
g8
tp426
Rp427
(dp428
g12
g425
sbsVTranslationSet
p429
g1
(g18
g19
(lp430
tp431
Rp432
(dp433
g12
g429
sbstp434
Rp435
(dp436
g12
VeSearchResult
p437
sbag1
(g2
g3
(dp438
VCount
p439
g1
(g6
g7
g8
tp440
Rp441
(dp442
g12
g439
sbsVRetMax
p443
g1
(g6
g7
g8
tp444
Rp445
(dp446
g12
g443
sbsVIdList
p447
g1
(g18
g19
(lp448
tp449
Rp450
(dp451
g12
g447
sbsVQueryTranslation
p452
g1
(g6
g7
S'Etelis carbunculus[PORG] AND Rhodopsin[title]'
p453
tp454
Rp455
(dp456
g12
g452
sbsVTranslationStack
p457
g1
(g18
g19
(lp458
g1
(g2
g3
(dp459
g439
g1
(g6
g7
S'100'
p460
tp461
Rp462
(dp463
g12
g439
sbsVField
p464
g1
(g6
g7
S'PORG'
p465
tp466
Rp467
(dp468
g12
g464
sbsVTerm
p469
g1
(g6
g7
S'Etelis carbunculus[PORG]'
p470
tp471
Rp472
(dp473
g12
g469
sbsVExplode
p474
g1
(g6
g7
g47
tp475
Rp476
(dp477
g12
g474
sbstp478
Rp479
(dp480
g12
VTermSet
p481
sbag1
(g2
g3
(dp482
g439
g1
(g6
g7
S'27665'
p483
tp484
Rp485
(dp486
g12
g439
sbsg464
g1
(g6
g7
S'title'
p487
tp488
Rp489
(dp490
g12
g464
sbsg469
g1
(g6
g7
S'Rhodopsin[title]'
p491
tp492
Rp493
(dp494
g12
g469
sbsg474
g1
(g6
g7
g68
tp495
Rp496
(dp497
g12
g474
sbstp498
Rp499
(dp500
g12
g481
sbag1
(g6
g7
S'AND'
p501
tp502
Rp503
(dp504
g12
VOP
p505
sbatp506
Rp507
(dp508
g12
g457
sbsVRetStart
p509
g1
(g6
g7
g8
tp510
Rp511
(dp512
g12
g509
sbsVTranslationSet
p513
g1
(g18
g19
(lp514
tp515
Rp516
(dp517
g12
g513
sbstp518
Rp519
(dp520
g12
VeSearchResult
p521
sbag1
(g2
g3
(dp522
VCount
p523
g1
(g6
g7
g8
tp524
Rp525
(dp526
g12
g523
sbsVRetMax
p527
g1
(g6
g7
g8
tp528
Rp529
(dp530
g12
g527
sbsVIdList
p531
g1
(g18
g19
(lp532
tp533
Rp534
(dp535
g12
g531
sbsVQueryTranslation
p536
g1
(g6
g7
S'Etelis coruscans[PORG] AND Rhodopsin[title]'
p537
tp538
Rp539
(dp540
g12
g536
sbsVTranslationStack
p541
g1
(g18
g19
(lp542
g1
(g2
g3
(dp543
g523
g1
(g6
g7
S'138'
p544
tp545
Rp546
(dp547
g12
g523
sbsVField
p548
g1
(g6
g7
S'PORG'
p549
tp550
Rp551
(dp552
g12
g548
sbsVTerm
p553
g1
(g6
g7
S'Etelis coruscans[PORG]'
p554
tp555
Rp556
(dp557
g12
g553
sbsVExplode
p558
g1
(g6
g7
g47
tp559
Rp560
(dp561
g12
g558
sbstp562
Rp563
(dp564
g12
VTermSet
p565
sbag1
(g2
g3
(dp566
g523
g1
(g6
g7
S'27665'
p567
tp568
Rp569
(dp570
g12
g523
sbsg548
g1
(g6
g7
S'title'
p571
tp572
Rp573
(dp574
g12
g548
sbsg553
g1
(g6
g7
S'Rhodopsin[title]'
p575
tp576
Rp577
(dp578
g12
g553
sbsg558
g1
(g6
g7
g68
tp579
Rp580
(dp581
g12
g558
sbstp582
Rp583
(dp584
g12
g565
sbag1
(g6
g7
S'AND'
p585
tp586
Rp587
(dp588
g12
VOP
p589
sbatp590
Rp591
(dp592
g12
g541
sbsVRetStart
p593
g1
(g6
g7
g8
tp594
Rp595
(dp596
g12
g593
sbsVTranslationSet
p597
g1
(g18
g19
(lp598
tp599
Rp600
(dp601
g12
g597
sbstp602
Rp603
(dp604
g12
VeSearchResult
p605
sbag1
(g2
g3
(dp606
VCount
p607
g1
(g6
g7
g8
tp608
Rp609
(dp610
g12
g607
sbsVRetMax
p611
g1
(g6
g7
g8
tp612
Rp613
(dp614
g12
g611
sbsVIdList
p615
g1
(g18
g19
(lp616
tp617
Rp618
(dp619
g12
g615
sbsVQueryTranslation
p620
g1
(g6
g7
S'Etelis oculatus[PORG] AND Rhodopsin[title]'
p621
tp622
Rp623
(dp624
g12
g620
sbsVTranslationStack
p625
g1
(g18
g19
(lp626
g1
(g2
g3
(dp627
g607
g1
(g6
g7
S'34'
p628
tp629
Rp630
(dp631
g12
g607
sbsVField
p632
g1
(g6
g7
S'PORG'
p633
tp634
Rp635
(dp636
g12
g632
sbsVTerm
p637
g1
(g6
g7
S'Etelis oculatus[PORG]'
p638
tp639
Rp640
(dp641
g12
g637
sbsVExplode
p642
g1
(g6
g7
g47
tp643
Rp644
(dp645
g12
g642
sbstp646
Rp647
(dp648
g12
VTermSet
p649
sbag1
(g2
g3
(dp650
g607
g1
(g6
g7
S'27665'
p651
tp652
Rp653
(dp654
g12
g607
sbsg632
g1
(g6
g7
S'title'
p655
tp656
Rp657
(dp658
g12
g632
sbsg637
g1
(g6
g7
S'Rhodopsin[title]'
p659
tp660
Rp661
(dp662
g12
g637
sbsg642
g1
(g6
g7
g68
tp663
Rp664
(dp665
g12
g642
sbstp666
Rp667
(dp668
g12
g649
sbag1
(g6
g7
S'AND'
p669
tp670
Rp671
(dp672
g12
VOP
p673
sbatp674
Rp675
(dp676
g12
g625
sbsVRetStart
p677
g1
(g6
g7
g8
tp678
Rp679
(dp680
g12
g677
sbsVTranslationSet
p681
g1
(g18
g19
(lp682
tp683
Rp684
(dp685
g12
g681
sbstp686
Rp687
(dp688
g12
VeSearchResult
p689
sbag1
(g2
g3
(dp690
VCount
p691
g1
(g6
g7
g8
tp692
Rp693
(dp694
g12
g691
sbsVRetMax
p695
g1
(g6
g7
g8
tp696
Rp697
(dp698
g12
g695
sbsVIdList
p699
g1
(g18
g19
(lp700
tp701
Rp702
(dp703
g12
g699
sbsVQueryTranslation
p704
g1
(g6
g7
S'Etelis radiosus[PORG] AND Rhodopsin[title]'
p705
tp706
Rp707
(dp708
g12
g704
sbsVTranslationStack
p709
g1
(g18
g19
(lp710
g1
(g2
g3
(dp711
g691
g1
(g6
g7
S'43'
p712
tp713
Rp714
(dp715
g12
g691
sbsVField
p716
g1
(g6
g7
S'PORG'
p717
tp718
Rp719
(dp720
g12
g716
sbsVTerm
p721
g1
(g6
g7
S'Etelis radiosus[PORG]'
p722
tp723
Rp724
(dp725
g12
g721
sbsVExplode
p726
g1
(g6
g7
g47
tp727
Rp728
(dp729
g12
g726
sbstp730
Rp731
(dp732
g12
VTermSet
p733
sbag1
(g2
g3
(dp734
g691
g1
(g6
g7
S'27665'
p735
tp736
Rp737
(dp738
g12
g691
sbsg716
g1
(g6
g7
S'title'
p739
tp740
Rp741
(dp742
g12
g716
sbsg721
g1
(g6
g7
S'Rhodopsin[title]'
p743
tp744
Rp745
(dp746
g12
g721
sbsg726
g1
(g6
g7
g68
tp747
Rp748
(dp749
g12
g726
sbstp750
Rp751
(dp752
g12
g733
sbag1
(g6
g7
S'AND'
p753
tp754
Rp755
(dp756
g12
VOP
p757
sbatp758
Rp759
(dp760
g12
g709
sbsVRetStart
p761
g1
(g6
g7
g8
tp762
Rp763
(dp764
g12
g761
sbsVTranslationSet
p765
g1
(g18
g19
(lp766
tp767
Rp768
(dp769
g12
g765
sbstp770
Rp771
(dp772
g12
VeSearchResult
p773
sbag1
(g2
g3
(dp774
VCount
p775
g1
(g6
g7
g8
tp776
Rp777
(dp778
g12
g775
sbsVRetMax
p779
g1
(g6
g7
g8
tp780
Rp781
(dp782
g12
g779
sbsVIdList
p783
g1
(g18
g19
(lp784
tp785
Rp786
(dp787
g12
g783
sbsVQueryTranslation
p788
g1
(g6
g7
S'Hoplopagrus guentherii[PORG] AND Rhodopsin[title]'
p789
tp790
Rp791
(dp792
g12
g788
sbsVTranslationStack
p793
g1
(g18
g19
(lp794
g1
(g2
g3
(dp795
g775
g1
(g6
g7
S'9'
p796
tp797
Rp798
(dp799
g12
g775
sbsVField
p800
g1
(g6
g7
S'PORG'
p801
tp802
Rp803
(dp804
g12
g800
sbsVTerm
p805
g1
(g6
g7
S'Hoplopagrus guentherii[PORG]'
p806
tp807
Rp808
(dp809
g12
g805
sbsVExplode
p810
g1
(g6
g7
g47
tp811
Rp812
(dp813
g12
g810
sbstp814
Rp815
(dp816
g12
VTermSet
p817
sbag1
(g2
g3
(dp818
g775
g1
(g6
g7
S'27665'
p819
tp820
Rp821
(dp822
g12
g775
sbsg800
g1
(g6
g7
S'title'
p823
tp824
Rp825
(dp826
g12
g800
sbsg805
g1
(g6
g7
S'Rhodopsin[title]'
p827
tp828
Rp829
(dp830
g12
g805
sbsg810
g1
(g6
g7
g68
tp831
Rp832
(dp833
g12
g810
sbstp834
Rp835
(dp836
g12
g817
sbag1
(g6
g7
S'AND'
p837
tp838
Rp839
(dp840
g12
VOP
p841
sbatp842
Rp843
(dp844
g12
g793
sbsVRetStart
p845
g1
(g6
g7
g8
tp846
Rp847
(dp848
g12
g845
sbsVTranslationSet
p849
g1
(g18
g19
(lp850
tp851
Rp852
(dp853
g12
g849
sbstp854
Rp855
(dp856
g12
VeSearchResult
p857
sbag1
(g2
g3
(dp858
VCount
p859
g1
(g6
g7
g8
tp860
Rp861
(dp862
g12
g859
sbsVRetMax
p863
g1
(g6
g7
g8
tp864
Rp865
(dp866
g12
g863
sbsVIdList
p867
g1
(g18
g19
(lp868
tp869
Rp870
(dp871
g12
g867
sbsVQueryTranslation
p872
g1
(g6
g7
S'Lipocheilus carnolabrum[PORG] AND Rhodopsin[title]'
p873
tp874
Rp875
(dp876
g12
g872
sbsVTranslationStack
p877
g1
(g18
g19
(lp878
g1
(g2
g3
(dp879
g859
g1
(g6
g7
g350
tp880
Rp881
(dp882
g12
g859
sbsVField
p883
g1
(g6
g7
S'PORG'
p884
tp885
Rp886
(dp887
g12
g883
sbsVTerm
p888
g1
(g6
g7
S'Lipocheilus carnolabrum[PORG]'
p889
tp890
Rp891
(dp892
g12
g888
sbsVExplode
p893
g1
(g6
g7
g47
tp894
Rp895
(dp896
g12
g893
sbstp897
Rp898
(dp899
g12
VTermSet
p900
sbag1
(g2
g3
(dp901
g859
g1
(g6
g7
S'27665'
p902
tp903
Rp904
(dp905
g12
g859
sbsg883
g1
(g6
g7
S'title'
p906
tp907
Rp908
(dp909
g12
g883
sbsg888
g1
(g6
g7
S'Rhodopsin[title]'
p910
tp911
Rp912
(dp913
g12
g888
sbsg893
g1
(g6
g7
g68
tp914
Rp915
(dp916
g12
g893
sbstp917
Rp918
(dp919
g12
g900
sbag1
(g6
g7
S'AND'
p920
tp921
Rp922
(dp923
g12
VOP
p924
sbatp925
Rp926
(dp927
g12
g877
sbsVRetStart
p928
g1
(g6
g7
g8
tp929
Rp930
(dp931
g12
g928
sbsVTranslationSet
p932
g1
(g18
g19
(lp933
tp934
Rp935
(dp936
g12
g932
sbstp937
Rp938
(dp939
g12
VeSearchResult
p940
sbag1
(g2
g3
(dp941
VCount
p942
g1
(g6
g7
g8
tp943
Rp944
(dp945
g12
g942
sbsVRetMax
p946
g1
(g6
g7
g8
tp947
Rp948
(dp949
g12
g946
sbsVIdList
p950
g1
(g18
g19
(lp951
tp952
Rp953
(dp954
g12
g950
sbsVQueryTranslation
p955
g1
(g6
g7
S'Lutjanus adetii[PORG] AND Rhodopsin[title]'
p956
tp957
Rp958
(dp959
g12
g955
sbsVTranslationStack
p960
g1
(g18
g19
(lp961
g1
(g2
g3
(dp962
g942
g1
(g6
g7
S'4'
p963
tp964
Rp965
(dp966
g12
g942
sbsVField
p967
g1
(g6
g7
S'PORG'
p968
tp969
Rp970
(dp971
g12
g967
sbsVTerm
p972
g1
(g6
g7
S'Lutjanus adetii[PORG]'
p973
tp974
Rp975
(dp976
g12
g972
sbsVExplode
p977
g1
(g6
g7
g47
tp978
Rp979
(dp980
g12
g977
sbstp981
Rp982
(dp983
g12
VTermSet
p984
sbag1
(g2
g3
(dp985
g942
g1
(g6
g7
S'27665'
p986
tp987
Rp988
(dp989
g12
g942
sbsg967
g1
(g6
g7
S'title'
p990
tp991
Rp992
(dp993
g12
g967
sbsg972
g1
(g6
g7
S'Rhodopsin[title]'
p994
tp995
Rp996
(dp997
g12
g972
sbsg977
g1
(g6
g7
g68
tp998
Rp999
(dp1000
g12
g977
sbstp1001
Rp1002
(dp1003
g12
g984
sbag1
(g6
g7
S'AND'
p1004
tp1005
Rp1006
(dp1007
g12
VOP
p1008
sbatp1009
Rp1010
(dp1011
g12
g960
sbsVRetStart
p1012
g1
(g6
g7
g8
tp1013
Rp1014
(dp1015
g12
g1012
sbsVTranslationSet
p1016
g1
(g18
g19
(lp1017
tp1018
Rp1019
(dp1020
g12
g1016
sbstp1021
Rp1022
(dp1023
g12
VeSearchResult
p1024
sbag1
(g2
g3
(dp1025
VCount
p1026
g1
(g6
g7
g8
tp1027
Rp1028
(dp1029
g12
g1026
sbsVRetMax
p1030
g1
(g6
g7
g8
tp1031
Rp1032
(dp1033
g12
g1030
sbsVIdList
p1034
g1
(g18
g19
(lp1035
tp1036
Rp1037
(dp1038
g12
g1034
sbsVRetStart
p1039
g1
(g6
g7
g8
tp1040
Rp1041
(dp1042
g12
g1039
sbsVErrorList
p1043
g1
(cBio.Entrez.Parser
StructureElement
p1044
g3
(dp1045
VFieldNotFound
p1046
(lp1047
sVPhraseNotFound
p1048
(lp1049
g1
(g6
g7
S'Lutjanus agennes[PORG]'
p1050
tp1051
Rp1052
(dp1053
g12
VPhraseNotFound
p1054
sbastp1055
Rp1056
(dp1057
g12
g1043
sS'listkeys'
p1058
(lp1059
g1048
ag1046
asbsVTranslationSet
p1060
g1
(g18
g19
(lp1061
tp1062
Rp1063
(dp1064
g12
g1060
sbsVWarningList
p1065
g1
(g1044
g3
(dp1066
VOutputMessage
p1067
(lp1068
g1
(g6
g7
S'No items found.'
p1069
tp1070
Rp1071
(dp1072
g12
VOutputMessage
p1073
sbasVPhraseIgnored
p1074
(lp1075
sVQuotedPhraseNotFound
p1076
(lp1077
stp1078
Rp1079
(dp1080
g12
g1065
sg1058
(lp1081
g1074
ag1076
ag1067
asbsVQueryTranslation
p1082
g1
(g6
g7
S'Lutjanus agennes[PORG] AND Rhodopsin[title]'
p1083
tp1084
Rp1085
(dp1086
g12
g1082
sbstp1087
Rp1088
(dp1089
g12
VeSearchResult
p1090
sbag1
(g2
g3
(dp1091
VCount
p1092
g1
(g6
g7
g8
tp1093
Rp1094
(dp1095
g12
g1092
sbsVRetMax
p1096
g1
(g6
g7
g8
tp1097
Rp1098
(dp1099
g12
g1096
sbsVIdList
p1100
g1
(g18
g19
(lp1101
tp1102
Rp1103
(dp1104
g12
g1100
sbsVRetStart
p1105
g1
(g6
g7
g8
tp1106
Rp1107
(dp1108
g12
g1105
sbsVErrorList
p1109
g1
(g1044
g3
(dp1110
VFieldNotFound
p1111
(lp1112
sVPhraseNotFound
p1113
(lp1114
g1
(g6
g7
S'Lutjanus alexandrei[PORG]'
p1115
tp1116
Rp1117
(dp1118
g12
VPhraseNotFound
p1119
sbastp1120
Rp1121
(dp1122
g12
g1109
sg1058
(lp1123
g1113
ag1111
asbsVTranslationSet
p1124
g1
(g18
g19
(lp1125
tp1126
Rp1127
(dp1128
g12
g1124
sbsVWarningList
p1129
g1
(g1044
g3
(dp1130
VOutputMessage
p1131
(lp1132
g1
(g6
g7
S'No items found.'
p1133
tp1134
Rp1135
(dp1136
g12
VOutputMessage
p1137
sbasVPhraseIgnored
p1138
(lp1139
sVQuotedPhraseNotFound
p1140
(lp1141
stp1142
Rp1143
(dp1144
g12
g1129
sg1058
(lp1145
g1138
ag1140
ag1131
asbsVQueryTranslation
p1146
g1
(g6
g7
S'Lutjanus alexandrei[PORG] AND Rhodopsin[title]'
p1147
tp1148
Rp1149
(dp1150
g12
g1146
sbstp1151
Rp1152
(dp1153
g12
VeSearchResult
p1154
sbag1
(g2
g3
(dp1155
VCount
p1156
g1
(g6
g7
g8
tp1157
Rp1158
(dp1159
g12
g1156
sbsVRetMax
p1160
g1
(g6
g7
g8
tp1161
Rp1162
(dp1163
g12
g1160
sbsVIdList
p1164
g1
(g18
g19
(lp1165
tp1166
Rp1167
(dp1168
g12
g1164
sbsVRetStart
p1169
g1
(g6
g7
g8
tp1170
Rp1171
(dp1172
g12
g1169
sbsVErrorList
p1173
g1
(g1044
g3
(dp1174
VFieldNotFound
p1175
(lp1176
sVPhraseNotFound
p1177
(lp1178
g1
(g6
g7
S'Lutjanus ambiguus[PORG]'
p1179
tp1180
Rp1181
(dp1182
g12
VPhraseNotFound
p1183
sbastp1184
Rp1185
(dp1186
g12
g1173
sg1058
(lp1187
g1177
ag1175
asbsVTranslationSet
p1188
g1
(g18
g19
(lp1189
tp1190
Rp1191
(dp1192
g12
g1188
sbsVWarningList
p1193
g1
(g1044
g3
(dp1194
VOutputMessage
p1195
(lp1196
g1
(g6
g7
S'No items found.'
p1197
tp1198
Rp1199
(dp1200
g12
VOutputMessage
p1201
sbasVPhraseIgnored
p1202
(lp1203
sVQuotedPhraseNotFound
p1204
(lp1205
stp1206
Rp1207
(dp1208
g12
g1193
sg1058
(lp1209
g1202
ag1204
ag1195
asbsVQueryTranslation
p1210
g1
(g6
g7
S'Lutjanus ambiguus[PORG] AND Rhodopsin[title]'
p1211
tp1212
Rp1213
(dp1214
g12
g1210
sbstp1215
Rp1216
(dp1217
g12
VeSearchResult
p1218
sbag1
(g2
g3
(dp1219
VCount
p1220
g1
(g6
g7
g350
tp1221
Rp1222
(dp1223
g12
g1220
sbsVRetMax
p1224
g1
(g6
g7
g350
tp1225
Rp1226
(dp1227
g12
g1224
sbsVIdList
p1228
g1
(g18
g19
(lp1229
g1
(g6
g7
S'140270790'
p1230
tp1231
Rp1232
(dp1233
g12
VId
p1234
sbatp1235
Rp1236
(dp1237
g12
g1228
sbsVQueryTranslation
p1238
g1
(g6
g7
S'Lutjanus analis[PORG] AND Rhodopsin[title]'
p1239
tp1240
Rp1241
(dp1242
g12
g1238
sbsVTranslationStack
p1243
g1
(g18
g19
(lp1244
g1
(g2
g3
(dp1245
g1220
g1
(g6
g7
S'175'
p1246
tp1247
Rp1248
(dp1249
g12
g1220
sbsVField
p1250
g1
(g6
g7
S'PORG'
p1251
tp1252
Rp1253
(dp1254
g12
g1250
sbsVTerm
p1255
g1
(g6
g7
S'Lutjanus analis[PORG]'
p1256
tp1257
Rp1258
(dp1259
g12
g1255
sbsVExplode
p1260
g1
(g6
g7
g47
tp1261
Rp1262
(dp1263
g12
g1260
sbstp1264
Rp1265
(dp1266
g12
VTermSet
p1267
sbag1
(g2
g3
(dp1268
g1220
g1
(g6
g7
S'27665'
p1269
tp1270
Rp1271
(dp1272
g12
g1220
sbsg1250
g1
(g6
g7
S'title'
p1273
tp1274
Rp1275
(dp1276
g12
g1250
sbsg1255
g1
(g6
g7
S'Rhodopsin[title]'
p1277
tp1278
Rp1279
(dp1280
g12
g1255
sbsg1260
g1
(g6
g7
g68
tp1281
Rp1282
(dp1283
g12
g1260
sbstp1284
Rp1285
(dp1286
g12
g1267
sbag1
(g6
g7
S'AND'
p1287
tp1288
Rp1289
(dp1290
g12
VOP
p1291
sbatp1292
Rp1293
(dp1294
g12
g1243
sbsVRetStart
p1295
g1
(g6
g7
g8
tp1296
Rp1297
(dp1298
g12
g1295
sbsVTranslationSet
p1299
g1
(g18
g19
(lp1300
tp1301
Rp1302
(dp1303
g12
g1299
sbstp1304
Rp1305
(dp1306
g12
VeSearchResult
p1307
sbag1
(g2
g3
(dp1308
VCount
p1309
g1
(g6
g7
g8
tp1310
Rp1311
(dp1312
g12
g1309
sbsVRetMax
p1313
g1
(g6
g7
g8
tp1314
Rp1315
(dp1316
g12
g1313
sbsVIdList
p1317
g1
(g18
g19
(lp1318
tp1319
Rp1320
(dp1321
g12
g1317
sbsVQueryTranslation
p1322
g1
(g6
g7
S'Lutjanus apodus[PORG] AND Rhodopsin[title]'
p1323
tp1324
Rp1325
(dp1326
g12
g1322
sbsVTranslationStack
p1327
g1
(g18
g19
(lp1328
g1
(g2
g3
(dp1329
g1309
g1
(g6
g7
S'68'
p1330
tp1331
Rp1332
(dp1333
g12
g1309
sbsVField
p1334
g1
(g6
g7
S'PORG'
p1335
tp1336
Rp1337
(dp1338
g12
g1334
sbsVTerm
p1339
g1
(g6
g7
S'Lutjanus apodus[PORG]'
p1340
tp1341
Rp1342
(dp1343
g12
g1339
sbsVExplode
p1344
g1
(g6
g7
g47
tp1345
Rp1346
(dp1347
g12
g1344
sbstp1348
Rp1349
(dp1350
g12
VTermSet
p1351
sbag1
(g2
g3
(dp1352
g1309
g1
(g6
g7
S'27665'
p1353
tp1354
Rp1355
(dp1356
g12
g1309
sbsg1334
g1
(g6
g7
S'title'
p1357
tp1358
Rp1359
(dp1360
g12
g1334
sbsg1339
g1
(g6
g7
S'Rhodopsin[title]'
p1361
tp1362
Rp1363
(dp1364
g12
g1339
sbsg1344
g1
(g6
g7
g68
tp1365
Rp1366
(dp1367
g12
g1344
sbstp1368
Rp1369
(dp1370
g12
g1351
sbag1
(g6
g7
S'AND'
p1371
tp1372
Rp1373
(dp1374
g12
VOP
p1375
sbatp1376
Rp1377
(dp1378
g12
g1327
sbsVRetStart
p1379
g1
(g6
g7
g8
tp1380
Rp1381
(dp1382
g12
g1379
sbsVTranslationSet
p1383
g1
(g18
g19
(lp1384
tp1385
Rp1386
(dp1387
g12
g1383
sbstp1388
Rp1389
(dp1390
g12
VeSearchResult
p1391
sbag1
(g2
g3
(dp1392
VCount
p1393
g1
(g6
g7
g8
tp1394
Rp1395
(dp1396
g12
g1393
sbsVRetMax
p1397
g1
(g6
g7
g8
tp1398
Rp1399
(dp1400
g12
g1397
sbsVIdList
p1401
g1
(g18
g19
(lp1402
tp1403
Rp1404
(dp1405
g12
g1401
sbsVQueryTranslation
p1406
g1
(g6
g7
S'Lutjanus aratus[PORG] AND Rhodopsin[title]'
p1407
tp1408
Rp1409
(dp1410
g12
g1406
sbsVTranslationStack
p1411
g1
(g18
g19
(lp1412
g1
(g2
g3
(dp1413
g1393
g1
(g6
g7
g796
tp1414
Rp1415
(dp1416
g12
g1393
sbsVField
p1417
g1
(g6
g7
S'PORG'
p1418
tp1419
Rp1420
(dp1421
g12
g1417
sbsVTerm
p1422
g1
(g6
g7
S'Lutjanus aratus[PORG]'
p1423
tp1424
Rp1425
(dp1426
g12
g1422
sbsVExplode
p1427
g1
(g6
g7
g47
tp1428
Rp1429
(dp1430
g12
g1427
sbstp1431
Rp1432
(dp1433
g12
VTermSet
p1434
sbag1
(g2
g3
(dp1435
g1393
g1
(g6
g7
S'27665'
p1436
tp1437
Rp1438
(dp1439
g12
g1393
sbsg1417
g1
(g6
g7
S'title'
p1440
tp1441
Rp1442
(dp1443
g12
g1417
sbsg1422
g1
(g6
g7
S'Rhodopsin[title]'
p1444
tp1445
Rp1446
(dp1447
g12
g1422
sbsg1427
g1
(g6
g7
g68
tp1448
Rp1449
(dp1450
g12
g1427
sbstp1451
Rp1452
(dp1453
g12
g1434
sbag1
(g6
g7
S'AND'
p1454
tp1455
Rp1456
(dp1457
g12
VOP
p1458
sbatp1459
Rp1460
(dp1461
g12
g1411
sbsVRetStart
p1462
g1
(g6
g7
g8
tp1463
Rp1464
(dp1465
g12
g1462
sbsVTranslationSet
p1466
g1
(g18
g19
(lp1467
tp1468
Rp1469
(dp1470
g12
g1466
sbstp1471
Rp1472
(dp1473
g12
VeSearchResult
p1474
sbag1
(g2
g3
(dp1475
VCount
p1476
g1
(g6
g7
g8
tp1477
Rp1478
(dp1479
g12
g1476
sbsVRetMax
p1480
g1
(g6
g7
g8
tp1481
Rp1482
(dp1483
g12
g1480
sbsVIdList
p1484
g1
(g18
g19
(lp1485
tp1486
Rp1487
(dp1488
g12
g1484
sbsVQueryTranslation
p1489
g1
(g6
g7
S'Lutjanus argentimaculatus[PORG] AND Rhodopsin[title]'
p1490
tp1491
Rp1492
(dp1493
g12
g1489
sbsVTranslationStack
p1494
g1
(g18
g19
(lp1495
g1
(g2
g3
(dp1496
g1476
g1
(g6
g7
S'177'
p1497
tp1498
Rp1499
(dp1500
g12
g1476
sbsVField
p1501
g1
(g6
g7
S'PORG'
p1502
tp1503
Rp1504
(dp1505
g12
g1501
sbsVTerm
p1506
g1
(g6
g7
S'Lutjanus argentimaculatus[PORG]'
p1507
tp1508
Rp1509
(dp1510
g12
g1506
sbsVExplode
p1511
g1
(g6
g7
g47
tp1512
Rp1513
(dp1514
g12
g1511
sbstp1515
Rp1516
(dp1517
g12
VTermSet
p1518
sbag1
(g2
g3
(dp1519
g1476
g1
(g6
g7
S'27665'
p1520
tp1521
Rp1522
(dp1523
g12
g1476
sbsg1501
g1
(g6
g7
S'title'
p1524
tp1525
Rp1526
(dp1527
g12
g1501
sbsg1506
g1
(g6
g7
S'Rhodopsin[title]'
p1528
tp1529
Rp1530
(dp1531
g12
g1506
sbsg1511
g1
(g6
g7
g68
tp1532
Rp1533
(dp1534
g12
g1511
sbstp1535
Rp1536
(dp1537
g12
g1518
sbag1
(g6
g7
S'AND'
p1538
tp1539
Rp1540
(dp1541
g12
VOP
p1542
sbatp1543
Rp1544
(dp1545
g12
g1494
sbsVRetStart
p1546
g1
(g6
g7
g8
tp1547
Rp1548
(dp1549
g12
g1546
sbsVTranslationSet
p1550
g1
(g18
g19
(lp1551
tp1552
Rp1553
(dp1554
g12
g1550
sbstp1555
Rp1556
(dp1557
g12
VeSearchResult
p1558
sbag1
(g2
g3
(dp1559
VCount
p1560
g1
(g6
g7
g8
tp1561
Rp1562
(dp1563
g12
g1560
sbsVRetMax
p1564
g1
(g6
g7
g8
tp1565
Rp1566
(dp1567
g12
g1564
sbsVIdList
p1568
g1
(g18
g19
(lp1569
tp1570
Rp1571
(dp1572
g12
g1568
sbsVQueryTranslation
p1573
g1
(g6
g7
S'Lutjanus argentiventris[PORG] AND Rhodopsin[title]'
p1574
tp1575
Rp1576
(dp1577
g12
g1573
sbsVTranslationStack
p1578
g1
(g18
g19
(lp1579
g1
(g2
g3
(dp1580
g1560
g1
(g6
g7
S'27'
p1581
tp1582
Rp1583
(dp1584
g12
g1560
sbsVField
p1585
g1
(g6
g7
S'PORG'
p1586
tp1587
Rp1588
(dp1589
g12
g1585
sbsVTerm
p1590
g1
(g6
g7
S'Lutjanus argentiventris[PORG]'
p1591
tp1592
Rp1593
(dp1594
g12
g1590
sbsVExplode
p1595
g1
(g6
g7
g47
tp1596
Rp1597
(dp1598
g12
g1595
sbstp1599
Rp1600
(dp1601
g12
VTermSet
p1602
sbag1
(g2
g3
(dp1603
g1560
g1
(g6
g7
S'27665'
p1604
tp1605
Rp1606
(dp1607
g12
g1560
sbsg1585
g1
(g6
g7
S'title'
p1608
tp1609
Rp1610
(dp1611
g12
g1585
sbsg1590
g1
(g6
g7
S'Rhodopsin[title]'
p1612
tp1613
Rp1614
(dp1615
g12
g1590
sbsg1595
g1
(g6
g7
g68
tp1616
Rp1617
(dp1618
g12
g1595
sbstp1619
Rp1620
(dp1621
g12
g1602
sbag1
(g6
g7
S'AND'
p1622
tp1623
Rp1624
(dp1625
g12
VOP
p1626
sbatp1627
Rp1628
(dp1629
g12
g1578
sbsVRetStart
p1630
g1
(g6
g7
g8
tp1631
Rp1632
(dp1633
g12
g1630
sbsVTranslationSet
p1634
g1
(g18
g19
(lp1635
tp1636
Rp1637
(dp1638
g12
g1634
sbstp1639
Rp1640
(dp1641
g12
VeSearchResult
p1642
sbag1
(g2
g3
(dp1643
VCount
p1644
g1
(g6
g7
g8
tp1645
Rp1646
(dp1647
g12
g1644
sbsVRetMax
p1648
g1
(g6
g7
g8
tp1649
Rp1650
(dp1651
g12
g1648
sbsVIdList
p1652
g1
(g18
g19
(lp1653
tp1654
Rp1655
(dp1656
g12
g1652
sbsVQueryTranslation
p1657
g1
(g6
g7
S'Lutjanus bengalensis[PORG] AND Rhodopsin[title]'
p1658
tp1659
Rp1660
(dp1661
g12
g1657
sbsVTranslationStack
p1662
g1
(g18
g19
(lp1663
g1
(g2
g3
(dp1664
g1644
g1
(g6
g7
S'33'
p1665
tp1666
Rp1667
(dp1668
g12
g1644
sbsVField
p1669
g1
(g6
g7
S'PORG'
p1670
tp1671
Rp1672
(dp1673
g12
g1669
sbsVTerm
p1674
g1
(g6
g7
S'Lutjanus bengalensis[PORG]'
p1675
tp1676
Rp1677
(dp1678
g12
g1674
sbsVExplode
p1679
g1
(g6
g7
g47
tp1680
Rp1681
(dp1682
g12
g1679
sbstp1683
Rp1684
(dp1685
g12
VTermSet
p1686
sbag1
(g2
g3
(dp1687
g1644
g1
(g6
g7
S'27665'
p1688
tp1689
Rp1690
(dp1691
g12
g1644
sbsg1669
g1
(g6
g7
S'title'
p1692
tp1693
Rp1694
(dp1695
g12
g1669
sbsg1674
g1
(g6
g7
S'Rhodopsin[title]'
p1696
tp1697
Rp1698
(dp1699
g12
g1674
sbsg1679
g1
(g6
g7
g68
tp1700
Rp1701
(dp1702
g12
g1679
sbstp1703
Rp1704
(dp1705
g12
g1686
sbag1
(g6
g7
S'AND'
p1706
tp1707
Rp1708
(dp1709
g12
VOP
p1710
sbatp1711
Rp1712
(dp1713
g12
g1662
sbsVRetStart
p1714
g1
(g6
g7
g8
tp1715
Rp1716
(dp1717
g12
g1714
sbsVTranslationSet
p1718
g1
(g18
g19
(lp1719
tp1720
Rp1721
(dp1722
g12
g1718
sbstp1723
Rp1724
(dp1725
g12
VeSearchResult
p1726
sbag1
(g2
g3
(dp1727
VCount
p1728
g1
(g6
g7
g8
tp1729
Rp1730
(dp1731
g12
g1728
sbsVRetMax
p1732
g1
(g6
g7
g8
tp1733
Rp1734
(dp1735
g12
g1732
sbsVIdList
p1736
g1
(g18
g19
(lp1737
tp1738
Rp1739
(dp1740
g12
g1736
sbsVQueryTranslation
p1741
g1
(g6
g7
S'Lutjanus biguttatus[PORG] AND Rhodopsin[title]'
p1742
tp1743
Rp1744
(dp1745
g12
g1741
sbsVTranslationStack
p1746
g1
(g18
g19
(lp1747
g1
(g2
g3
(dp1748
g1728
g1
(g6
g7
S'16'
p1749
tp1750
Rp1751
(dp1752
g12
g1728
sbsVField
p1753
g1
(g6
g7
S'PORG'
p1754
tp1755
Rp1756
(dp1757
g12
g1753
sbsVTerm
p1758
g1
(g6
g7
S'Lutjanus biguttatus[PORG]'
p1759
tp1760
Rp1761
(dp1762
g12
g1758
sbsVExplode
p1763
g1
(g6
g7
g47
tp1764
Rp1765
(dp1766
g12
g1763
sbstp1767
Rp1768
(dp1769
g12
VTermSet
p1770
sbag1
(g2
g3
(dp1771
g1728
g1
(g6
g7
S'27665'
p1772
tp1773
Rp1774
(dp1775
g12
g1728
sbsg1753
g1
(g6
g7
S'title'
p1776
tp1777
Rp1778
(dp1779
g12
g1753
sbsg1758
g1
(g6
g7
S'Rhodopsin[title]'
p1780
tp1781
Rp1782
(dp1783
g12
g1758
sbsg1763
g1
(g6
g7
g68
tp1784
Rp1785
(dp1786
g12
g1763
sbstp1787
Rp1788
(dp1789
g12
g1770
sbag1
(g6
g7
S'AND'
p1790
tp1791
Rp1792
(dp1793
g12
VOP
p1794
sbatp1795
Rp1796
(dp1797
g12
g1746
sbsVRetStart
p1798
g1
(g6
g7
g8
tp1799
Rp1800
(dp1801
g12
g1798
sbsVTranslationSet
p1802
g1
(g18
g19
(lp1803
tp1804
Rp1805
(dp1806
g12
g1802
sbstp1807
Rp1808
(dp1809
g12
VeSearchResult
p1810
sbag1
(g2
g3
(dp1811
VCount
p1812
g1
(g6
g7
g8
tp1813
Rp1814
(dp1815
g12
g1812
sbsVRetMax
p1816
g1
(g6
g7
g8
tp1817
Rp1818
(dp1819
g12
g1816
sbsVIdList
p1820
g1
(g18
g19
(lp1821
tp1822
Rp1823
(dp1824
g12
g1820
sbsVQueryTranslation
p1825
g1
(g6
g7
S'Lutjanus bitaeniatus[PORG] AND Rhodopsin[title]'
p1826
tp1827
Rp1828
(dp1829
g12
g1825
sbsVTranslationStack
p1830
g1
(g18
g19
(lp1831
g1
(g2
g3
(dp1832
g1812
g1
(g6
g7
S'5'
p1833
tp1834
Rp1835
(dp1836
g12
g1812
sbsVField
p1837
g1
(g6
g7
S'PORG'
p1838
tp1839
Rp1840
(dp1841
g12
g1837
sbsVTerm
p1842
g1
(g6
g7
S'Lutjanus bitaeniatus[PORG]'
p1843
tp1844
Rp1845
(dp1846
g12
g1842
sbsVExplode
p1847
g1
(g6
g7
g47
tp1848
Rp1849
(dp1850
g12
g1847
sbstp1851
Rp1852
(dp1853
g12
VTermSet
p1854
sbag1
(g2
g3
(dp1855
g1812
g1
(g6
g7
S'27665'
p1856
tp1857
Rp1858
(dp1859
g12
g1812
sbsg1837
g1
(g6
g7
S'title'
p1860
tp1861
Rp1862
(dp1863
g12
g1837
sbsg1842
g1
(g6
g7
S'Rhodopsin[title]'
p1864
tp1865
Rp1866
(dp1867
g12
g1842
sbsg1847
g1
(g6
g7
g68
tp1868
Rp1869
(dp1870
g12
g1847
sbstp1871
Rp1872
(dp1873
g12
g1854
sbag1
(g6
g7
S'AND'
p1874
tp1875
Rp1876
(dp1877
g12
VOP
p1878
sbatp1879
Rp1880
(dp1881
g12
g1830
sbsVRetStart
p1882
g1
(g6
g7
g8
tp1883
Rp1884
(dp1885
g12
g1882
sbsVTranslationSet
p1886
g1
(g18
g19
(lp1887
tp1888
Rp1889
(dp1890
g12
g1886
sbstp1891
Rp1892
(dp1893
g12
VeSearchResult
p1894
sbag1
(g2
g3
(dp1895
VCount
p1896
g1
(g6
g7
g8
tp1897
Rp1898
(dp1899
g12
g1896
sbsVRetMax
p1900
g1
(g6
g7
g8
tp1901
Rp1902
(dp1903
g12
g1900
sbsVIdList
p1904
g1
(g18
g19
(lp1905
tp1906
Rp1907
(dp1908
g12
g1904
sbsVQueryTranslation
p1909
g1
(g6
g7
S'Lutjanus bohar[PORG] AND Rhodopsin[title]'
p1910
tp1911
Rp1912
(dp1913
g12
g1909
sbsVTranslationStack
p1914
g1
(g18
g19
(lp1915
g1
(g2
g3
(dp1916
g1896
g1
(g6
g7
S'17'
p1917
tp1918
Rp1919
(dp1920
g12
g1896
sbsVField
p1921
g1
(g6
g7
S'PORG'
p1922
tp1923
Rp1924
(dp1925
g12
g1921
sbsVTerm
p1926
g1
(g6
g7
S'Lutjanus bohar[PORG]'
p1927
tp1928
Rp1929
(dp1930
g12
g1926
sbsVExplode
p1931
g1
(g6
g7
g47
tp1932
Rp1933
(dp1934
g12
g1931
sbstp1935
Rp1936
(dp1937
g12
VTermSet
p1938
sbag1
(g2
g3
(dp1939
g1896
g1
(g6
g7
S'27665'
p1940
tp1941
Rp1942
(dp1943
g12
g1896
sbsg1921
g1
(g6
g7
S'title'
p1944
tp1945
Rp1946
(dp1947
g12
g1921
sbsg1926
g1
(g6
g7
S'Rhodopsin[title]'
p1948
tp1949
Rp1950
(dp1951
g12
g1926
sbsg1931
g1
(g6
g7
g68
tp1952
Rp1953
(dp1954
g12
g1931
sbstp1955
Rp1956
(dp1957
g12
g1938
sbag1
(g6
g7
S'AND'
p1958
tp1959
Rp1960
(dp1961
g12
VOP
p1962
sbatp1963
Rp1964
(dp1965
g12
g1914
sbsVRetStart
p1966
g1
(g6
g7
g8
tp1967
Rp1968
(dp1969
g12
g1966
sbsVTranslationSet
p1970
g1
(g18
g19
(lp1971
tp1972
Rp1973
(dp1974
g12
g1970
sbstp1975
Rp1976
(dp1977
g12
VeSearchResult
p1978
sbag1
(g2
g3
(dp1979
VCount
p1980
g1
(g6
g7
g8
tp1981
Rp1982
(dp1983
g12
g1980
sbsVRetMax
p1984
g1
(g6
g7
g8
tp1985
Rp1986
(dp1987
g12
g1984
sbsVIdList
p1988
g1
(g18
g19
(lp1989
tp1990
Rp1991
(dp1992
g12
g1988
sbsVQueryTranslation
p1993
g1
(g6
g7
S'Lutjanus boutton[PORG] AND Rhodopsin[title]'
p1994
tp1995
Rp1996
(dp1997
g12
g1993
sbsVTranslationStack
p1998
g1
(g18
g19
(lp1999
g1
(g2
g3
(dp2000
g1980
g1
(g6
g7
g350
tp2001
Rp2002
(dp2003
g12
g1980
sbsVField
p2004
g1
(g6
g7
S'PORG'
p2005
tp2006
Rp2007
(dp2008
g12
g2004
sbsVTerm
p2009
g1
(g6
g7
S'Lutjanus boutton[PORG]'
p2010
tp2011
Rp2012
(dp2013
g12
g2009
sbsVExplode
p2014
g1
(g6
g7
g47
tp2015
Rp2016
(dp2017
g12
g2014
sbstp2018
Rp2019
(dp2020
g12
VTermSet
p2021
sbag1
(g2
g3
(dp2022
g1980
g1
(g6
g7
S'27665'
p2023
tp2024
Rp2025
(dp2026
g12
g1980
sbsg2004
g1
(g6
g7
S'title'
p2027
tp2028
Rp2029
(dp2030
g12
g2004
sbsg2009
g1
(g6
g7
S'Rhodopsin[title]'
p2031
tp2032
Rp2033
(dp2034
g12
g2009
sbsg2014
g1
(g6
g7
g68
tp2035
Rp2036
(dp2037
g12
g2014
sbstp2038
Rp2039
(dp2040
g12
g2021
sbag1
(g6
g7
S'AND'
p2041
tp2042
Rp2043
(dp2044
g12
VOP
p2045
sbatp2046
Rp2047
(dp2048
g12
g1998
sbsVRetStart
p2049
g1
(g6
g7
g8
tp2050
Rp2051
(dp2052
g12
g2049
sbsVTranslationSet
p2053
g1
(g18
g19
(lp2054
tp2055
Rp2056
(dp2057
g12
g2053
sbstp2058
Rp2059
(dp2060
g12
VeSearchResult
p2061
sbag1
(g2
g3
(dp2062
VCount
p2063
g1
(g6
g7
g8
tp2064
Rp2065
(dp2066
g12
g2063
sbsVRetMax
p2067
g1
(g6
g7
g8
tp2068
Rp2069
(dp2070
g12
g2067
sbsVIdList
p2071
g1
(g18
g19
(lp2072
tp2073
Rp2074
(dp2075
g12
g2071
sbsVQueryTranslation
p2076
g1
(g6
g7
S'Lutjanus buccanella[PORG] AND Rhodopsin[title]'
p2077
tp2078
Rp2079
(dp2080
g12
g2076
sbsVTranslationStack
p2081
g1
(g18
g19
(lp2082
g1
(g2
g3
(dp2083
g2063
g1
(g6
g7
S'18'
p2084
tp2085
Rp2086
(dp2087
g12
g2063
sbsVField
p2088
g1
(g6
g7
S'PORG'
p2089
tp2090
Rp2091
(dp2092
g12
g2088
sbsVTerm
p2093
g1
(g6
g7
S'Lutjanus buccanella[PORG]'
p2094
tp2095
Rp2096
(dp2097
g12
g2093
sbsVExplode
p2098
g1
(g6
g7
g47
tp2099
Rp2100
(dp2101
g12
g2098
sbstp2102
Rp2103
(dp2104
g12
VTermSet
p2105
sbag1
(g2
g3
(dp2106
g2063
g1
(g6
g7
S'27665'
p2107
tp2108
Rp2109
(dp2110
g12
g2063
sbsg2088
g1
(g6
g7
S'title'
p2111
tp2112
Rp2113
(dp2114
g12
g2088
sbsg2093
g1
(g6
g7
S'Rhodopsin[title]'
p2115
tp2116
Rp2117
(dp2118
g12
g2093
sbsg2098
g1
(g6
g7
g68
tp2119
Rp2120
(dp2121
g12
g2098
sbstp2122
Rp2123
(dp2124
g12
g2105
sbag1
(g6
g7
S'AND'
p2125
tp2126
Rp2127
(dp2128
g12
VOP
p2129
sbatp2130
Rp2131
(dp2132
g12
g2081
sbsVRetStart
p2133
g1
(g6
g7
g8
tp2134
Rp2135
(dp2136
g12
g2133
sbsVTranslationSet
p2137
g1
(g18
g19
(lp2138
tp2139
Rp2140
(dp2141
g12
g2137
sbstp2142
Rp2143
(dp2144
g12
VeSearchResult
p2145
sbag1
(g2
g3
(dp2146
VCount
p2147
g1
(g6
g7
g8
tp2148
Rp2149
(dp2150
g12
g2147
sbsVRetMax
p2151
g1
(g6
g7
g8
tp2152
Rp2153
(dp2154
g12
g2151
sbsVIdList
p2155
g1
(g18
g19
(lp2156
tp2157
Rp2158
(dp2159
g12
g2155
sbsVQueryTranslation
p2160
g1
(g6
g7
S'Lutjanus campechanus[PORG] AND Rhodopsin[title]'
p2161
tp2162
Rp2163
(dp2164
g12
g2160
sbsVTranslationStack
p2165
g1
(g18
g19
(lp2166
g1
(g2
g3
(dp2167
g2147
g1
(g6
g7
S'449'
p2168
tp2169
Rp2170
(dp2171
g12
g2147
sbsVField
p2172
g1
(g6
g7
S'PORG'
p2173
tp2174
Rp2175
(dp2176
g12
g2172
sbsVTerm
p2177
g1
(g6
g7
S'Lutjanus campechanus[PORG]'
p2178
tp2179
Rp2180
(dp2181
g12
g2177
sbsVExplode
p2182
g1
(g6
g7
g47
tp2183
Rp2184
(dp2185
g12
g2182
sbstp2186
Rp2187
(dp2188
g12
VTermSet
p2189
sbag1
(g2
g3
(dp2190
g2147
g1
(g6
g7
S'27665'
p2191
tp2192
Rp2193
(dp2194
g12
g2147
sbsg2172
g1
(g6
g7
S'title'
p2195
tp2196
Rp2197
(dp2198
g12
g2172
sbsg2177
g1
(g6
g7
S'Rhodopsin[title]'
p2199
tp2200
Rp2201
(dp2202
g12
g2177
sbsg2182
g1
(g6
g7
g68
tp2203
Rp2204
(dp2205
g12
g2182
sbstp2206
Rp2207
(dp2208
g12
g2189
sbag1
(g6
g7
S'AND'
p2209
tp2210
Rp2211
(dp2212
g12
VOP
p2213
sbatp2214
Rp2215
(dp2216
g12
g2165
sbsVRetStart
p2217
g1
(g6
g7
g8
tp2218
Rp2219
(dp2220
g12
g2217
sbsVTranslationSet
p2221
g1
(g18
g19
(lp2222
tp2223
Rp2224
(dp2225
g12
g2221
sbstp2226
Rp2227
(dp2228
g12
VeSearchResult
p2229
sbag1
(g2
g3
(dp2230
VCount
p2231
g1
(g6
g7
g8
tp2232
Rp2233
(dp2234
g12
g2231
sbsVRetMax
p2235
g1
(g6
g7
g8
tp2236
Rp2237
(dp2238
g12
g2235
sbsVIdList
p2239
g1
(g18
g19
(lp2240
tp2241
Rp2242
(dp2243
g12
g2239
sbsVQueryTranslation
p2244
g1
(g6
g7
S'Lutjanus carponotatus[PORG] AND Rhodopsin[title]'
p2245
tp2246
Rp2247
(dp2248
g12
g2244
sbsVTranslationStack
p2249
g1
(g18
g19
(lp2250
g1
(g2
g3
(dp2251
g2231
g1
(g6
g7
S'223'
p2252
tp2253
Rp2254
(dp2255
g12
g2231
sbsVField
p2256
g1
(g6
g7
S'PORG'
p2257
tp2258
Rp2259
(dp2260
g12
g2256
sbsVTerm
p2261
g1
(g6
g7
S'Lutjanus carponotatus[PORG]'
p2262
tp2263
Rp2264
(dp2265
g12
g2261
sbsVExplode
p2266
g1
(g6
g7
g47
tp2267
Rp2268
(dp2269
g12
g2266
sbstp2270
Rp2271
(dp2272
g12
VTermSet
p2273
sbag1
(g2
g3
(dp2274
g2231
g1
(g6
g7
S'27665'
p2275
tp2276
Rp2277
(dp2278
g12
g2231
sbsg2256
g1
(g6
g7
S'title'
p2279
tp2280
Rp2281
(dp2282
g12
g2256
sbsg2261
g1
(g6
g7
S'Rhodopsin[title]'
p2283
tp2284
Rp2285
(dp2286
g12
g2261
sbsg2266
g1
(g6
g7
g68
tp2287
Rp2288
(dp2289
g12
g2266
sbstp2290
Rp2291
(dp2292
g12
g2273
sbag1
(g6
g7
S'AND'
p2293
tp2294
Rp2295
(dp2296
g12
VOP
p2297
sbatp2298
Rp2299
(dp2300
g12
g2249
sbsVRetStart
p2301
g1
(g6
g7
g8
tp2302
Rp2303
(dp2304
g12
g2301
sbsVTranslationSet
p2305
g1
(g18
g19
(lp2306
tp2307
Rp2308
(dp2309
g12
g2305
sbstp2310
Rp2311
(dp2312
g12
VeSearchResult
p2313
sbag1
(g2
g3
(dp2314
VCount
p2315
g1
(g6
g7
g8
tp2316
Rp2317
(dp2318
g12
g2315
sbsVRetMax
p2319
g1
(g6
g7
g8
tp2320
Rp2321
(dp2322
g12
g2319
sbsVIdList
p2323
g1
(g18
g19
(lp2324
tp2325
Rp2326
(dp2327
g12
g2323
sbsVRetStart
p2328
g1
(g6
g7
g8
tp2329
Rp2330
(dp2331
g12
g2328
sbsVErrorList
p2332
g1
(g1044
g3
(dp2333
VFieldNotFound
p2334
(lp2335
sVPhraseNotFound
p2336
(lp2337
g1
(g6
g7
S'Lutjanus coeruleolineatus[PORG]'
p2338
tp2339
Rp2340
(dp2341
g12
VPhraseNotFound
p2342
sbastp2343
Rp2344
(dp2345
g12
g2332
sg1058
(lp2346
g2336
ag2334
asbsVTranslationSet
p2347
g1
(g18
g19
(lp2348
tp2349
Rp2350
(dp2351
g12
g2347
sbsVWarningList
p2352
g1
(g1044
g3
(dp2353
VOutputMessage
p2354
(lp2355
g1
(g6
g7
S'No items found.'
p2356
tp2357
Rp2358
(dp2359
g12
VOutputMessage
p2360
sbasVPhraseIgnored
p2361
(lp2362
sVQuotedPhraseNotFound
p2363
(lp2364
stp2365
Rp2366
(dp2367
g12
g2352
sg1058
(lp2368
g2361
ag2363
ag2354
asbsVQueryTranslation
p2369
g1
(g6
g7
S'Lutjanus coeruleolineatus[PORG] AND Rhodopsin[title]'
p2370
tp2371
Rp2372
(dp2373
g12
g2369
sbstp2374
Rp2375
(dp2376
g12
VeSearchResult
p2377
sbag1
(g2
g3
(dp2378
VCount
p2379
g1
(g6
g7
g8
tp2380
Rp2381
(dp2382
g12
g2379
sbsVRetMax
p2383
g1
(g6
g7
g8
tp2384
Rp2385
(dp2386
g12
g2383
sbsVIdList
p2387
g1
(g18
g19
(lp2388
tp2389
Rp2390
(dp2391
g12
g2387
sbsVQueryTranslation
p2392
g1
(g6
g7
S'Lutjanus colorado[PORG] AND Rhodopsin[title]'
p2393
tp2394
Rp2395
(dp2396
g12
g2392
sbsVTranslationStack
p2397
g1
(g18
g19
(lp2398
g1
(g2
g3
(dp2399
g2379
g1
(g6
g7
S'8'
p2400
tp2401
Rp2402
(dp2403
g12
g2379
sbsVField
p2404
g1
(g6
g7
S'PORG'
p2405
tp2406
Rp2407
(dp2408
g12
g2404
sbsVTerm
p2409
g1
(g6
g7
S'Lutjanus colorado[PORG]'
p2410
tp2411
Rp2412
(dp2413
g12
g2409
sbsVExplode
p2414
g1
(g6
g7
g47
tp2415
Rp2416
(dp2417
g12
g2414
sbstp2418
Rp2419
(dp2420
g12
VTermSet
p2421
sbag1
(g2
g3
(dp2422
g2379
g1
(g6
g7
S'27665'
p2423
tp2424
Rp2425
(dp2426
g12
g2379
sbsg2404
g1
(g6
g7
S'title'
p2427
tp2428
Rp2429
(dp2430
g12
g2404
sbsg2409
g1
(g6
g7
S'Rhodopsin[title]'
p2431
tp2432
Rp2433
(dp2434
g12
g2409
sbsg2414
g1
(g6
g7
g68
tp2435
Rp2436
(dp2437
g12
g2414
sbstp2438
Rp2439
(dp2440
g12
g2421
sbag1
(g6
g7
S'AND'
p2441
tp2442
Rp2443
(dp2444
g12
VOP
p2445
sbatp2446
Rp2447
(dp2448
g12
g2397
sbsVRetStart
p2449
g1
(g6
g7
g8
tp2450
Rp2451
(dp2452
g12
g2449
sbsVTranslationSet
p2453
g1
(g18
g19
(lp2454
tp2455
Rp2456
(dp2457
g12
g2453
sbstp2458
Rp2459
(dp2460
g12
VeSearchResult
p2461
sbag1
(g2
g3
(dp2462
VCount
p2463
g1
(g6
g7
g8
tp2464
Rp2465
(dp2466
g12
g2463
sbsVRetMax
p2467
g1
(g6
g7
g8
tp2468
Rp2469
(dp2470
g12
g2467
sbsVIdList
p2471
g1
(g18
g19
(lp2472
tp2473
Rp2474
(dp2475
g12
g2471
sbsVQueryTranslation
p2476
g1
(g6
g7
S'Lutjanus cyanopterus[PORG] AND Rhodopsin[title]'
p2477
tp2478
Rp2479
(dp2480
g12
g2476
sbsVTranslationStack
p2481
g1
(g18
g19
(lp2482
g1
(g2
g3
(dp2483
g2463
g1
(g6
g7
S'18'
p2484
tp2485
Rp2486
(dp2487
g12
g2463
sbsVField
p2488
g1
(g6
g7
S'PORG'
p2489
tp2490
Rp2491
(dp2492
g12
g2488
sbsVTerm
p2493
g1
(g6
g7
S'Lutjanus cyanopterus[PORG]'
p2494
tp2495
Rp2496
(dp2497
g12
g2493
sbsVExplode
p2498
g1
(g6
g7
g47
tp2499
Rp2500
(dp2501
g12
g2498
sbstp2502
Rp2503
(dp2504
g12
VTermSet
p2505
sbag1
(g2
g3
(dp2506
g2463
g1
(g6
g7
S'27665'
p2507
tp2508
Rp2509
(dp2510
g12
g2463
sbsg2488
g1
(g6
g7
S'title'
p2511
tp2512
Rp2513
(dp2514
g12
g2488
sbsg2493
g1
(g6
g7
S'Rhodopsin[title]'
p2515
tp2516
Rp2517
(dp2518
g12
g2493
sbsg2498
g1
(g6
g7
g68
tp2519
Rp2520
(dp2521
g12
g2498
sbstp2522
Rp2523
(dp2524
g12
g2505
sbag1
(g6
g7
S'AND'
p2525
tp2526
Rp2527
(dp2528
g12
VOP
p2529
sbatp2530
Rp2531
(dp2532
g12
g2481
sbsVRetStart
p2533
g1
(g6
g7
g8
tp2534
Rp2535
(dp2536
g12
g2533
sbsVTranslationSet
p2537
g1
(g18
g19
(lp2538
tp2539
Rp2540
(dp2541
g12
g2537
sbstp2542
Rp2543
(dp2544
g12
VeSearchResult
p2545
sbag1
(g2
g3
(dp2546
VCount
p2547
g1
(g6
g7
g8
tp2548
Rp2549
(dp2550
g12
g2547
sbsVRetMax
p2551
g1
(g6
g7
g8
tp2552
Rp2553
(dp2554
g12
g2551
sbsVIdList
p2555
g1
(g18
g19
(lp2556
tp2557
Rp2558
(dp2559
g12
g2555
sbsVQueryTranslation
p2560
g1
(g6
g7
S'Lutjanus decussatus[PORG] AND Rhodopsin[title]'
p2561
tp2562
Rp2563
(dp2564
g12
g2560
sbsVTranslationStack
p2565
g1
(g18
g19
(lp2566
g1
(g2
g3
(dp2567
g2547
g1
(g6
g7
g796
tp2568
Rp2569
(dp2570
g12
g2547
sbsVField
p2571
g1
(g6
g7
S'PORG'
p2572
tp2573
Rp2574
(dp2575
g12
g2571
sbsVTerm
p2576
g1
(g6
g7
S'Lutjanus decussatus[PORG]'
p2577
tp2578
Rp2579
(dp2580
g12
g2576
sbsVExplode
p2581
g1
(g6
g7
g47
tp2582
Rp2583
(dp2584
g12
g2581
sbstp2585
Rp2586
(dp2587
g12
VTermSet
p2588
sbag1
(g2
g3
(dp2589
g2547
g1
(g6
g7
S'27665'
p2590
tp2591
Rp2592
(dp2593
g12
g2547
sbsg2571
g1
(g6
g7
S'title'
p2594
tp2595
Rp2596
(dp2597
g12
g2571
sbsg2576
g1
(g6
g7
S'Rhodopsin[title]'
p2598
tp2599
Rp2600
(dp2601
g12
g2576
sbsg2581
g1
(g6
g7
g68
tp2602
Rp2603
(dp2604
g12
g2581
sbstp2605
Rp2606
(dp2607
g12
g2588
sbag1
(g6
g7
S'AND'
p2608
tp2609
Rp2610
(dp2611
g12
VOP
p2612
sbatp2613
Rp2614
(dp2615
g12
g2565
sbsVRetStart
p2616
g1
(g6
g7
g8
tp2617
Rp2618
(dp2619
g12
g2616
sbsVTranslationSet
p2620
g1
(g18
g19
(lp2621
tp2622
Rp2623
(dp2624
g12
g2620
sbstp2625
Rp2626
(dp2627
g12
VeSearchResult
p2628
sbag1
(g2
g3
(dp2629
VCount
p2630
g1
(g6
g7
g8
tp2631
Rp2632
(dp2633
g12
g2630
sbsVRetMax
p2634
g1
(g6
g7
g8
tp2635
Rp2636
(dp2637
g12
g2634
sbsVIdList
p2638
g1
(g18
g19
(lp2639
tp2640
Rp2641
(dp2642
g12
g2638
sbsVQueryTranslation
p2643
g1
(g6
g7
S'Lutjanus dentatus[PORG] AND Rhodopsin[title]'
p2644
tp2645
Rp2646
(dp2647
g12
g2643
sbsVTranslationStack
p2648
g1
(g18
g19
(lp2649
g1
(g2
g3
(dp2650
g2630
g1
(g6
g7
g350
tp2651
Rp2652
(dp2653
g12
g2630
sbsVField
p2654
g1
(g6
g7
S'PORG'
p2655
tp2656
Rp2657
(dp2658
g12
g2654
sbsVTerm
p2659
g1
(g6
g7
S'Lutjanus dentatus[PORG]'
p2660
tp2661
Rp2662
(dp2663
g12
g2659
sbsVExplode
p2664
g1
(g6
g7
g47
tp2665
Rp2666
(dp2667
g12
g2664
sbstp2668
Rp2669
(dp2670
g12
VTermSet
p2671
sbag1
(g2
g3
(dp2672
g2630
g1
(g6
g7
S'27665'
p2673
tp2674
Rp2675
(dp2676
g12
g2630
sbsg2654
g1
(g6
g7
S'title'
p2677
tp2678
Rp2679
(dp2680
g12
g2654
sbsg2659
g1
(g6
g7
S'Rhodopsin[title]'
p2681
tp2682
Rp2683
(dp2684
g12
g2659
sbsg2664
g1
(g6
g7
g68
tp2685
Rp2686
(dp2687
g12
g2664
sbstp2688
Rp2689
(dp2690
g12
g2671
sbag1
(g6
g7
S'AND'
p2691
tp2692
Rp2693
(dp2694
g12
VOP
p2695
sbatp2696
Rp2697
(dp2698
g12
g2648
sbsVRetStart
p2699
g1
(g6
g7
g8
tp2700
Rp2701
(dp2702
g12
g2699
sbsVTranslationSet
p2703
g1
(g18
g19
(lp2704
tp2705
Rp2706
(dp2707
g12
g2703
sbstp2708
Rp2709
(dp2710
g12
VeSearchResult
p2711
sbag1
(g2
g3
(dp2712
VCount
p2713
g1
(g6
g7
g8
tp2714
Rp2715
(dp2716
g12
g2713
sbsVRetMax
p2717
g1
(g6
g7
g8
tp2718
Rp2719
(dp2720
g12
g2717
sbsVIdList
p2721
g1
(g18
g19
(lp2722
tp2723
Rp2724
(dp2725
g12
g2721
sbsVQueryTranslation
p2726
g1
(g6
g7
S'Lutjanus dodecacanthoides[PORG] AND Rhodopsin[title]'
p2727
tp2728
Rp2729
(dp2730
g12
g2726
sbsVTranslationStack
p2731
g1
(g18
g19
(lp2732
g1
(g2
g3
(dp2733
g2713
g1
(g6
g7
g376
tp2734
Rp2735
(dp2736
g12
g2713
sbsVField
p2737
g1
(g6
g7
S'PORG'
p2738
tp2739
Rp2740
(dp2741
g12
g2737
sbsVTerm
p2742
g1
(g6
g7
S'Lutjanus dodecacanthoides[PORG]'
p2743
tp2744
Rp2745
(dp2746
g12
g2742
sbsVExplode
p2747
g1
(g6
g7
g47
tp2748
Rp2749
(dp2750
g12
g2747
sbstp2751
Rp2752
(dp2753
g12
VTermSet
p2754
sbag1
(g2
g3
(dp2755
g2713
g1
(g6
g7
S'27665'
p2756
tp2757
Rp2758
(dp2759
g12
g2713
sbsg2737
g1
(g6
g7
S'title'
p2760
tp2761
Rp2762
(dp2763
g12
g2737
sbsg2742
g1
(g6
g7
S'Rhodopsin[title]'
p2764
tp2765
Rp2766
(dp2767
g12
g2742
sbsg2747
g1
(g6
g7
g68
tp2768
Rp2769
(dp2770
g12
g2747
sbstp2771
Rp2772
(dp2773
g12
g2754
sbag1
(g6
g7
S'AND'
p2774
tp2775
Rp2776
(dp2777
g12
VOP
p2778
sbatp2779
Rp2780
(dp2781
g12
g2731
sbsVRetStart
p2782
g1
(g6
g7
g8
tp2783
Rp2784
(dp2785
g12
g2782
sbsVTranslationSet
p2786
g1
(g18
g19
(lp2787
tp2788
Rp2789
(dp2790
g12
g2786
sbstp2791
Rp2792
(dp2793
g12
VeSearchResult
p2794
sbag1
(g2
g3
(dp2795
VCount
p2796
g1
(g6
g7
g8
tp2797
Rp2798
(dp2799
g12
g2796
sbsVRetMax
p2800
g1
(g6
g7
g8
tp2801
Rp2802
(dp2803
g12
g2800
sbsVIdList
p2804
g1
(g18
g19
(lp2805
tp2806
Rp2807
(dp2808
g12
g2804
sbsVQueryTranslation
p2809
g1
(g6
g7
S'Lutjanus ehrenbergii[PORG] AND Rhodopsin[title]'
p2810
tp2811
Rp2812
(dp2813
g12
g2809
sbsVTranslationStack
p2814
g1
(g18
g19
(lp2815
g1
(g2
g3
(dp2816
g2796
g1
(g6
g7
S'17'
p2817
tp2818
Rp2819
(dp2820
g12
g2796
sbsVField
p2821
g1
(g6
g7
S'PORG'
p2822
tp2823
Rp2824
(dp2825
g12
g2821
sbsVTerm
p2826
g1
(g6
g7
S'Lutjanus ehrenbergii[PORG]'
p2827
tp2828
Rp2829
(dp2830
g12
g2826
sbsVExplode
p2831
g1
(g6
g7
g47
tp2832
Rp2833
(dp2834
g12
g2831
sbstp2835
Rp2836
(dp2837
g12
VTermSet
p2838
sbag1
(g2
g3
(dp2839
g2796
g1
(g6
g7
S'27665'
p2840
tp2841
Rp2842
(dp2843
g12
g2796
sbsg2821
g1
(g6
g7
S'title'
p2844
tp2845
Rp2846
(dp2847
g12
g2821
sbsg2826
g1
(g6
g7
S'Rhodopsin[title]'
p2848
tp2849
Rp2850
(dp2851
g12
g2826
sbsg2831
g1
(g6
g7
g68
tp2852
Rp2853
(dp2854
g12
g2831
sbstp2855
Rp2856
(dp2857
g12
g2838
sbag1
(g6
g7
S'AND'
p2858
tp2859
Rp2860
(dp2861
g12
VOP
p2862
sbatp2863
Rp2864
(dp2865
g12
g2814
sbsVRetStart
p2866
g1
(g6
g7
g8
tp2867
Rp2868
(dp2869
g12
g2866
sbsVTranslationSet
p2870
g1
(g18
g19
(lp2871
tp2872
Rp2873
(dp2874
g12
g2870
sbstp2875
Rp2876
(dp2877
g12
VeSearchResult
p2878
sbag1
(g2
g3
(dp2879
VCount
p2880
g1
(g6
g7
g8
tp2881
Rp2882
(dp2883
g12
g2880
sbsVRetMax
p2884
g1
(g6
g7
g8
tp2885
Rp2886
(dp2887
g12
g2884
sbsVIdList
p2888
g1
(g18
g19
(lp2889
tp2890
Rp2891
(dp2892
g12
g2888
sbsVRetStart
p2893
g1
(g6
g7
g8
tp2894
Rp2895
(dp2896
g12
g2893
sbsVErrorList
p2897
g1
(g1044
g3
(dp2898
VFieldNotFound
p2899
(lp2900
sVPhraseNotFound
p2901
(lp2902
g1
(g6
g7
S'Lutjanus endecacanthus[PORG]'
p2903
tp2904
Rp2905
(dp2906
g12
VPhraseNotFound
p2907
sbastp2908
Rp2909
(dp2910
g12
g2897
sg1058
(lp2911
g2901
ag2899
asbsVTranslationSet
p2912
g1
(g18
g19
(lp2913
tp2914
Rp2915
(dp2916
g12
g2912
sbsVWarningList
p2917
g1
(g1044
g3
(dp2918
VOutputMessage
p2919
(lp2920
g1
(g6
g7
S'No items found.'
p2921
tp2922
Rp2923
(dp2924
g12
VOutputMessage
p2925
sbasVPhraseIgnored
p2926
(lp2927
sVQuotedPhraseNotFound
p2928
(lp2929
stp2930
Rp2931
(dp2932
g12
g2917
sg1058
(lp2933
g2926
ag2928
ag2919
asbsVQueryTranslation
p2934
g1
(g6
g7
S'Lutjanus endecacanthus[PORG] AND Rhodopsin[title]'
p2935
tp2936
Rp2937
(dp2938
g12
g2934
sbstp2939
Rp2940
(dp2941
g12
VeSearchResult
p2942
sbag1
(g2
g3
(dp2943
VCount
p2944
g1
(g6
g7
g8
tp2945
Rp2946
(dp2947
g12
g2944
sbsVRetMax
p2948
g1
(g6
g7
g8
tp2949
Rp2950
(dp2951
g12
g2948
sbsVIdList
p2952
g1
(g18
g19
(lp2953
tp2954
Rp2955
(dp2956
g12
g2952
sbsVQueryTranslation
p2957
g1
(g6
g7
S'Lutjanus erythropterus[PORG] AND Rhodopsin[title]'
p2958
tp2959
Rp2960
(dp2961
g12
g2957
sbsVTranslationStack
p2962
g1
(g18
g19
(lp2963
g1
(g2
g3
(dp2964
g2944
g1
(g6
g7
S'263'
p2965
tp2966
Rp2967
(dp2968
g12
g2944
sbsVField
p2969
g1
(g6
g7
S'PORG'
p2970
tp2971
Rp2972
(dp2973
g12
g2969
sbsVTerm
p2974
g1
(g6
g7
S'Lutjanus erythropterus[PORG]'
p2975
tp2976
Rp2977
(dp2978
g12
g2974
sbsVExplode
p2979
g1
(g6
g7
g47
tp2980
Rp2981
(dp2982
g12
g2979
sbstp2983
Rp2984
(dp2985
g12
VTermSet
p2986
sbag1
(g2
g3
(dp2987
g2944
g1
(g6
g7
S'27665'
p2988
tp2989
Rp2990
(dp2991
g12
g2944
sbsg2969
g1
(g6
g7
S'title'
p2992
tp2993
Rp2994
(dp2995
g12
g2969
sbsg2974
g1
(g6
g7
S'Rhodopsin[title]'
p2996
tp2997
Rp2998
(dp2999
g12
g2974
sbsg2979
g1
(g6
g7
g68
tp3000
Rp3001
(dp3002
g12
g2979
sbstp3003
Rp3004
(dp3005
g12
g2986
sbag1
(g6
g7
S'AND'
p3006
tp3007
Rp3008
(dp3009
g12
VOP
p3010
sbatp3011
Rp3012
(dp3013
g12
g2962
sbsVRetStart
p3014
g1
(g6
g7
g8
tp3015
Rp3016
(dp3017
g12
g3014
sbsVTranslationSet
p3018
g1
(g18
g19
(lp3019
tp3020
Rp3021
(dp3022
g12
g3018
sbstp3023
Rp3024
(dp3025
g12
VeSearchResult
p3026
sbag1
(g2
g3
(dp3027
VCount
p3028
g1
(g6
g7
g8
tp3029
Rp3030
(dp3031
g12
g3028
sbsVRetMax
p3032
g1
(g6
g7
g8
tp3033
Rp3034
(dp3035
g12
g3032
sbsVIdList
p3036
g1
(g18
g19
(lp3037
tp3038
Rp3039
(dp3040
g12
g3036
sbsVRetStart
p3041
g1
(g6
g7
g8
tp3042
Rp3043
(dp3044
g12
g3041
sbsVErrorList
p3045
g1
(g1044
g3
(dp3046
VFieldNotFound
p3047
(lp3048
sVPhraseNotFound
p3049
(lp3050
g1
(g6
g7
S'Lutjanus fulgens[PORG]'
p3051
tp3052
Rp3053
(dp3054
g12
VPhraseNotFound
p3055
sbastp3056
Rp3057
(dp3058
g12
g3045
sg1058
(lp3059
g3049
ag3047
asbsVTranslationSet
p3060
g1
(g18
g19
(lp3061
tp3062
Rp3063
(dp3064
g12
g3060
sbsVWarningList
p3065
g1
(g1044
g3
(dp3066
VOutputMessage
p3067
(lp3068
g1
(g6
g7
S'No items found.'
p3069
tp3070
Rp3071
(dp3072
g12
VOutputMessage
p3073
sbasVPhraseIgnored
p3074
(lp3075
sVQuotedPhraseNotFound
p3076
(lp3077
stp3078
Rp3079
(dp3080
g12
g3065
sg1058
(lp3081
g3074
ag3076
ag3067
asbsVQueryTranslation
p3082
g1
(g6
g7
S'Lutjanus fulgens[PORG] AND Rhodopsin[title]'
p3083
tp3084
Rp3085
(dp3086
g12
g3082
sbstp3087
Rp3088
(dp3089
g12
VeSearchResult
p3090
sbag1
(g2
g3
(dp3091
VCount
p3092
g1
(g6
g7
g8
tp3093
Rp3094
(dp3095
g12
g3092
sbsVRetMax
p3096
g1
(g6
g7
g8
tp3097
Rp3098
(dp3099
g12
g3096
sbsVIdList
p3100
g1
(g18
g19
(lp3101
tp3102
Rp3103
(dp3104
g12
g3100
sbsVQueryTranslation
p3105
g1
(g6
g7
S'Lutjanus fulviflamma[PORG] AND Rhodopsin[title]'
p3106
tp3107
Rp3108
(dp3109
g12
g3105
sbsVTranslationStack
p3110
g1
(g18
g19
(lp3111
g1
(g2
g3
(dp3112
g3092
g1
(g6
g7
S'78'
p3113
tp3114
Rp3115
(dp3116
g12
g3092
sbsVField
p3117
g1
(g6
g7
S'PORG'
p3118
tp3119
Rp3120
(dp3121
g12
g3117
sbsVTerm
p3122
g1
(g6
g7
S'Lutjanus fulviflamma[PORG]'
p3123
tp3124
Rp3125
(dp3126
g12
g3122
sbsVExplode
p3127
g1
(g6
g7
g47
tp3128
Rp3129
(dp3130
g12
g3127
sbstp3131
Rp3132
(dp3133
g12
VTermSet
p3134
sbag1
(g2
g3
(dp3135
g3092
g1
(g6
g7
S'27665'
p3136
tp3137
Rp3138
(dp3139
g12
g3092
sbsg3117
g1
(g6
g7
S'title'
p3140
tp3141
Rp3142
(dp3143
g12
g3117
sbsg3122
g1
(g6
g7
S'Rhodopsin[title]'
p3144
tp3145
Rp3146
(dp3147
g12
g3122
sbsg3127
g1
(g6
g7
g68
tp3148
Rp3149
(dp3150
g12
g3127
sbstp3151
Rp3152
(dp3153
g12
g3134
sbag1
(g6
g7
S'AND'
p3154
tp3155
Rp3156
(dp3157
g12
VOP
p3158
sbatp3159
Rp3160
(dp3161
g12
g3110
sbsVRetStart
p3162
g1
(g6
g7
g8
tp3163
Rp3164
(dp3165
g12
g3162
sbsVTranslationSet
p3166
g1
(g18
g19
(lp3167
tp3168
Rp3169
(dp3170
g12
g3166
sbstp3171
Rp3172
(dp3173
g12
VeSearchResult
p3174
sbag1
(g2
g3
(dp3175
VCount
p3176
g1
(g6
g7
g8
tp3177
Rp3178
(dp3179
g12
g3176
sbsVRetMax
p3180
g1
(g6
g7
g8
tp3181
Rp3182
(dp3183
g12
g3180
sbsVIdList
p3184
g1
(g18
g19
(lp3185
tp3186
Rp3187
(dp3188
g12
g3184
sbsVQueryTranslation
p3189
g1
(g6
g7
S'Lutjanus fulvus[PORG] AND Rhodopsin[title]'
p3190
tp3191
Rp3192
(dp3193
g12
g3189
sbsVTranslationStack
p3194
g1
(g18
g19
(lp3195
g1
(g2
g3
(dp3196
g3176
g1
(g6
g7
S'75'
p3197
tp3198
Rp3199
(dp3200
g12
g3176
sbsVField
p3201
g1
(g6
g7
S'PORG'
p3202
tp3203
Rp3204
(dp3205
g12
g3201
sbsVTerm
p3206
g1
(g6
g7
S'Lutjanus fulvus[PORG]'
p3207
tp3208
Rp3209
(dp3210
g12
g3206
sbsVExplode
p3211
g1
(g6
g7
g47
tp3212
Rp3213
(dp3214
g12
g3211
sbstp3215
Rp3216
(dp3217
g12
VTermSet
p3218
sbag1
(g2
g3
(dp3219
g3176
g1
(g6
g7
S'27665'
p3220
tp3221
Rp3222
(dp3223
g12
g3176
sbsg3201
g1
(g6
g7
S'title'
p3224
tp3225
Rp3226
(dp3227
g12
g3201
sbsg3206
g1
(g6
g7
S'Rhodopsin[title]'
p3228
tp3229
Rp3230
(dp3231
g12
g3206
sbsg3211
g1
(g6
g7
g68
tp3232
Rp3233
(dp3234
g12
g3211
sbstp3235
Rp3236
(dp3237
g12
g3218
sbag1
(g6
g7
S'AND'
p3238
tp3239
Rp3240
(dp3241
g12
VOP
p3242
sbatp3243
Rp3244
(dp3245
g12
g3194
sbsVRetStart
p3246
g1
(g6
g7
g8
tp3247
Rp3248
(dp3249
g12
g3246
sbsVTranslationSet
p3250
g1
(g18
g19
(lp3251
tp3252
Rp3253
(dp3254
g12
g3250
sbstp3255
Rp3256
(dp3257
g12
VeSearchResult
p3258
sbag1
(g2
g3
(dp3259
VCount
p3260
g1
(g6
g7
g8
tp3261
Rp3262
(dp3263
g12
g3260
sbsVRetMax
p3264
g1
(g6
g7
g8
tp3265
Rp3266
(dp3267
g12
g3264
sbsVIdList
p3268
g1
(g18
g19
(lp3269
tp3270
Rp3271
(dp3272
g12
g3268
sbsVRetStart
p3273
g1
(g6
g7
g8
tp3274
Rp3275
(dp3276
g12
g3273
sbsVErrorList
p3277
g1
(g1044
g3
(dp3278
VFieldNotFound
p3279
(lp3280
sVPhraseNotFound
p3281
(lp3282
g1
(g6
g7
S'Lutjanus fuscescens[PORG]'
p3283
tp3284
Rp3285
(dp3286
g12
VPhraseNotFound
p3287
sbastp3288
Rp3289
(dp3290
g12
g3277
sg1058
(lp3291
g3281
ag3279
asbsVTranslationSet
p3292
g1
(g18
g19
(lp3293
tp3294
Rp3295
(dp3296
g12
g3292
sbsVWarningList
p3297
g1
(g1044
g3
(dp3298
VOutputMessage
p3299
(lp3300
g1
(g6
g7
S'No items found.'
p3301
tp3302
Rp3303
(dp3304
g12
VOutputMessage
p3305
sbasVPhraseIgnored
p3306
(lp3307
sVQuotedPhraseNotFound
p3308
(lp3309
stp3310
Rp3311
(dp3312
g12
g3297
sg1058
(lp3313
g3306
ag3308
ag3299
asbsVQueryTranslation
p3314
g1
(g6
g7
S'Lutjanus fuscescens[PORG] AND Rhodopsin[title]'
p3315
tp3316
Rp3317
(dp3318
g12
g3314
sbstp3319
Rp3320
(dp3321
g12
VeSearchResult
p3322
sbag1
(g2
g3
(dp3323
VCount
p3324
g1
(g6
g7
g8
tp3325
Rp3326
(dp3327
g12
g3324
sbsVRetMax
p3328
g1
(g6
g7
g8
tp3329
Rp3330
(dp3331
g12
g3328
sbsVIdList
p3332
g1
(g18
g19
(lp3333
tp3334
Rp3335
(dp3336
g12
g3332
sbsVQueryTranslation
p3337
g1
(g6
g7
S'Lutjanus gibbus[PORG] AND Rhodopsin[title]'
p3338
tp3339
Rp3340
(dp3341
g12
g3337
sbsVTranslationStack
p3342
g1
(g18
g19
(lp3343
g1
(g2
g3
(dp3344
g3324
g1
(g6
g7
S'12'
p3345
tp3346
Rp3347
(dp3348
g12
g3324
sbsVField
p3349
g1
(g6
g7
S'PORG'
p3350
tp3351
Rp3352
(dp3353
g12
g3349
sbsVTerm
p3354
g1
(g6
g7
S'Lutjanus gibbus[PORG]'
p3355
tp3356
Rp3357
(dp3358
g12
g3354
sbsVExplode
p3359
g1
(g6
g7
g47
tp3360
Rp3361
(dp3362
g12
g3359
sbstp3363
Rp3364
(dp3365
g12
VTermSet
p3366
sbag1
(g2
g3
(dp3367
g3324
g1
(g6
g7
S'27665'
p3368
tp3369
Rp3370
(dp3371
g12
g3324
sbsg3349
g1
(g6
g7
S'title'
p3372
tp3373
Rp3374
(dp3375
g12
g3349
sbsg3354
g1
(g6
g7
S'Rhodopsin[title]'
p3376
tp3377
Rp3378
(dp3379
g12
g3354
sbsg3359
g1
(g6
g7
g68
tp3380
Rp3381
(dp3382
g12
g3359
sbstp3383
Rp3384
(dp3385
g12
g3366
sbag1
(g6
g7
S'AND'
p3386
tp3387
Rp3388
(dp3389
g12
VOP
p3390
sbatp3391
Rp3392
(dp3393
g12
g3342
sbsVRetStart
p3394
g1
(g6
g7
g8
tp3395
Rp3396
(dp3397
g12
g3394
sbsVTranslationSet
p3398
g1
(g18
g19
(lp3399
tp3400
Rp3401
(dp3402
g12
g3398
sbstp3403
Rp3404
(dp3405
g12
VeSearchResult
p3406
sbag1
(g2
g3
(dp3407
VCount
p3408
g1
(g6
g7
g8
tp3409
Rp3410
(dp3411
g12
g3408
sbsVRetMax
p3412
g1
(g6
g7
g8
tp3413
Rp3414
(dp3415
g12
g3412
sbsVIdList
p3416
g1
(g18
g19
(lp3417
tp3418
Rp3419
(dp3420
g12
g3416
sbsVQueryTranslation
p3421
g1
(g6
g7
S'Lutjanus goldiei[PORG] AND Rhodopsin[title]'
p3422
tp3423
Rp3424
(dp3425
g12
g3421
sbsVTranslationStack
p3426
g1
(g18
g19
(lp3427
g1
(g2
g3
(dp3428
g3408
g1
(g6
g7
g350
tp3429
Rp3430
(dp3431
g12
g3408
sbsVField
p3432
g1
(g6
g7
S'PORG'
p3433
tp3434
Rp3435
(dp3436
g12
g3432
sbsVTerm
p3437
g1
(g6
g7
S'Lutjanus goldiei[PORG]'
p3438
tp3439
Rp3440
(dp3441
g12
g3437
sbsVExplode
p3442
g1
(g6
g7
g47
tp3443
Rp3444
(dp3445
g12
g3442
sbstp3446
Rp3447
(dp3448
g12
VTermSet
p3449
sbag1
(g2
g3
(dp3450
g3408
g1
(g6
g7
S'27665'
p3451
tp3452
Rp3453
(dp3454
g12
g3408
sbsg3432
g1
(g6
g7
S'title'
p3455
tp3456
Rp3457
(dp3458
g12
g3432
sbsg3437
g1
(g6
g7
S'Rhodopsin[title]'
p3459
tp3460
Rp3461
(dp3462
g12
g3437
sbsg3442
g1
(g6
g7
g68
tp3463
Rp3464
(dp3465
g12
g3442
sbstp3466
Rp3467
(dp3468
g12
g3449
sbag1
(g6
g7
S'AND'
p3469
tp3470
Rp3471
(dp3472
g12
VOP
p3473
sbatp3474
Rp3475
(dp3476
g12
g3426
sbsVRetStart
p3477
g1
(g6
g7
g8
tp3478
Rp3479
(dp3480
g12
g3477
sbsVTranslationSet
p3481
g1
(g18
g19
(lp3482
tp3483
Rp3484
(dp3485
g12
g3481
sbstp3486
Rp3487
(dp3488
g12
VeSearchResult
p3489
sbag1
(g2
g3
(dp3490
VCount
p3491
g1
(g6
g7
g8
tp3492
Rp3493
(dp3494
g12
g3491
sbsVRetMax
p3495
g1
(g6
g7
g8
tp3496
Rp3497
(dp3498
g12
g3495
sbsVIdList
p3499
g1
(g18
g19
(lp3500
tp3501
Rp3502
(dp3503
g12
g3499
sbsVRetStart
p3504
g1
(g6
g7
g8
tp3505
Rp3506
(dp3507
g12
g3504
sbsVErrorList
p3508
g1
(g1044
g3
(dp3509
VFieldNotFound
p3510
(lp3511
sVPhraseNotFound
p3512
(lp3513
g1
(g6
g7
S'Lutjanus goreensis[PORG]'
p3514
tp3515
Rp3516
(dp3517
g12
VPhraseNotFound
p3518
sbastp3519
Rp3520
(dp3521
g12
g3508
sg1058
(lp3522
g3512
ag3510
asbsVTranslationSet
p3523
g1
(g18
g19
(lp3524
tp3525
Rp3526
(dp3527
g12
g3523
sbsVWarningList
p3528
g1
(g1044
g3
(dp3529
VOutputMessage
p3530
(lp3531
g1
(g6
g7
S'No items found.'
p3532
tp3533
Rp3534
(dp3535
g12
VOutputMessage
p3536
sbasVPhraseIgnored
p3537
(lp3538
sVQuotedPhraseNotFound
p3539
(lp3540
stp3541
Rp3542
(dp3543
g12
g3528
sg1058
(lp3544
g3537
ag3539
ag3530
asbsVQueryTranslation
p3545
g1
(g6
g7
S'Lutjanus goreensis[PORG] AND Rhodopsin[title]'
p3546
tp3547
Rp3548
(dp3549
g12
g3545
sbstp3550
Rp3551
(dp3552
g12
VeSearchResult
p3553
sbag1
(g2
g3
(dp3554
VCount
p3555
g1
(g6
g7
g8
tp3556
Rp3557
(dp3558
g12
g3555
sbsVRetMax
p3559
g1
(g6
g7
g8
tp3560
Rp3561
(dp3562
g12
g3559
sbsVIdList
p3563
g1
(g18
g19
(lp3564
tp3565
Rp3566
(dp3567
g12
g3563
sbsVQueryTranslation
p3568
g1
(g6
g7
S'Lutjanus griseus[PORG] AND Rhodopsin[title]'
p3569
tp3570
Rp3571
(dp3572
g12
g3568
sbsVTranslationStack
p3573
g1
(g18
g19
(lp3574
g1
(g2
g3
(dp3575
g3555
g1
(g6
g7
S'116'
p3576
tp3577
Rp3578
(dp3579
g12
g3555
sbsVField
p3580
g1
(g6
g7
S'PORG'
p3581
tp3582
Rp3583
(dp3584
g12
g3580
sbsVTerm
p3585
g1
(g6
g7
S'Lutjanus griseus[PORG]'
p3586
tp3587
Rp3588
(dp3589
g12
g3585
sbsVExplode
p3590
g1
(g6
g7
g47
tp3591
Rp3592
(dp3593
g12
g3590
sbstp3594
Rp3595
(dp3596
g12
VTermSet
p3597
sbag1
(g2
g3
(dp3598
g3555
g1
(g6
g7
S'27665'
p3599
tp3600
Rp3601
(dp3602
g12
g3555
sbsg3580
g1
(g6
g7
S'title'
p3603
tp3604
Rp3605
(dp3606
g12
g3580
sbsg3585
g1
(g6
g7
S'Rhodopsin[title]'
p3607
tp3608
Rp3609
(dp3610
g12
g3585
sbsg3590
g1
(g6
g7
g68
tp3611
Rp3612
(dp3613
g12
g3590
sbstp3614
Rp3615
(dp3616
g12
g3597
sbag1
(g6
g7
S'AND'
p3617
tp3618
Rp3619
(dp3620
g12
VOP
p3621
sbatp3622
Rp3623
(dp3624
g12
g3573
sbsVRetStart
p3625
g1
(g6
g7
g8
tp3626
Rp3627
(dp3628
g12
g3625
sbsVTranslationSet
p3629
g1
(g18
g19
(lp3630
tp3631
Rp3632
(dp3633
g12
g3629
sbstp3634
Rp3635
(dp3636
g12
VeSearchResult
p3637
sbag1
(g2
g3
(dp3638
VCount
p3639
g1
(g6
g7
g8
tp3640
Rp3641
(dp3642
g12
g3639
sbsVRetMax
p3643
g1
(g6
g7
g8
tp3644
Rp3645
(dp3646
g12
g3643
sbsVIdList
p3647
g1
(g18
g19
(lp3648
tp3649
Rp3650
(dp3651
g12
g3647
sbsVRetStart
p3652
g1
(g6
g7
g8
tp3653
Rp3654
(dp3655
g12
g3652
sbsVErrorList
p3656
g1
(g1044
g3
(dp3657
VFieldNotFound
p3658
(lp3659
sVPhraseNotFound
p3660
(lp3661
g1
(g6
g7
S'Lutjanus guilcheri[PORG]'
p3662
tp3663
Rp3664
(dp3665
g12
VPhraseNotFound
p3666
sbastp3667
Rp3668
(dp3669
g12
g3656
sg1058
(lp3670
g3660
ag3658
asbsVTranslationSet
p3671
g1
(g18
g19
(lp3672
tp3673
Rp3674
(dp3675
g12
g3671
sbsVWarningList
p3676
g1
(g1044
g3
(dp3677
VOutputMessage
p3678
(lp3679
g1
(g6
g7
S'No items found.'
p3680
tp3681
Rp3682
(dp3683
g12
VOutputMessage
p3684
sbasVPhraseIgnored
p3685
(lp3686
sVQuotedPhraseNotFound
p3687
(lp3688
stp3689
Rp3690
(dp3691
g12
g3676
sg1058
(lp3692
g3685
ag3687
ag3678
asbsVQueryTranslation
p3693
g1
(g6
g7
S'Lutjanus guilcheri[PORG] AND Rhodopsin[title]'
p3694
tp3695
Rp3696
(dp3697
g12
g3693
sbstp3698
Rp3699
(dp3700
g12
VeSearchResult
p3701
sbag1
(g2
g3
(dp3702
VCount
p3703
g1
(g6
g7
g8
tp3704
Rp3705
(dp3706
g12
g3703
sbsVRetMax
p3707
g1
(g6
g7
g8
tp3708
Rp3709
(dp3710
g12
g3707
sbsVIdList
p3711
g1
(g18
g19
(lp3712
tp3713
Rp3714
(dp3715
g12
g3711
sbsVQueryTranslation
p3716
g1
(g6
g7
S'Lutjanus guttatus[PORG] AND Rhodopsin[title]'
p3717
tp3718
Rp3719
(dp3720
g12
g3716
sbsVTranslationStack
p3721
g1
(g18
g19
(lp3722
g1
(g2
g3
(dp3723
g3703
g1
(g6
g7
S'27'
p3724
tp3725
Rp3726
(dp3727
g12
g3703
sbsVField
p3728
g1
(g6
g7
S'PORG'
p3729
tp3730
Rp3731
(dp3732
g12
g3728
sbsVTerm
p3733
g1
(g6
g7
S'Lutjanus guttatus[PORG]'
p3734
tp3735
Rp3736
(dp3737
g12
g3733
sbsVExplode
p3738
g1
(g6
g7
g47
tp3739
Rp3740
(dp3741
g12
g3738
sbstp3742
Rp3743
(dp3744
g12
VTermSet
p3745
sbag1
(g2
g3
(dp3746
g3703
g1
(g6
g7
S'27665'
p3747
tp3748
Rp3749
(dp3750
g12
g3703
sbsg3728
g1
(g6
g7
S'title'
p3751
tp3752
Rp3753
(dp3754
g12
g3728
sbsg3733
g1
(g6
g7
S'Rhodopsin[title]'
p3755
tp3756
Rp3757
(dp3758
g12
g3733
sbsg3738
g1
(g6
g7
g68
tp3759
Rp3760
(dp3761
g12
g3738
sbstp3762
Rp3763
(dp3764
g12
g3745
sbag1
(g6
g7
S'AND'
p3765
tp3766
Rp3767
(dp3768
g12
VOP
p3769
sbatp3770
Rp3771
(dp3772
g12
g3721
sbsVRetStart
p3773
g1
(g6
g7
g8
tp3774
Rp3775
(dp3776
g12
g3773
sbsVTranslationSet
p3777
g1
(g18
g19
(lp3778
tp3779
Rp3780
(dp3781
g12
g3777
sbstp3782
Rp3783
(dp3784
g12
VeSearchResult
p3785
sbag1
(g2
g3
(dp3786
VCount
p3787
g1
(g6
g7
g8
tp3788
Rp3789
(dp3790
g12
g3787
sbsVRetMax
p3791
g1
(g6
g7
g8
tp3792
Rp3793
(dp3794
g12
g3791
sbsVIdList
p3795
g1
(g18
g19
(lp3796
tp3797
Rp3798
(dp3799
g12
g3795
sbsVQueryTranslation
p3800
g1
(g6
g7
S'Lutjanus indicus[PORG] AND Rhodopsin[title]'
p3801
tp3802
Rp3803
(dp3804
g12
g3800
sbsVTranslationStack
p3805
g1
(g18
g19
(lp3806
g1
(g2
g3
(dp3807
g3787
g1
(g6
g7
S'67'
p3808
tp3809
Rp3810
(dp3811
g12
g3787
sbsVField
p3812
g1
(g6
g7
S'PORG'
p3813
tp3814
Rp3815
(dp3816
g12
g3812
sbsVTerm
p3817
g1
(g6
g7
S'Lutjanus indicus[PORG]'
p3818
tp3819
Rp3820
(dp3821
g12
g3817
sbsVExplode
p3822
g1
(g6
g7
g47
tp3823
Rp3824
(dp3825
g12
g3822
sbstp3826
Rp3827
(dp3828
g12
VTermSet
p3829
sbag1
(g2
g3
(dp3830
g3787
g1
(g6
g7
S'27665'
p3831
tp3832
Rp3833
(dp3834
g12
g3787
sbsg3812
g1
(g6
g7
S'title'
p3835
tp3836
Rp3837
(dp3838
g12
g3812
sbsg3817
g1
(g6
g7
S'Rhodopsin[title]'
p3839
tp3840
Rp3841
(dp3842
g12
g3817
sbsg3822
g1
(g6
g7
g68
tp3843
Rp3844
(dp3845
g12
g3822
sbstp3846
Rp3847
(dp3848
g12
g3829
sbag1
(g6
g7
S'AND'
p3849
tp3850
Rp3851
(dp3852
g12
VOP
p3853
sbatp3854
Rp3855
(dp3856
g12
g3805
sbsVRetStart
p3857
g1
(g6
g7
g8
tp3858
Rp3859
(dp3860
g12
g3857
sbsVTranslationSet
p3861
g1
(g18
g19
(lp3862
tp3863
Rp3864
(dp3865
g12
g3861
sbstp3866
Rp3867
(dp3868
g12
VeSearchResult
p3869
sbag1
(g2
g3
(dp3870
VCount
p3871
g1
(g6
g7
g8
tp3872
Rp3873
(dp3874
g12
g3871
sbsVRetMax
p3875
g1
(g6
g7
g8
tp3876
Rp3877
(dp3878
g12
g3875
sbsVIdList
p3879
g1
(g18
g19
(lp3880
tp3881
Rp3882
(dp3883
g12
g3879
sbsVQueryTranslation
p3884
g1
(g6
g7
S'Lutjanus inermis[PORG] AND Rhodopsin[title]'
p3885
tp3886
Rp3887
(dp3888
g12
g3884
sbsVTranslationStack
p3889
g1
(g18
g19
(lp3890
g1
(g2
g3
(dp3891
g3871
g1
(g6
g7
g796
tp3892
Rp3893
(dp3894
g12
g3871
sbsVField
p3895
g1
(g6
g7
S'PORG'
p3896
tp3897
Rp3898
(dp3899
g12
g3895
sbsVTerm
p3900
g1
(g6
g7
S'Lutjanus inermis[PORG]'
p3901
tp3902
Rp3903
(dp3904
g12
g3900
sbsVExplode
p3905
g1
(g6
g7
g47
tp3906
Rp3907
(dp3908
g12
g3905
sbstp3909
Rp3910
(dp3911
g12
VTermSet
p3912
sbag1
(g2
g3
(dp3913
g3871
g1
(g6
g7
S'27665'
p3914
tp3915
Rp3916
(dp3917
g12
g3871
sbsg3895
g1
(g6
g7
S'title'
p3918
tp3919
Rp3920
(dp3921
g12
g3895
sbsg3900
g1
(g6
g7
S'Rhodopsin[title]'
p3922
tp3923
Rp3924
(dp3925
g12
g3900
sbsg3905
g1
(g6
g7
g68
tp3926
Rp3927
(dp3928
g12
g3905
sbstp3929
Rp3930
(dp3931
g12
g3912
sbag1
(g6
g7
S'AND'
p3932
tp3933
Rp3934
(dp3935
g12
VOP
p3936
sbatp3937
Rp3938
(dp3939
g12
g3889
sbsVRetStart
p3940
g1
(g6
g7
g8
tp3941
Rp3942
(dp3943
g12
g3940
sbsVTranslationSet
p3944
g1
(g18
g19
(lp3945
tp3946
Rp3947
(dp3948
g12
g3944
sbstp3949
Rp3950
(dp3951
g12
VeSearchResult
p3952
sbag1
(g2
g3
(dp3953
VCount
p3954
g1
(g6
g7
g8
tp3955
Rp3956
(dp3957
g12
g3954
sbsVRetMax
p3958
g1
(g6
g7
g8
tp3959
Rp3960
(dp3961
g12
g3958
sbsVIdList
p3962
g1
(g18
g19
(lp3963
tp3964
Rp3965
(dp3966
g12
g3962
sbsVQueryTranslation
p3967
g1
(g6
g7
S'Lutjanus jocu[PORG] AND Rhodopsin[title]'
p3968
tp3969
Rp3970
(dp3971
g12
g3967
sbsVTranslationStack
p3972
g1
(g18
g19
(lp3973
g1
(g2
g3
(dp3974
g3954
g1
(g6
g7
S'45'
p3975
tp3976
Rp3977
(dp3978
g12
g3954
sbsVField
p3979
g1
(g6
g7
S'PORG'
p3980
tp3981
Rp3982
(dp3983
g12
g3979
sbsVTerm
p3984
g1
(g6
g7
S'Lutjanus jocu[PORG]'
p3985
tp3986
Rp3987
(dp3988
g12
g3984
sbsVExplode
p3989
g1
(g6
g7
g47
tp3990
Rp3991
(dp3992
g12
g3989
sbstp3993
Rp3994
(dp3995
g12
VTermSet
p3996
sbag1
(g2
g3
(dp3997
g3954
g1
(g6
g7
S'27665'
p3998
tp3999
Rp4000
(dp4001
g12
g3954
sbsg3979
g1
(g6
g7
S'title'
p4002
tp4003
Rp4004
(dp4005
g12
g3979
sbsg3984
g1
(g6
g7
S'Rhodopsin[title]'
p4006
tp4007
Rp4008
(dp4009
g12
g3984
sbsg3989
g1
(g6
g7
g68
tp4010
Rp4011
(dp4012
g12
g3989
sbstp4013
Rp4014
(dp4015
g12
g3996
sbag1
(g6
g7
S'AND'
p4016
tp4017
Rp4018
(dp4019
g12
VOP
p4020
sbatp4021
Rp4022
(dp4023
g12
g3972
sbsVRetStart
p4024
g1
(g6
g7
g8
tp4025
Rp4026
(dp4027
g12
g4024
sbsVTranslationSet
p4028
g1
(g18
g19
(lp4029
tp4030
Rp4031
(dp4032
g12
g4028
sbstp4033
Rp4034
(dp4035
g12
VeSearchResult
p4036
sbag1
(g2
g3
(dp4037
VCount
p4038
g1
(g6
g7
g8
tp4039
Rp4040
(dp4041
g12
g4038
sbsVRetMax
p4042
g1
(g6
g7
g8
tp4043
Rp4044
(dp4045
g12
g4042
sbsVIdList
p4046
g1
(g18
g19
(lp4047
tp4048
Rp4049
(dp4050
g12
g4046
sbsVQueryTranslation
p4051
g1
(g6
g7
S'Lutjanus johnii[PORG] AND Rhodopsin[title]'
p4052
tp4053
Rp4054
(dp4055
g12
g4051
sbsVTranslationStack
p4056
g1
(g18
g19
(lp4057
g1
(g2
g3
(dp4058
g4038
g1
(g6
g7
S'145'
p4059
tp4060
Rp4061
(dp4062
g12
g4038
sbsVField
p4063
g1
(g6
g7
S'PORG'
p4064
tp4065
Rp4066
(dp4067
g12
g4063
sbsVTerm
p4068
g1
(g6
g7
S'Lutjanus johnii[PORG]'
p4069
tp4070
Rp4071
(dp4072
g12
g4068
sbsVExplode
p4073
g1
(g6
g7
g47
tp4074
Rp4075
(dp4076
g12
g4073
sbstp4077
Rp4078
(dp4079
g12
VTermSet
p4080
sbag1
(g2
g3
(dp4081
g4038
g1
(g6
g7
S'27665'
p4082
tp4083
Rp4084
(dp4085
g12
g4038
sbsg4063
g1
(g6
g7
S'title'
p4086
tp4087
Rp4088
(dp4089
g12
g4063
sbsg4068
g1
(g6
g7
S'Rhodopsin[title]'
p4090
tp4091
Rp4092
(dp4093
g12
g4068
sbsg4073
g1
(g6
g7
g68
tp4094
Rp4095
(dp4096
g12
g4073
sbstp4097
Rp4098
(dp4099
g12
g4080
sbag1
(g6
g7
S'AND'
p4100
tp4101
Rp4102
(dp4103
g12
VOP
p4104
sbatp4105
Rp4106
(dp4107
g12
g4056
sbsVRetStart
p4108
g1
(g6
g7
g8
tp4109
Rp4110
(dp4111
g12
g4108
sbsVTranslationSet
p4112
g1
(g18
g19
(lp4113
tp4114
Rp4115
(dp4116
g12
g4112
sbstp4117
Rp4118
(dp4119
g12
VeSearchResult
p4120
sbag1
(g2
g3
(dp4121
VCount
p4122
g1
(g6
g7
g8
tp4123
Rp4124
(dp4125
g12
g4122
sbsVRetMax
p4126
g1
(g6
g7
g8
tp4127
Rp4128
(dp4129
g12
g4126
sbsVIdList
p4130
g1
(g18
g19
(lp4131
tp4132
Rp4133
(dp4134
g12
g4130
sbsVRetStart
p4135
g1
(g6
g7
g8
tp4136
Rp4137
(dp4138
g12
g4135
sbsVErrorList
p4139
g1
(g1044
g3
(dp4140
VFieldNotFound
p4141
(lp4142
sVPhraseNotFound
p4143
(lp4144
g1
(g6
g7
S'Lutjanus jordani[PORG]'
p4145
tp4146
Rp4147
(dp4148
g12
VPhraseNotFound
p4149
sbastp4150
Rp4151
(dp4152
g12
g4139
sg1058
(lp4153
g4143
ag4141
asbsVTranslationSet
p4154
g1
(g18
g19
(lp4155
tp4156
Rp4157
(dp4158
g12
g4154
sbsVWarningList
p4159
g1
(g1044
g3
(dp4160
VOutputMessage
p4161
(lp4162
g1
(g6
g7
S'No items found.'
p4163
tp4164
Rp4165
(dp4166
g12
VOutputMessage
p4167
sbasVPhraseIgnored
p4168
(lp4169
sVQuotedPhraseNotFound
p4170
(lp4171
stp4172
Rp4173
(dp4174
g12
g4159
sg1058
(lp4175
g4168
ag4170
ag4161
asbsVQueryTranslation
p4176
g1
(g6
g7
S'Lutjanus jordani[PORG] AND Rhodopsin[title]'
p4177
tp4178
Rp4179
(dp4180
g12
g4176
sbstp4181
Rp4182
(dp4183
g12
VeSearchResult
p4184
sbag1
(g2
g3
(dp4185
VCount
p4186
g1
(g6
g7
g8
tp4187
Rp4188
(dp4189
g12
g4186
sbsVRetMax
p4190
g1
(g6
g7
g8
tp4191
Rp4192
(dp4193
g12
g4190
sbsVIdList
p4194
g1
(g18
g19
(lp4195
tp4196
Rp4197
(dp4198
g12
g4194
sbsVQueryTranslation
p4199
g1
(g6
g7
S'Lutjanus kasmira[PORG] AND Rhodopsin[title]'
p4200
tp4201
Rp4202
(dp4203
g12
g4199
sbsVTranslationStack
p4204
g1
(g18
g19
(lp4205
g1
(g2
g3
(dp4206
g4186
g1
(g6
g7
S'573'
p4207
tp4208
Rp4209
(dp4210
g12
g4186
sbsVField
p4211
g1
(g6
g7
S'PORG'
p4212
tp4213
Rp4214
(dp4215
g12
g4211
sbsVTerm
p4216
g1
(g6
g7
S'Lutjanus kasmira[PORG]'
p4217
tp4218
Rp4219
(dp4220
g12
g4216
sbsVExplode
p4221
g1
(g6
g7
g47
tp4222
Rp4223
(dp4224
g12
g4221
sbstp4225
Rp4226
(dp4227
g12
VTermSet
p4228
sbag1
(g2
g3
(dp4229
g4186
g1
(g6
g7
S'27665'
p4230
tp4231
Rp4232
(dp4233
g12
g4186
sbsg4211
g1
(g6
g7
S'title'
p4234
tp4235
Rp4236
(dp4237
g12
g4211
sbsg4216
g1
(g6
g7
S'Rhodopsin[title]'
p4238
tp4239
Rp4240
(dp4241
g12
g4216
sbsg4221
g1
(g6
g7
g68
tp4242
Rp4243
(dp4244
g12
g4221
sbstp4245
Rp4246
(dp4247
g12
g4228
sbag1
(g6
g7
S'AND'
p4248
tp4249
Rp4250
(dp4251
g12
VOP
p4252
sbatp4253
Rp4254
(dp4255
g12
g4204
sbsVRetStart
p4256
g1
(g6
g7
g8
tp4257
Rp4258
(dp4259
g12
g4256
sbsVTranslationSet
p4260
g1
(g18
g19
(lp4261
tp4262
Rp4263
(dp4264
g12
g4260
sbstp4265
Rp4266
(dp4267
g12
VeSearchResult
p4268
sbag1
(g2
g3
(dp4269
VCount
p4270
g1
(g6
g7
g8
tp4271
Rp4272
(dp4273
g12
g4270
sbsVRetMax
p4274
g1
(g6
g7
g8
tp4275
Rp4276
(dp4277
g12
g4274
sbsVIdList
p4278
g1
(g18
g19
(lp4279
tp4280
Rp4281
(dp4282
g12
g4278
sbsVQueryTranslation
p4283
g1
(g6
g7
S'Lutjanus lemniscatus[PORG] AND Rhodopsin[title]'
p4284
tp4285
Rp4286
(dp4287
g12
g4283
sbsVTranslationStack
p4288
g1
(g18
g19
(lp4289
g1
(g2
g3
(dp4290
g4270
g1
(g6
g7
g963
tp4291
Rp4292
(dp4293
g12
g4270
sbsVField
p4294
g1
(g6
g7
S'PORG'
p4295
tp4296
Rp4297
(dp4298
g12
g4294
sbsVTerm
p4299
g1
(g6
g7
S'Lutjanus lemniscatus[PORG]'
p4300
tp4301
Rp4302
(dp4303
g12
g4299
sbsVExplode
p4304
g1
(g6
g7
g47
tp4305
Rp4306
(dp4307
g12
g4304
sbstp4308
Rp4309
(dp4310
g12
VTermSet
p4311
sbag1
(g2
g3
(dp4312
g4270
g1
(g6
g7
S'27665'
p4313
tp4314
Rp4315
(dp4316
g12
g4270
sbsg4294
g1
(g6
g7
S'title'
p4317
tp4318
Rp4319
(dp4320
g12
g4294
sbsg4299
g1
(g6
g7
S'Rhodopsin[title]'
p4321
tp4322
Rp4323
(dp4324
g12
g4299
sbsg4304
g1
(g6
g7
g68
tp4325
Rp4326
(dp4327
g12
g4304
sbstp4328
Rp4329
(dp4330
g12
g4311
sbag1
(g6
g7
S'AND'
p4331
tp4332
Rp4333
(dp4334
g12
VOP
p4335
sbatp4336
Rp4337
(dp4338
g12
g4288
sbsVRetStart
p4339
g1
(g6
g7
g8
tp4340
Rp4341
(dp4342
g12
g4339
sbsVTranslationSet
p4343
g1
(g18
g19
(lp4344
tp4345
Rp4346
(dp4347
g12
g4343
sbstp4348
Rp4349
(dp4350
g12
VeSearchResult
p4351
sbag1
(g2
g3
(dp4352
VCount
p4353
g1
(g6
g7
g8
tp4354
Rp4355
(dp4356
g12
g4353
sbsVRetMax
p4357
g1
(g6
g7
g8
tp4358
Rp4359
(dp4360
g12
g4357
sbsVIdList
p4361
g1
(g18
g19
(lp4362
tp4363
Rp4364
(dp4365
g12
g4361
sbsVQueryTranslation
p4366
g1
(g6
g7
S'Lutjanus lunulatus[PORG] AND Rhodopsin[title]'
p4367
tp4368
Rp4369
(dp4370
g12
g4366
sbsVTranslationStack
p4371
g1
(g18
g19
(lp4372
g1
(g2
g3
(dp4373
g4353
g1
(g6
g7
S'2'
p4374
tp4375
Rp4376
(dp4377
g12
g4353
sbsVField
p4378
g1
(g6
g7
S'PORG'
p4379
tp4380
Rp4381
(dp4382
g12
g4378
sbsVTerm
p4383
g1
(g6
g7
S'Lutjanus lunulatus[PORG]'
p4384
tp4385
Rp4386
(dp4387
g12
g4383
sbsVExplode
p4388
g1
(g6
g7
g47
tp4389
Rp4390
(dp4391
g12
g4388
sbstp4392
Rp4393
(dp4394
g12
VTermSet
p4395
sbag1
(g2
g3
(dp4396
g4353
g1
(g6
g7
S'27665'
p4397
tp4398
Rp4399
(dp4400
g12
g4353
sbsg4378
g1
(g6
g7
S'title'
p4401
tp4402
Rp4403
(dp4404
g12
g4378
sbsg4383
g1
(g6
g7
S'Rhodopsin[title]'
p4405
tp4406
Rp4407
(dp4408
g12
g4383
sbsg4388
g1
(g6
g7
g68
tp4409
Rp4410
(dp4411
g12
g4388
sbstp4412
Rp4413
(dp4414
g12
g4395
sbag1
(g6
g7
S'AND'
p4415
tp4416
Rp4417
(dp4418
g12
VOP
p4419
sbatp4420
Rp4421
(dp4422
g12
g4371
sbsVRetStart
p4423
g1
(g6
g7
g8
tp4424
Rp4425
(dp4426
g12
g4423
sbsVTranslationSet
p4427
g1
(g18
g19
(lp4428
tp4429
Rp4430
(dp4431
g12
g4427
sbstp4432
Rp4433
(dp4434
g12
VeSearchResult
p4435
sbag1
(g2
g3
(dp4436
VCount
p4437
g1
(g6
g7
g8
tp4438
Rp4439
(dp4440
g12
g4437
sbsVRetMax
p4441
g1
(g6
g7
g8
tp4442
Rp4443
(dp4444
g12
g4441
sbsVIdList
p4445
g1
(g18
g19
(lp4446
tp4447
Rp4448
(dp4449
g12
g4445
sbsVQueryTranslation
p4450
g1
(g6
g7
S'Lutjanus lutjanus[PORG] AND Rhodopsin[title]'
p4451
tp4452
Rp4453
(dp4454
g12
g4450
sbsVTranslationStack
p4455
g1
(g18
g19
(lp4456
g1
(g2
g3
(dp4457
g4437
g1
(g6
g7
S'43'
p4458
tp4459
Rp4460
(dp4461
g12
g4437
sbsVField
p4462
g1
(g6
g7
S'PORG'
p4463
tp4464
Rp4465
(dp4466
g12
g4462
sbsVTerm
p4467
g1
(g6
g7
S'Lutjanus lutjanus[PORG]'
p4468
tp4469
Rp4470
(dp4471
g12
g4467
sbsVExplode
p4472
g1
(g6
g7
g47
tp4473
Rp4474
(dp4475
g12
g4472
sbstp4476
Rp4477
(dp4478
g12
VTermSet
p4479
sbag1
(g2
g3
(dp4480
g4437
g1
(g6
g7
S'27665'
p4481
tp4482
Rp4483
(dp4484
g12
g4437
sbsg4462
g1
(g6
g7
S'title'
p4485
tp4486
Rp4487
(dp4488
g12
g4462
sbsg4467
g1
(g6
g7
S'Rhodopsin[title]'
p4489
tp4490
Rp4491
(dp4492
g12
g4467
sbsg4472
g1
(g6
g7
g68
tp4493
Rp4494
(dp4495
g12
g4472
sbstp4496
Rp4497
(dp4498
g12
g4479
sbag1
(g6
g7
S'AND'
p4499
tp4500
Rp4501
(dp4502
g12
VOP
p4503
sbatp4504
Rp4505
(dp4506
g12
g4455
sbsVRetStart
p4507
g1
(g6
g7
g8
tp4508
Rp4509
(dp4510
g12
g4507
sbsVTranslationSet
p4511
g1
(g18
g19
(lp4512
tp4513
Rp4514
(dp4515
g12
g4511
sbstp4516
Rp4517
(dp4518
g12
VeSearchResult
p4519
sbag1
(g2
g3
(dp4520
VCount
p4521
g1
(g6
g7
g8
tp4522
Rp4523
(dp4524
g12
g4521
sbsVRetMax
p4525
g1
(g6
g7
g8
tp4526
Rp4527
(dp4528
g12
g4525
sbsVIdList
p4529
g1
(g18
g19
(lp4530
tp4531
Rp4532
(dp4533
g12
g4529
sbsVQueryTranslation
p4534
g1
(g6
g7
S'Lutjanus madras[PORG] AND Rhodopsin[title]'
p4535
tp4536
Rp4537
(dp4538
g12
g4534
sbsVTranslationStack
p4539
g1
(g18
g19
(lp4540
g1
(g2
g3
(dp4541
g4521
g1
(g6
g7
S'15'
p4542
tp4543
Rp4544
(dp4545
g12
g4521
sbsVField
p4546
g1
(g6
g7
S'PORG'
p4547
tp4548
Rp4549
(dp4550
g12
g4546
sbsVTerm
p4551
g1
(g6
g7
S'Lutjanus madras[PORG]'
p4552
tp4553
Rp4554
(dp4555
g12
g4551
sbsVExplode
p4556
g1
(g6
g7
g47
tp4557
Rp4558
(dp4559
g12
g4556
sbstp4560
Rp4561
(dp4562
g12
VTermSet
p4563
sbag1
(g2
g3
(dp4564
g4521
g1
(g6
g7
S'27665'
p4565
tp4566
Rp4567
(dp4568
g12
g4521
sbsg4546
g1
(g6
g7
S'title'
p4569
tp4570
Rp4571
(dp4572
g12
g4546
sbsg4551
g1
(g6
g7
S'Rhodopsin[title]'
p4573
tp4574
Rp4575
(dp4576
g12
g4551
sbsg4556
g1
(g6
g7
g68
tp4577
Rp4578
(dp4579
g12
g4556
sbstp4580
Rp4581
(dp4582
g12
g4563
sbag1
(g6
g7
S'AND'
p4583
tp4584
Rp4585
(dp4586
g12
VOP
p4587
sbatp4588
Rp4589
(dp4590
g12
g4539
sbsVRetStart
p4591
g1
(g6
g7
g8
tp4592
Rp4593
(dp4594
g12
g4591
sbsVTranslationSet
p4595
g1
(g18
g19
(lp4596
tp4597
Rp4598
(dp4599
g12
g4595
sbstp4600
Rp4601
(dp4602
g12
VeSearchResult
p4603
sbag1
(g2
g3
(dp4604
VCount
p4605
g1
(g6
g7
g8
tp4606
Rp4607
(dp4608
g12
g4605
sbsVRetMax
p4609
g1
(g6
g7
g8
tp4610
Rp4611
(dp4612
g12
g4609
sbsVIdList
p4613
g1
(g18
g19
(lp4614
tp4615
Rp4616
(dp4617
g12
g4613
sbsVQueryTranslation
p4618
g1
(g6
g7
S'Lutjanus mahogoni[PORG] AND Rhodopsin[title]'
p4619
tp4620
Rp4621
(dp4622
g12
g4618
sbsVTranslationStack
p4623
g1
(g18
g19
(lp4624
g1
(g2
g3
(dp4625
g4605
g1
(g6
g7
S'40'
p4626
tp4627
Rp4628
(dp4629
g12
g4605
sbsVField
p4630
g1
(g6
g7
S'PORG'
p4631
tp4632
Rp4633
(dp4634
g12
g4630
sbsVTerm
p4635
g1
(g6
g7
S'Lutjanus mahogoni[PORG]'
p4636
tp4637
Rp4638
(dp4639
g12
g4635
sbsVExplode
p4640
g1
(g6
g7
g47
tp4641
Rp4642
(dp4643
g12
g4640
sbstp4644
Rp4645
(dp4646
g12
VTermSet
p4647
sbag1
(g2
g3
(dp4648
g4605
g1
(g6
g7
S'27665'
p4649
tp4650
Rp4651
(dp4652
g12
g4605
sbsg4630
g1
(g6
g7
S'title'
p4653
tp4654
Rp4655
(dp4656
g12
g4630
sbsg4635
g1
(g6
g7
S'Rhodopsin[title]'
p4657
tp4658
Rp4659
(dp4660
g12
g4635
sbsg4640
g1
(g6
g7
g68
tp4661
Rp4662
(dp4663
g12
g4640
sbstp4664
Rp4665
(dp4666
g12
g4647
sbag1
(g6
g7
S'AND'
p4667
tp4668
Rp4669
(dp4670
g12
VOP
p4671
sbatp4672
Rp4673
(dp4674
g12
g4623
sbsVRetStart
p4675
g1
(g6
g7
g8
tp4676
Rp4677
(dp4678
g12
g4675
sbsVTranslationSet
p4679
g1
(g18
g19
(lp4680
tp4681
Rp4682
(dp4683
g12
g4679
sbstp4684
Rp4685
(dp4686
g12
VeSearchResult
p4687
sbag1
(g2
g3
(dp4688
VCount
p4689
g1
(g6
g7
g8
tp4690
Rp4691
(dp4692
g12
g4689
sbsVRetMax
p4693
g1
(g6
g7
g8
tp4694
Rp4695
(dp4696
g12
g4693
sbsVIdList
p4697
g1
(g18
g19
(lp4698
tp4699
Rp4700
(dp4701
g12
g4697
sbsVQueryTranslation
p4702
g1
(g6
g7
S'Lutjanus malabaricus[PORG] AND Rhodopsin[title]'
p4703
tp4704
Rp4705
(dp4706
g12
g4702
sbsVTranslationStack
p4707
g1
(g18
g19
(lp4708
g1
(g2
g3
(dp4709
g4689
g1
(g6
g7
S'49'
p4710
tp4711
Rp4712
(dp4713
g12
g4689
sbsVField
p4714
g1
(g6
g7
S'PORG'
p4715
tp4716
Rp4717
(dp4718
g12
g4714
sbsVTerm
p4719
g1
(g6
g7
S'Lutjanus malabaricus[PORG]'
p4720
tp4721
Rp4722
(dp4723
g12
g4719
sbsVExplode
p4724
g1
(g6
g7
g47
tp4725
Rp4726
(dp4727
g12
g4724
sbstp4728
Rp4729
(dp4730
g12
VTermSet
p4731
sbag1
(g2
g3
(dp4732
g4689
g1
(g6
g7
S'27665'
p4733
tp4734
Rp4735
(dp4736
g12
g4689
sbsg4714
g1
(g6
g7
S'title'
p4737
tp4738
Rp4739
(dp4740
g12
g4714
sbsg4719
g1
(g6
g7
S'Rhodopsin[title]'
p4741
tp4742
Rp4743
(dp4744
g12
g4719
sbsg4724
g1
(g6
g7
g68
tp4745
Rp4746
(dp4747
g12
g4724
sbstp4748
Rp4749
(dp4750
g12
g4731
sbag1
(g6
g7
S'AND'
p4751
tp4752
Rp4753
(dp4754
g12
VOP
p4755
sbatp4756
Rp4757
(dp4758
g12
g4707
sbsVRetStart
p4759
g1
(g6
g7
g8
tp4760
Rp4761
(dp4762
g12
g4759
sbsVTranslationSet
p4763
g1
(g18
g19
(lp4764
tp4765
Rp4766
(dp4767
g12
g4763
sbstp4768
Rp4769
(dp4770
g12
VeSearchResult
p4771
sbag1
(g2
g3
(dp4772
VCount
p4773
g1
(g6
g7
g8
tp4774
Rp4775
(dp4776
g12
g4773
sbsVRetMax
p4777
g1
(g6
g7
g8
tp4778
Rp4779
(dp4780
g12
g4777
sbsVIdList
p4781
g1
(g18
g19
(lp4782
tp4783
Rp4784
(dp4785
g12
g4781
sbsVRetStart
p4786
g1
(g6
g7
g8
tp4787
Rp4788
(dp4789
g12
g4786
sbsVErrorList
p4790
g1
(g1044
g3
(dp4791
VFieldNotFound
p4792
(lp4793
sVPhraseNotFound
p4794
(lp4795
g1
(g6
g7
S'Lutjanus maxweberi[PORG]'
p4796
tp4797
Rp4798
(dp4799
g12
VPhraseNotFound
p4800
sbastp4801
Rp4802
(dp4803
g12
g4790
sg1058
(lp4804
g4794
ag4792
asbsVTranslationSet
p4805
g1
(g18
g19
(lp4806
tp4807
Rp4808
(dp4809
g12
g4805
sbsVWarningList
p4810
g1
(g1044
g3
(dp4811
VOutputMessage
p4812
(lp4813
g1
(g6
g7
S'No items found.'
p4814
tp4815
Rp4816
(dp4817
g12
VOutputMessage
p4818
sbasVPhraseIgnored
p4819
(lp4820
sVQuotedPhraseNotFound
p4821
(lp4822
stp4823
Rp4824
(dp4825
g12
g4810
sg1058
(lp4826
g4819
ag4821
ag4812
asbsVQueryTranslation
p4827
g1
(g6
g7
S'Lutjanus maxweberi[PORG] AND Rhodopsin[title]'
p4828
tp4829
Rp4830
(dp4831
g12
g4827
sbstp4832
Rp4833
(dp4834
g12
VeSearchResult
p4835
sbag1
(g2
g3
(dp4836
VCount
p4837
g1
(g6
g7
g8
tp4838
Rp4839
(dp4840
g12
g4837
sbsVRetMax
p4841
g1
(g6
g7
g8
tp4842
Rp4843
(dp4844
g12
g4841
sbsVIdList
p4845
g1
(g18
g19
(lp4846
tp4847
Rp4848
(dp4849
g12
g4845
sbsVRetStart
p4850
g1
(g6
g7
g8
tp4851
Rp4852
(dp4853
g12
g4850
sbsVErrorList
p4854
g1
(g1044
g3
(dp4855
VFieldNotFound
p4856
(lp4857
sVPhraseNotFound
p4858
(lp4859
g1
(g6
g7
S'Lutjanus mizenkoi[PORG]'
p4860
tp4861
Rp4862
(dp4863
g12
VPhraseNotFound
p4864
sbastp4865
Rp4866
(dp4867
g12
g4854
sg1058
(lp4868
g4858
ag4856
asbsVTranslationSet
p4869
g1
(g18
g19
(lp4870
tp4871
Rp4872
(dp4873
g12
g4869
sbsVWarningList
p4874
g1
(g1044
g3
(dp4875
VOutputMessage
p4876
(lp4877
g1
(g6
g7
S'No items found.'
p4878
tp4879
Rp4880
(dp4881
g12
VOutputMessage
p4882
sbasVPhraseIgnored
p4883
(lp4884
sVQuotedPhraseNotFound
p4885
(lp4886
stp4887
Rp4888
(dp4889
g12
g4874
sg1058
(lp4890
g4883
ag4885
ag4876
asbsVQueryTranslation
p4891
g1
(g6
g7
S'Lutjanus mizenkoi[PORG] AND Rhodopsin[title]'
p4892
tp4893
Rp4894
(dp4895
g12
g4891
sbstp4896
Rp4897
(dp4898
g12
VeSearchResult
p4899
sbag1
(g2
g3
(dp4900
VCount
p4901
g1
(g6
g7
g8
tp4902
Rp4903
(dp4904
g12
g4901
sbsVRetMax
p4905
g1
(g6
g7
g8
tp4906
Rp4907
(dp4908
g12
g4905
sbsVIdList
p4909
g1
(g18
g19
(lp4910
tp4911
Rp4912
(dp4913
g12
g4909
sbsVQueryTranslation
p4914
g1
(g6
g7
S'Lutjanus monostigma[PORG] AND Rhodopsin[title]'
p4915
tp4916
Rp4917
(dp4918
g12
g4914
sbsVTranslationStack
p4919
g1
(g18
g19
(lp4920
g1
(g2
g3
(dp4921
g4901
g1
(g6
g7
S'13'
p4922
tp4923
Rp4924
(dp4925
g12
g4901
sbsVField
p4926
g1
(g6
g7
S'PORG'
p4927
tp4928
Rp4929
(dp4930
g12
g4926
sbsVTerm
p4931
g1
(g6
g7
S'Lutjanus monostigma[PORG]'
p4932
tp4933
Rp4934
(dp4935
g12
g4931
sbsVExplode
p4936
g1
(g6
g7
g47
tp4937
Rp4938
(dp4939
g12
g4936
sbstp4940
Rp4941
(dp4942
g12
VTermSet
p4943
sbag1
(g2
g3
(dp4944
g4901
g1
(g6
g7
S'27665'
p4945
tp4946
Rp4947
(dp4948
g12
g4901
sbsg4926
g1
(g6
g7
S'title'
p4949
tp4950
Rp4951
(dp4952
g12
g4926
sbsg4931
g1
(g6
g7
S'Rhodopsin[title]'
p4953
tp4954
Rp4955
(dp4956
g12
g4931
sbsg4936
g1
(g6
g7
g68
tp4957
Rp4958
(dp4959
g12
g4936
sbstp4960
Rp4961
(dp4962
g12
g4943
sbag1
(g6
g7
S'AND'
p4963
tp4964
Rp4965
(dp4966
g12
VOP
p4967
sbatp4968
Rp4969
(dp4970
g12
g4919
sbsVRetStart
p4971
g1
(g6
g7
g8
tp4972
Rp4973
(dp4974
g12
g4971
sbsVTranslationSet
p4975
g1
(g18
g19
(lp4976
tp4977
Rp4978
(dp4979
g12
g4975
sbstp4980
Rp4981
(dp4982
g12
VeSearchResult
p4983
sbag1
(g2
g3
(dp4984
VCount
p4985
g1
(g6
g7
g8
tp4986
Rp4987
(dp4988
g12
g4985
sbsVRetMax
p4989
g1
(g6
g7
g8
tp4990
Rp4991
(dp4992
g12
g4989
sbsVIdList
p4993
g1
(g18
g19
(lp4994
tp4995
Rp4996
(dp4997
g12
g4993
sbsVQueryTranslation
p4998
g1
(g6
g7
S'Lutjanus notatus[PORG] AND Rhodopsin[title]'
p4999
tp5000
Rp5001
(dp5002
g12
g4998
sbsVTranslationStack
p5003
g1
(g18
g19
(lp5004
g1
(g2
g3
(dp5005
g4985
g1
(g6
g7
g2400
tp5006
Rp5007
(dp5008
g12
g4985
sbsVField
p5009
g1
(g6
g7
S'PORG'
p5010
tp5011
Rp5012
(dp5013
g12
g5009
sbsVTerm
p5014
g1
(g6
g7
S'Lutjanus notatus[PORG]'
p5015
tp5016
Rp5017
(dp5018
g12
g5014
sbsVExplode
p5019
g1
(g6
g7
g47
tp5020
Rp5021
(dp5022
g12
g5019
sbstp5023
Rp5024
(dp5025
g12
VTermSet
p5026
sbag1
(g2
g3
(dp5027
g4985
g1
(g6
g7
S'27665'
p5028
tp5029
Rp5030
(dp5031
g12
g4985
sbsg5009
g1
(g6
g7
S'title'
p5032
tp5033
Rp5034
(dp5035
g12
g5009
sbsg5014
g1
(g6
g7
S'Rhodopsin[title]'
p5036
tp5037
Rp5038
(dp5039
g12
g5014
sbsg5019
g1
(g6
g7
g68
tp5040
Rp5041
(dp5042
g12
g5019
sbstp5043
Rp5044
(dp5045
g12
g5026
sbag1
(g6
g7
S'AND'
p5046
tp5047
Rp5048
(dp5049
g12
VOP
p5050
sbatp5051
Rp5052
(dp5053
g12
g5003
sbsVRetStart
p5054
g1
(g6
g7
g8
tp5055
Rp5056
(dp5057
g12
g5054
sbsVTranslationSet
p5058
g1
(g18
g19
(lp5059
tp5060
Rp5061
(dp5062
g12
g5058
sbstp5063
Rp5064
(dp5065
g12
VeSearchResult
p5066
sbag1
(g2
g3
(dp5067
VCount
p5068
g1
(g6
g7
g8
tp5069
Rp5070
(dp5071
g12
g5068
sbsVRetMax
p5072
g1
(g6
g7
g8
tp5073
Rp5074
(dp5075
g12
g5072
sbsVIdList
p5076
g1
(g18
g19
(lp5077
tp5078
Rp5079
(dp5080
g12
g5076
sbsVQueryTranslation
p5081
g1
(g6
g7
S'Lutjanus novemfasciatus[PORG] AND Rhodopsin[title]'
p5082
tp5083
Rp5084
(dp5085
g12
g5081
sbsVTranslationStack
p5086
g1
(g18
g19
(lp5087
g1
(g2
g3
(dp5088
g5068
g1
(g6
g7
S'11'
p5089
tp5090
Rp5091
(dp5092
g12
g5068
sbsVField
p5093
g1
(g6
g7
S'PORG'
p5094
tp5095
Rp5096
(dp5097
g12
g5093
sbsVTerm
p5098
g1
(g6
g7
S'Lutjanus novemfasciatus[PORG]'
p5099
tp5100
Rp5101
(dp5102
g12
g5098
sbsVExplode
p5103
g1
(g6
g7
g47
tp5104
Rp5105
(dp5106
g12
g5103
sbstp5107
Rp5108
(dp5109
g12
VTermSet
p5110
sbag1
(g2
g3
(dp5111
g5068
g1
(g6
g7
S'27665'
p5112
tp5113
Rp5114
(dp5115
g12
g5068
sbsg5093
g1
(g6
g7
S'title'
p5116
tp5117
Rp5118
(dp5119
g12
g5093
sbsg5098
g1
(g6
g7
S'Rhodopsin[title]'
p5120
tp5121
Rp5122
(dp5123
g12
g5098
sbsg5103
g1
(g6
g7
g68
tp5124
Rp5125
(dp5126
g12
g5103
sbstp5127
Rp5128
(dp5129
g12
g5110
sbag1
(g6
g7
S'AND'
p5130
tp5131
Rp5132
(dp5133
g12
VOP
p5134
sbatp5135
Rp5136
(dp5137
g12
g5086
sbsVRetStart
p5138
g1
(g6
g7
g8
tp5139
Rp5140
(dp5141
g12
g5138
sbsVTranslationSet
p5142
g1
(g18
g19
(lp5143
tp5144
Rp5145
(dp5146
g12
g5142
sbstp5147
Rp5148
(dp5149
g12
VeSearchResult
p5150
sbag1
(g2
g3
(dp5151
VCount
p5152
g1
(g6
g7
g8
tp5153
Rp5154
(dp5155
g12
g5152
sbsVRetMax
p5156
g1
(g6
g7
g8
tp5157
Rp5158
(dp5159
g12
g5156
sbsVIdList
p5160
g1
(g18
g19
(lp5161
tp5162
Rp5163
(dp5164
g12
g5160
sbsVQueryTranslation
p5165
g1
(g6
g7
S'Lutjanus ophuysenii[PORG] AND Rhodopsin[title]'
p5166
tp5167
Rp5168
(dp5169
g12
g5165
sbsVTranslationStack
p5170
g1
(g18
g19
(lp5171
g1
(g2
g3
(dp5172
g5152
g1
(g6
g7
S'24'
p5173
tp5174
Rp5175
(dp5176
g12
g5152
sbsVField
p5177
g1
(g6
g7
S'PORG'
p5178
tp5179
Rp5180
(dp5181
g12
g5177
sbsVTerm
p5182
g1
(g6
g7
S'Lutjanus ophuysenii[PORG]'
p5183
tp5184
Rp5185
(dp5186
g12
g5182
sbsVExplode
p5187
g1
(g6
g7
g47
tp5188
Rp5189
(dp5190
g12
g5187
sbstp5191
Rp5192
(dp5193
g12
VTermSet
p5194
sbag1
(g2
g3
(dp5195
g5152
g1
(g6
g7
S'27665'
p5196
tp5197
Rp5198
(dp5199
g12
g5152
sbsg5177
g1
(g6
g7
S'title'
p5200
tp5201
Rp5202
(dp5203
g12
g5177
sbsg5182
g1
(g6
g7
S'Rhodopsin[title]'
p5204
tp5205
Rp5206
(dp5207
g12
g5182
sbsg5187
g1
(g6
g7
g68
tp5208
Rp5209
(dp5210
g12
g5187
sbstp5211
Rp5212
(dp5213
g12
g5194
sbag1
(g6
g7
S'AND'
p5214
tp5215
Rp5216
(dp5217
g12
VOP
p5218
sbatp5219
Rp5220
(dp5221
g12
g5170
sbsVRetStart
p5222
g1
(g6
g7
g8
tp5223
Rp5224
(dp5225
g12
g5222
sbsVTranslationSet
p5226
g1
(g18
g19
(lp5227
tp5228
Rp5229
(dp5230
g12
g5226
sbstp5231
Rp5232
(dp5233
g12
VeSearchResult
p5234
sbag1
(g2
g3
(dp5235
VCount
p5236
g1
(g6
g7
g8
tp5237
Rp5238
(dp5239
g12
g5236
sbsVRetMax
p5240
g1
(g6
g7
g8
tp5241
Rp5242
(dp5243
g12
g5240
sbsVIdList
p5244
g1
(g18
g19
(lp5245
tp5246
Rp5247
(dp5248
g12
g5244
sbsVQueryTranslation
p5249
g1
(g6
g7
S'Lutjanus papuensis[PORG] AND Rhodopsin[title]'
p5250
tp5251
Rp5252
(dp5253
g12
g5249
sbsVTranslationStack
p5254
g1
(g18
g19
(lp5255
g1
(g2
g3
(dp5256
g5236
g1
(g6
g7
g4374
tp5257
Rp5258
(dp5259
g12
g5236
sbsVField
p5260
g1
(g6
g7
S'PORG'
p5261
tp5262
Rp5263
(dp5264
g12
g5260
sbsVTerm
p5265
g1
(g6
g7
S'Lutjanus papuensis[PORG]'
p5266
tp5267
Rp5268
(dp5269
g12
g5265
sbsVExplode
p5270
g1
(g6
g7
g47
tp5271
Rp5272
(dp5273
g12
g5270
sbstp5274
Rp5275
(dp5276
g12
VTermSet
p5277
sbag1
(g2
g3
(dp5278
g5236
g1
(g6
g7
S'27665'
p5279
tp5280
Rp5281
(dp5282
g12
g5236
sbsg5260
g1
(g6
g7
S'title'
p5283
tp5284
Rp5285
(dp5286
g12
g5260
sbsg5265
g1
(g6
g7
S'Rhodopsin[title]'
p5287
tp5288
Rp5289
(dp5290
g12
g5265
sbsg5270
g1
(g6
g7
g68
tp5291
Rp5292
(dp5293
g12
g5270
sbstp5294
Rp5295
(dp5296
g12
g5277
sbag1
(g6
g7
S'AND'
p5297
tp5298
Rp5299
(dp5300
g12
VOP
p5301
sbatp5302
Rp5303
(dp5304
g12
g5254
sbsVRetStart
p5305
g1
(g6
g7
g8
tp5306
Rp5307
(dp5308
g12
g5305
sbsVTranslationSet
p5309
g1
(g18
g19
(lp5310
tp5311
Rp5312
(dp5313
g12
g5309
sbstp5314
Rp5315
(dp5316
g12
VeSearchResult
p5317
sbag1
(g2
g3
(dp5318
VCount
p5319
g1
(g6
g7
g8
tp5320
Rp5321
(dp5322
g12
g5319
sbsVRetMax
p5323
g1
(g6
g7
g8
tp5324
Rp5325
(dp5326
g12
g5323
sbsVIdList
p5327
g1
(g18
g19
(lp5328
tp5329
Rp5330
(dp5331
g12
g5327
sbsVQueryTranslation
p5332
g1
(g6
g7
S'Lutjanus peru[PORG] AND Rhodopsin[title]'
p5333
tp5334
Rp5335
(dp5336
g12
g5332
sbsVTranslationStack
p5337
g1
(g18
g19
(lp5338
g1
(g2
g3
(dp5339
g5319
g1
(g6
g7
S'34'
p5340
tp5341
Rp5342
(dp5343
g12
g5319
sbsVField
p5344
g1
(g6
g7
S'PORG'
p5345
tp5346
Rp5347
(dp5348
g12
g5344
sbsVTerm
p5349
g1
(g6
g7
S'Lutjanus peru[PORG]'
p5350
tp5351
Rp5352
(dp5353
g12
g5349
sbsVExplode
p5354
g1
(g6
g7
g47
tp5355
Rp5356
(dp5357
g12
g5354
sbstp5358
Rp5359
(dp5360
g12
VTermSet
p5361
sbag1
(g2
g3
(dp5362
g5319
g1
(g6
g7
S'27665'
p5363
tp5364
Rp5365
(dp5366
g12
g5319
sbsg5344
g1
(g6
g7
S'title'
p5367
tp5368
Rp5369
(dp5370
g12
g5344
sbsg5349
g1
(g6
g7
S'Rhodopsin[title]'
p5371
tp5372
Rp5373
(dp5374
g12
g5349
sbsg5354
g1
(g6
g7
g68
tp5375
Rp5376
(dp5377
g12
g5354
sbstp5378
Rp5379
(dp5380
g12
g5361
sbag1
(g6
g7
S'AND'
p5381
tp5382
Rp5383
(dp5384
g12
VOP
p5385
sbatp5386
Rp5387
(dp5388
g12
g5337
sbsVRetStart
p5389
g1
(g6
g7
g8
tp5390
Rp5391
(dp5392
g12
g5389
sbsVTranslationSet
p5393
g1
(g18
g19
(lp5394
tp5395
Rp5396
(dp5397
g12
g5393
sbstp5398
Rp5399
(dp5400
g12
VeSearchResult
p5401
sbag1
(g2
g3
(dp5402
VCount
p5403
g1
(g6
g7
g350
tp5404
Rp5405
(dp5406
g12
g5403
sbsVRetMax
p5407
g1
(g6
g7
g350
tp5408
Rp5409
(dp5410
g12
g5407
sbsVIdList
p5411
g1
(g18
g19
(lp5412
g1
(g6
g7
S'667699268'
p5413
tp5414
Rp5415
(dp5416
g12
VId
p5417
sbatp5418
Rp5419
(dp5420
g12
g5411
sbsVQueryTranslation
p5421
g1
(g6
g7
S'Lutjanus purpureus[PORG] AND Rhodopsin[title]'
p5422
tp5423
Rp5424
(dp5425
g12
g5421
sbsVTranslationStack
p5426
g1
(g18
g19
(lp5427
g1
(g2
g3
(dp5428
g5403
g1
(g6
g7
S'899'
p5429
tp5430
Rp5431
(dp5432
g12
g5403
sbsVField
p5433
g1
(g6
g7
S'PORG'
p5434
tp5435
Rp5436
(dp5437
g12
g5433
sbsVTerm
p5438
g1
(g6
g7
S'Lutjanus purpureus[PORG]'
p5439
tp5440
Rp5441
(dp5442
g12
g5438
sbsVExplode
p5443
g1
(g6
g7
g47
tp5444
Rp5445
(dp5446
g12
g5443
sbstp5447
Rp5448
(dp5449
g12
VTermSet
p5450
sbag1
(g2
g3
(dp5451
g5403
g1
(g6
g7
S'27665'
p5452
tp5453
Rp5454
(dp5455
g12
g5403
sbsg5433
g1
(g6
g7
S'title'
p5456
tp5457
Rp5458
(dp5459
g12
g5433
sbsg5438
g1
(g6
g7
S'Rhodopsin[title]'
p5460
tp5461
Rp5462
(dp5463
g12
g5438
sbsg5443
g1
(g6
g7
g68
tp5464
Rp5465
(dp5466
g12
g5443
sbstp5467
Rp5468
(dp5469
g12
g5450
sbag1
(g6
g7
S'AND'
p5470
tp5471
Rp5472
(dp5473
g12
VOP
p5474
sbatp5475
Rp5476
(dp5477
g12
g5426
sbsVRetStart
p5478
g1
(g6
g7
g8
tp5479
Rp5480
(dp5481
g12
g5478
sbsVTranslationSet
p5482
g1
(g18
g19
(lp5483
tp5484
Rp5485
(dp5486
g12
g5482
sbstp5487
Rp5488
(dp5489
g12
VeSearchResult
p5490
sbag1
(g2
g3
(dp5491
VCount
p5492
g1
(g6
g7
g8
tp5493
Rp5494
(dp5495
g12
g5492
sbsVRetMax
p5496
g1
(g6
g7
g8
tp5497
Rp5498
(dp5499
g12
g5496
sbsVIdList
p5500
g1
(g18
g19
(lp5501
tp5502
Rp5503
(dp5504
g12
g5500
sbsVQueryTranslation
p5505
g1
(g6
g7
S'Lutjanus quinquelineatus[PORG] AND Rhodopsin[title]'
p5506
tp5507
Rp5508
(dp5509
g12
g5505
sbsVTranslationStack
p5510
g1
(g18
g19
(lp5511
g1
(g2
g3
(dp5512
g5492
g1
(g6
g7
S'13'
p5513
tp5514
Rp5515
(dp5516
g12
g5492
sbsVField
p5517
g1
(g6
g7
S'PORG'
p5518
tp5519
Rp5520
(dp5521
g12
g5517
sbsVTerm
p5522
g1
(g6
g7
S'Lutjanus quinquelineatus[PORG]'
p5523
tp5524
Rp5525
(dp5526
g12
g5522
sbsVExplode
p5527
g1
(g6
g7
g47
tp5528
Rp5529
(dp5530
g12
g5527
sbstp5531
Rp5532
(dp5533
g12
VTermSet
p5534
sbag1
(g2
g3
(dp5535
g5492
g1
(g6
g7
S'27665'
p5536
tp5537
Rp5538
(dp5539
g12
g5492
sbsg5517
g1
(g6
g7
S'title'
p5540
tp5541
Rp5542
(dp5543
g12
g5517
sbsg5522
g1
(g6
g7
S'Rhodopsin[title]'
p5544
tp5545
Rp5546
(dp5547
g12
g5522
sbsg5527
g1
(g6
g7
g68
tp5548
Rp5549
(dp5550
g12
g5527
sbstp5551
Rp5552
(dp5553
g12
g5534
sbag1
(g6
g7
S'AND'
p5554
tp5555
Rp5556
(dp5557
g12
VOP
p5558
sbatp5559
Rp5560
(dp5561
g12
g5510
sbsVRetStart
p5562
g1
(g6
g7
g8
tp5563
Rp5564
(dp5565
g12
g5562
sbsVTranslationSet
p5566
g1
(g18
g19
(lp5567
tp5568
Rp5569
(dp5570
g12
g5566
sbstp5571
Rp5572
(dp5573
g12
VeSearchResult
p5574
sbag1
(g2
g3
(dp5575
VCount
p5576
g1
(g6
g7
g8
tp5577
Rp5578
(dp5579
g12
g5576
sbsVRetMax
p5580
g1
(g6
g7
g8
tp5581
Rp5582
(dp5583
g12
g5580
sbsVIdList
p5584
g1
(g18
g19
(lp5585
tp5586
Rp5587
(dp5588
g12
g5584
sbsVQueryTranslation
p5589
g1
(g6
g7
S'Lutjanus rivulatus[PORG] AND Rhodopsin[title]'
p5590
tp5591
Rp5592
(dp5593
g12
g5589
sbsVTranslationStack
p5594
g1
(g18
g19
(lp5595
g1
(g2
g3
(dp5596
g5576
g1
(g6
g7
S'15'
p5597
tp5598
Rp5599
(dp5600
g12
g5576
sbsVField
p5601
g1
(g6
g7
S'PORG'
p5602
tp5603
Rp5604
(dp5605
g12
g5601
sbsVTerm
p5606
g1
(g6
g7
S'Lutjanus rivulatus[PORG]'
p5607
tp5608
Rp5609
(dp5610
g12
g5606
sbsVExplode
p5611
g1
(g6
g7
g47
tp5612
Rp5613
(dp5614
g12
g5611
sbstp5615
Rp5616
(dp5617
g12
VTermSet
p5618
sbag1
(g2
g3
(dp5619
g5576
g1
(g6
g7
S'27665'
p5620
tp5621
Rp5622
(dp5623
g12
g5576
sbsg5601
g1
(g6
g7
S'title'
p5624
tp5625
Rp5626
(dp5627
g12
g5601
sbsg5606
g1
(g6
g7
S'Rhodopsin[title]'
p5628
tp5629
Rp5630
(dp5631
g12
g5606
sbsg5611
g1
(g6
g7
g68
tp5632
Rp5633
(dp5634
g12
g5611
sbstp5635
Rp5636
(dp5637
g12
g5618
sbag1
(g6
g7
S'AND'
p5638
tp5639
Rp5640
(dp5641
g12
VOP
p5642
sbatp5643
Rp5644
(dp5645
g12
g5594
sbsVRetStart
p5646
g1
(g6
g7
g8
tp5647
Rp5648
(dp5649
g12
g5646
sbsVTranslationSet
p5650
g1
(g18
g19
(lp5651
tp5652
Rp5653
(dp5654
g12
g5650
sbstp5655
Rp5656
(dp5657
g12
VeSearchResult
p5658
sbag1
(g2
g3
(dp5659
VCount
p5660
g1
(g6
g7
g8
tp5661
Rp5662
(dp5663
g12
g5660
sbsVRetMax
p5664
g1
(g6
g7
g8
tp5665
Rp5666
(dp5667
g12
g5664
sbsVIdList
p5668
g1
(g18
g19
(lp5669
tp5670
Rp5671
(dp5672
g12
g5668
sbsVQueryTranslation
p5673
g1
(g6
g7
S'Lutjanus rufolineatus[PORG] AND Rhodopsin[title]'
p5674
tp5675
Rp5676
(dp5677
g12
g5673
sbsVTranslationStack
p5678
g1
(g18
g19
(lp5679
g1
(g2
g3
(dp5680
g5660
g1
(g6
g7
g350
tp5681
Rp5682
(dp5683
g12
g5660
sbsVField
p5684
g1
(g6
g7
S'PORG'
p5685
tp5686
Rp5687
(dp5688
g12
g5684
sbsVTerm
p5689
g1
(g6
g7
S'Lutjanus rufolineatus[PORG]'
p5690
tp5691
Rp5692
(dp5693
g12
g5689
sbsVExplode
p5694
g1
(g6
g7
g47
tp5695
Rp5696
(dp5697
g12
g5694
sbstp5698
Rp5699
(dp5700
g12
VTermSet
p5701
sbag1
(g2
g3
(dp5702
g5660
g1
(g6
g7
S'27665'
p5703
tp5704
Rp5705
(dp5706
g12
g5660
sbsg5684
g1
(g6
g7
S'title'
p5707
tp5708
Rp5709
(dp5710
g12
g5684
sbsg5689
g1
(g6
g7
S'Rhodopsin[title]'
p5711
tp5712
Rp5713
(dp5714
g12
g5689
sbsg5694
g1
(g6
g7
g68
tp5715
Rp5716
(dp5717
g12
g5694
sbstp5718
Rp5719
(dp5720
g12
g5701
sbag1
(g6
g7
S'AND'
p5721
tp5722
Rp5723
(dp5724
g12
VOP
p5725
sbatp5726
Rp5727
(dp5728
g12
g5678
sbsVRetStart
p5729
g1
(g6
g7
g8
tp5730
Rp5731
(dp5732
g12
g5729
sbsVTranslationSet
p5733
g1
(g18
g19
(lp5734
tp5735
Rp5736
(dp5737
g12
g5733
sbstp5738
Rp5739
(dp5740
g12
VeSearchResult
p5741
sbag1
(g2
g3
(dp5742
VCount
p5743
g1
(g6
g7
g8
tp5744
Rp5745
(dp5746
g12
g5743
sbsVRetMax
p5747
g1
(g6
g7
g8
tp5748
Rp5749
(dp5750
g12
g5747
sbsVIdList
p5751
g1
(g18
g19
(lp5752
tp5753
Rp5754
(dp5755
g12
g5751
sbsVQueryTranslation
p5756
g1
(g6
g7
S'Lutjanus russellii[PORG] AND Rhodopsin[title]'
p5757
tp5758
Rp5759
(dp5760
g12
g5756
sbsVTranslationStack
p5761
g1
(g18
g19
(lp5762
g1
(g2
g3
(dp5763
g5743
g1
(g6
g7
S'213'
p5764
tp5765
Rp5766
(dp5767
g12
g5743
sbsVField
p5768
g1
(g6
g7
S'PORG'
p5769
tp5770
Rp5771
(dp5772
g12
g5768
sbsVTerm
p5773
g1
(g6
g7
S'Lutjanus russellii[PORG]'
p5774
tp5775
Rp5776
(dp5777
g12
g5773
sbsVExplode
p5778
g1
(g6
g7
g47
tp5779
Rp5780
(dp5781
g12
g5778
sbstp5782
Rp5783
(dp5784
g12
VTermSet
p5785
sbag1
(g2
g3
(dp5786
g5743
g1
(g6
g7
S'27665'
p5787
tp5788
Rp5789
(dp5790
g12
g5743
sbsg5768
g1
(g6
g7
S'title'
p5791
tp5792
Rp5793
(dp5794
g12
g5768
sbsg5773
g1
(g6
g7
S'Rhodopsin[title]'
p5795
tp5796
Rp5797
(dp5798
g12
g5773
sbsg5778
g1
(g6
g7
g68
tp5799
Rp5800
(dp5801
g12
g5778
sbstp5802
Rp5803
(dp5804
g12
g5785
sbag1
(g6
g7
S'AND'
p5805
tp5806
Rp5807
(dp5808
g12
VOP
p5809
sbatp5810
Rp5811
(dp5812
g12
g5761
sbsVRetStart
p5813
g1
(g6
g7
g8
tp5814
Rp5815
(dp5816
g12
g5813
sbsVTranslationSet
p5817
g1
(g18
g19
(lp5818
tp5819
Rp5820
(dp5821
g12
g5817
sbstp5822
Rp5823
(dp5824
g12
VeSearchResult
p5825
sbag1
(g2
g3
(dp5826
VCount
p5827
g1
(g6
g7
g8
tp5828
Rp5829
(dp5830
g12
g5827
sbsVRetMax
p5831
g1
(g6
g7
g8
tp5832
Rp5833
(dp5834
g12
g5831
sbsVIdList
p5835
g1
(g18
g19
(lp5836
tp5837
Rp5838
(dp5839
g12
g5835
sbsVQueryTranslation
p5840
g1
(g6
g7
S'Lutjanus sanguineus[PORG] AND Rhodopsin[title]'
p5841
tp5842
Rp5843
(dp5844
g12
g5840
sbsVTranslationStack
p5845
g1
(g18
g19
(lp5846
g1
(g2
g3
(dp5847
g5827
g1
(g6
g7
S'55'
p5848
tp5849
Rp5850
(dp5851
g12
g5827
sbsVField
p5852
g1
(g6
g7
S'PORG'
p5853
tp5854
Rp5855
(dp5856
g12
g5852
sbsVTerm
p5857
g1
(g6
g7
S'Lutjanus sanguineus[PORG]'
p5858
tp5859
Rp5860
(dp5861
g12
g5857
sbsVExplode
p5862
g1
(g6
g7
g47
tp5863
Rp5864
(dp5865
g12
g5862
sbstp5866
Rp5867
(dp5868
g12
VTermSet
p5869
sbag1
(g2
g3
(dp5870
g5827
g1
(g6
g7
S'27665'
p5871
tp5872
Rp5873
(dp5874
g12
g5827
sbsg5852
g1
(g6
g7
S'title'
p5875
tp5876
Rp5877
(dp5878
g12
g5852
sbsg5857
g1
(g6
g7
S'Rhodopsin[title]'
p5879
tp5880
Rp5881
(dp5882
g12
g5857
sbsg5862
g1
(g6
g7
g68
tp5883
Rp5884
(dp5885
g12
g5862
sbstp5886
Rp5887
(dp5888
g12
g5869
sbag1
(g6
g7
S'AND'
p5889
tp5890
Rp5891
(dp5892
g12
VOP
p5893
sbatp5894
Rp5895
(dp5896
g12
g5845
sbsVRetStart
p5897
g1
(g6
g7
g8
tp5898
Rp5899
(dp5900
g12
g5897
sbsVTranslationSet
p5901
g1
(g18
g19
(lp5902
tp5903
Rp5904
(dp5905
g12
g5901
sbstp5906
Rp5907
(dp5908
g12
VeSearchResult
p5909
sbag1
(g2
g3
(dp5910
VCount
p5911
g1
(g6
g7
g350
tp5912
Rp5913
(dp5914
g12
g5911
sbsVRetMax
p5915
g1
(g6
g7
g350
tp5916
Rp5917
(dp5918
g12
g5915
sbsVIdList
p5919
g1
(g18
g19
(lp5920
g1
(g6
g7
S'204308375'
p5921
tp5922
Rp5923
(dp5924
g12
VId
p5925
sbatp5926
Rp5927
(dp5928
g12
g5919
sbsVQueryTranslation
p5929
g1
(g6
g7
S'Lutjanus sebae[PORG] AND Rhodopsin[title]'
p5930
tp5931
Rp5932
(dp5933
g12
g5929
sbsVTranslationStack
p5934
g1
(g18
g19
(lp5935
g1
(g2
g3
(dp5936
g5911
g1
(g6
g7
S'134'
p5937
tp5938
Rp5939
(dp5940
g12
g5911
sbsVField
p5941
g1
(g6
g7
S'PORG'
p5942
tp5943
Rp5944
(dp5945
g12
g5941
sbsVTerm
p5946
g1
(g6
g7
S'Lutjanus sebae[PORG]'
p5947
tp5948
Rp5949
(dp5950
g12
g5946
sbsVExplode
p5951
g1
(g6
g7
g47
tp5952
Rp5953
(dp5954
g12
g5951
sbstp5955
Rp5956
(dp5957
g12
VTermSet
p5958
sbag1
(g2
g3
(dp5959
g5911
g1
(g6
g7
S'27665'
p5960
tp5961
Rp5962
(dp5963
g12
g5911
sbsg5941
g1
(g6
g7
S'title'
p5964
tp5965
Rp5966
(dp5967
g12
g5941
sbsg5946
g1
(g6
g7
S'Rhodopsin[title]'
p5968
tp5969
Rp5970
(dp5971
g12
g5946
sbsg5951
g1
(g6
g7
g68
tp5972
Rp5973
(dp5974
g12
g5951
sbstp5975
Rp5976
(dp5977
g12
g5958
sbag1
(g6
g7
S'AND'
p5978
tp5979
Rp5980
(dp5981
g12
VOP
p5982
sbatp5983
Rp5984
(dp5985
g12
g5934
sbsVRetStart
p5986
g1
(g6
g7
g8
tp5987
Rp5988
(dp5989
g12
g5986
sbsVTranslationSet
p5990
g1
(g18
g19
(lp5991
tp5992
Rp5993
(dp5994
g12
g5990
sbstp5995
Rp5996
(dp5997
g12
VeSearchResult
p5998
sbag1
(g2
g3
(dp5999
VCount
p6000
g1
(g6
g7
g8
tp6001
Rp6002
(dp6003
g12
g6000
sbsVRetMax
p6004
g1
(g6
g7
g8
tp6005
Rp6006
(dp6007
g12
g6004
sbsVIdList
p6008
g1
(g18
g19
(lp6009
tp6010
Rp6011
(dp6012
g12
g6008
sbsVRetStart
p6013
g1
(g6
g7
g8
tp6014
Rp6015
(dp6016
g12
g6013
sbsVErrorList
p6017
g1
(g1044
g3
(dp6018
VFieldNotFound
p6019
(lp6020
sVPhraseNotFound
p6021
(lp6022
g1
(g6
g7
S'Lutjanus semicinctus[PORG]'
p6023
tp6024
Rp6025
(dp6026
g12
VPhraseNotFound
p6027
sbastp6028
Rp6029
(dp6030
g12
g6017
sg1058
(lp6031
g6021
ag6019
asbsVTranslationSet
p6032
g1
(g18
g19
(lp6033
tp6034
Rp6035
(dp6036
g12
g6032
sbsVWarningList
p6037
g1
(g1044
g3
(dp6038
VOutputMessage
p6039
(lp6040
g1
(g6
g7
S'No items found.'
p6041
tp6042
Rp6043
(dp6044
g12
VOutputMessage
p6045
sbasVPhraseIgnored
p6046
(lp6047
sVQuotedPhraseNotFound
p6048
(lp6049
stp6050
Rp6051
(dp6052
g12
g6037
sg1058
(lp6053
g6046
ag6048
ag6039
asbsVQueryTranslation
p6054
g1
(g6
g7
S'Lutjanus semicinctus[PORG] AND Rhodopsin[title]'
p6055
tp6056
Rp6057
(dp6058
g12
g6054
sbstp6059
Rp6060
(dp6061
g12
VeSearchResult
p6062
sbag1
(g2
g3
(dp6063
VCount
p6064
g1
(g6
g7
g8
tp6065
Rp6066
(dp6067
g12
g6064
sbsVRetMax
p6068
g1
(g6
g7
g8
tp6069
Rp6070
(dp6071
g12
g6068
sbsVIdList
p6072
g1
(g18
g19
(lp6073
tp6074
Rp6075
(dp6076
g12
g6072
sbsVQueryTranslation
p6077
g1
(g6
g7
S'Lutjanus stellatus[PORG] AND Rhodopsin[title]'
p6078
tp6079
Rp6080
(dp6081
g12
g6077
sbsVTranslationStack
p6082
g1
(g18
g19
(lp6083
g1
(g2
g3
(dp6084
g6064
g1
(g6
g7
S'58'
p6085
tp6086
Rp6087
(dp6088
g12
g6064
sbsVField
p6089
g1
(g6
g7
S'PORG'
p6090
tp6091
Rp6092
(dp6093
g12
g6089
sbsVTerm
p6094
g1
(g6
g7
S'Lutjanus stellatus[PORG]'
p6095
tp6096
Rp6097
(dp6098
g12
g6094
sbsVExplode
p6099
g1
(g6
g7
g47
tp6100
Rp6101
(dp6102
g12
g6099
sbstp6103
Rp6104
(dp6105
g12
VTermSet
p6106
sbag1
(g2
g3
(dp6107
g6064
g1
(g6
g7
S'27665'
p6108
tp6109
Rp6110
(dp6111
g12
g6064
sbsg6089
g1
(g6
g7
S'title'
p6112
tp6113
Rp6114
(dp6115
g12
g6089
sbsg6094
g1
(g6
g7
S'Rhodopsin[title]'
p6116
tp6117
Rp6118
(dp6119
g12
g6094
sbsg6099
g1
(g6
g7
g68
tp6120
Rp6121
(dp6122
g12
g6099
sbstp6123
Rp6124
(dp6125
g12
g6106
sbag1
(g6
g7
S'AND'
p6126
tp6127
Rp6128
(dp6129
g12
VOP
p6130
sbatp6131
Rp6132
(dp6133
g12
g6082
sbsVRetStart
p6134
g1
(g6
g7
g8
tp6135
Rp6136
(dp6137
g12
g6134
sbsVTranslationSet
p6138
g1
(g18
g19
(lp6139
tp6140
Rp6141
(dp6142
g12
g6138
sbstp6143
Rp6144
(dp6145
g12
VeSearchResult
p6146
sbag1
(g2
g3
(dp6147
VCount
p6148
g1
(g6
g7
g8
tp6149
Rp6150
(dp6151
g12
g6148
sbsVRetMax
p6152
g1
(g6
g7
g8
tp6153
Rp6154
(dp6155
g12
g6152
sbsVIdList
p6156
g1
(g18
g19
(lp6157
tp6158
Rp6159
(dp6160
g12
g6156
sbsVQueryTranslation
p6161
g1
(g6
g7
S'Lutjanus synagris[PORG] AND Rhodopsin[title]'
p6162
tp6163
Rp6164
(dp6165
g12
g6161
sbsVTranslationStack
p6166
g1
(g18
g19
(lp6167
g1
(g2
g3
(dp6168
g6148
g1
(g6
g7
S'148'
p6169
tp6170
Rp6171
(dp6172
g12
g6148
sbsVField
p6173
g1
(g6
g7
S'PORG'
p6174
tp6175
Rp6176
(dp6177
g12
g6173
sbsVTerm
p6178
g1
(g6
g7
S'Lutjanus synagris[PORG]'
p6179
tp6180
Rp6181
(dp6182
g12
g6178
sbsVExplode
p6183
g1
(g6
g7
g47
tp6184
Rp6185
(dp6186
g12
g6183
sbstp6187
Rp6188
(dp6189
g12
VTermSet
p6190
sbag1
(g2
g3
(dp6191
g6148
g1
(g6
g7
S'27665'
p6192
tp6193
Rp6194
(dp6195
g12
g6148
sbsg6173
g1
(g6
g7
S'title'
p6196
tp6197
Rp6198
(dp6199
g12
g6173
sbsg6178
g1
(g6
g7
S'Rhodopsin[title]'
p6200
tp6201
Rp6202
(dp6203
g12
g6178
sbsg6183
g1
(g6
g7
g68
tp6204
Rp6205
(dp6206
g12
g6183
sbstp6207
Rp6208
(dp6209
g12
g6190
sbag1
(g6
g7
S'AND'
p6210
tp6211
Rp6212
(dp6213
g12
VOP
p6214
sbatp6215
Rp6216
(dp6217
g12
g6166
sbsVRetStart
p6218
g1
(g6
g7
g8
tp6219
Rp6220
(dp6221
g12
g6218
sbsVTranslationSet
p6222
g1
(g18
g19
(lp6223
tp6224
Rp6225
(dp6226
g12
g6222
sbstp6227
Rp6228
(dp6229
g12
VeSearchResult
p6230
sbag1
(g2
g3
(dp6231
VCount
p6232
g1
(g6
g7
g8
tp6233
Rp6234
(dp6235
g12
g6232
sbsVRetMax
p6236
g1
(g6
g7
g8
tp6237
Rp6238
(dp6239
g12
g6236
sbsVIdList
p6240
g1
(g18
g19
(lp6241
tp6242
Rp6243
(dp6244
g12
g6240
sbsVQueryTranslation
p6245
g1
(g6
g7
S'Lutjanus timoriensis[PORG] AND Rhodopsin[title]'
p6246
tp6247
Rp6248
(dp6249
g12
g6245
sbsVTranslationStack
p6250
g1
(g18
g19
(lp6251
g1
(g2
g3
(dp6252
g6232
g1
(g6
g7
g376
tp6253
Rp6254
(dp6255
g12
g6232
sbsVField
p6256
g1
(g6
g7
S'PORG'
p6257
tp6258
Rp6259
(dp6260
g12
g6256
sbsVTerm
p6261
g1
(g6
g7
S'Lutjanus timoriensis[PORG]'
p6262
tp6263
Rp6264
(dp6265
g12
g6261
sbsVExplode
p6266
g1
(g6
g7
g47
tp6267
Rp6268
(dp6269
g12
g6266
sbstp6270
Rp6271
(dp6272
g12
VTermSet
p6273
sbag1
(g2
g3
(dp6274
g6232
g1
(g6
g7
S'27665'
p6275
tp6276
Rp6277
(dp6278
g12
g6232
sbsg6256
g1
(g6
g7
S'title'
p6279
tp6280
Rp6281
(dp6282
g12
g6256
sbsg6261
g1
(g6
g7
S'Rhodopsin[title]'
p6283
tp6284
Rp6285
(dp6286
g12
g6261
sbsg6266
g1
(g6
g7
g68
tp6287
Rp6288
(dp6289
g12
g6266
sbstp6290
Rp6291
(dp6292
g12
g6273
sbag1
(g6
g7
S'AND'
p6293
tp6294
Rp6295
(dp6296
g12
VOP
p6297
sbatp6298
Rp6299
(dp6300
g12
g6250
sbsVRetStart
p6301
g1
(g6
g7
g8
tp6302
Rp6303
(dp6304
g12
g6301
sbsVTranslationSet
p6305
g1
(g18
g19
(lp6306
tp6307
Rp6308
(dp6309
g12
g6305
sbstp6310
Rp6311
(dp6312
g12
VeSearchResult
p6313
sbag1
(g2
g3
(dp6314
VCount
p6315
g1
(g6
g7
g8
tp6316
Rp6317
(dp6318
g12
g6315
sbsVRetMax
p6319
g1
(g6
g7
g8
tp6320
Rp6321
(dp6322
g12
g6319
sbsVIdList
p6323
g1
(g18
g19
(lp6324
tp6325
Rp6326
(dp6327
g12
g6323
sbsVQueryTranslation
p6328
g1
(g6
g7
S'Lutjanus viridis[PORG] AND Rhodopsin[title]'
p6329
tp6330
Rp6331
(dp6332
g12
g6328
sbsVTranslationStack
p6333
g1
(g18
g19
(lp6334
g1
(g2
g3
(dp6335
g6315
g1
(g6
g7
g796
tp6336
Rp6337
(dp6338
g12
g6315
sbsVField
p6339
g1
(g6
g7
S'PORG'
p6340
tp6341
Rp6342
(dp6343
g12
g6339
sbsVTerm
p6344
g1
(g6
g7
S'Lutjanus viridis[PORG]'
p6345
tp6346
Rp6347
(dp6348
g12
g6344
sbsVExplode
p6349
g1
(g6
g7
g47
tp6350
Rp6351
(dp6352
g12
g6349
sbstp6353
Rp6354
(dp6355
g12
VTermSet
p6356
sbag1
(g2
g3
(dp6357
g6315
g1
(g6
g7
S'27665'
p6358
tp6359
Rp6360
(dp6361
g12
g6315
sbsg6339
g1
(g6
g7
S'title'
p6362
tp6363
Rp6364
(dp6365
g12
g6339
sbsg6344
g1
(g6
g7
S'Rhodopsin[title]'
p6366
tp6367
Rp6368
(dp6369
g12
g6344
sbsg6349
g1
(g6
g7
g68
tp6370
Rp6371
(dp6372
g12
g6349
sbstp6373
Rp6374
(dp6375
g12
g6356
sbag1
(g6
g7
S'AND'
p6376
tp6377
Rp6378
(dp6379
g12
VOP
p6380
sbatp6381
Rp6382
(dp6383
g12
g6333
sbsVRetStart
p6384
g1
(g6
g7
g8
tp6385
Rp6386
(dp6387
g12
g6384
sbsVTranslationSet
p6388
g1
(g18
g19
(lp6389
tp6390
Rp6391
(dp6392
g12
g6388
sbstp6393
Rp6394
(dp6395
g12
VeSearchResult
p6396
sbag1
(g2
g3
(dp6397
VCount
p6398
g1
(g6
g7
g8
tp6399
Rp6400
(dp6401
g12
g6398
sbsVRetMax
p6402
g1
(g6
g7
g8
tp6403
Rp6404
(dp6405
g12
g6402
sbsVIdList
p6406
g1
(g18
g19
(lp6407
tp6408
Rp6409
(dp6410
g12
g6406
sbsVQueryTranslation
p6411
g1
(g6
g7
S'Lutjanus vitta[PORG] AND Rhodopsin[title]'
p6412
tp6413
Rp6414
(dp6415
g12
g6411
sbsVTranslationStack
p6416
g1
(g18
g19
(lp6417
g1
(g2
g3
(dp6418
g6398
g1
(g6
g7
S'49'
p6419
tp6420
Rp6421
(dp6422
g12
g6398
sbsVField
p6423
g1
(g6
g7
S'PORG'
p6424
tp6425
Rp6426
(dp6427
g12
g6423
sbsVTerm
p6428
g1
(g6
g7
S'Lutjanus vitta[PORG]'
p6429
tp6430
Rp6431
(dp6432
g12
g6428
sbsVExplode
p6433
g1
(g6
g7
g47
tp6434
Rp6435
(dp6436
g12
g6433
sbstp6437
Rp6438
(dp6439
g12
VTermSet
p6440
sbag1
(g2
g3
(dp6441
g6398
g1
(g6
g7
S'27665'
p6442
tp6443
Rp6444
(dp6445
g12
g6398
sbsg6423
g1
(g6
g7
S'title'
p6446
tp6447
Rp6448
(dp6449
g12
g6423
sbsg6428
g1
(g6
g7
S'Rhodopsin[title]'
p6450
tp6451
Rp6452
(dp6453
g12
g6428
sbsg6433
g1
(g6
g7
g68
tp6454
Rp6455
(dp6456
g12
g6433
sbstp6457
Rp6458
(dp6459
g12
g6440
sbag1
(g6
g7
S'AND'
p6460
tp6461
Rp6462
(dp6463
g12
VOP
p6464
sbatp6465
Rp6466
(dp6467
g12
g6416
sbsVRetStart
p6468
g1
(g6
g7
g8
tp6469
Rp6470
(dp6471
g12
g6468
sbsVTranslationSet
p6472
g1
(g18
g19
(lp6473
tp6474
Rp6475
(dp6476
g12
g6472
sbstp6477
Rp6478
(dp6479
g12
VeSearchResult
p6480
sbag1
(g2
g3
(dp6481
VCount
p6482
g1
(g6
g7
g8
tp6483
Rp6484
(dp6485
g12
g6482
sbsVRetMax
p6486
g1
(g6
g7
g8
tp6487
Rp6488
(dp6489
g12
g6486
sbsVIdList
p6490
g1
(g18
g19
(lp6491
tp6492
Rp6493
(dp6494
g12
g6490
sbsVQueryTranslation
p6495
g1
(g6
g7
S'Lutjanus vivanus[PORG] AND Rhodopsin[title]'
p6496
tp6497
Rp6498
(dp6499
g12
g6495
sbsVTranslationStack
p6500
g1
(g18
g19
(lp6501
g1
(g2
g3
(dp6502
g6482
g1
(g6
g7
S'28'
p6503
tp6504
Rp6505
(dp6506
g12
g6482
sbsVField
p6507
g1
(g6
g7
S'PORG'
p6508
tp6509
Rp6510
(dp6511
g12
g6507
sbsVTerm
p6512
g1
(g6
g7
S'Lutjanus vivanus[PORG]'
p6513
tp6514
Rp6515
(dp6516
g12
g6512
sbsVExplode
p6517
g1
(g6
g7
g47
tp6518
Rp6519
(dp6520
g12
g6517
sbstp6521
Rp6522
(dp6523
g12
VTermSet
p6524
sbag1
(g2
g3
(dp6525
g6482
g1
(g6
g7
S'27665'
p6526
tp6527
Rp6528
(dp6529
g12
g6482
sbsg6507
g1
(g6
g7
S'title'
p6530
tp6531
Rp6532
(dp6533
g12
g6507
sbsg6512
g1
(g6
g7
S'Rhodopsin[title]'
p6534
tp6535
Rp6536
(dp6537
g12
g6512
sbsg6517
g1
(g6
g7
g68
tp6538
Rp6539
(dp6540
g12
g6517
sbstp6541
Rp6542
(dp6543
g12
g6524
sbag1
(g6
g7
S'AND'
p6544
tp6545
Rp6546
(dp6547
g12
VOP
p6548
sbatp6549
Rp6550
(dp6551
g12
g6500
sbsVRetStart
p6552
g1
(g6
g7
g8
tp6553
Rp6554
(dp6555
g12
g6552
sbsVTranslationSet
p6556
g1
(g18
g19
(lp6557
tp6558
Rp6559
(dp6560
g12
g6556
sbstp6561
Rp6562
(dp6563
g12
VeSearchResult
p6564
sbag1
(g2
g3
(dp6565
VCount
p6566
g1
(g6
g7
g8
tp6567
Rp6568
(dp6569
g12
g6566
sbsVRetMax
p6570
g1
(g6
g7
g8
tp6571
Rp6572
(dp6573
g12
g6570
sbsVIdList
p6574
g1
(g18
g19
(lp6575
tp6576
Rp6577
(dp6578
g12
g6574
sbsVQueryTranslation
p6579
g1
(g6
g7
S'Macolor macularis[PORG] AND Rhodopsin[title]'
p6580
tp6581
Rp6582
(dp6583
g12
g6579
sbsVTranslationStack
p6584
g1
(g18
g19
(lp6585
g1
(g2
g3
(dp6586
g6566
g1
(g6
g7
g2400
tp6587
Rp6588
(dp6589
g12
g6566
sbsVField
p6590
g1
(g6
g7
S'PORG'
p6591
tp6592
Rp6593
(dp6594
g12
g6590
sbsVTerm
p6595
g1
(g6
g7
S'Macolor macularis[PORG]'
p6596
tp6597
Rp6598
(dp6599
g12
g6595
sbsVExplode
p6600
g1
(g6
g7
g47
tp6601
Rp6602
(dp6603
g12
g6600
sbstp6604
Rp6605
(dp6606
g12
VTermSet
p6607
sbag1
(g2
g3
(dp6608
g6566
g1
(g6
g7
S'27665'
p6609
tp6610
Rp6611
(dp6612
g12
g6566
sbsg6590
g1
(g6
g7
S'title'
p6613
tp6614
Rp6615
(dp6616
g12
g6590
sbsg6595
g1
(g6
g7
S'Rhodopsin[title]'
p6617
tp6618
Rp6619
(dp6620
g12
g6595
sbsg6600
g1
(g6
g7
g68
tp6621
Rp6622
(dp6623
g12
g6600
sbstp6624
Rp6625
(dp6626
g12
g6607
sbag1
(g6
g7
S'AND'
p6627
tp6628
Rp6629
(dp6630
g12
VOP
p6631
sbatp6632
Rp6633
(dp6634
g12
g6584
sbsVRetStart
p6635
g1
(g6
g7
g8
tp6636
Rp6637
(dp6638
g12
g6635
sbsVTranslationSet
p6639
g1
(g18
g19
(lp6640
tp6641
Rp6642
(dp6643
g12
g6639
sbstp6644
Rp6645
(dp6646
g12
VeSearchResult
p6647
sbag1
(g2
g3
(dp6648
VCount
p6649
g1
(g6
g7
g8
tp6650
Rp6651
(dp6652
g12
g6649
sbsVRetMax
p6653
g1
(g6
g7
g8
tp6654
Rp6655
(dp6656
g12
g6653
sbsVIdList
p6657
g1
(g18
g19
(lp6658
tp6659
Rp6660
(dp6661
g12
g6657
sbsVQueryTranslation
p6662
g1
(g6
g7
S'Macolor niger[PORG] AND Rhodopsin[title]'
p6663
tp6664
Rp6665
(dp6666
g12
g6662
sbsVTranslationStack
p6667
g1
(g18
g19
(lp6668
g1
(g2
g3
(dp6669
g6649
g1
(g6
g7
S'19'
p6670
tp6671
Rp6672
(dp6673
g12
g6649
sbsVField
p6674
g1
(g6
g7
S'PORG'
p6675
tp6676
Rp6677
(dp6678
g12
g6674
sbsVTerm
p6679
g1
(g6
g7
S'Macolor niger[PORG]'
p6680
tp6681
Rp6682
(dp6683
g12
g6679
sbsVExplode
p6684
g1
(g6
g7
g47
tp6685
Rp6686
(dp6687
g12
g6684
sbstp6688
Rp6689
(dp6690
g12
VTermSet
p6691
sbag1
(g2
g3
(dp6692
g6649
g1
(g6
g7
S'27665'
p6693
tp6694
Rp6695
(dp6696
g12
g6649
sbsg6674
g1
(g6
g7
S'title'
p6697
tp6698
Rp6699
(dp6700
g12
g6674
sbsg6679
g1
(g6
g7
S'Rhodopsin[title]'
p6701
tp6702
Rp6703
(dp6704
g12
g6679
sbsg6684
g1
(g6
g7
g68
tp6705
Rp6706
(dp6707
g12
g6684
sbstp6708
Rp6709
(dp6710
g12
g6691
sbag1
(g6
g7
S'AND'
p6711
tp6712
Rp6713
(dp6714
g12
VOP
p6715
sbatp6716
Rp6717
(dp6718
g12
g6667
sbsVRetStart
p6719
g1
(g6
g7
g8
tp6720
Rp6721
(dp6722
g12
g6719
sbsVTranslationSet
p6723
g1
(g18
g19
(lp6724
tp6725
Rp6726
(dp6727
g12
g6723
sbstp6728
Rp6729
(dp6730
g12
VeSearchResult
p6731
sbag1
(g2
g3
(dp6732
VCount
p6733
g1
(g6
g7
g350
tp6734
Rp6735
(dp6736
g12
g6733
sbsVRetMax
p6737
g1
(g6
g7
g350
tp6738
Rp6739
(dp6740
g12
g6737
sbsVIdList
p6741
g1
(g18
g19
(lp6742
g1
(g6
g7
S'667699270'
p6743
tp6744
Rp6745
(dp6746
g12
VId
p6747
sbatp6748
Rp6749
(dp6750
g12
g6741
sbsVQueryTranslation
p6751
g1
(g6
g7
S'Ocyurus chrysurus[PORG] AND Rhodopsin[title]'
p6752
tp6753
Rp6754
(dp6755
g12
g6751
sbsVTranslationStack
p6756
g1
(g18
g19
(lp6757
g1
(g2
g3
(dp6758
g6733
g1
(g6
g7
S'320'
p6759
tp6760
Rp6761
(dp6762
g12
g6733
sbsVField
p6763
g1
(g6
g7
S'PORG'
p6764
tp6765
Rp6766
(dp6767
g12
g6763
sbsVTerm
p6768
g1
(g6
g7
S'Ocyurus chrysurus[PORG]'
p6769
tp6770
Rp6771
(dp6772
g12
g6768
sbsVExplode
p6773
g1
(g6
g7
g47
tp6774
Rp6775
(dp6776
g12
g6773
sbstp6777
Rp6778
(dp6779
g12
VTermSet
p6780
sbag1
(g2
g3
(dp6781
g6733
g1
(g6
g7
S'27665'
p6782
tp6783
Rp6784
(dp6785
g12
g6733
sbsg6763
g1
(g6
g7
S'title'
p6786
tp6787
Rp6788
(dp6789
g12
g6763
sbsg6768
g1
(g6
g7
S'Rhodopsin[title]'
p6790
tp6791
Rp6792
(dp6793
g12
g6768
sbsg6773
g1
(g6
g7
g68
tp6794
Rp6795
(dp6796
g12
g6773
sbstp6797
Rp6798
(dp6799
g12
g6780
sbag1
(g6
g7
S'AND'
p6800
tp6801
Rp6802
(dp6803
g12
VOP
p6804
sbatp6805
Rp6806
(dp6807
g12
g6756
sbsVRetStart
p6808
g1
(g6
g7
g8
tp6809
Rp6810
(dp6811
g12
g6808
sbsVTranslationSet
p6812
g1
(g18
g19
(lp6813
tp6814
Rp6815
(dp6816
g12
g6812
sbstp6817
Rp6818
(dp6819
g12
VeSearchResult
p6820
sbag1
(g2
g3
(dp6821
VCount
p6822
g1
(g6
g7
g8
tp6823
Rp6824
(dp6825
g12
g6822
sbsVRetMax
p6826
g1
(g6
g7
g8
tp6827
Rp6828
(dp6829
g12
g6826
sbsVIdList
p6830
g1
(g18
g19
(lp6831
tp6832
Rp6833
(dp6834
g12
g6830
sbsVQueryTranslation
p6835
g1
(g6
g7
S'Paracaesio caerulea[PORG] AND Rhodopsin[title]'
p6836
tp6837
Rp6838
(dp6839
g12
g6835
sbsVTranslationStack
p6840
g1
(g18
g19
(lp6841
g1
(g2
g3
(dp6842
g6822
g1
(g6
g7
g350
tp6843
Rp6844
(dp6845
g12
g6822
sbsVField
p6846
g1
(g6
g7
S'PORG'
p6847
tp6848
Rp6849
(dp6850
g12
g6846
sbsVTerm
p6851
g1
(g6
g7
S'Paracaesio caerulea[PORG]'
p6852
tp6853
Rp6854
(dp6855
g12
g6851
sbsVExplode
p6856
g1
(g6
g7
g47
tp6857
Rp6858
(dp6859
g12
g6856
sbstp6860
Rp6861
(dp6862
g12
VTermSet
p6863
sbag1
(g2
g3
(dp6864
g6822
g1
(g6
g7
S'27665'
p6865
tp6866
Rp6867
(dp6868
g12
g6822
sbsg6846
g1
(g6
g7
S'title'
p6869
tp6870
Rp6871
(dp6872
g12
g6846
sbsg6851
g1
(g6
g7
S'Rhodopsin[title]'
p6873
tp6874
Rp6875
(dp6876
g12
g6851
sbsg6856
g1
(g6
g7
g68
tp6877
Rp6878
(dp6879
g12
g6856
sbstp6880
Rp6881
(dp6882
g12
g6863
sbag1
(g6
g7
S'AND'
p6883
tp6884
Rp6885
(dp6886
g12
VOP
p6887
sbatp6888
Rp6889
(dp6890
g12
g6840
sbsVRetStart
p6891
g1
(g6
g7
g8
tp6892
Rp6893
(dp6894
g12
g6891
sbsVTranslationSet
p6895
g1
(g18
g19
(lp6896
tp6897
Rp6898
(dp6899
g12
g6895
sbstp6900
Rp6901
(dp6902
g12
VeSearchResult
p6903
sbag1
(g2
g3
(dp6904
VCount
p6905
g1
(g6
g7
g8
tp6906
Rp6907
(dp6908
g12
g6905
sbsVRetMax
p6909
g1
(g6
g7
g8
tp6910
Rp6911
(dp6912
g12
g6909
sbsVIdList
p6913
g1
(g18
g19
(lp6914
tp6915
Rp6916
(dp6917
g12
g6913
sbsVRetStart
p6918
g1
(g6
g7
g8
tp6919
Rp6920
(dp6921
g12
g6918
sbsVErrorList
p6922
g1
(g1044
g3
(dp6923
VFieldNotFound
p6924
(lp6925
sVPhraseNotFound
p6926
(lp6927
g1
(g6
g7
S'Paracaesio gonzalesi[PORG]'
p6928
tp6929
Rp6930
(dp6931
g12
VPhraseNotFound
p6932
sbastp6933
Rp6934
(dp6935
g12
g6922
sg1058
(lp6936
g6926
ag6924
asbsVTranslationSet
p6937
g1
(g18
g19
(lp6938
tp6939
Rp6940
(dp6941
g12
g6937
sbsVWarningList
p6942
g1
(g1044
g3
(dp6943
VOutputMessage
p6944
(lp6945
g1
(g6
g7
S'No items found.'
p6946
tp6947
Rp6948
(dp6949
g12
VOutputMessage
p6950
sbasVPhraseIgnored
p6951
(lp6952
sVQuotedPhraseNotFound
p6953
(lp6954
stp6955
Rp6956
(dp6957
g12
g6942
sg1058
(lp6958
g6951
ag6953
ag6944
asbsVQueryTranslation
p6959
g1
(g6
g7
S'Paracaesio gonzalesi[PORG] AND Rhodopsin[title]'
p6960
tp6961
Rp6962
(dp6963
g12
g6959
sbstp6964
Rp6965
(dp6966
g12
VeSearchResult
p6967
sbag1
(g2
g3
(dp6968
VCount
p6969
g1
(g6
g7
g8
tp6970
Rp6971
(dp6972
g12
g6969
sbsVRetMax
p6973
g1
(g6
g7
g8
tp6974
Rp6975
(dp6976
g12
g6973
sbsVIdList
p6977
g1
(g18
g19
(lp6978
tp6979
Rp6980
(dp6981
g12
g6977
sbsVQueryTranslation
p6982
g1
(g6
g7
S'Paracaesio kusakarii[PORG] AND Rhodopsin[title]'
p6983
tp6984
Rp6985
(dp6986
g12
g6982
sbsVTranslationStack
p6987
g1
(g18
g19
(lp6988
g1
(g2
g3
(dp6989
g6969
g1
(g6
g7
g350
tp6990
Rp6991
(dp6992
g12
g6969
sbsVField
p6993
g1
(g6
g7
S'PORG'
p6994
tp6995
Rp6996
(dp6997
g12
g6993
sbsVTerm
p6998
g1
(g6
g7
S'Paracaesio kusakarii[PORG]'
p6999
tp7000
Rp7001
(dp7002
g12
g6998
sbsVExplode
p7003
g1
(g6
g7
g47
tp7004
Rp7005
(dp7006
g12
g7003
sbstp7007
Rp7008
(dp7009
g12
VTermSet
p7010
sbag1
(g2
g3
(dp7011
g6969
g1
(g6
g7
S'27665'
p7012
tp7013
Rp7014
(dp7015
g12
g6969
sbsg6993
g1
(g6
g7
S'title'
p7016
tp7017
Rp7018
(dp7019
g12
g6993
sbsg6998
g1
(g6
g7
S'Rhodopsin[title]'
p7020
tp7021
Rp7022
(dp7023
g12
g6998
sbsg7003
g1
(g6
g7
g68
tp7024
Rp7025
(dp7026
g12
g7003
sbstp7027
Rp7028
(dp7029
g12
g7010
sbag1
(g6
g7
S'AND'
p7030
tp7031
Rp7032
(dp7033
g12
VOP
p7034
sbatp7035
Rp7036
(dp7037
g12
g6987
sbsVRetStart
p7038
g1
(g6
g7
g8
tp7039
Rp7040
(dp7041
g12
g7038
sbsVTranslationSet
p7042
g1
(g18
g19
(lp7043
tp7044
Rp7045
(dp7046
g12
g7042
sbstp7047
Rp7048
(dp7049
g12
VeSearchResult
p7050
sbag1
(g2
g3
(dp7051
VCount
p7052
g1
(g6
g7
g8
tp7053
Rp7054
(dp7055
g12
g7052
sbsVRetMax
p7056
g1
(g6
g7
g8
tp7057
Rp7058
(dp7059
g12
g7056
sbsVIdList
p7060
g1
(g18
g19
(lp7061
tp7062
Rp7063
(dp7064
g12
g7060
sbsVRetStart
p7065
g1
(g6
g7
g8
tp7066
Rp7067
(dp7068
g12
g7065
sbsVErrorList
p7069
g1
(g1044
g3
(dp7070
VFieldNotFound
p7071
(lp7072
sVPhraseNotFound
p7073
(lp7074
g1
(g6
g7
S'Paracaesio paragrapsimodon[PORG]'
p7075
tp7076
Rp7077
(dp7078
g12
VPhraseNotFound
p7079
sbastp7080
Rp7081
(dp7082
g12
g7069
sg1058
(lp7083
g7073
ag7071
asbsVTranslationSet
p7084
g1
(g18
g19
(lp7085
tp7086
Rp7087
(dp7088
g12
g7084
sbsVWarningList
p7089
g1
(g1044
g3
(dp7090
VOutputMessage
p7091
(lp7092
g1
(g6
g7
S'No items found.'
p7093
tp7094
Rp7095
(dp7096
g12
VOutputMessage
p7097
sbasVPhraseIgnored
p7098
(lp7099
sVQuotedPhraseNotFound
p7100
(lp7101
stp7102
Rp7103
(dp7104
g12
g7089
sg1058
(lp7105
g7098
ag7100
ag7091
asbsVQueryTranslation
p7106
g1
(g6
g7
S'Paracaesio paragrapsimodon[PORG] AND Rhodopsin[title]'
p7107
tp7108
Rp7109
(dp7110
g12
g7106
sbstp7111
Rp7112
(dp7113
g12
VeSearchResult
p7114
sbag1
(g2
g3
(dp7115
VCount
p7116
g1
(g6
g7
g8
tp7117
Rp7118
(dp7119
g12
g7116
sbsVRetMax
p7120
g1
(g6
g7
g8
tp7121
Rp7122
(dp7123
g12
g7120
sbsVIdList
p7124
g1
(g18
g19
(lp7125
tp7126
Rp7127
(dp7128
g12
g7124
sbsVQueryTranslation
p7129
g1
(g6
g7
S'Paracaesio sordida[PORG] AND Rhodopsin[title]'
p7130
tp7131
Rp7132
(dp7133
g12
g7129
sbsVTranslationStack
p7134
g1
(g18
g19
(lp7135
g1
(g2
g3
(dp7136
g7116
g1
(g6
g7
S'10'
p7137
tp7138
Rp7139
(dp7140
g12
g7116
sbsVField
p7141
g1
(g6
g7
S'PORG'
p7142
tp7143
Rp7144
(dp7145
g12
g7141
sbsVTerm
p7146
g1
(g6
g7
S'Paracaesio sordida[PORG]'
p7147
tp7148
Rp7149
(dp7150
g12
g7146
sbsVExplode
p7151
g1
(g6
g7
g47
tp7152
Rp7153
(dp7154
g12
g7151
sbstp7155
Rp7156
(dp7157
g12
VTermSet
p7158
sbag1
(g2
g3
(dp7159
g7116
g1
(g6
g7
S'27665'
p7160
tp7161
Rp7162
(dp7163
g12
g7116
sbsg7141
g1
(g6
g7
S'title'
p7164
tp7165
Rp7166
(dp7167
g12
g7141
sbsg7146
g1
(g6
g7
S'Rhodopsin[title]'
p7168
tp7169
Rp7170
(dp7171
g12
g7146
sbsg7151
g1
(g6
g7
g68
tp7172
Rp7173
(dp7174
g12
g7151
sbstp7175
Rp7176
(dp7177
g12
g7158
sbag1
(g6
g7
S'AND'
p7178
tp7179
Rp7180
(dp7181
g12
VOP
p7182
sbatp7183
Rp7184
(dp7185
g12
g7134
sbsVRetStart
p7186
g1
(g6
g7
g8
tp7187
Rp7188
(dp7189
g12
g7186
sbsVTranslationSet
p7190
g1
(g18
g19
(lp7191
tp7192
Rp7193
(dp7194
g12
g7190
sbstp7195
Rp7196
(dp7197
g12
VeSearchResult
p7198
sbag1
(g2
g3
(dp7199
VCount
p7200
g1
(g6
g7
g8
tp7201
Rp7202
(dp7203
g12
g7200
sbsVRetMax
p7204
g1
(g6
g7
g8
tp7205
Rp7206
(dp7207
g12
g7204
sbsVIdList
p7208
g1
(g18
g19
(lp7209
tp7210
Rp7211
(dp7212
g12
g7208
sbsVQueryTranslation
p7213
g1
(g6
g7
S'Paracaesio stonei[PORG] AND Rhodopsin[title]'
p7214
tp7215
Rp7216
(dp7217
g12
g7213
sbsVTranslationStack
p7218
g1
(g18
g19
(lp7219
g1
(g2
g3
(dp7220
g7200
g1
(g6
g7
g350
tp7221
Rp7222
(dp7223
g12
g7200
sbsVField
p7224
g1
(g6
g7
S'PORG'
p7225
tp7226
Rp7227
(dp7228
g12
g7224
sbsVTerm
p7229
g1
(g6
g7
S'Paracaesio stonei[PORG]'
p7230
tp7231
Rp7232
(dp7233
g12
g7229
sbsVExplode
p7234
g1
(g6
g7
g47
tp7235
Rp7236
(dp7237
g12
g7234
sbstp7238
Rp7239
(dp7240
g12
VTermSet
p7241
sbag1
(g2
g3
(dp7242
g7200
g1
(g6
g7
S'27665'
p7243
tp7244
Rp7245
(dp7246
g12
g7200
sbsg7224
g1
(g6
g7
S'title'
p7247
tp7248
Rp7249
(dp7250
g12
g7224
sbsg7229
g1
(g6
g7
S'Rhodopsin[title]'
p7251
tp7252
Rp7253
(dp7254
g12
g7229
sbsg7234
g1
(g6
g7
g68
tp7255
Rp7256
(dp7257
g12
g7234
sbstp7258
Rp7259
(dp7260
g12
g7241
sbag1
(g6
g7
S'AND'
p7261
tp7262
Rp7263
(dp7264
g12
VOP
p7265
sbatp7266
Rp7267
(dp7268
g12
g7218
sbsVRetStart
p7269
g1
(g6
g7
g8
tp7270
Rp7271
(dp7272
g12
g7269
sbsVTranslationSet
p7273
g1
(g18
g19
(lp7274
tp7275
Rp7276
(dp7277
g12
g7273
sbstp7278
Rp7279
(dp7280
g12
VeSearchResult
p7281
sbag1
(g2
g3
(dp7282
VCount
p7283
g1
(g6
g7
g8
tp7284
Rp7285
(dp7286
g12
g7283
sbsVRetMax
p7287
g1
(g6
g7
g8
tp7288
Rp7289
(dp7290
g12
g7287
sbsVIdList
p7291
g1
(g18
g19
(lp7292
tp7293
Rp7294
(dp7295
g12
g7291
sbsVRetStart
p7296
g1
(g6
g7
g8
tp7297
Rp7298
(dp7299
g12
g7296
sbsVErrorList
p7300
g1
(g1044
g3
(dp7301
VFieldNotFound
p7302
(lp7303
sVPhraseNotFound
p7304
(lp7305
g1
(g6
g7
S'Paracaesio waltervadi[PORG]'
p7306
tp7307
Rp7308
(dp7309
g12
VPhraseNotFound
p7310
sbastp7311
Rp7312
(dp7313
g12
g7300
sg1058
(lp7314
g7304
ag7302
asbsVTranslationSet
p7315
g1
(g18
g19
(lp7316
tp7317
Rp7318
(dp7319
g12
g7315
sbsVWarningList
p7320
g1
(g1044
g3
(dp7321
VOutputMessage
p7322
(lp7323
g1
(g6
g7
S'No items found.'
p7324
tp7325
Rp7326
(dp7327
g12
VOutputMessage
p7328
sbasVPhraseIgnored
p7329
(lp7330
sVQuotedPhraseNotFound
p7331
(lp7332
stp7333
Rp7334
(dp7335
g12
g7320
sg1058
(lp7336
g7329
ag7331
ag7322
asbsVQueryTranslation
p7337
g1
(g6
g7
S'Paracaesio waltervadi[PORG] AND Rhodopsin[title]'
p7338
tp7339
Rp7340
(dp7341
g12
g7337
sbstp7342
Rp7343
(dp7344
g12
VeSearchResult
p7345
sbag1
(g2
g3
(dp7346
VCount
p7347
g1
(g6
g7
g8
tp7348
Rp7349
(dp7350
g12
g7347
sbsVRetMax
p7351
g1
(g6
g7
g8
tp7352
Rp7353
(dp7354
g12
g7351
sbsVIdList
p7355
g1
(g18
g19
(lp7356
tp7357
Rp7358
(dp7359
g12
g7355
sbsVQueryTranslation
p7360
g1
(g6
g7
S'Paracaesio xanthura[PORG] AND Rhodopsin[title]'
p7361
tp7362
Rp7363
(dp7364
g12
g7360
sbsVTranslationStack
p7365
g1
(g18
g19
(lp7366
g1
(g2
g3
(dp7367
g7347
g1
(g6
g7
g796
tp7368
Rp7369
(dp7370
g12
g7347
sbsVField
p7371
g1
(g6
g7
S'PORG'
p7372
tp7373
Rp7374
(dp7375
g12
g7371
sbsVTerm
p7376
g1
(g6
g7
S'Paracaesio xanthura[PORG]'
p7377
tp7378
Rp7379
(dp7380
g12
g7376
sbsVExplode
p7381
g1
(g6
g7
g47
tp7382
Rp7383
(dp7384
g12
g7381
sbstp7385
Rp7386
(dp7387
g12
VTermSet
p7388
sbag1
(g2
g3
(dp7389
g7347
g1
(g6
g7
S'27665'
p7390
tp7391
Rp7392
(dp7393
g12
g7347
sbsg7371
g1
(g6
g7
S'title'
p7394
tp7395
Rp7396
(dp7397
g12
g7371
sbsg7376
g1
(g6
g7
S'Rhodopsin[title]'
p7398
tp7399
Rp7400
(dp7401
g12
g7376
sbsg7381
g1
(g6
g7
g68
tp7402
Rp7403
(dp7404
g12
g7381
sbstp7405
Rp7406
(dp7407
g12
g7388
sbag1
(g6
g7
S'AND'
p7408
tp7409
Rp7410
(dp7411
g12
VOP
p7412
sbatp7413
Rp7414
(dp7415
g12
g7365
sbsVRetStart
p7416
g1
(g6
g7
g8
tp7417
Rp7418
(dp7419
g12
g7416
sbsVTranslationSet
p7420
g1
(g18
g19
(lp7421
tp7422
Rp7423
(dp7424
g12
g7420
sbstp7425
Rp7426
(dp7427
g12
VeSearchResult
p7428
sbag1
(g2
g3
(dp7429
VCount
p7430
g1
(g6
g7
g8
tp7431
Rp7432
(dp7433
g12
g7430
sbsVRetMax
p7434
g1
(g6
g7
g8
tp7435
Rp7436
(dp7437
g12
g7434
sbsVIdList
p7438
g1
(g18
g19
(lp7439
tp7440
Rp7441
(dp7442
g12
g7438
sbsVRetStart
p7443
g1
(g6
g7
g8
tp7444
Rp7445
(dp7446
g12
g7443
sbsVErrorList
p7447
g1
(g1044
g3
(dp7448
VFieldNotFound
p7449
(lp7450
sVPhraseNotFound
p7451
(lp7452
g1
(g6
g7
S'Parapristipomoides squamimaxillaris[PORG]'
p7453
tp7454
Rp7455
(dp7456
g12
VPhraseNotFound
p7457
sbastp7458
Rp7459
(dp7460
g12
g7447
sg1058
(lp7461
g7451
ag7449
asbsVTranslationSet
p7462
g1
(g18
g19
(lp7463
tp7464
Rp7465
(dp7466
g12
g7462
sbsVWarningList
p7467
g1
(g1044
g3
(dp7468
VOutputMessage
p7469
(lp7470
g1
(g6
g7
S'No items found.'
p7471
tp7472
Rp7473
(dp7474
g12
VOutputMessage
p7475
sbasVPhraseIgnored
p7476
(lp7477
sVQuotedPhraseNotFound
p7478
(lp7479
stp7480
Rp7481
(dp7482
g12
g7467
sg1058
(lp7483
g7476
ag7478
ag7469
asbsVQueryTranslation
p7484
g1
(g6
g7
S'Parapristipomoides squamimaxillaris[PORG] AND Rhodopsin[title]'
p7485
tp7486
Rp7487
(dp7488
g12
g7484
sbstp7489
Rp7490
(dp7491
g12
VeSearchResult
p7492
sbag1
(g2
g3
(dp7493
VCount
p7494
g1
(g6
g7
g4374
tp7495
Rp7496
(dp7497
g12
g7494
sbsVRetMax
p7498
g1
(g6
g7
g4374
tp7499
Rp7500
(dp7501
g12
g7498
sbsVIdList
p7502
g1
(g18
g19
(lp7503
g1
(g6
g7
S'941487643'
p7504
tp7505
Rp7506
(dp7507
g12
VId
p7508
sbag1
(g6
g7
S'941487641'
p7509
tp7510
Rp7511
(dp7512
g12
g7508
sbatp7513
Rp7514
(dp7515
g12
g7502
sbsVQueryTranslation
p7516
g1
(g6
g7
S'Pinjalo lewisi[PORG] AND Rhodopsin[title]'
p7517
tp7518
Rp7519
(dp7520
g12
g7516
sbsVTranslationStack
p7521
g1
(g18
g19
(lp7522
g1
(g2
g3
(dp7523
g7494
g1
(g6
g7
S'6'
p7524
tp7525
Rp7526
(dp7527
g12
g7494
sbsVField
p7528
g1
(g6
g7
S'PORG'
p7529
tp7530
Rp7531
(dp7532
g12
g7528
sbsVTerm
p7533
g1
(g6
g7
S'Pinjalo lewisi[PORG]'
p7534
tp7535
Rp7536
(dp7537
g12
g7533
sbsVExplode
p7538
g1
(g6
g7
g47
tp7539
Rp7540
(dp7541
g12
g7538
sbstp7542
Rp7543
(dp7544
g12
VTermSet
p7545
sbag1
(g2
g3
(dp7546
g7494
g1
(g6
g7
S'27665'
p7547
tp7548
Rp7549
(dp7550
g12
g7494
sbsg7528
g1
(g6
g7
S'title'
p7551
tp7552
Rp7553
(dp7554
g12
g7528
sbsg7533
g1
(g6
g7
S'Rhodopsin[title]'
p7555
tp7556
Rp7557
(dp7558
g12
g7533
sbsg7538
g1
(g6
g7
g68
tp7559
Rp7560
(dp7561
g12
g7538
sbstp7562
Rp7563
(dp7564
g12
g7545
sbag1
(g6
g7
S'AND'
p7565
tp7566
Rp7567
(dp7568
g12
VOP
p7569
sbatp7570
Rp7571
(dp7572
g12
g7521
sbsVRetStart
p7573
g1
(g6
g7
g8
tp7574
Rp7575
(dp7576
g12
g7573
sbsVTranslationSet
p7577
g1
(g18
g19
(lp7578
tp7579
Rp7580
(dp7581
g12
g7577
sbstp7582
Rp7583
(dp7584
g12
VeSearchResult
p7585
sbag1
(g2
g3
(dp7586
VCount
p7587
g1
(g6
g7
g8
tp7588
Rp7589
(dp7590
g12
g7587
sbsVRetMax
p7591
g1
(g6
g7
g8
tp7592
Rp7593
(dp7594
g12
g7591
sbsVIdList
p7595
g1
(g18
g19
(lp7596
tp7597
Rp7598
(dp7599
g12
g7595
sbsVQueryTranslation
p7600
g1
(g6
g7
S'Pinjalo pinjalo[PORG] AND Rhodopsin[title]'
p7601
tp7602
Rp7603
(dp7604
g12
g7600
sbsVTranslationStack
p7605
g1
(g18
g19
(lp7606
g1
(g2
g3
(dp7607
g7587
g1
(g6
g7
S'16'
p7608
tp7609
Rp7610
(dp7611
g12
g7587
sbsVField
p7612
g1
(g6
g7
S'PORG'
p7613
tp7614
Rp7615
(dp7616
g12
g7612
sbsVTerm
p7617
g1
(g6
g7
S'Pinjalo pinjalo[PORG]'
p7618
tp7619
Rp7620
(dp7621
g12
g7617
sbsVExplode
p7622
g1
(g6
g7
g47
tp7623
Rp7624
(dp7625
g12
g7622
sbstp7626
Rp7627
(dp7628
g12
VTermSet
p7629
sbag1
(g2
g3
(dp7630
g7587
g1
(g6
g7
S'27665'
p7631
tp7632
Rp7633
(dp7634
g12
g7587
sbsg7612
g1
(g6
g7
S'title'
p7635
tp7636
Rp7637
(dp7638
g12
g7612
sbsg7617
g1
(g6
g7
S'Rhodopsin[title]'
p7639
tp7640
Rp7641
(dp7642
g12
g7617
sbsg7622
g1
(g6
g7
g68
tp7643
Rp7644
(dp7645
g12
g7622
sbstp7646
Rp7647
(dp7648
g12
g7629
sbag1
(g6
g7
S'AND'
p7649
tp7650
Rp7651
(dp7652
g12
VOP
p7653
sbatp7654
Rp7655
(dp7656
g12
g7605
sbsVRetStart
p7657
g1
(g6
g7
g8
tp7658
Rp7659
(dp7660
g12
g7657
sbsVTranslationSet
p7661
g1
(g18
g19
(lp7662
tp7663
Rp7664
(dp7665
g12
g7661
sbstp7666
Rp7667
(dp7668
g12
VeSearchResult
p7669
sbag1
(g2
g3
(dp7670
VCount
p7671
g1
(g6
g7
g8
tp7672
Rp7673
(dp7674
g12
g7671
sbsVRetMax
p7675
g1
(g6
g7
g8
tp7676
Rp7677
(dp7678
g12
g7675
sbsVIdList
p7679
g1
(g18
g19
(lp7680
tp7681
Rp7682
(dp7683
g12
g7679
sbsVQueryTranslation
p7684
g1
(g6
g7
S'Pristipomoides aquilonaris[PORG] AND Rhodopsin[title]'
p7685
tp7686
Rp7687
(dp7688
g12
g7684
sbsVTranslationStack
p7689
g1
(g18
g19
(lp7690
g1
(g2
g3
(dp7691
g7671
g1
(g6
g7
S'26'
p7692
tp7693
Rp7694
(dp7695
g12
g7671
sbsVField
p7696
g1
(g6
g7
S'PORG'
p7697
tp7698
Rp7699
(dp7700
g12
g7696
sbsVTerm
p7701
g1
(g6
g7
S'Pristipomoides aquilonaris[PORG]'
p7702
tp7703
Rp7704
(dp7705
g12
g7701
sbsVExplode
p7706
g1
(g6
g7
g47
tp7707
Rp7708
(dp7709
g12
g7706
sbstp7710
Rp7711
(dp7712
g12
VTermSet
p7713
sbag1
(g2
g3
(dp7714
g7671
g1
(g6
g7
S'27665'
p7715
tp7716
Rp7717
(dp7718
g12
g7671
sbsg7696
g1
(g6
g7
S'title'
p7719
tp7720
Rp7721
(dp7722
g12
g7696
sbsg7701
g1
(g6
g7
S'Rhodopsin[title]'
p7723
tp7724
Rp7725
(dp7726
g12
g7701
sbsg7706
g1
(g6
g7
g68
tp7727
Rp7728
(dp7729
g12
g7706
sbstp7730
Rp7731
(dp7732
g12
g7713
sbag1
(g6
g7
S'AND'
p7733
tp7734
Rp7735
(dp7736
g12
VOP
p7737
sbatp7738
Rp7739
(dp7740
g12
g7689
sbsVRetStart
p7741
g1
(g6
g7
g8
tp7742
Rp7743
(dp7744
g12
g7741
sbsVTranslationSet
p7745
g1
(g18
g19
(lp7746
tp7747
Rp7748
(dp7749
g12
g7745
sbstp7750
Rp7751
(dp7752
g12
VeSearchResult
p7753
sbag1
(g2
g3
(dp7754
VCount
p7755
g1
(g6
g7
g8
tp7756
Rp7757
(dp7758
g12
g7755
sbsVRetMax
p7759
g1
(g6
g7
g8
tp7760
Rp7761
(dp7762
g12
g7759
sbsVIdList
p7763
g1
(g18
g19
(lp7764
tp7765
Rp7766
(dp7767
g12
g7763
sbsVQueryTranslation
p7768
g1
(g6
g7
S'Pristipomoides argyrogrammicus[PORG] AND Rhodopsin[title]'
p7769
tp7770
Rp7771
(dp7772
g12
g7768
sbsVTranslationStack
p7773
g1
(g18
g19
(lp7774
g1
(g2
g3
(dp7775
g7755
g1
(g6
g7
g963
tp7776
Rp7777
(dp7778
g12
g7755
sbsVField
p7779
g1
(g6
g7
S'PORG'
p7780
tp7781
Rp7782
(dp7783
g12
g7779
sbsVTerm
p7784
g1
(g6
g7
S'Pristipomoides argyrogrammicus[PORG]'
p7785
tp7786
Rp7787
(dp7788
g12
g7784
sbsVExplode
p7789
g1
(g6
g7
g47
tp7790
Rp7791
(dp7792
g12
g7789
sbstp7793
Rp7794
(dp7795
g12
VTermSet
p7796
sbag1
(g2
g3
(dp7797
g7755
g1
(g6
g7
S'27665'
p7798
tp7799
Rp7800
(dp7801
g12
g7755
sbsg7779
g1
(g6
g7
S'title'
p7802
tp7803
Rp7804
(dp7805
g12
g7779
sbsg7784
g1
(g6
g7
S'Rhodopsin[title]'
p7806
tp7807
Rp7808
(dp7809
g12
g7784
sbsg7789
g1
(g6
g7
g68
tp7810
Rp7811
(dp7812
g12
g7789
sbstp7813
Rp7814
(dp7815
g12
g7796
sbag1
(g6
g7
S'AND'
p7816
tp7817
Rp7818
(dp7819
g12
VOP
p7820
sbatp7821
Rp7822
(dp7823
g12
g7773
sbsVRetStart
p7824
g1
(g6
g7
g8
tp7825
Rp7826
(dp7827
g12
g7824
sbsVTranslationSet
p7828
g1
(g18
g19
(lp7829
tp7830
Rp7831
(dp7832
g12
g7828
sbstp7833
Rp7834
(dp7835
g12
VeSearchResult
p7836
sbag1
(g2
g3
(dp7837
VCount
p7838
g1
(g6
g7
g8
tp7839
Rp7840
(dp7841
g12
g7838
sbsVRetMax
p7842
g1
(g6
g7
g8
tp7843
Rp7844
(dp7845
g12
g7842
sbsVIdList
p7846
g1
(g18
g19
(lp7847
tp7848
Rp7849
(dp7850
g12
g7846
sbsVQueryTranslation
p7851
g1
(g6
g7
S'Pristipomoides auricilla[PORG] AND Rhodopsin[title]'
p7852
tp7853
Rp7854
(dp7855
g12
g7851
sbsVTranslationStack
p7856
g1
(g18
g19
(lp7857
g1
(g2
g3
(dp7858
g7838
g1
(g6
g7
S'11'
p7859
tp7860
Rp7861
(dp7862
g12
g7838
sbsVField
p7863
g1
(g6
g7
S'PORG'
p7864
tp7865
Rp7866
(dp7867
g12
g7863
sbsVTerm
p7868
g1
(g6
g7
S'Pristipomoides auricilla[PORG]'
p7869
tp7870
Rp7871
(dp7872
g12
g7868
sbsVExplode
p7873
g1
(g6
g7
g47
tp7874
Rp7875
(dp7876
g12
g7873
sbstp7877
Rp7878
(dp7879
g12
VTermSet
p7880
sbag1
(g2
g3
(dp7881
g7838
g1
(g6
g7
S'27665'
p7882
tp7883
Rp7884
(dp7885
g12
g7838
sbsg7863
g1
(g6
g7
S'title'
p7886
tp7887
Rp7888
(dp7889
g12
g7863
sbsg7868
g1
(g6
g7
S'Rhodopsin[title]'
p7890
tp7891
Rp7892
(dp7893
g12
g7868
sbsg7873
g1
(g6
g7
g68
tp7894
Rp7895
(dp7896
g12
g7873
sbstp7897
Rp7898
(dp7899
g12
g7880
sbag1
(g6
g7
S'AND'
p7900
tp7901
Rp7902
(dp7903
g12
VOP
p7904
sbatp7905
Rp7906
(dp7907
g12
g7856
sbsVRetStart
p7908
g1
(g6
g7
g8
tp7909
Rp7910
(dp7911
g12
g7908
sbsVTranslationSet
p7912
g1
(g18
g19
(lp7913
tp7914
Rp7915
(dp7916
g12
g7912
sbstp7917
Rp7918
(dp7919
g12
VeSearchResult
p7920
sbag1
(g2
g3
(dp7921
VCount
p7922
g1
(g6
g7
g8
tp7923
Rp7924
(dp7925
g12
g7922
sbsVRetMax
p7926
g1
(g6
g7
g8
tp7927
Rp7928
(dp7929
g12
g7926
sbsVIdList
p7930
g1
(g18
g19
(lp7931
tp7932
Rp7933
(dp7934
g12
g7930
sbsVQueryTranslation
p7935
g1
(g6
g7
S'Pristipomoides filamentosus[PORG] AND Rhodopsin[title]'
p7936
tp7937
Rp7938
(dp7939
g12
g7935
sbsVTranslationStack
p7940
g1
(g18
g19
(lp7941
g1
(g2
g3
(dp7942
g7922
g1
(g6
g7
S'184'
p7943
tp7944
Rp7945
(dp7946
g12
g7922
sbsVField
p7947
g1
(g6
g7
S'PORG'
p7948
tp7949
Rp7950
(dp7951
g12
g7947
sbsVTerm
p7952
g1
(g6
g7
S'Pristipomoides filamentosus[PORG]'
p7953
tp7954
Rp7955
(dp7956
g12
g7952
sbsVExplode
p7957
g1
(g6
g7
g47
tp7958
Rp7959
(dp7960
g12
g7957
sbstp7961
Rp7962
(dp7963
g12
VTermSet
p7964
sbag1
(g2
g3
(dp7965
g7922
g1
(g6
g7
S'27665'
p7966
tp7967
Rp7968
(dp7969
g12
g7922
sbsg7947
g1
(g6
g7
S'title'
p7970
tp7971
Rp7972
(dp7973
g12
g7947
sbsg7952
g1
(g6
g7
S'Rhodopsin[title]'
p7974
tp7975
Rp7976
(dp7977
g12
g7952
sbsg7957
g1
(g6
g7
g68
tp7978
Rp7979
(dp7980
g12
g7957
sbstp7981
Rp7982
(dp7983
g12
g7964
sbag1
(g6
g7
S'AND'
p7984
tp7985
Rp7986
(dp7987
g12
VOP
p7988
sbatp7989
Rp7990
(dp7991
g12
g7940
sbsVRetStart
p7992
g1
(g6
g7
g8
tp7993
Rp7994
(dp7995
g12
g7992
sbsVTranslationSet
p7996
g1
(g18
g19
(lp7997
tp7998
Rp7999
(dp8000
g12
g7996
sbstp8001
Rp8002
(dp8003
g12
VeSearchResult
p8004
sbag1
(g2
g3
(dp8005
VCount
p8006
g1
(g6
g7
g8
tp8007
Rp8008
(dp8009
g12
g8006
sbsVRetMax
p8010
g1
(g6
g7
g8
tp8011
Rp8012
(dp8013
g12
g8010
sbsVIdList
p8014
g1
(g18
g19
(lp8015
tp8016
Rp8017
(dp8018
g12
g8014
sbsVQueryTranslation
p8019
g1
(g6
g7
S'Pristipomoides flavipinnis[PORG] AND Rhodopsin[title]'
p8020
tp8021
Rp8022
(dp8023
g12
g8019
sbsVTranslationStack
p8024
g1
(g18
g19
(lp8025
g1
(g2
g3
(dp8026
g8006
g1
(g6
g7
g350
tp8027
Rp8028
(dp8029
g12
g8006
sbsVField
p8030
g1
(g6
g7
S'PORG'
p8031
tp8032
Rp8033
(dp8034
g12
g8030
sbsVTerm
p8035
g1
(g6
g7
S'Pristipomoides flavipinnis[PORG]'
p8036
tp8037
Rp8038
(dp8039
g12
g8035
sbsVExplode
p8040
g1
(g6
g7
g47
tp8041
Rp8042
(dp8043
g12
g8040
sbstp8044
Rp8045
(dp8046
g12
VTermSet
p8047
sbag1
(g2
g3
(dp8048
g8006
g1
(g6
g7
S'27665'
p8049
tp8050
Rp8051
(dp8052
g12
g8006
sbsg8030
g1
(g6
g7
S'title'
p8053
tp8054
Rp8055
(dp8056
g12
g8030
sbsg8035
g1
(g6
g7
S'Rhodopsin[title]'
p8057
tp8058
Rp8059
(dp8060
g12
g8035
sbsg8040
g1
(g6
g7
g68
tp8061
Rp8062
(dp8063
g12
g8040
sbstp8064
Rp8065
(dp8066
g12
g8047
sbag1
(g6
g7
S'AND'
p8067
tp8068
Rp8069
(dp8070
g12
VOP
p8071
sbatp8072
Rp8073
(dp8074
g12
g8024
sbsVRetStart
p8075
g1
(g6
g7
g8
tp8076
Rp8077
(dp8078
g12
g8075
sbsVTranslationSet
p8079
g1
(g18
g19
(lp8080
tp8081
Rp8082
(dp8083
g12
g8079
sbstp8084
Rp8085
(dp8086
g12
VeSearchResult
p8087
sbag1
(g2
g3
(dp8088
VCount
p8089
g1
(g6
g7
g8
tp8090
Rp8091
(dp8092
g12
g8089
sbsVRetMax
p8093
g1
(g6
g7
g8
tp8094
Rp8095
(dp8096
g12
g8093
sbsVIdList
p8097
g1
(g18
g19
(lp8098
tp8099
Rp8100
(dp8101
g12
g8097
sbsVRetStart
p8102
g1
(g6
g7
g8
tp8103
Rp8104
(dp8105
g12
g8102
sbsVErrorList
p8106
g1
(g1044
g3
(dp8107
VFieldNotFound
p8108
(lp8109
sVPhraseNotFound
p8110
(lp8111
g1
(g6
g7
S'Pristipomoides freemani[PORG]'
p8112
tp8113
Rp8114
(dp8115
g12
VPhraseNotFound
p8116
sbastp8117
Rp8118
(dp8119
g12
g8106
sg1058
(lp8120
g8110
ag8108
asbsVTranslationSet
p8121
g1
(g18
g19
(lp8122
tp8123
Rp8124
(dp8125
g12
g8121
sbsVWarningList
p8126
g1
(g1044
g3
(dp8127
VOutputMessage
p8128
(lp8129
g1
(g6
g7
S'No items found.'
p8130
tp8131
Rp8132
(dp8133
g12
VOutputMessage
p8134
sbasVPhraseIgnored
p8135
(lp8136
sVQuotedPhraseNotFound
p8137
(lp8138
stp8139
Rp8140
(dp8141
g12
g8126
sg1058
(lp8142
g8135
ag8137
ag8128
asbsVQueryTranslation
p8143
g1
(g6
g7
S'Pristipomoides freemani[PORG] AND Rhodopsin[title]'
p8144
tp8145
Rp8146
(dp8147
g12
g8143
sbstp8148
Rp8149
(dp8150
g12
VeSearchResult
p8151
sbag1
(g2
g3
(dp8152
VCount
p8153
g1
(g6
g7
g8
tp8154
Rp8155
(dp8156
g12
g8153
sbsVRetMax
p8157
g1
(g6
g7
g8
tp8158
Rp8159
(dp8160
g12
g8157
sbsVIdList
p8161
g1
(g18
g19
(lp8162
tp8163
Rp8164
(dp8165
g12
g8161
sbsVRetStart
p8166
g1
(g6
g7
g8
tp8167
Rp8168
(dp8169
g12
g8166
sbsVErrorList
p8170
g1
(g1044
g3
(dp8171
VFieldNotFound
p8172
(lp8173
sVPhraseNotFound
p8174
(lp8175
g1
(g6
g7
S'Pristipomoides macrophthalmus[PORG]'
p8176
tp8177
Rp8178
(dp8179
g12
VPhraseNotFound
p8180
sbastp8181
Rp8182
(dp8183
g12
g8170
sg1058
(lp8184
g8174
ag8172
asbsVTranslationSet
p8185
g1
(g18
g19
(lp8186
tp8187
Rp8188
(dp8189
g12
g8185
sbsVWarningList
p8190
g1
(g1044
g3
(dp8191
VOutputMessage
p8192
(lp8193
g1
(g6
g7
S'No items found.'
p8194
tp8195
Rp8196
(dp8197
g12
VOutputMessage
p8198
sbasVPhraseIgnored
p8199
(lp8200
sVQuotedPhraseNotFound
p8201
(lp8202
stp8203
Rp8204
(dp8205
g12
g8190
sg1058
(lp8206
g8199
ag8201
ag8192
asbsVQueryTranslation
p8207
g1
(g6
g7
S'Pristipomoides macrophthalmus[PORG] AND Rhodopsin[title]'
p8208
tp8209
Rp8210
(dp8211
g12
g8207
sbstp8212
Rp8213
(dp8214
g12
VeSearchResult
p8215
sbag1
(g2
g3
(dp8216
VCount
p8217
g1
(g6
g7
g8
tp8218
Rp8219
(dp8220
g12
g8217
sbsVRetMax
p8221
g1
(g6
g7
g8
tp8222
Rp8223
(dp8224
g12
g8221
sbsVIdList
p8225
g1
(g18
g19
(lp8226
tp8227
Rp8228
(dp8229
g12
g8225
sbsVQueryTranslation
p8230
g1
(g6
g7
S'Pristipomoides multidens[PORG] AND Rhodopsin[title]'
p8231
tp8232
Rp8233
(dp8234
g12
g8230
sbsVTranslationStack
p8235
g1
(g18
g19
(lp8236
g1
(g2
g3
(dp8237
g8217
g1
(g6
g7
S'93'
p8238
tp8239
Rp8240
(dp8241
g12
g8217
sbsVField
p8242
g1
(g6
g7
S'PORG'
p8243
tp8244
Rp8245
(dp8246
g12
g8242
sbsVTerm
p8247
g1
(g6
g7
S'Pristipomoides multidens[PORG]'
p8248
tp8249
Rp8250
(dp8251
g12
g8247
sbsVExplode
p8252
g1
(g6
g7
g47
tp8253
Rp8254
(dp8255
g12
g8252
sbstp8256
Rp8257
(dp8258
g12
VTermSet
p8259
sbag1
(g2
g3
(dp8260
g8217
g1
(g6
g7
S'27665'
p8261
tp8262
Rp8263
(dp8264
g12
g8217
sbsg8242
g1
(g6
g7
S'title'
p8265
tp8266
Rp8267
(dp8268
g12
g8242
sbsg8247
g1
(g6
g7
S'Rhodopsin[title]'
p8269
tp8270
Rp8271
(dp8272
g12
g8247
sbsg8252
g1
(g6
g7
g68
tp8273
Rp8274
(dp8275
g12
g8252
sbstp8276
Rp8277
(dp8278
g12
g8259
sbag1
(g6
g7
S'AND'
p8279
tp8280
Rp8281
(dp8282
g12
VOP
p8283
sbatp8284
Rp8285
(dp8286
g12
g8235
sbsVRetStart
p8287
g1
(g6
g7
g8
tp8288
Rp8289
(dp8290
g12
g8287
sbsVTranslationSet
p8291
g1
(g18
g19
(lp8292
tp8293
Rp8294
(dp8295
g12
g8291
sbstp8296
Rp8297
(dp8298
g12
VeSearchResult
p8299
sbag1
(g2
g3
(dp8300
VCount
p8301
g1
(g6
g7
g8
tp8302
Rp8303
(dp8304
g12
g8301
sbsVRetMax
p8305
g1
(g6
g7
g8
tp8306
Rp8307
(dp8308
g12
g8305
sbsVIdList
p8309
g1
(g18
g19
(lp8310
tp8311
Rp8312
(dp8313
g12
g8309
sbsVQueryTranslation
p8314
g1
(g6
g7
S'Pristipomoides sieboldii[PORG] AND Rhodopsin[title]'
p8315
tp8316
Rp8317
(dp8318
g12
g8314
sbsVTranslationStack
p8319
g1
(g18
g19
(lp8320
g1
(g2
g3
(dp8321
g8301
g1
(g6
g7
S'7'
p8322
tp8323
Rp8324
(dp8325
g12
g8301
sbsVField
p8326
g1
(g6
g7
S'PORG'
p8327
tp8328
Rp8329
(dp8330
g12
g8326
sbsVTerm
p8331
g1
(g6
g7
S'Pristipomoides sieboldii[PORG]'
p8332
tp8333
Rp8334
(dp8335
g12
g8331
sbsVExplode
p8336
g1
(g6
g7
g47
tp8337
Rp8338
(dp8339
g12
g8336
sbstp8340
Rp8341
(dp8342
g12
VTermSet
p8343
sbag1
(g2
g3
(dp8344
g8301
g1
(g6
g7
S'27665'
p8345
tp8346
Rp8347
(dp8348
g12
g8301
sbsg8326
g1
(g6
g7
S'title'
p8349
tp8350
Rp8351
(dp8352
g12
g8326
sbsg8331
g1
(g6
g7
S'Rhodopsin[title]'
p8353
tp8354
Rp8355
(dp8356
g12
g8331
sbsg8336
g1
(g6
g7
g68
tp8357
Rp8358
(dp8359
g12
g8336
sbstp8360
Rp8361
(dp8362
g12
g8343
sbag1
(g6
g7
S'AND'
p8363
tp8364
Rp8365
(dp8366
g12
VOP
p8367
sbatp8368
Rp8369
(dp8370
g12
g8319
sbsVRetStart
p8371
g1
(g6
g7
g8
tp8372
Rp8373
(dp8374
g12
g8371
sbsVTranslationSet
p8375
g1
(g18
g19
(lp8376
tp8377
Rp8378
(dp8379
g12
g8375
sbstp8380
Rp8381
(dp8382
g12
VeSearchResult
p8383
sbag1
(g2
g3
(dp8384
VCount
p8385
g1
(g6
g7
g8
tp8386
Rp8387
(dp8388
g12
g8385
sbsVRetMax
p8389
g1
(g6
g7
g8
tp8390
Rp8391
(dp8392
g12
g8389
sbsVIdList
p8393
g1
(g18
g19
(lp8394
tp8395
Rp8396
(dp8397
g12
g8393
sbsVQueryTranslation
p8398
g1
(g6
g7
S'Pristipomoides typus[PORG] AND Rhodopsin[title]'
p8399
tp8400
Rp8401
(dp8402
g12
g8398
sbsVTranslationStack
p8403
g1
(g18
g19
(lp8404
g1
(g2
g3
(dp8405
g8385
g1
(g6
g7
g963
tp8406
Rp8407
(dp8408
g12
g8385
sbsVField
p8409
g1
(g6
g7
S'PORG'
p8410
tp8411
Rp8412
(dp8413
g12
g8409
sbsVTerm
p8414
g1
(g6
g7
S'Pristipomoides typus[PORG]'
p8415
tp8416
Rp8417
(dp8418
g12
g8414
sbsVExplode
p8419
g1
(g6
g7
g47
tp8420
Rp8421
(dp8422
g12
g8419
sbstp8423
Rp8424
(dp8425
g12
VTermSet
p8426
sbag1
(g2
g3
(dp8427
g8385
g1
(g6
g7
S'27665'
p8428
tp8429
Rp8430
(dp8431
g12
g8385
sbsg8409
g1
(g6
g7
S'title'
p8432
tp8433
Rp8434
(dp8435
g12
g8409
sbsg8414
g1
(g6
g7
S'Rhodopsin[title]'
p8436
tp8437
Rp8438
(dp8439
g12
g8414
sbsg8419
g1
(g6
g7
g68
tp8440
Rp8441
(dp8442
g12
g8419
sbstp8443
Rp8444
(dp8445
g12
g8426
sbag1
(g6
g7
S'AND'
p8446
tp8447
Rp8448
(dp8449
g12
VOP
p8450
sbatp8451
Rp8452
(dp8453
g12
g8403
sbsVRetStart
p8454
g1
(g6
g7
g8
tp8455
Rp8456
(dp8457
g12
g8454
sbsVTranslationSet
p8458
g1
(g18
g19
(lp8459
tp8460
Rp8461
(dp8462
g12
g8458
sbstp8463
Rp8464
(dp8465
g12
VeSearchResult
p8466
sbag1
(g2
g3
(dp8467
VCount
p8468
g1
(g6
g7
g8
tp8469
Rp8470
(dp8471
g12
g8468
sbsVRetMax
p8472
g1
(g6
g7
g8
tp8473
Rp8474
(dp8475
g12
g8472
sbsVIdList
p8476
g1
(g18
g19
(lp8477
tp8478
Rp8479
(dp8480
g12
g8476
sbsVQueryTranslation
p8481
g1
(g6
g7
S'Pristipomoides zonatus[PORG] AND Rhodopsin[title]'
p8482
tp8483
Rp8484
(dp8485
g12
g8481
sbsVTranslationStack
p8486
g1
(g18
g19
(lp8487
g1
(g2
g3
(dp8488
g8468
g1
(g6
g7
g350
tp8489
Rp8490
(dp8491
g12
g8468
sbsVField
p8492
g1
(g6
g7
S'PORG'
p8493
tp8494
Rp8495
(dp8496
g12
g8492
sbsVTerm
p8497
g1
(g6
g7
S'Pristipomoides zonatus[PORG]'
p8498
tp8499
Rp8500
(dp8501
g12
g8497
sbsVExplode
p8502
g1
(g6
g7
g47
tp8503
Rp8504
(dp8505
g12
g8502
sbstp8506
Rp8507
(dp8508
g12
VTermSet
p8509
sbag1
(g2
g3
(dp8510
g8468
g1
(g6
g7
S'27665'
p8511
tp8512
Rp8513
(dp8514
g12
g8468
sbsg8492
g1
(g6
g7
S'title'
p8515
tp8516
Rp8517
(dp8518
g12
g8492
sbsg8497
g1
(g6
g7
S'Rhodopsin[title]'
p8519
tp8520
Rp8521
(dp8522
g12
g8497
sbsg8502
g1
(g6
g7
g68
tp8523
Rp8524
(dp8525
g12
g8502
sbstp8526
Rp8527
(dp8528
g12
g8509
sbag1
(g6
g7
S'AND'
p8529
tp8530
Rp8531
(dp8532
g12
VOP
p8533
sbatp8534
Rp8535
(dp8536
g12
g8486
sbsVRetStart
p8537
g1
(g6
g7
g8
tp8538
Rp8539
(dp8540
g12
g8537
sbsVTranslationSet
p8541
g1
(g18
g19
(lp8542
tp8543
Rp8544
(dp8545
g12
g8541
sbstp8546
Rp8547
(dp8548
g12
VeSearchResult
p8549
sbag1
(g2
g3
(dp8550
VCount
p8551
g1
(g6
g7
g8
tp8552
Rp8553
(dp8554
g12
g8551
sbsVRetMax
p8555
g1
(g6
g7
g8
tp8556
Rp8557
(dp8558
g12
g8555
sbsVIdList
p8559
g1
(g18
g19
(lp8560
tp8561
Rp8562
(dp8563
g12
g8559
sbsVQueryTranslation
p8564
g1
(g6
g7
S'Randallichthys filamentosus[PORG] AND Rhodopsin[title]'
p8565
tp8566
Rp8567
(dp8568
g12
g8564
sbsVTranslationStack
p8569
g1
(g18
g19
(lp8570
g1
(g2
g3
(dp8571
g8551
g1
(g6
g7
g4374
tp8572
Rp8573
(dp8574
g12
g8551
sbsVField
p8575
g1
(g6
g7
S'PORG'
p8576
tp8577
Rp8578
(dp8579
g12
g8575
sbsVTerm
p8580
g1
(g6
g7
S'Randallichthys filamentosus[PORG]'
p8581
tp8582
Rp8583
(dp8584
g12
g8580
sbsVExplode
p8585
g1
(g6
g7
g47
tp8586
Rp8587
(dp8588
g12
g8585
sbstp8589
Rp8590
(dp8591
g12
VTermSet
p8592
sbag1
(g2
g3
(dp8593
g8551
g1
(g6
g7
S'27665'
p8594
tp8595
Rp8596
(dp8597
g12
g8551
sbsg8575
g1
(g6
g7
S'title'
p8598
tp8599
Rp8600
(dp8601
g12
g8575
sbsg8580
g1
(g6
g7
S'Rhodopsin[title]'
p8602
tp8603
Rp8604
(dp8605
g12
g8580
sbsg8585
g1
(g6
g7
g68
tp8606
Rp8607
(dp8608
g12
g8585
sbstp8609
Rp8610
(dp8611
g12
g8592
sbag1
(g6
g7
S'AND'
p8612
tp8613
Rp8614
(dp8615
g12
VOP
p8616
sbatp8617
Rp8618
(dp8619
g12
g8569
sbsVRetStart
p8620
g1
(g6
g7
g8
tp8621
Rp8622
(dp8623
g12
g8620
sbsVTranslationSet
p8624
g1
(g18
g19
(lp8625
tp8626
Rp8627
(dp8628
g12
g8624
sbstp8629
Rp8630
(dp8631
g12
VeSearchResult
p8632
sbag1
(g2
g3
(dp8633
VCount
p8634
g1
(g6
g7
g8
tp8635
Rp8636
(dp8637
g12
g8634
sbsVRetMax
p8638
g1
(g6
g7
g8
tp8639
Rp8640
(dp8641
g12
g8638
sbsVIdList
p8642
g1
(g18
g19
(lp8643
tp8644
Rp8645
(dp8646
g12
g8642
sbsVQueryTranslation
p8647
g1
(g6
g7
S'Rhomboplites aurorubens[PORG] AND Rhodopsin[title]'
p8648
tp8649
Rp8650
(dp8651
g12
g8647
sbsVTranslationStack
p8652
g1
(g18
g19
(lp8653
g1
(g2
g3
(dp8654
g8634
g1
(g6
g7
S'60'
p8655
tp8656
Rp8657
(dp8658
g12
g8634
sbsVField
p8659
g1
(g6
g7
S'PORG'
p8660
tp8661
Rp8662
(dp8663
g12
g8659
sbsVTerm
p8664
g1
(g6
g7
S'Rhomboplites aurorubens[PORG]'
p8665
tp8666
Rp8667
(dp8668
g12
g8664
sbsVExplode
p8669
g1
(g6
g7
g47
tp8670
Rp8671
(dp8672
g12
g8669
sbstp8673
Rp8674
(dp8675
g12
VTermSet
p8676
sbag1
(g2
g3
(dp8677
g8634
g1
(g6
g7
S'27665'
p8678
tp8679
Rp8680
(dp8681
g12
g8634
sbsg8659
g1
(g6
g7
S'title'
p8682
tp8683
Rp8684
(dp8685
g12
g8659
sbsg8664
g1
(g6
g7
S'Rhodopsin[title]'
p8686
tp8687
Rp8688
(dp8689
g12
g8664
sbsg8669
g1
(g6
g7
g68
tp8690
Rp8691
(dp8692
g12
g8669
sbstp8693
Rp8694
(dp8695
g12
g8676
sbag1
(g6
g7
S'AND'
p8696
tp8697
Rp8698
(dp8699
g12
VOP
p8700
sbatp8701
Rp8702
(dp8703
g12
g8652
sbsVRetStart
p8704
g1
(g6
g7
g8
tp8705
Rp8706
(dp8707
g12
g8704
sbsVTranslationSet
p8708
g1
(g18
g19
(lp8709
tp8710
Rp8711
(dp8712
g12
g8708
sbstp8713
Rp8714
(dp8715
g12
VeSearchResult
p8716
sbag1
(g2
g3
(dp8717
VCount
p8718
g1
(g6
g7
g8
tp8719
Rp8720
(dp8721
g12
g8718
sbsVRetMax
p8722
g1
(g6
g7
g8
tp8723
Rp8724
(dp8725
g12
g8722
sbsVIdList
p8726
g1
(g18
g19
(lp8727
tp8728
Rp8729
(dp8730
g12
g8726
sbsVQueryTranslation
p8731
g1
(g6
g7
S'Symphorichthys spilurus[PORG] AND Rhodopsin[title]'
p8732
tp8733
Rp8734
(dp8735
g12
g8731
sbsVTranslationStack
p8736
g1
(g18
g19
(lp8737
g1
(g2
g3
(dp8738
g8718
g1
(g6
g7
g1833
tp8739
Rp8740
(dp8741
g12
g8718
sbsVField
p8742
g1
(g6
g7
S'PORG'
p8743
tp8744
Rp8745
(dp8746
g12
g8742
sbsVTerm
p8747
g1
(g6
g7
S'Symphorichthys spilurus[PORG]'
p8748
tp8749
Rp8750
(dp8751
g12
g8747
sbsVExplode
p8752
g1
(g6
g7
g47
tp8753
Rp8754
(dp8755
g12
g8752
sbstp8756
Rp8757
(dp8758
g12
VTermSet
p8759
sbag1
(g2
g3
(dp8760
g8718
g1
(g6
g7
S'27665'
p8761
tp8762
Rp8763
(dp8764
g12
g8718
sbsg8742
g1
(g6
g7
S'title'
p8765
tp8766
Rp8767
(dp8768
g12
g8742
sbsg8747
g1
(g6
g7
S'Rhodopsin[title]'
p8769
tp8770
Rp8771
(dp8772
g12
g8747
sbsg8752
g1
(g6
g7
g68
tp8773
Rp8774
(dp8775
g12
g8752
sbstp8776
Rp8777
(dp8778
g12
g8759
sbag1
(g6
g7
S'AND'
p8779
tp8780
Rp8781
(dp8782
g12
VOP
p8783
sbatp8784
Rp8785
(dp8786
g12
g8736
sbsVRetStart
p8787
g1
(g6
g7
g8
tp8788
Rp8789
(dp8790
g12
g8787
sbsVTranslationSet
p8791
g1
(g18
g19
(lp8792
tp8793
Rp8794
(dp8795
g12
g8791
sbstp8796
Rp8797
(dp8798
g12
VeSearchResult
p8799
sbag1
(g2
g3
(dp8800
VCount
p8801
g1
(g6
g7
g8
tp8802
Rp8803
(dp8804
g12
g8801
sbsVRetMax
p8805
g1
(g6
g7
g8
tp8806
Rp8807
(dp8808
g12
g8805
sbsVIdList
p8809
g1
(g18
g19
(lp8810
tp8811
Rp8812
(dp8813
g12
g8809
sbsVQueryTranslation
p8814
g1
(g6
g7
S'Symphorus nematophorus[PORG] AND Rhodopsin[title]'
p8815
tp8816
Rp8817
(dp8818
g12
g8814
sbsVTranslationStack
p8819
g1
(g18
g19
(lp8820
g1
(g2
g3
(dp8821
g8801
g1
(g6
g7
g963
tp8822
Rp8823
(dp8824
g12
g8801
sbsVField
p8825
g1
(g6
g7
S'PORG'
p8826
tp8827
Rp8828
(dp8829
g12
g8825
sbsVTerm
p8830
g1
(g6
g7
S'Symphorus nematophorus[PORG]'
p8831
tp8832
Rp8833
(dp8834
g12
g8830
sbsVExplode
p8835
g1
(g6
g7
g47
tp8836
Rp8837
(dp8838
g12
g8835
sbstp8839
Rp8840
(dp8841
g12
VTermSet
p8842
sbag1
(g2
g3
(dp8843
g8801
g1
(g6
g7
S'27665'
p8844
tp8845
Rp8846
(dp8847
g12
g8801
sbsg8825
g1
(g6
g7
S'title'
p8848
tp8849
Rp8850
(dp8851
g12
g8825
sbsg8830
g1
(g6
g7
S'Rhodopsin[title]'
p8852
tp8853
Rp8854
(dp8855
g12
g8830
sbsg8835
g1
(g6
g7
g68
tp8856
Rp8857
(dp8858
g12
g8835
sbstp8859
Rp8860
(dp8861
g12
g8842
sbag1
(g6
g7
S'AND'
p8862
tp8863
Rp8864
(dp8865
g12
VOP
p8866
sbatp8867
Rp8868
(dp8869
g12
g8819
sbsVRetStart
p8870
g1
(g6
g7
g8
tp8871
Rp8872
(dp8873
g12
g8870
sbsVTranslationSet
p8874
g1
(g18
g19
(lp8875
tp8876
Rp8877
(dp8878
g12
g8874
sbstp8879
Rp8880
(dp8881
g12
VeSearchResult
p8882
sba.