(lp0
ccopy_reg
_reconstructor
p1
(cBio.Entrez.Parser
DictionaryElement
p2
c__builtin__
dict
p3
(dp4
VCount
p5
g1
(cBio.Entrez.Parser
StringElement
p6
c__builtin__
str
p7
S'1'
p8
tp9
Rp10
(dp11
S'tag'
p12
g5
sbsVRetMax
p13
g1
(g6
g7
g8
tp14
Rp15
(dp16
g12
g13
sbsVIdList
p17
g1
(cBio.Entrez.Parser
ListElement
p18
c__builtin__
list
p19
(lp20
g1
(g6
g7
S'111038364'
p21
tp22
Rp23
(dp24
g12
VId
p25
sbatp26
Rp27
(dp28
g12
g17
sbsVQueryTranslation
p29
g1
(g6
g7
S'Aphareus furca[PORG] AND 16S[title]'
p30
tp31
Rp32
(dp33
g12
g29
sbsVTranslationStack
p34
g1
(g18
g19
(lp35
g1
(g2
g3
(dp36
g5
g1
(g6
g7
S'26'
p37
tp38
Rp39
(dp40
g12
g5
sbsVField
p41
g1
(g6
g7
S'PORG'
p42
tp43
Rp44
(dp45
g12
g41
sbsVTerm
p46
g1
(g6
g7
S'Aphareus furca[PORG]'
p47
tp48
Rp49
(dp50
g12
g46
sbsVExplode
p51
g1
(g6
g7
S'Y'
p52
tp53
Rp54
(dp55
g12
g51
sbstp56
Rp57
(dp58
g12
VTermSet
p59
sbag1
(g2
g3
(dp60
g5
g1
(g6
g7
S'7108870'
p61
tp62
Rp63
(dp64
g12
g5
sbsg41
g1
(g6
g7
S'title'
p65
tp66
Rp67
(dp68
g12
g41
sbsg46
g1
(g6
g7
S'16S[title]'
p69
tp70
Rp71
(dp72
g12
g46
sbsg51
g1
(g6
g7
S'N'
p73
tp74
Rp75
(dp76
g12
g51
sbstp77
Rp78
(dp79
g12
g59
sbag1
(g6
g7
S'AND'
p80
tp81
Rp82
(dp83
g12
VOP
p84
sbatp85
Rp86
(dp87
g12
g34
sbsVRetStart
p88
g1
(g6
g7
S'0'
p89
tp90
Rp91
(dp92
g12
g88
sbsVTranslationSet
p93
g1
(g18
g19
(lp94
tp95
Rp96
(dp97
g12
g93
sbstp98
Rp99
(dp100
g12
VeSearchResult
p101
sbag1
(g2
g3
(dp102
VCount
p103
g1
(g6
g7
g89
tp104
Rp105
(dp106
g12
g103
sbsVRetMax
p107
g1
(g6
g7
g89
tp108
Rp109
(dp110
g12
g107
sbsVIdList
p111
g1
(g18
g19
(lp112
tp113
Rp114
(dp115
g12
g111
sbsVQueryTranslation
p116
g1
(g6
g7
S'Aphareus rutilans[PORG] AND 16S[title]'
p117
tp118
Rp119
(dp120
g12
g116
sbsVTranslationStack
p121
g1
(g18
g19
(lp122
g1
(g2
g3
(dp123
g103
g1
(g6
g7
S'12'
p124
tp125
Rp126
(dp127
g12
g103
sbsVField
p128
g1
(g6
g7
S'PORG'
p129
tp130
Rp131
(dp132
g12
g128
sbsVTerm
p133
g1
(g6
g7
S'Aphareus rutilans[PORG]'
p134
tp135
Rp136
(dp137
g12
g133
sbsVExplode
p138
g1
(g6
g7
g52
tp139
Rp140
(dp141
g12
g138
sbstp142
Rp143
(dp144
g12
VTermSet
p145
sbag1
(g2
g3
(dp146
g103
g1
(g6
g7
S'7108870'
p147
tp148
Rp149
(dp150
g12
g103
sbsg128
g1
(g6
g7
S'title'
p151
tp152
Rp153
(dp154
g12
g128
sbsg133
g1
(g6
g7
S'16S[title]'
p155
tp156
Rp157
(dp158
g12
g133
sbsg138
g1
(g6
g7
g73
tp159
Rp160
(dp161
g12
g138
sbstp162
Rp163
(dp164
g12
g145
sbag1
(g6
g7
S'AND'
p165
tp166
Rp167
(dp168
g12
VOP
p169
sbatp170
Rp171
(dp172
g12
g121
sbsVRetStart
p173
g1
(g6
g7
g89
tp174
Rp175
(dp176
g12
g173
sbsVTranslationSet
p177
g1
(g18
g19
(lp178
tp179
Rp180
(dp181
g12
g177
sbstp182
Rp183
(dp184
g12
VeSearchResult
p185
sbag1
(g2
g3
(dp186
VCount
p187
g1
(g6
g7
g8
tp188
Rp189
(dp190
g12
g187
sbsVRetMax
p191
g1
(g6
g7
g8
tp192
Rp193
(dp194
g12
g191
sbsVIdList
p195
g1
(g18
g19
(lp196
g1
(g6
g7
S'111038365'
p197
tp198
Rp199
(dp200
g12
VId
p201
sbatp202
Rp203
(dp204
g12
g195
sbsVQueryTranslation
p205
g1
(g6
g7
S'Aprion virescens[PORG] AND 16S[title]'
p206
tp207
Rp208
(dp209
g12
g205
sbsVTranslationStack
p210
g1
(g18
g19
(lp211
g1
(g2
g3
(dp212
g187
g1
(g6
g7
S'19'
p213
tp214
Rp215
(dp216
g12
g187
sbsVField
p217
g1
(g6
g7
S'PORG'
p218
tp219
Rp220
(dp221
g12
g217
sbsVTerm
p222
g1
(g6
g7
S'Aprion virescens[PORG]'
p223
tp224
Rp225
(dp226
g12
g222
sbsVExplode
p227
g1
(g6
g7
g52
tp228
Rp229
(dp230
g12
g227
sbstp231
Rp232
(dp233
g12
VTermSet
p234
sbag1
(g2
g3
(dp235
g187
g1
(g6
g7
S'7108870'
p236
tp237
Rp238
(dp239
g12
g187
sbsg217
g1
(g6
g7
S'title'
p240
tp241
Rp242
(dp243
g12
g217
sbsg222
g1
(g6
g7
S'16S[title]'
p244
tp245
Rp246
(dp247
g12
g222
sbsg227
g1
(g6
g7
g73
tp248
Rp249
(dp250
g12
g227
sbstp251
Rp252
(dp253
g12
g234
sbag1
(g6
g7
S'AND'
p254
tp255
Rp256
(dp257
g12
VOP
p258
sbatp259
Rp260
(dp261
g12
g210
sbsVRetStart
p262
g1
(g6
g7
g89
tp263
Rp264
(dp265
g12
g262
sbsVTranslationSet
p266
g1
(g18
g19
(lp267
tp268
Rp269
(dp270
g12
g266
sbstp271
Rp272
(dp273
g12
VeSearchResult
p274
sbag1
(g2
g3
(dp275
VCount
p276
g1
(g6
g7
g89
tp277
Rp278
(dp279
g12
g276
sbsVRetMax
p280
g1
(g6
g7
g89
tp281
Rp282
(dp283
g12
g280
sbsVIdList
p284
g1
(g18
g19
(lp285
tp286
Rp287
(dp288
g12
g284
sbsVQueryTranslation
p289
g1
(g6
g7
S'Apsilus dentatus[PORG] AND 16S[title]'
p290
tp291
Rp292
(dp293
g12
g289
sbsVTranslationStack
p294
g1
(g18
g19
(lp295
g1
(g2
g3
(dp296
g276
g1
(g6
g7
S'19'
p297
tp298
Rp299
(dp300
g12
g276
sbsVField
p301
g1
(g6
g7
S'PORG'
p302
tp303
Rp304
(dp305
g12
g301
sbsVTerm
p306
g1
(g6
g7
S'Apsilus dentatus[PORG]'
p307
tp308
Rp309
(dp310
g12
g306
sbsVExplode
p311
g1
(g6
g7
g52
tp312
Rp313
(dp314
g12
g311
sbstp315
Rp316
(dp317
g12
VTermSet
p318
sbag1
(g2
g3
(dp319
g276
g1
(g6
g7
S'7108870'
p320
tp321
Rp322
(dp323
g12
g276
sbsg301
g1
(g6
g7
S'title'
p324
tp325
Rp326
(dp327
g12
g301
sbsg306
g1
(g6
g7
S'16S[title]'
p328
tp329
Rp330
(dp331
g12
g306
sbsg311
g1
(g6
g7
g73
tp332
Rp333
(dp334
g12
g311
sbstp335
Rp336
(dp337
g12
g318
sbag1
(g6
g7
S'AND'
p338
tp339
Rp340
(dp341
g12
VOP
p342
sbatp343
Rp344
(dp345
g12
g294
sbsVRetStart
p346
g1
(g6
g7
g89
tp347
Rp348
(dp349
g12
g346
sbsVTranslationSet
p350
g1
(g18
g19
(lp351
tp352
Rp353
(dp354
g12
g350
sbstp355
Rp356
(dp357
g12
VeSearchResult
p358
sbag1
(g2
g3
(dp359
VCount
p360
g1
(g6
g7
g89
tp361
Rp362
(dp363
g12
g360
sbsVRetMax
p364
g1
(g6
g7
g89
tp365
Rp366
(dp367
g12
g364
sbsVIdList
p368
g1
(g18
g19
(lp369
tp370
Rp371
(dp372
g12
g368
sbsVQueryTranslation
p373
g1
(g6
g7
S'Apsilus fuscus[PORG] AND 16S[title]'
p374
tp375
Rp376
(dp377
g12
g373
sbsVTranslationStack
p378
g1
(g18
g19
(lp379
g1
(g2
g3
(dp380
g360
g1
(g6
g7
S'3'
p381
tp382
Rp383
(dp384
g12
g360
sbsVField
p385
g1
(g6
g7
S'PORG'
p386
tp387
Rp388
(dp389
g12
g385
sbsVTerm
p390
g1
(g6
g7
S'Apsilus fuscus[PORG]'
p391
tp392
Rp393
(dp394
g12
g390
sbsVExplode
p395
g1
(g6
g7
g52
tp396
Rp397
(dp398
g12
g395
sbstp399
Rp400
(dp401
g12
VTermSet
p402
sbag1
(g2
g3
(dp403
g360
g1
(g6
g7
S'7108870'
p404
tp405
Rp406
(dp407
g12
g360
sbsg385
g1
(g6
g7
S'title'
p408
tp409
Rp410
(dp411
g12
g385
sbsg390
g1
(g6
g7
S'16S[title]'
p412
tp413
Rp414
(dp415
g12
g390
sbsg395
g1
(g6
g7
g73
tp416
Rp417
(dp418
g12
g395
sbstp419
Rp420
(dp421
g12
g402
sbag1
(g6
g7
S'AND'
p422
tp423
Rp424
(dp425
g12
VOP
p426
sbatp427
Rp428
(dp429
g12
g378
sbsVRetStart
p430
g1
(g6
g7
g89
tp431
Rp432
(dp433
g12
g430
sbsVTranslationSet
p434
g1
(g18
g19
(lp435
tp436
Rp437
(dp438
g12
g434
sbstp439
Rp440
(dp441
g12
VeSearchResult
p442
sbag1
(g2
g3
(dp443
VCount
p444
g1
(g6
g7
g89
tp445
Rp446
(dp447
g12
g444
sbsVRetMax
p448
g1
(g6
g7
g89
tp449
Rp450
(dp451
g12
g448
sbsVIdList
p452
g1
(g18
g19
(lp453
tp454
Rp455
(dp456
g12
g452
sbsVQueryTranslation
p457
g1
(g6
g7
S'Etelis carbunculus[PORG] AND 16S[title]'
p458
tp459
Rp460
(dp461
g12
g457
sbsVTranslationStack
p462
g1
(g18
g19
(lp463
g1
(g2
g3
(dp464
g444
g1
(g6
g7
S'100'
p465
tp466
Rp467
(dp468
g12
g444
sbsVField
p469
g1
(g6
g7
S'PORG'
p470
tp471
Rp472
(dp473
g12
g469
sbsVTerm
p474
g1
(g6
g7
S'Etelis carbunculus[PORG]'
p475
tp476
Rp477
(dp478
g12
g474
sbsVExplode
p479
g1
(g6
g7
g52
tp480
Rp481
(dp482
g12
g479
sbstp483
Rp484
(dp485
g12
VTermSet
p486
sbag1
(g2
g3
(dp487
g444
g1
(g6
g7
S'7108870'
p488
tp489
Rp490
(dp491
g12
g444
sbsg469
g1
(g6
g7
S'title'
p492
tp493
Rp494
(dp495
g12
g469
sbsg474
g1
(g6
g7
S'16S[title]'
p496
tp497
Rp498
(dp499
g12
g474
sbsg479
g1
(g6
g7
g73
tp500
Rp501
(dp502
g12
g479
sbstp503
Rp504
(dp505
g12
g486
sbag1
(g6
g7
S'AND'
p506
tp507
Rp508
(dp509
g12
VOP
p510
sbatp511
Rp512
(dp513
g12
g462
sbsVRetStart
p514
g1
(g6
g7
g89
tp515
Rp516
(dp517
g12
g514
sbsVTranslationSet
p518
g1
(g18
g19
(lp519
tp520
Rp521
(dp522
g12
g518
sbstp523
Rp524
(dp525
g12
VeSearchResult
p526
sbag1
(g2
g3
(dp527
VCount
p528
g1
(g6
g7
g89
tp529
Rp530
(dp531
g12
g528
sbsVRetMax
p532
g1
(g6
g7
g89
tp533
Rp534
(dp535
g12
g532
sbsVIdList
p536
g1
(g18
g19
(lp537
tp538
Rp539
(dp540
g12
g536
sbsVQueryTranslation
p541
g1
(g6
g7
S'Etelis coruscans[PORG] AND 16S[title]'
p542
tp543
Rp544
(dp545
g12
g541
sbsVTranslationStack
p546
g1
(g18
g19
(lp547
g1
(g2
g3
(dp548
g528
g1
(g6
g7
S'138'
p549
tp550
Rp551
(dp552
g12
g528
sbsVField
p553
g1
(g6
g7
S'PORG'
p554
tp555
Rp556
(dp557
g12
g553
sbsVTerm
p558
g1
(g6
g7
S'Etelis coruscans[PORG]'
p559
tp560
Rp561
(dp562
g12
g558
sbsVExplode
p563
g1
(g6
g7
g52
tp564
Rp565
(dp566
g12
g563
sbstp567
Rp568
(dp569
g12
VTermSet
p570
sbag1
(g2
g3
(dp571
g528
g1
(g6
g7
S'7108870'
p572
tp573
Rp574
(dp575
g12
g528
sbsg553
g1
(g6
g7
S'title'
p576
tp577
Rp578
(dp579
g12
g553
sbsg558
g1
(g6
g7
S'16S[title]'
p580
tp581
Rp582
(dp583
g12
g558
sbsg563
g1
(g6
g7
g73
tp584
Rp585
(dp586
g12
g563
sbstp587
Rp588
(dp589
g12
g570
sbag1
(g6
g7
S'AND'
p590
tp591
Rp592
(dp593
g12
VOP
p594
sbatp595
Rp596
(dp597
g12
g546
sbsVRetStart
p598
g1
(g6
g7
g89
tp599
Rp600
(dp601
g12
g598
sbsVTranslationSet
p602
g1
(g18
g19
(lp603
tp604
Rp605
(dp606
g12
g602
sbstp607
Rp608
(dp609
g12
VeSearchResult
p610
sbag1
(g2
g3
(dp611
VCount
p612
g1
(g6
g7
g89
tp613
Rp614
(dp615
g12
g612
sbsVRetMax
p616
g1
(g6
g7
g89
tp617
Rp618
(dp619
g12
g616
sbsVIdList
p620
g1
(g18
g19
(lp621
tp622
Rp623
(dp624
g12
g620
sbsVQueryTranslation
p625
g1
(g6
g7
S'Etelis oculatus[PORG] AND 16S[title]'
p626
tp627
Rp628
(dp629
g12
g625
sbsVTranslationStack
p630
g1
(g18
g19
(lp631
g1
(g2
g3
(dp632
g612
g1
(g6
g7
S'34'
p633
tp634
Rp635
(dp636
g12
g612
sbsVField
p637
g1
(g6
g7
S'PORG'
p638
tp639
Rp640
(dp641
g12
g637
sbsVTerm
p642
g1
(g6
g7
S'Etelis oculatus[PORG]'
p643
tp644
Rp645
(dp646
g12
g642
sbsVExplode
p647
g1
(g6
g7
g52
tp648
Rp649
(dp650
g12
g647
sbstp651
Rp652
(dp653
g12
VTermSet
p654
sbag1
(g2
g3
(dp655
g612
g1
(g6
g7
S'7108870'
p656
tp657
Rp658
(dp659
g12
g612
sbsg637
g1
(g6
g7
S'title'
p660
tp661
Rp662
(dp663
g12
g637
sbsg642
g1
(g6
g7
S'16S[title]'
p664
tp665
Rp666
(dp667
g12
g642
sbsg647
g1
(g6
g7
g73
tp668
Rp669
(dp670
g12
g647
sbstp671
Rp672
(dp673
g12
g654
sbag1
(g6
g7
S'AND'
p674
tp675
Rp676
(dp677
g12
VOP
p678
sbatp679
Rp680
(dp681
g12
g630
sbsVRetStart
p682
g1
(g6
g7
g89
tp683
Rp684
(dp685
g12
g682
sbsVTranslationSet
p686
g1
(g18
g19
(lp687
tp688
Rp689
(dp690
g12
g686
sbstp691
Rp692
(dp693
g12
VeSearchResult
p694
sbag1
(g2
g3
(dp695
VCount
p696
g1
(g6
g7
g89
tp697
Rp698
(dp699
g12
g696
sbsVRetMax
p700
g1
(g6
g7
g89
tp701
Rp702
(dp703
g12
g700
sbsVIdList
p704
g1
(g18
g19
(lp705
tp706
Rp707
(dp708
g12
g704
sbsVQueryTranslation
p709
g1
(g6
g7
S'Etelis radiosus[PORG] AND 16S[title]'
p710
tp711
Rp712
(dp713
g12
g709
sbsVTranslationStack
p714
g1
(g18
g19
(lp715
g1
(g2
g3
(dp716
g696
g1
(g6
g7
S'43'
p717
tp718
Rp719
(dp720
g12
g696
sbsVField
p721
g1
(g6
g7
S'PORG'
p722
tp723
Rp724
(dp725
g12
g721
sbsVTerm
p726
g1
(g6
g7
S'Etelis radiosus[PORG]'
p727
tp728
Rp729
(dp730
g12
g726
sbsVExplode
p731
g1
(g6
g7
g52
tp732
Rp733
(dp734
g12
g731
sbstp735
Rp736
(dp737
g12
VTermSet
p738
sbag1
(g2
g3
(dp739
g696
g1
(g6
g7
S'7108870'
p740
tp741
Rp742
(dp743
g12
g696
sbsg721
g1
(g6
g7
S'title'
p744
tp745
Rp746
(dp747
g12
g721
sbsg726
g1
(g6
g7
S'16S[title]'
p748
tp749
Rp750
(dp751
g12
g726
sbsg731
g1
(g6
g7
g73
tp752
Rp753
(dp754
g12
g731
sbstp755
Rp756
(dp757
g12
g738
sbag1
(g6
g7
S'AND'
p758
tp759
Rp760
(dp761
g12
VOP
p762
sbatp763
Rp764
(dp765
g12
g714
sbsVRetStart
p766
g1
(g6
g7
g89
tp767
Rp768
(dp769
g12
g766
sbsVTranslationSet
p770
g1
(g18
g19
(lp771
tp772
Rp773
(dp774
g12
g770
sbstp775
Rp776
(dp777
g12
VeSearchResult
p778
sbag1
(g2
g3
(dp779
VCount
p780
g1
(g6
g7
g89
tp781
Rp782
(dp783
g12
g780
sbsVRetMax
p784
g1
(g6
g7
g89
tp785
Rp786
(dp787
g12
g784
sbsVIdList
p788
g1
(g18
g19
(lp789
tp790
Rp791
(dp792
g12
g788
sbsVQueryTranslation
p793
g1
(g6
g7
S'Hoplopagrus guentherii[PORG] AND 16S[title]'
p794
tp795
Rp796
(dp797
g12
g793
sbsVTranslationStack
p798
g1
(g18
g19
(lp799
g1
(g2
g3
(dp800
g780
g1
(g6
g7
S'9'
p801
tp802
Rp803
(dp804
g12
g780
sbsVField
p805
g1
(g6
g7
S'PORG'
p806
tp807
Rp808
(dp809
g12
g805
sbsVTerm
p810
g1
(g6
g7
S'Hoplopagrus guentherii[PORG]'
p811
tp812
Rp813
(dp814
g12
g810
sbsVExplode
p815
g1
(g6
g7
g52
tp816
Rp817
(dp818
g12
g815
sbstp819
Rp820
(dp821
g12
VTermSet
p822
sbag1
(g2
g3
(dp823
g780
g1
(g6
g7
S'7108870'
p824
tp825
Rp826
(dp827
g12
g780
sbsg805
g1
(g6
g7
S'title'
p828
tp829
Rp830
(dp831
g12
g805
sbsg810
g1
(g6
g7
S'16S[title]'
p832
tp833
Rp834
(dp835
g12
g810
sbsg815
g1
(g6
g7
g73
tp836
Rp837
(dp838
g12
g815
sbstp839
Rp840
(dp841
g12
g822
sbag1
(g6
g7
S'AND'
p842
tp843
Rp844
(dp845
g12
VOP
p846
sbatp847
Rp848
(dp849
g12
g798
sbsVRetStart
p850
g1
(g6
g7
g89
tp851
Rp852
(dp853
g12
g850
sbsVTranslationSet
p854
g1
(g18
g19
(lp855
tp856
Rp857
(dp858
g12
g854
sbstp859
Rp860
(dp861
g12
VeSearchResult
p862
sbag1
(g2
g3
(dp863
VCount
p864
g1
(g6
g7
g89
tp865
Rp866
(dp867
g12
g864
sbsVRetMax
p868
g1
(g6
g7
g89
tp869
Rp870
(dp871
g12
g868
sbsVIdList
p872
g1
(g18
g19
(lp873
tp874
Rp875
(dp876
g12
g872
sbsVQueryTranslation
p877
g1
(g6
g7
S'Lipocheilus carnolabrum[PORG] AND 16S[title]'
p878
tp879
Rp880
(dp881
g12
g877
sbsVTranslationStack
p882
g1
(g18
g19
(lp883
g1
(g2
g3
(dp884
g864
g1
(g6
g7
g8
tp885
Rp886
(dp887
g12
g864
sbsVField
p888
g1
(g6
g7
S'PORG'
p889
tp890
Rp891
(dp892
g12
g888
sbsVTerm
p893
g1
(g6
g7
S'Lipocheilus carnolabrum[PORG]'
p894
tp895
Rp896
(dp897
g12
g893
sbsVExplode
p898
g1
(g6
g7
g52
tp899
Rp900
(dp901
g12
g898
sbstp902
Rp903
(dp904
g12
VTermSet
p905
sbag1
(g2
g3
(dp906
g864
g1
(g6
g7
S'7108870'
p907
tp908
Rp909
(dp910
g12
g864
sbsg888
g1
(g6
g7
S'title'
p911
tp912
Rp913
(dp914
g12
g888
sbsg893
g1
(g6
g7
S'16S[title]'
p915
tp916
Rp917
(dp918
g12
g893
sbsg898
g1
(g6
g7
g73
tp919
Rp920
(dp921
g12
g898
sbstp922
Rp923
(dp924
g12
g905
sbag1
(g6
g7
S'AND'
p925
tp926
Rp927
(dp928
g12
VOP
p929
sbatp930
Rp931
(dp932
g12
g882
sbsVRetStart
p933
g1
(g6
g7
g89
tp934
Rp935
(dp936
g12
g933
sbsVTranslationSet
p937
g1
(g18
g19
(lp938
tp939
Rp940
(dp941
g12
g937
sbstp942
Rp943
(dp944
g12
VeSearchResult
p945
sbag1
(g2
g3
(dp946
VCount
p947
g1
(g6
g7
g8
tp948
Rp949
(dp950
g12
g947
sbsVRetMax
p951
g1
(g6
g7
g8
tp952
Rp953
(dp954
g12
g951
sbsVIdList
p955
g1
(g18
g19
(lp956
g1
(g6
g7
S'111038369'
p957
tp958
Rp959
(dp960
g12
VId
p961
sbatp962
Rp963
(dp964
g12
g955
sbsVQueryTranslation
p965
g1
(g6
g7
S'Lutjanus adetii[PORG] AND 16S[title]'
p966
tp967
Rp968
(dp969
g12
g965
sbsVTranslationStack
p970
g1
(g18
g19
(lp971
g1
(g2
g3
(dp972
g947
g1
(g6
g7
S'4'
p973
tp974
Rp975
(dp976
g12
g947
sbsVField
p977
g1
(g6
g7
S'PORG'
p978
tp979
Rp980
(dp981
g12
g977
sbsVTerm
p982
g1
(g6
g7
S'Lutjanus adetii[PORG]'
p983
tp984
Rp985
(dp986
g12
g982
sbsVExplode
p987
g1
(g6
g7
g52
tp988
Rp989
(dp990
g12
g987
sbstp991
Rp992
(dp993
g12
VTermSet
p994
sbag1
(g2
g3
(dp995
g947
g1
(g6
g7
S'7108870'
p996
tp997
Rp998
(dp999
g12
g947
sbsg977
g1
(g6
g7
S'title'
p1000
tp1001
Rp1002
(dp1003
g12
g977
sbsg982
g1
(g6
g7
S'16S[title]'
p1004
tp1005
Rp1006
(dp1007
g12
g982
sbsg987
g1
(g6
g7
g73
tp1008
Rp1009
(dp1010
g12
g987
sbstp1011
Rp1012
(dp1013
g12
g994
sbag1
(g6
g7
S'AND'
p1014
tp1015
Rp1016
(dp1017
g12
VOP
p1018
sbatp1019
Rp1020
(dp1021
g12
g970
sbsVRetStart
p1022
g1
(g6
g7
g89
tp1023
Rp1024
(dp1025
g12
g1022
sbsVTranslationSet
p1026
g1
(g18
g19
(lp1027
tp1028
Rp1029
(dp1030
g12
g1026
sbstp1031
Rp1032
(dp1033
g12
VeSearchResult
p1034
sbag1
(g2
g3
(dp1035
VCount
p1036
g1
(g6
g7
g89
tp1037
Rp1038
(dp1039
g12
g1036
sbsVRetMax
p1040
g1
(g6
g7
g89
tp1041
Rp1042
(dp1043
g12
g1040
sbsVIdList
p1044
g1
(g18
g19
(lp1045
tp1046
Rp1047
(dp1048
g12
g1044
sbsVRetStart
p1049
g1
(g6
g7
g89
tp1050
Rp1051
(dp1052
g12
g1049
sbsVErrorList
p1053
g1
(cBio.Entrez.Parser
StructureElement
p1054
g3
(dp1055
VFieldNotFound
p1056
(lp1057
sVPhraseNotFound
p1058
(lp1059
g1
(g6
g7
S'Lutjanus agennes[PORG]'
p1060
tp1061
Rp1062
(dp1063
g12
VPhraseNotFound
p1064
sbastp1065
Rp1066
(dp1067
g12
g1053
sS'listkeys'
p1068
(lp1069
g1058
ag1056
asbsVTranslationSet
p1070
g1
(g18
g19
(lp1071
tp1072
Rp1073
(dp1074
g12
g1070
sbsVWarningList
p1075
g1
(g1054
g3
(dp1076
VOutputMessage
p1077
(lp1078
g1
(g6
g7
S'No items found.'
p1079
tp1080
Rp1081
(dp1082
g12
VOutputMessage
p1083
sbasVPhraseIgnored
p1084
(lp1085
sVQuotedPhraseNotFound
p1086
(lp1087
stp1088
Rp1089
(dp1090
g12
g1075
sg1068
(lp1091
g1084
ag1086
ag1077
asbsVQueryTranslation
p1092
g1
(g6
g7
S'Lutjanus agennes[PORG] AND 16S[title]'
p1093
tp1094
Rp1095
(dp1096
g12
g1092
sbstp1097
Rp1098
(dp1099
g12
VeSearchResult
p1100
sbag1
(g2
g3
(dp1101
VCount
p1102
g1
(g6
g7
g89
tp1103
Rp1104
(dp1105
g12
g1102
sbsVRetMax
p1106
g1
(g6
g7
g89
tp1107
Rp1108
(dp1109
g12
g1106
sbsVIdList
p1110
g1
(g18
g19
(lp1111
tp1112
Rp1113
(dp1114
g12
g1110
sbsVRetStart
p1115
g1
(g6
g7
g89
tp1116
Rp1117
(dp1118
g12
g1115
sbsVErrorList
p1119
g1
(g1054
g3
(dp1120
VFieldNotFound
p1121
(lp1122
sVPhraseNotFound
p1123
(lp1124
g1
(g6
g7
S'Lutjanus alexandrei[PORG]'
p1125
tp1126
Rp1127
(dp1128
g12
VPhraseNotFound
p1129
sbastp1130
Rp1131
(dp1132
g12
g1119
sg1068
(lp1133
g1123
ag1121
asbsVTranslationSet
p1134
g1
(g18
g19
(lp1135
tp1136
Rp1137
(dp1138
g12
g1134
sbsVWarningList
p1139
g1
(g1054
g3
(dp1140
VOutputMessage
p1141
(lp1142
g1
(g6
g7
S'No items found.'
p1143
tp1144
Rp1145
(dp1146
g12
VOutputMessage
p1147
sbasVPhraseIgnored
p1148
(lp1149
sVQuotedPhraseNotFound
p1150
(lp1151
stp1152
Rp1153
(dp1154
g12
g1139
sg1068
(lp1155
g1148
ag1150
ag1141
asbsVQueryTranslation
p1156
g1
(g6
g7
S'Lutjanus alexandrei[PORG] AND 16S[title]'
p1157
tp1158
Rp1159
(dp1160
g12
g1156
sbstp1161
Rp1162
(dp1163
g12
VeSearchResult
p1164
sbag1
(g2
g3
(dp1165
VCount
p1166
g1
(g6
g7
g89
tp1167
Rp1168
(dp1169
g12
g1166
sbsVRetMax
p1170
g1
(g6
g7
g89
tp1171
Rp1172
(dp1173
g12
g1170
sbsVIdList
p1174
g1
(g18
g19
(lp1175
tp1176
Rp1177
(dp1178
g12
g1174
sbsVRetStart
p1179
g1
(g6
g7
g89
tp1180
Rp1181
(dp1182
g12
g1179
sbsVErrorList
p1183
g1
(g1054
g3
(dp1184
VFieldNotFound
p1185
(lp1186
sVPhraseNotFound
p1187
(lp1188
g1
(g6
g7
S'Lutjanus ambiguus[PORG]'
p1189
tp1190
Rp1191
(dp1192
g12
VPhraseNotFound
p1193
sbastp1194
Rp1195
(dp1196
g12
g1183
sg1068
(lp1197
g1187
ag1185
asbsVTranslationSet
p1198
g1
(g18
g19
(lp1199
tp1200
Rp1201
(dp1202
g12
g1198
sbsVWarningList
p1203
g1
(g1054
g3
(dp1204
VOutputMessage
p1205
(lp1206
g1
(g6
g7
S'No items found.'
p1207
tp1208
Rp1209
(dp1210
g12
VOutputMessage
p1211
sbasVPhraseIgnored
p1212
(lp1213
sVQuotedPhraseNotFound
p1214
(lp1215
stp1216
Rp1217
(dp1218
g12
g1203
sg1068
(lp1219
g1212
ag1214
ag1205
asbsVQueryTranslation
p1220
g1
(g6
g7
S'Lutjanus ambiguus[PORG] AND 16S[title]'
p1221
tp1222
Rp1223
(dp1224
g12
g1220
sbstp1225
Rp1226
(dp1227
g12
VeSearchResult
p1228
sbag1
(g2
g3
(dp1229
VCount
p1230
g1
(g6
g7
S'2'
p1231
tp1232
Rp1233
(dp1234
g12
g1230
sbsVRetMax
p1235
g1
(g6
g7
g1231
tp1236
Rp1237
(dp1238
g12
g1235
sbsVIdList
p1239
g1
(g18
g19
(lp1240
g1
(g6
g7
S'140288580'
p1241
tp1242
Rp1243
(dp1244
g12
VId
p1245
sbag1
(g6
g7
S'113203267'
p1246
tp1247
Rp1248
(dp1249
g12
g1245
sbatp1250
Rp1251
(dp1252
g12
g1239
sbsVQueryTranslation
p1253
g1
(g6
g7
S'Lutjanus analis[PORG] AND 16S[title]'
p1254
tp1255
Rp1256
(dp1257
g12
g1253
sbsVTranslationStack
p1258
g1
(g18
g19
(lp1259
g1
(g2
g3
(dp1260
g1230
g1
(g6
g7
S'175'
p1261
tp1262
Rp1263
(dp1264
g12
g1230
sbsVField
p1265
g1
(g6
g7
S'PORG'
p1266
tp1267
Rp1268
(dp1269
g12
g1265
sbsVTerm
p1270
g1
(g6
g7
S'Lutjanus analis[PORG]'
p1271
tp1272
Rp1273
(dp1274
g12
g1270
sbsVExplode
p1275
g1
(g6
g7
g52
tp1276
Rp1277
(dp1278
g12
g1275
sbstp1279
Rp1280
(dp1281
g12
VTermSet
p1282
sbag1
(g2
g3
(dp1283
g1230
g1
(g6
g7
S'7108870'
p1284
tp1285
Rp1286
(dp1287
g12
g1230
sbsg1265
g1
(g6
g7
S'title'
p1288
tp1289
Rp1290
(dp1291
g12
g1265
sbsg1270
g1
(g6
g7
S'16S[title]'
p1292
tp1293
Rp1294
(dp1295
g12
g1270
sbsg1275
g1
(g6
g7
g73
tp1296
Rp1297
(dp1298
g12
g1275
sbstp1299
Rp1300
(dp1301
g12
g1282
sbag1
(g6
g7
S'AND'
p1302
tp1303
Rp1304
(dp1305
g12
VOP
p1306
sbatp1307
Rp1308
(dp1309
g12
g1258
sbsVRetStart
p1310
g1
(g6
g7
g89
tp1311
Rp1312
(dp1313
g12
g1310
sbsVTranslationSet
p1314
g1
(g18
g19
(lp1315
tp1316
Rp1317
(dp1318
g12
g1314
sbstp1319
Rp1320
(dp1321
g12
VeSearchResult
p1322
sbag1
(g2
g3
(dp1323
VCount
p1324
g1
(g6
g7
g8
tp1325
Rp1326
(dp1327
g12
g1324
sbsVRetMax
p1328
g1
(g6
g7
g8
tp1329
Rp1330
(dp1331
g12
g1328
sbsVIdList
p1332
g1
(g18
g19
(lp1333
g1
(g6
g7
S'386372918'
p1334
tp1335
Rp1336
(dp1337
g12
VId
p1338
sbatp1339
Rp1340
(dp1341
g12
g1332
sbsVQueryTranslation
p1342
g1
(g6
g7
S'Lutjanus apodus[PORG] AND 16S[title]'
p1343
tp1344
Rp1345
(dp1346
g12
g1342
sbsVTranslationStack
p1347
g1
(g18
g19
(lp1348
g1
(g2
g3
(dp1349
g1324
g1
(g6
g7
S'68'
p1350
tp1351
Rp1352
(dp1353
g12
g1324
sbsVField
p1354
g1
(g6
g7
S'PORG'
p1355
tp1356
Rp1357
(dp1358
g12
g1354
sbsVTerm
p1359
g1
(g6
g7
S'Lutjanus apodus[PORG]'
p1360
tp1361
Rp1362
(dp1363
g12
g1359
sbsVExplode
p1364
g1
(g6
g7
g52
tp1365
Rp1366
(dp1367
g12
g1364
sbstp1368
Rp1369
(dp1370
g12
VTermSet
p1371
sbag1
(g2
g3
(dp1372
g1324
g1
(g6
g7
S'7108870'
p1373
tp1374
Rp1375
(dp1376
g12
g1324
sbsg1354
g1
(g6
g7
S'title'
p1377
tp1378
Rp1379
(dp1380
g12
g1354
sbsg1359
g1
(g6
g7
S'16S[title]'
p1381
tp1382
Rp1383
(dp1384
g12
g1359
sbsg1364
g1
(g6
g7
g73
tp1385
Rp1386
(dp1387
g12
g1364
sbstp1388
Rp1389
(dp1390
g12
g1371
sbag1
(g6
g7
S'AND'
p1391
tp1392
Rp1393
(dp1394
g12
VOP
p1395
sbatp1396
Rp1397
(dp1398
g12
g1347
sbsVRetStart
p1399
g1
(g6
g7
g89
tp1400
Rp1401
(dp1402
g12
g1399
sbsVTranslationSet
p1403
g1
(g18
g19
(lp1404
tp1405
Rp1406
(dp1407
g12
g1403
sbstp1408
Rp1409
(dp1410
g12
VeSearchResult
p1411
sbag1
(g2
g3
(dp1412
VCount
p1413
g1
(g6
g7
g89
tp1414
Rp1415
(dp1416
g12
g1413
sbsVRetMax
p1417
g1
(g6
g7
g89
tp1418
Rp1419
(dp1420
g12
g1417
sbsVIdList
p1421
g1
(g18
g19
(lp1422
tp1423
Rp1424
(dp1425
g12
g1421
sbsVQueryTranslation
p1426
g1
(g6
g7
S'Lutjanus aratus[PORG] AND 16S[title]'
p1427
tp1428
Rp1429
(dp1430
g12
g1426
sbsVTranslationStack
p1431
g1
(g18
g19
(lp1432
g1
(g2
g3
(dp1433
g1413
g1
(g6
g7
g801
tp1434
Rp1435
(dp1436
g12
g1413
sbsVField
p1437
g1
(g6
g7
S'PORG'
p1438
tp1439
Rp1440
(dp1441
g12
g1437
sbsVTerm
p1442
g1
(g6
g7
S'Lutjanus aratus[PORG]'
p1443
tp1444
Rp1445
(dp1446
g12
g1442
sbsVExplode
p1447
g1
(g6
g7
g52
tp1448
Rp1449
(dp1450
g12
g1447
sbstp1451
Rp1452
(dp1453
g12
VTermSet
p1454
sbag1
(g2
g3
(dp1455
g1413
g1
(g6
g7
S'7108870'
p1456
tp1457
Rp1458
(dp1459
g12
g1413
sbsg1437
g1
(g6
g7
S'title'
p1460
tp1461
Rp1462
(dp1463
g12
g1437
sbsg1442
g1
(g6
g7
S'16S[title]'
p1464
tp1465
Rp1466
(dp1467
g12
g1442
sbsg1447
g1
(g6
g7
g73
tp1468
Rp1469
(dp1470
g12
g1447
sbstp1471
Rp1472
(dp1473
g12
g1454
sbag1
(g6
g7
S'AND'
p1474
tp1475
Rp1476
(dp1477
g12
VOP
p1478
sbatp1479
Rp1480
(dp1481
g12
g1431
sbsVRetStart
p1482
g1
(g6
g7
g89
tp1483
Rp1484
(dp1485
g12
g1482
sbsVTranslationSet
p1486
g1
(g18
g19
(lp1487
tp1488
Rp1489
(dp1490
g12
g1486
sbstp1491
Rp1492
(dp1493
g12
VeSearchResult
p1494
sbag1
(g2
g3
(dp1495
VCount
p1496
g1
(g6
g7
g381
tp1497
Rp1498
(dp1499
g12
g1496
sbsVRetMax
p1500
g1
(g6
g7
g381
tp1501
Rp1502
(dp1503
g12
g1500
sbsVIdList
p1504
g1
(g18
g19
(lp1505
g1
(g6
g7
S'111038370'
p1506
tp1507
Rp1508
(dp1509
g12
VId
p1510
sbag1
(g6
g7
S'91680922'
p1511
tp1512
Rp1513
(dp1514
g12
g1510
sbag1
(g6
g7
S'31559042'
p1515
tp1516
Rp1517
(dp1518
g12
g1510
sbatp1519
Rp1520
(dp1521
g12
g1504
sbsVQueryTranslation
p1522
g1
(g6
g7
S'Lutjanus argentimaculatus[PORG] AND 16S[title]'
p1523
tp1524
Rp1525
(dp1526
g12
g1522
sbsVTranslationStack
p1527
g1
(g18
g19
(lp1528
g1
(g2
g3
(dp1529
g1496
g1
(g6
g7
S'177'
p1530
tp1531
Rp1532
(dp1533
g12
g1496
sbsVField
p1534
g1
(g6
g7
S'PORG'
p1535
tp1536
Rp1537
(dp1538
g12
g1534
sbsVTerm
p1539
g1
(g6
g7
S'Lutjanus argentimaculatus[PORG]'
p1540
tp1541
Rp1542
(dp1543
g12
g1539
sbsVExplode
p1544
g1
(g6
g7
g52
tp1545
Rp1546
(dp1547
g12
g1544
sbstp1548
Rp1549
(dp1550
g12
VTermSet
p1551
sbag1
(g2
g3
(dp1552
g1496
g1
(g6
g7
S'7108870'
p1553
tp1554
Rp1555
(dp1556
g12
g1496
sbsg1534
g1
(g6
g7
S'title'
p1557
tp1558
Rp1559
(dp1560
g12
g1534
sbsg1539
g1
(g6
g7
S'16S[title]'
p1561
tp1562
Rp1563
(dp1564
g12
g1539
sbsg1544
g1
(g6
g7
g73
tp1565
Rp1566
(dp1567
g12
g1544
sbstp1568
Rp1569
(dp1570
g12
g1551
sbag1
(g6
g7
S'AND'
p1571
tp1572
Rp1573
(dp1574
g12
VOP
p1575
sbatp1576
Rp1577
(dp1578
g12
g1527
sbsVRetStart
p1579
g1
(g6
g7
g89
tp1580
Rp1581
(dp1582
g12
g1579
sbsVTranslationSet
p1583
g1
(g18
g19
(lp1584
tp1585
Rp1586
(dp1587
g12
g1583
sbstp1588
Rp1589
(dp1590
g12
VeSearchResult
p1591
sbag1
(g2
g3
(dp1592
VCount
p1593
g1
(g6
g7
g8
tp1594
Rp1595
(dp1596
g12
g1593
sbsVRetMax
p1597
g1
(g6
g7
g8
tp1598
Rp1599
(dp1600
g12
g1597
sbsVIdList
p1601
g1
(g18
g19
(lp1602
g1
(g6
g7
S'61678381'
p1603
tp1604
Rp1605
(dp1606
g12
VId
p1607
sbatp1608
Rp1609
(dp1610
g12
g1601
sbsVQueryTranslation
p1611
g1
(g6
g7
S'Lutjanus argentiventris[PORG] AND 16S[title]'
p1612
tp1613
Rp1614
(dp1615
g12
g1611
sbsVTranslationStack
p1616
g1
(g18
g19
(lp1617
g1
(g2
g3
(dp1618
g1593
g1
(g6
g7
S'27'
p1619
tp1620
Rp1621
(dp1622
g12
g1593
sbsVField
p1623
g1
(g6
g7
S'PORG'
p1624
tp1625
Rp1626
(dp1627
g12
g1623
sbsVTerm
p1628
g1
(g6
g7
S'Lutjanus argentiventris[PORG]'
p1629
tp1630
Rp1631
(dp1632
g12
g1628
sbsVExplode
p1633
g1
(g6
g7
g52
tp1634
Rp1635
(dp1636
g12
g1633
sbstp1637
Rp1638
(dp1639
g12
VTermSet
p1640
sbag1
(g2
g3
(dp1641
g1593
g1
(g6
g7
S'7108870'
p1642
tp1643
Rp1644
(dp1645
g12
g1593
sbsg1623
g1
(g6
g7
S'title'
p1646
tp1647
Rp1648
(dp1649
g12
g1623
sbsg1628
g1
(g6
g7
S'16S[title]'
p1650
tp1651
Rp1652
(dp1653
g12
g1628
sbsg1633
g1
(g6
g7
g73
tp1654
Rp1655
(dp1656
g12
g1633
sbstp1657
Rp1658
(dp1659
g12
g1640
sbag1
(g6
g7
S'AND'
p1660
tp1661
Rp1662
(dp1663
g12
VOP
p1664
sbatp1665
Rp1666
(dp1667
g12
g1616
sbsVRetStart
p1668
g1
(g6
g7
g89
tp1669
Rp1670
(dp1671
g12
g1668
sbsVTranslationSet
p1672
g1
(g18
g19
(lp1673
tp1674
Rp1675
(dp1676
g12
g1672
sbstp1677
Rp1678
(dp1679
g12
VeSearchResult
p1680
sbag1
(g2
g3
(dp1681
VCount
p1682
g1
(g6
g7
g89
tp1683
Rp1684
(dp1685
g12
g1682
sbsVRetMax
p1686
g1
(g6
g7
g89
tp1687
Rp1688
(dp1689
g12
g1686
sbsVIdList
p1690
g1
(g18
g19
(lp1691
tp1692
Rp1693
(dp1694
g12
g1690
sbsVQueryTranslation
p1695
g1
(g6
g7
S'Lutjanus bengalensis[PORG] AND 16S[title]'
p1696
tp1697
Rp1698
(dp1699
g12
g1695
sbsVTranslationStack
p1700
g1
(g18
g19
(lp1701
g1
(g2
g3
(dp1702
g1682
g1
(g6
g7
S'33'
p1703
tp1704
Rp1705
(dp1706
g12
g1682
sbsVField
p1707
g1
(g6
g7
S'PORG'
p1708
tp1709
Rp1710
(dp1711
g12
g1707
sbsVTerm
p1712
g1
(g6
g7
S'Lutjanus bengalensis[PORG]'
p1713
tp1714
Rp1715
(dp1716
g12
g1712
sbsVExplode
p1717
g1
(g6
g7
g52
tp1718
Rp1719
(dp1720
g12
g1717
sbstp1721
Rp1722
(dp1723
g12
VTermSet
p1724
sbag1
(g2
g3
(dp1725
g1682
g1
(g6
g7
S'7108870'
p1726
tp1727
Rp1728
(dp1729
g12
g1682
sbsg1707
g1
(g6
g7
S'title'
p1730
tp1731
Rp1732
(dp1733
g12
g1707
sbsg1712
g1
(g6
g7
S'16S[title]'
p1734
tp1735
Rp1736
(dp1737
g12
g1712
sbsg1717
g1
(g6
g7
g73
tp1738
Rp1739
(dp1740
g12
g1717
sbstp1741
Rp1742
(dp1743
g12
g1724
sbag1
(g6
g7
S'AND'
p1744
tp1745
Rp1746
(dp1747
g12
VOP
p1748
sbatp1749
Rp1750
(dp1751
g12
g1700
sbsVRetStart
p1752
g1
(g6
g7
g89
tp1753
Rp1754
(dp1755
g12
g1752
sbsVTranslationSet
p1756
g1
(g18
g19
(lp1757
tp1758
Rp1759
(dp1760
g12
g1756
sbstp1761
Rp1762
(dp1763
g12
VeSearchResult
p1764
sbag1
(g2
g3
(dp1765
VCount
p1766
g1
(g6
g7
g89
tp1767
Rp1768
(dp1769
g12
g1766
sbsVRetMax
p1770
g1
(g6
g7
g89
tp1771
Rp1772
(dp1773
g12
g1770
sbsVIdList
p1774
g1
(g18
g19
(lp1775
tp1776
Rp1777
(dp1778
g12
g1774
sbsVQueryTranslation
p1779
g1
(g6
g7
S'Lutjanus biguttatus[PORG] AND 16S[title]'
p1780
tp1781
Rp1782
(dp1783
g12
g1779
sbsVTranslationStack
p1784
g1
(g18
g19
(lp1785
g1
(g2
g3
(dp1786
g1766
g1
(g6
g7
S'16'
p1787
tp1788
Rp1789
(dp1790
g12
g1766
sbsVField
p1791
g1
(g6
g7
S'PORG'
p1792
tp1793
Rp1794
(dp1795
g12
g1791
sbsVTerm
p1796
g1
(g6
g7
S'Lutjanus biguttatus[PORG]'
p1797
tp1798
Rp1799
(dp1800
g12
g1796
sbsVExplode
p1801
g1
(g6
g7
g52
tp1802
Rp1803
(dp1804
g12
g1801
sbstp1805
Rp1806
(dp1807
g12
VTermSet
p1808
sbag1
(g2
g3
(dp1809
g1766
g1
(g6
g7
S'7108870'
p1810
tp1811
Rp1812
(dp1813
g12
g1766
sbsg1791
g1
(g6
g7
S'title'
p1814
tp1815
Rp1816
(dp1817
g12
g1791
sbsg1796
g1
(g6
g7
S'16S[title]'
p1818
tp1819
Rp1820
(dp1821
g12
g1796
sbsg1801
g1
(g6
g7
g73
tp1822
Rp1823
(dp1824
g12
g1801
sbstp1825
Rp1826
(dp1827
g12
g1808
sbag1
(g6
g7
S'AND'
p1828
tp1829
Rp1830
(dp1831
g12
VOP
p1832
sbatp1833
Rp1834
(dp1835
g12
g1784
sbsVRetStart
p1836
g1
(g6
g7
g89
tp1837
Rp1838
(dp1839
g12
g1836
sbsVTranslationSet
p1840
g1
(g18
g19
(lp1841
tp1842
Rp1843
(dp1844
g12
g1840
sbstp1845
Rp1846
(dp1847
g12
VeSearchResult
p1848
sbag1
(g2
g3
(dp1849
VCount
p1850
g1
(g6
g7
g89
tp1851
Rp1852
(dp1853
g12
g1850
sbsVRetMax
p1854
g1
(g6
g7
g89
tp1855
Rp1856
(dp1857
g12
g1854
sbsVIdList
p1858
g1
(g18
g19
(lp1859
tp1860
Rp1861
(dp1862
g12
g1858
sbsVQueryTranslation
p1863
g1
(g6
g7
S'Lutjanus bitaeniatus[PORG] AND 16S[title]'
p1864
tp1865
Rp1866
(dp1867
g12
g1863
sbsVTranslationStack
p1868
g1
(g18
g19
(lp1869
g1
(g2
g3
(dp1870
g1850
g1
(g6
g7
S'5'
p1871
tp1872
Rp1873
(dp1874
g12
g1850
sbsVField
p1875
g1
(g6
g7
S'PORG'
p1876
tp1877
Rp1878
(dp1879
g12
g1875
sbsVTerm
p1880
g1
(g6
g7
S'Lutjanus bitaeniatus[PORG]'
p1881
tp1882
Rp1883
(dp1884
g12
g1880
sbsVExplode
p1885
g1
(g6
g7
g52
tp1886
Rp1887
(dp1888
g12
g1885
sbstp1889
Rp1890
(dp1891
g12
VTermSet
p1892
sbag1
(g2
g3
(dp1893
g1850
g1
(g6
g7
S'7108870'
p1894
tp1895
Rp1896
(dp1897
g12
g1850
sbsg1875
g1
(g6
g7
S'title'
p1898
tp1899
Rp1900
(dp1901
g12
g1875
sbsg1880
g1
(g6
g7
S'16S[title]'
p1902
tp1903
Rp1904
(dp1905
g12
g1880
sbsg1885
g1
(g6
g7
g73
tp1906
Rp1907
(dp1908
g12
g1885
sbstp1909
Rp1910
(dp1911
g12
g1892
sbag1
(g6
g7
S'AND'
p1912
tp1913
Rp1914
(dp1915
g12
VOP
p1916
sbatp1917
Rp1918
(dp1919
g12
g1868
sbsVRetStart
p1920
g1
(g6
g7
g89
tp1921
Rp1922
(dp1923
g12
g1920
sbsVTranslationSet
p1924
g1
(g18
g19
(lp1925
tp1926
Rp1927
(dp1928
g12
g1924
sbstp1929
Rp1930
(dp1931
g12
VeSearchResult
p1932
sbag1
(g2
g3
(dp1933
VCount
p1934
g1
(g6
g7
g8
tp1935
Rp1936
(dp1937
g12
g1934
sbsVRetMax
p1938
g1
(g6
g7
g8
tp1939
Rp1940
(dp1941
g12
g1938
sbsVIdList
p1942
g1
(g18
g19
(lp1943
g1
(g6
g7
S'111038371'
p1944
tp1945
Rp1946
(dp1947
g12
VId
p1948
sbatp1949
Rp1950
(dp1951
g12
g1942
sbsVQueryTranslation
p1952
g1
(g6
g7
S'Lutjanus bohar[PORG] AND 16S[title]'
p1953
tp1954
Rp1955
(dp1956
g12
g1952
sbsVTranslationStack
p1957
g1
(g18
g19
(lp1958
g1
(g2
g3
(dp1959
g1934
g1
(g6
g7
S'17'
p1960
tp1961
Rp1962
(dp1963
g12
g1934
sbsVField
p1964
g1
(g6
g7
S'PORG'
p1965
tp1966
Rp1967
(dp1968
g12
g1964
sbsVTerm
p1969
g1
(g6
g7
S'Lutjanus bohar[PORG]'
p1970
tp1971
Rp1972
(dp1973
g12
g1969
sbsVExplode
p1974
g1
(g6
g7
g52
tp1975
Rp1976
(dp1977
g12
g1974
sbstp1978
Rp1979
(dp1980
g12
VTermSet
p1981
sbag1
(g2
g3
(dp1982
g1934
g1
(g6
g7
S'7108870'
p1983
tp1984
Rp1985
(dp1986
g12
g1934
sbsg1964
g1
(g6
g7
S'title'
p1987
tp1988
Rp1989
(dp1990
g12
g1964
sbsg1969
g1
(g6
g7
S'16S[title]'
p1991
tp1992
Rp1993
(dp1994
g12
g1969
sbsg1974
g1
(g6
g7
g73
tp1995
Rp1996
(dp1997
g12
g1974
sbstp1998
Rp1999
(dp2000
g12
g1981
sbag1
(g6
g7
S'AND'
p2001
tp2002
Rp2003
(dp2004
g12
VOP
p2005
sbatp2006
Rp2007
(dp2008
g12
g1957
sbsVRetStart
p2009
g1
(g6
g7
g89
tp2010
Rp2011
(dp2012
g12
g2009
sbsVTranslationSet
p2013
g1
(g18
g19
(lp2014
tp2015
Rp2016
(dp2017
g12
g2013
sbstp2018
Rp2019
(dp2020
g12
VeSearchResult
p2021
sbag1
(g2
g3
(dp2022
VCount
p2023
g1
(g6
g7
g89
tp2024
Rp2025
(dp2026
g12
g2023
sbsVRetMax
p2027
g1
(g6
g7
g89
tp2028
Rp2029
(dp2030
g12
g2027
sbsVIdList
p2031
g1
(g18
g19
(lp2032
tp2033
Rp2034
(dp2035
g12
g2031
sbsVQueryTranslation
p2036
g1
(g6
g7
S'Lutjanus boutton[PORG] AND 16S[title]'
p2037
tp2038
Rp2039
(dp2040
g12
g2036
sbsVTranslationStack
p2041
g1
(g18
g19
(lp2042
g1
(g2
g3
(dp2043
g2023
g1
(g6
g7
g8
tp2044
Rp2045
(dp2046
g12
g2023
sbsVField
p2047
g1
(g6
g7
S'PORG'
p2048
tp2049
Rp2050
(dp2051
g12
g2047
sbsVTerm
p2052
g1
(g6
g7
S'Lutjanus boutton[PORG]'
p2053
tp2054
Rp2055
(dp2056
g12
g2052
sbsVExplode
p2057
g1
(g6
g7
g52
tp2058
Rp2059
(dp2060
g12
g2057
sbstp2061
Rp2062
(dp2063
g12
VTermSet
p2064
sbag1
(g2
g3
(dp2065
g2023
g1
(g6
g7
S'7108870'
p2066
tp2067
Rp2068
(dp2069
g12
g2023
sbsg2047
g1
(g6
g7
S'title'
p2070
tp2071
Rp2072
(dp2073
g12
g2047
sbsg2052
g1
(g6
g7
S'16S[title]'
p2074
tp2075
Rp2076
(dp2077
g12
g2052
sbsg2057
g1
(g6
g7
g73
tp2078
Rp2079
(dp2080
g12
g2057
sbstp2081
Rp2082
(dp2083
g12
g2064
sbag1
(g6
g7
S'AND'
p2084
tp2085
Rp2086
(dp2087
g12
VOP
p2088
sbatp2089
Rp2090
(dp2091
g12
g2041
sbsVRetStart
p2092
g1
(g6
g7
g89
tp2093
Rp2094
(dp2095
g12
g2092
sbsVTranslationSet
p2096
g1
(g18
g19
(lp2097
tp2098
Rp2099
(dp2100
g12
g2096
sbstp2101
Rp2102
(dp2103
g12
VeSearchResult
p2104
sbag1
(g2
g3
(dp2105
VCount
p2106
g1
(g6
g7
g89
tp2107
Rp2108
(dp2109
g12
g2106
sbsVRetMax
p2110
g1
(g6
g7
g89
tp2111
Rp2112
(dp2113
g12
g2110
sbsVIdList
p2114
g1
(g18
g19
(lp2115
tp2116
Rp2117
(dp2118
g12
g2114
sbsVQueryTranslation
p2119
g1
(g6
g7
S'Lutjanus buccanella[PORG] AND 16S[title]'
p2120
tp2121
Rp2122
(dp2123
g12
g2119
sbsVTranslationStack
p2124
g1
(g18
g19
(lp2125
g1
(g2
g3
(dp2126
g2106
g1
(g6
g7
S'18'
p2127
tp2128
Rp2129
(dp2130
g12
g2106
sbsVField
p2131
g1
(g6
g7
S'PORG'
p2132
tp2133
Rp2134
(dp2135
g12
g2131
sbsVTerm
p2136
g1
(g6
g7
S'Lutjanus buccanella[PORG]'
p2137
tp2138
Rp2139
(dp2140
g12
g2136
sbsVExplode
p2141
g1
(g6
g7
g52
tp2142
Rp2143
(dp2144
g12
g2141
sbstp2145
Rp2146
(dp2147
g12
VTermSet
p2148
sbag1
(g2
g3
(dp2149
g2106
g1
(g6
g7
S'7108870'
p2150
tp2151
Rp2152
(dp2153
g12
g2106
sbsg2131
g1
(g6
g7
S'title'
p2154
tp2155
Rp2156
(dp2157
g12
g2131
sbsg2136
g1
(g6
g7
S'16S[title]'
p2158
tp2159
Rp2160
(dp2161
g12
g2136
sbsg2141
g1
(g6
g7
g73
tp2162
Rp2163
(dp2164
g12
g2141
sbstp2165
Rp2166
(dp2167
g12
g2148
sbag1
(g6
g7
S'AND'
p2168
tp2169
Rp2170
(dp2171
g12
VOP
p2172
sbatp2173
Rp2174
(dp2175
g12
g2124
sbsVRetStart
p2176
g1
(g6
g7
g89
tp2177
Rp2178
(dp2179
g12
g2176
sbsVTranslationSet
p2180
g1
(g18
g19
(lp2181
tp2182
Rp2183
(dp2184
g12
g2180
sbstp2185
Rp2186
(dp2187
g12
VeSearchResult
p2188
sbag1
(g2
g3
(dp2189
VCount
p2190
g1
(g6
g7
g8
tp2191
Rp2192
(dp2193
g12
g2190
sbsVRetMax
p2194
g1
(g6
g7
g8
tp2195
Rp2196
(dp2197
g12
g2194
sbsVIdList
p2198
g1
(g18
g19
(lp2199
g1
(g6
g7
S'113203269'
p2200
tp2201
Rp2202
(dp2203
g12
VId
p2204
sbatp2205
Rp2206
(dp2207
g12
g2198
sbsVQueryTranslation
p2208
g1
(g6
g7
S'Lutjanus campechanus[PORG] AND 16S[title]'
p2209
tp2210
Rp2211
(dp2212
g12
g2208
sbsVTranslationStack
p2213
g1
(g18
g19
(lp2214
g1
(g2
g3
(dp2215
g2190
g1
(g6
g7
S'449'
p2216
tp2217
Rp2218
(dp2219
g12
g2190
sbsVField
p2220
g1
(g6
g7
S'PORG'
p2221
tp2222
Rp2223
(dp2224
g12
g2220
sbsVTerm
p2225
g1
(g6
g7
S'Lutjanus campechanus[PORG]'
p2226
tp2227
Rp2228
(dp2229
g12
g2225
sbsVExplode
p2230
g1
(g6
g7
g52
tp2231
Rp2232
(dp2233
g12
g2230
sbstp2234
Rp2235
(dp2236
g12
VTermSet
p2237
sbag1
(g2
g3
(dp2238
g2190
g1
(g6
g7
S'7108870'
p2239
tp2240
Rp2241
(dp2242
g12
g2190
sbsg2220
g1
(g6
g7
S'title'
p2243
tp2244
Rp2245
(dp2246
g12
g2220
sbsg2225
g1
(g6
g7
S'16S[title]'
p2247
tp2248
Rp2249
(dp2250
g12
g2225
sbsg2230
g1
(g6
g7
g73
tp2251
Rp2252
(dp2253
g12
g2230
sbstp2254
Rp2255
(dp2256
g12
g2237
sbag1
(g6
g7
S'AND'
p2257
tp2258
Rp2259
(dp2260
g12
VOP
p2261
sbatp2262
Rp2263
(dp2264
g12
g2213
sbsVRetStart
p2265
g1
(g6
g7
g89
tp2266
Rp2267
(dp2268
g12
g2265
sbsVTranslationSet
p2269
g1
(g18
g19
(lp2270
tp2271
Rp2272
(dp2273
g12
g2269
sbstp2274
Rp2275
(dp2276
g12
VeSearchResult
p2277
sbag1
(g2
g3
(dp2278
VCount
p2279
g1
(g6
g7
g8
tp2280
Rp2281
(dp2282
g12
g2279
sbsVRetMax
p2283
g1
(g6
g7
g8
tp2284
Rp2285
(dp2286
g12
g2283
sbsVIdList
p2287
g1
(g18
g19
(lp2288
g1
(g6
g7
S'111038372'
p2289
tp2290
Rp2291
(dp2292
g12
VId
p2293
sbatp2294
Rp2295
(dp2296
g12
g2287
sbsVQueryTranslation
p2297
g1
(g6
g7
S'Lutjanus carponotatus[PORG] AND 16S[title]'
p2298
tp2299
Rp2300
(dp2301
g12
g2297
sbsVTranslationStack
p2302
g1
(g18
g19
(lp2303
g1
(g2
g3
(dp2304
g2279
g1
(g6
g7
S'223'
p2305
tp2306
Rp2307
(dp2308
g12
g2279
sbsVField
p2309
g1
(g6
g7
S'PORG'
p2310
tp2311
Rp2312
(dp2313
g12
g2309
sbsVTerm
p2314
g1
(g6
g7
S'Lutjanus carponotatus[PORG]'
p2315
tp2316
Rp2317
(dp2318
g12
g2314
sbsVExplode
p2319
g1
(g6
g7
g52
tp2320
Rp2321
(dp2322
g12
g2319
sbstp2323
Rp2324
(dp2325
g12
VTermSet
p2326
sbag1
(g2
g3
(dp2327
g2279
g1
(g6
g7
S'7108870'
p2328
tp2329
Rp2330
(dp2331
g12
g2279
sbsg2309
g1
(g6
g7
S'title'
p2332
tp2333
Rp2334
(dp2335
g12
g2309
sbsg2314
g1
(g6
g7
S'16S[title]'
p2336
tp2337
Rp2338
(dp2339
g12
g2314
sbsg2319
g1
(g6
g7
g73
tp2340
Rp2341
(dp2342
g12
g2319
sbstp2343
Rp2344
(dp2345
g12
g2326
sbag1
(g6
g7
S'AND'
p2346
tp2347
Rp2348
(dp2349
g12
VOP
p2350
sbatp2351
Rp2352
(dp2353
g12
g2302
sbsVRetStart
p2354
g1
(g6
g7
g89
tp2355
Rp2356
(dp2357
g12
g2354
sbsVTranslationSet
p2358
g1
(g18
g19
(lp2359
tp2360
Rp2361
(dp2362
g12
g2358
sbstp2363
Rp2364
(dp2365
g12
VeSearchResult
p2366
sbag1
(g2
g3
(dp2367
VCount
p2368
g1
(g6
g7
g89
tp2369
Rp2370
(dp2371
g12
g2368
sbsVRetMax
p2372
g1
(g6
g7
g89
tp2373
Rp2374
(dp2375
g12
g2372
sbsVIdList
p2376
g1
(g18
g19
(lp2377
tp2378
Rp2379
(dp2380
g12
g2376
sbsVRetStart
p2381
g1
(g6
g7
g89
tp2382
Rp2383
(dp2384
g12
g2381
sbsVErrorList
p2385
g1
(g1054
g3
(dp2386
VFieldNotFound
p2387
(lp2388
sVPhraseNotFound
p2389
(lp2390
g1
(g6
g7
S'Lutjanus coeruleolineatus[PORG]'
p2391
tp2392
Rp2393
(dp2394
g12
VPhraseNotFound
p2395
sbastp2396
Rp2397
(dp2398
g12
g2385
sg1068
(lp2399
g2389
ag2387
asbsVTranslationSet
p2400
g1
(g18
g19
(lp2401
tp2402
Rp2403
(dp2404
g12
g2400
sbsVWarningList
p2405
g1
(g1054
g3
(dp2406
VOutputMessage
p2407
(lp2408
g1
(g6
g7
S'No items found.'
p2409
tp2410
Rp2411
(dp2412
g12
VOutputMessage
p2413
sbasVPhraseIgnored
p2414
(lp2415
sVQuotedPhraseNotFound
p2416
(lp2417
stp2418
Rp2419
(dp2420
g12
g2405
sg1068
(lp2421
g2414
ag2416
ag2407
asbsVQueryTranslation
p2422
g1
(g6
g7
S'Lutjanus coeruleolineatus[PORG] AND 16S[title]'
p2423
tp2424
Rp2425
(dp2426
g12
g2422
sbstp2427
Rp2428
(dp2429
g12
VeSearchResult
p2430
sbag1
(g2
g3
(dp2431
VCount
p2432
g1
(g6
g7
g8
tp2433
Rp2434
(dp2435
g12
g2432
sbsVRetMax
p2436
g1
(g6
g7
g8
tp2437
Rp2438
(dp2439
g12
g2436
sbsVIdList
p2440
g1
(g18
g19
(lp2441
g1
(g6
g7
S'307147651'
p2442
tp2443
Rp2444
(dp2445
g12
VId
p2446
sbatp2447
Rp2448
(dp2449
g12
g2440
sbsVQueryTranslation
p2450
g1
(g6
g7
S'Lutjanus colorado[PORG] AND 16S[title]'
p2451
tp2452
Rp2453
(dp2454
g12
g2450
sbsVTranslationStack
p2455
g1
(g18
g19
(lp2456
g1
(g2
g3
(dp2457
g2432
g1
(g6
g7
S'8'
p2458
tp2459
Rp2460
(dp2461
g12
g2432
sbsVField
p2462
g1
(g6
g7
S'PORG'
p2463
tp2464
Rp2465
(dp2466
g12
g2462
sbsVTerm
p2467
g1
(g6
g7
S'Lutjanus colorado[PORG]'
p2468
tp2469
Rp2470
(dp2471
g12
g2467
sbsVExplode
p2472
g1
(g6
g7
g52
tp2473
Rp2474
(dp2475
g12
g2472
sbstp2476
Rp2477
(dp2478
g12
VTermSet
p2479
sbag1
(g2
g3
(dp2480
g2432
g1
(g6
g7
S'7108870'
p2481
tp2482
Rp2483
(dp2484
g12
g2432
sbsg2462
g1
(g6
g7
S'title'
p2485
tp2486
Rp2487
(dp2488
g12
g2462
sbsg2467
g1
(g6
g7
S'16S[title]'
p2489
tp2490
Rp2491
(dp2492
g12
g2467
sbsg2472
g1
(g6
g7
g73
tp2493
Rp2494
(dp2495
g12
g2472
sbstp2496
Rp2497
(dp2498
g12
g2479
sbag1
(g6
g7
S'AND'
p2499
tp2500
Rp2501
(dp2502
g12
VOP
p2503
sbatp2504
Rp2505
(dp2506
g12
g2455
sbsVRetStart
p2507
g1
(g6
g7
g89
tp2508
Rp2509
(dp2510
g12
g2507
sbsVTranslationSet
p2511
g1
(g18
g19
(lp2512
tp2513
Rp2514
(dp2515
g12
g2511
sbstp2516
Rp2517
(dp2518
g12
VeSearchResult
p2519
sbag1
(g2
g3
(dp2520
VCount
p2521
g1
(g6
g7
g89
tp2522
Rp2523
(dp2524
g12
g2521
sbsVRetMax
p2525
g1
(g6
g7
g89
tp2526
Rp2527
(dp2528
g12
g2525
sbsVIdList
p2529
g1
(g18
g19
(lp2530
tp2531
Rp2532
(dp2533
g12
g2529
sbsVQueryTranslation
p2534
g1
(g6
g7
S'Lutjanus cyanopterus[PORG] AND 16S[title]'
p2535
tp2536
Rp2537
(dp2538
g12
g2534
sbsVTranslationStack
p2539
g1
(g18
g19
(lp2540
g1
(g2
g3
(dp2541
g2521
g1
(g6
g7
S'18'
p2542
tp2543
Rp2544
(dp2545
g12
g2521
sbsVField
p2546
g1
(g6
g7
S'PORG'
p2547
tp2548
Rp2549
(dp2550
g12
g2546
sbsVTerm
p2551
g1
(g6
g7
S'Lutjanus cyanopterus[PORG]'
p2552
tp2553
Rp2554
(dp2555
g12
g2551
sbsVExplode
p2556
g1
(g6
g7
g52
tp2557
Rp2558
(dp2559
g12
g2556
sbstp2560
Rp2561
(dp2562
g12
VTermSet
p2563
sbag1
(g2
g3
(dp2564
g2521
g1
(g6
g7
S'7108870'
p2565
tp2566
Rp2567
(dp2568
g12
g2521
sbsg2546
g1
(g6
g7
S'title'
p2569
tp2570
Rp2571
(dp2572
g12
g2546
sbsg2551
g1
(g6
g7
S'16S[title]'
p2573
tp2574
Rp2575
(dp2576
g12
g2551
sbsg2556
g1
(g6
g7
g73
tp2577
Rp2578
(dp2579
g12
g2556
sbstp2580
Rp2581
(dp2582
g12
g2563
sbag1
(g6
g7
S'AND'
p2583
tp2584
Rp2585
(dp2586
g12
VOP
p2587
sbatp2588
Rp2589
(dp2590
g12
g2539
sbsVRetStart
p2591
g1
(g6
g7
g89
tp2592
Rp2593
(dp2594
g12
g2591
sbsVTranslationSet
p2595
g1
(g18
g19
(lp2596
tp2597
Rp2598
(dp2599
g12
g2595
sbstp2600
Rp2601
(dp2602
g12
VeSearchResult
p2603
sbag1
(g2
g3
(dp2604
VCount
p2605
g1
(g6
g7
g8
tp2606
Rp2607
(dp2608
g12
g2605
sbsVRetMax
p2609
g1
(g6
g7
g8
tp2610
Rp2611
(dp2612
g12
g2609
sbsVIdList
p2613
g1
(g18
g19
(lp2614
g1
(g6
g7
S'19850118'
p2615
tp2616
Rp2617
(dp2618
g12
VId
p2619
sbatp2620
Rp2621
(dp2622
g12
g2613
sbsVQueryTranslation
p2623
g1
(g6
g7
S'Lutjanus decussatus[PORG] AND 16S[title]'
p2624
tp2625
Rp2626
(dp2627
g12
g2623
sbsVTranslationStack
p2628
g1
(g18
g19
(lp2629
g1
(g2
g3
(dp2630
g2605
g1
(g6
g7
g801
tp2631
Rp2632
(dp2633
g12
g2605
sbsVField
p2634
g1
(g6
g7
S'PORG'
p2635
tp2636
Rp2637
(dp2638
g12
g2634
sbsVTerm
p2639
g1
(g6
g7
S'Lutjanus decussatus[PORG]'
p2640
tp2641
Rp2642
(dp2643
g12
g2639
sbsVExplode
p2644
g1
(g6
g7
g52
tp2645
Rp2646
(dp2647
g12
g2644
sbstp2648
Rp2649
(dp2650
g12
VTermSet
p2651
sbag1
(g2
g3
(dp2652
g2605
g1
(g6
g7
S'7108870'
p2653
tp2654
Rp2655
(dp2656
g12
g2605
sbsg2634
g1
(g6
g7
S'title'
p2657
tp2658
Rp2659
(dp2660
g12
g2634
sbsg2639
g1
(g6
g7
S'16S[title]'
p2661
tp2662
Rp2663
(dp2664
g12
g2639
sbsg2644
g1
(g6
g7
g73
tp2665
Rp2666
(dp2667
g12
g2644
sbstp2668
Rp2669
(dp2670
g12
g2651
sbag1
(g6
g7
S'AND'
p2671
tp2672
Rp2673
(dp2674
g12
VOP
p2675
sbatp2676
Rp2677
(dp2678
g12
g2628
sbsVRetStart
p2679
g1
(g6
g7
g89
tp2680
Rp2681
(dp2682
g12
g2679
sbsVTranslationSet
p2683
g1
(g18
g19
(lp2684
tp2685
Rp2686
(dp2687
g12
g2683
sbstp2688
Rp2689
(dp2690
g12
VeSearchResult
p2691
sbag1
(g2
g3
(dp2692
VCount
p2693
g1
(g6
g7
g89
tp2694
Rp2695
(dp2696
g12
g2693
sbsVRetMax
p2697
g1
(g6
g7
g89
tp2698
Rp2699
(dp2700
g12
g2697
sbsVIdList
p2701
g1
(g18
g19
(lp2702
tp2703
Rp2704
(dp2705
g12
g2701
sbsVQueryTranslation
p2706
g1
(g6
g7
S'Lutjanus dentatus[PORG] AND 16S[title]'
p2707
tp2708
Rp2709
(dp2710
g12
g2706
sbsVTranslationStack
p2711
g1
(g18
g19
(lp2712
g1
(g2
g3
(dp2713
g2693
g1
(g6
g7
g8
tp2714
Rp2715
(dp2716
g12
g2693
sbsVField
p2717
g1
(g6
g7
S'PORG'
p2718
tp2719
Rp2720
(dp2721
g12
g2717
sbsVTerm
p2722
g1
(g6
g7
S'Lutjanus dentatus[PORG]'
p2723
tp2724
Rp2725
(dp2726
g12
g2722
sbsVExplode
p2727
g1
(g6
g7
g52
tp2728
Rp2729
(dp2730
g12
g2727
sbstp2731
Rp2732
(dp2733
g12
VTermSet
p2734
sbag1
(g2
g3
(dp2735
g2693
g1
(g6
g7
S'7108870'
p2736
tp2737
Rp2738
(dp2739
g12
g2693
sbsg2717
g1
(g6
g7
S'title'
p2740
tp2741
Rp2742
(dp2743
g12
g2717
sbsg2722
g1
(g6
g7
S'16S[title]'
p2744
tp2745
Rp2746
(dp2747
g12
g2722
sbsg2727
g1
(g6
g7
g73
tp2748
Rp2749
(dp2750
g12
g2727
sbstp2751
Rp2752
(dp2753
g12
g2734
sbag1
(g6
g7
S'AND'
p2754
tp2755
Rp2756
(dp2757
g12
VOP
p2758
sbatp2759
Rp2760
(dp2761
g12
g2711
sbsVRetStart
p2762
g1
(g6
g7
g89
tp2763
Rp2764
(dp2765
g12
g2762
sbsVTranslationSet
p2766
g1
(g18
g19
(lp2767
tp2768
Rp2769
(dp2770
g12
g2766
sbstp2771
Rp2772
(dp2773
g12
VeSearchResult
p2774
sbag1
(g2
g3
(dp2775
VCount
p2776
g1
(g6
g7
g89
tp2777
Rp2778
(dp2779
g12
g2776
sbsVRetMax
p2780
g1
(g6
g7
g89
tp2781
Rp2782
(dp2783
g12
g2780
sbsVIdList
p2784
g1
(g18
g19
(lp2785
tp2786
Rp2787
(dp2788
g12
g2784
sbsVQueryTranslation
p2789
g1
(g6
g7
S'Lutjanus dodecacanthoides[PORG] AND 16S[title]'
p2790
tp2791
Rp2792
(dp2793
g12
g2789
sbsVTranslationStack
p2794
g1
(g18
g19
(lp2795
g1
(g2
g3
(dp2796
g2776
g1
(g6
g7
g381
tp2797
Rp2798
(dp2799
g12
g2776
sbsVField
p2800
g1
(g6
g7
S'PORG'
p2801
tp2802
Rp2803
(dp2804
g12
g2800
sbsVTerm
p2805
g1
(g6
g7
S'Lutjanus dodecacanthoides[PORG]'
p2806
tp2807
Rp2808
(dp2809
g12
g2805
sbsVExplode
p2810
g1
(g6
g7
g52
tp2811
Rp2812
(dp2813
g12
g2810
sbstp2814
Rp2815
(dp2816
g12
VTermSet
p2817
sbag1
(g2
g3
(dp2818
g2776
g1
(g6
g7
S'7108870'
p2819
tp2820
Rp2821
(dp2822
g12
g2776
sbsg2800
g1
(g6
g7
S'title'
p2823
tp2824
Rp2825
(dp2826
g12
g2800
sbsg2805
g1
(g6
g7
S'16S[title]'
p2827
tp2828
Rp2829
(dp2830
g12
g2805
sbsg2810
g1
(g6
g7
g73
tp2831
Rp2832
(dp2833
g12
g2810
sbstp2834
Rp2835
(dp2836
g12
g2817
sbag1
(g6
g7
S'AND'
p2837
tp2838
Rp2839
(dp2840
g12
VOP
p2841
sbatp2842
Rp2843
(dp2844
g12
g2794
sbsVRetStart
p2845
g1
(g6
g7
g89
tp2846
Rp2847
(dp2848
g12
g2845
sbsVTranslationSet
p2849
g1
(g18
g19
(lp2850
tp2851
Rp2852
(dp2853
g12
g2849
sbstp2854
Rp2855
(dp2856
g12
VeSearchResult
p2857
sbag1
(g2
g3
(dp2858
VCount
p2859
g1
(g6
g7
g89
tp2860
Rp2861
(dp2862
g12
g2859
sbsVRetMax
p2863
g1
(g6
g7
g89
tp2864
Rp2865
(dp2866
g12
g2863
sbsVIdList
p2867
g1
(g18
g19
(lp2868
tp2869
Rp2870
(dp2871
g12
g2867
sbsVQueryTranslation
p2872
g1
(g6
g7
S'Lutjanus ehrenbergii[PORG] AND 16S[title]'
p2873
tp2874
Rp2875
(dp2876
g12
g2872
sbsVTranslationStack
p2877
g1
(g18
g19
(lp2878
g1
(g2
g3
(dp2879
g2859
g1
(g6
g7
S'17'
p2880
tp2881
Rp2882
(dp2883
g12
g2859
sbsVField
p2884
g1
(g6
g7
S'PORG'
p2885
tp2886
Rp2887
(dp2888
g12
g2884
sbsVTerm
p2889
g1
(g6
g7
S'Lutjanus ehrenbergii[PORG]'
p2890
tp2891
Rp2892
(dp2893
g12
g2889
sbsVExplode
p2894
g1
(g6
g7
g52
tp2895
Rp2896
(dp2897
g12
g2894
sbstp2898
Rp2899
(dp2900
g12
VTermSet
p2901
sbag1
(g2
g3
(dp2902
g2859
g1
(g6
g7
S'7108870'
p2903
tp2904
Rp2905
(dp2906
g12
g2859
sbsg2884
g1
(g6
g7
S'title'
p2907
tp2908
Rp2909
(dp2910
g12
g2884
sbsg2889
g1
(g6
g7
S'16S[title]'
p2911
tp2912
Rp2913
(dp2914
g12
g2889
sbsg2894
g1
(g6
g7
g73
tp2915
Rp2916
(dp2917
g12
g2894
sbstp2918
Rp2919
(dp2920
g12
g2901
sbag1
(g6
g7
S'AND'
p2921
tp2922
Rp2923
(dp2924
g12
VOP
p2925
sbatp2926
Rp2927
(dp2928
g12
g2877
sbsVRetStart
p2929
g1
(g6
g7
g89
tp2930
Rp2931
(dp2932
g12
g2929
sbsVTranslationSet
p2933
g1
(g18
g19
(lp2934
tp2935
Rp2936
(dp2937
g12
g2933
sbstp2938
Rp2939
(dp2940
g12
VeSearchResult
p2941
sbag1
(g2
g3
(dp2942
VCount
p2943
g1
(g6
g7
g89
tp2944
Rp2945
(dp2946
g12
g2943
sbsVRetMax
p2947
g1
(g6
g7
g89
tp2948
Rp2949
(dp2950
g12
g2947
sbsVIdList
p2951
g1
(g18
g19
(lp2952
tp2953
Rp2954
(dp2955
g12
g2951
sbsVRetStart
p2956
g1
(g6
g7
g89
tp2957
Rp2958
(dp2959
g12
g2956
sbsVErrorList
p2960
g1
(g1054
g3
(dp2961
VFieldNotFound
p2962
(lp2963
sVPhraseNotFound
p2964
(lp2965
g1
(g6
g7
S'Lutjanus endecacanthus[PORG]'
p2966
tp2967
Rp2968
(dp2969
g12
VPhraseNotFound
p2970
sbastp2971
Rp2972
(dp2973
g12
g2960
sg1068
(lp2974
g2964
ag2962
asbsVTranslationSet
p2975
g1
(g18
g19
(lp2976
tp2977
Rp2978
(dp2979
g12
g2975
sbsVWarningList
p2980
g1
(g1054
g3
(dp2981
VOutputMessage
p2982
(lp2983
g1
(g6
g7
S'No items found.'
p2984
tp2985
Rp2986
(dp2987
g12
VOutputMessage
p2988
sbasVPhraseIgnored
p2989
(lp2990
sVQuotedPhraseNotFound
p2991
(lp2992
stp2993
Rp2994
(dp2995
g12
g2980
sg1068
(lp2996
g2989
ag2991
ag2982
asbsVQueryTranslation
p2997
g1
(g6
g7
S'Lutjanus endecacanthus[PORG] AND 16S[title]'
p2998
tp2999
Rp3000
(dp3001
g12
g2997
sbstp3002
Rp3003
(dp3004
g12
VeSearchResult
p3005
sbag1
(g2
g3
(dp3006
VCount
p3007
g1
(g6
g7
g1231
tp3008
Rp3009
(dp3010
g12
g3007
sbsVRetMax
p3011
g1
(g6
g7
g1231
tp3012
Rp3013
(dp3014
g12
g3011
sbsVIdList
p3015
g1
(g18
g19
(lp3016
g1
(g6
g7
S'91680921'
p3017
tp3018
Rp3019
(dp3020
g12
VId
p3021
sbag1
(g6
g7
S'31559043'
p3022
tp3023
Rp3024
(dp3025
g12
g3021
sbatp3026
Rp3027
(dp3028
g12
g3015
sbsVQueryTranslation
p3029
g1
(g6
g7
S'Lutjanus erythropterus[PORG] AND 16S[title]'
p3030
tp3031
Rp3032
(dp3033
g12
g3029
sbsVTranslationStack
p3034
g1
(g18
g19
(lp3035
g1
(g2
g3
(dp3036
g3007
g1
(g6
g7
S'263'
p3037
tp3038
Rp3039
(dp3040
g12
g3007
sbsVField
p3041
g1
(g6
g7
S'PORG'
p3042
tp3043
Rp3044
(dp3045
g12
g3041
sbsVTerm
p3046
g1
(g6
g7
S'Lutjanus erythropterus[PORG]'
p3047
tp3048
Rp3049
(dp3050
g12
g3046
sbsVExplode
p3051
g1
(g6
g7
g52
tp3052
Rp3053
(dp3054
g12
g3051
sbstp3055
Rp3056
(dp3057
g12
VTermSet
p3058
sbag1
(g2
g3
(dp3059
g3007
g1
(g6
g7
S'7108870'
p3060
tp3061
Rp3062
(dp3063
g12
g3007
sbsg3041
g1
(g6
g7
S'title'
p3064
tp3065
Rp3066
(dp3067
g12
g3041
sbsg3046
g1
(g6
g7
S'16S[title]'
p3068
tp3069
Rp3070
(dp3071
g12
g3046
sbsg3051
g1
(g6
g7
g73
tp3072
Rp3073
(dp3074
g12
g3051
sbstp3075
Rp3076
(dp3077
g12
g3058
sbag1
(g6
g7
S'AND'
p3078
tp3079
Rp3080
(dp3081
g12
VOP
p3082
sbatp3083
Rp3084
(dp3085
g12
g3034
sbsVRetStart
p3086
g1
(g6
g7
g89
tp3087
Rp3088
(dp3089
g12
g3086
sbsVTranslationSet
p3090
g1
(g18
g19
(lp3091
tp3092
Rp3093
(dp3094
g12
g3090
sbstp3095
Rp3096
(dp3097
g12
VeSearchResult
p3098
sbag1
(g2
g3
(dp3099
VCount
p3100
g1
(g6
g7
g89
tp3101
Rp3102
(dp3103
g12
g3100
sbsVRetMax
p3104
g1
(g6
g7
g89
tp3105
Rp3106
(dp3107
g12
g3104
sbsVIdList
p3108
g1
(g18
g19
(lp3109
tp3110
Rp3111
(dp3112
g12
g3108
sbsVRetStart
p3113
g1
(g6
g7
g89
tp3114
Rp3115
(dp3116
g12
g3113
sbsVErrorList
p3117
g1
(g1054
g3
(dp3118
VFieldNotFound
p3119
(lp3120
sVPhraseNotFound
p3121
(lp3122
g1
(g6
g7
S'Lutjanus fulgens[PORG]'
p3123
tp3124
Rp3125
(dp3126
g12
VPhraseNotFound
p3127
sbastp3128
Rp3129
(dp3130
g12
g3117
sg1068
(lp3131
g3121
ag3119
asbsVTranslationSet
p3132
g1
(g18
g19
(lp3133
tp3134
Rp3135
(dp3136
g12
g3132
sbsVWarningList
p3137
g1
(g1054
g3
(dp3138
VOutputMessage
p3139
(lp3140
g1
(g6
g7
S'No items found.'
p3141
tp3142
Rp3143
(dp3144
g12
VOutputMessage
p3145
sbasVPhraseIgnored
p3146
(lp3147
sVQuotedPhraseNotFound
p3148
(lp3149
stp3150
Rp3151
(dp3152
g12
g3137
sg1068
(lp3153
g3146
ag3148
ag3139
asbsVQueryTranslation
p3154
g1
(g6
g7
S'Lutjanus fulgens[PORG] AND 16S[title]'
p3155
tp3156
Rp3157
(dp3158
g12
g3154
sbstp3159
Rp3160
(dp3161
g12
VeSearchResult
p3162
sbag1
(g2
g3
(dp3163
VCount
p3164
g1
(g6
g7
g1231
tp3165
Rp3166
(dp3167
g12
g3164
sbsVRetMax
p3168
g1
(g6
g7
g1231
tp3169
Rp3170
(dp3171
g12
g3168
sbsVIdList
p3172
g1
(g18
g19
(lp3173
g1
(g6
g7
S'111038373'
p3174
tp3175
Rp3176
(dp3177
g12
VId
p3178
sbag1
(g6
g7
S'91680920'
p3179
tp3180
Rp3181
(dp3182
g12
g3178
sbatp3183
Rp3184
(dp3185
g12
g3172
sbsVQueryTranslation
p3186
g1
(g6
g7
S'Lutjanus fulviflamma[PORG] AND 16S[title]'
p3187
tp3188
Rp3189
(dp3190
g12
g3186
sbsVTranslationStack
p3191
g1
(g18
g19
(lp3192
g1
(g2
g3
(dp3193
g3164
g1
(g6
g7
S'78'
p3194
tp3195
Rp3196
(dp3197
g12
g3164
sbsVField
p3198
g1
(g6
g7
S'PORG'
p3199
tp3200
Rp3201
(dp3202
g12
g3198
sbsVTerm
p3203
g1
(g6
g7
S'Lutjanus fulviflamma[PORG]'
p3204
tp3205
Rp3206
(dp3207
g12
g3203
sbsVExplode
p3208
g1
(g6
g7
g52
tp3209
Rp3210
(dp3211
g12
g3208
sbstp3212
Rp3213
(dp3214
g12
VTermSet
p3215
sbag1
(g2
g3
(dp3216
g3164
g1
(g6
g7
S'7108870'
p3217
tp3218
Rp3219
(dp3220
g12
g3164
sbsg3198
g1
(g6
g7
S'title'
p3221
tp3222
Rp3223
(dp3224
g12
g3198
sbsg3203
g1
(g6
g7
S'16S[title]'
p3225
tp3226
Rp3227
(dp3228
g12
g3203
sbsg3208
g1
(g6
g7
g73
tp3229
Rp3230
(dp3231
g12
g3208
sbstp3232
Rp3233
(dp3234
g12
g3215
sbag1
(g6
g7
S'AND'
p3235
tp3236
Rp3237
(dp3238
g12
VOP
p3239
sbatp3240
Rp3241
(dp3242
g12
g3191
sbsVRetStart
p3243
g1
(g6
g7
g89
tp3244
Rp3245
(dp3246
g12
g3243
sbsVTranslationSet
p3247
g1
(g18
g19
(lp3248
tp3249
Rp3250
(dp3251
g12
g3247
sbstp3252
Rp3253
(dp3254
g12
VeSearchResult
p3255
sbag1
(g2
g3
(dp3256
VCount
p3257
g1
(g6
g7
g1231
tp3258
Rp3259
(dp3260
g12
g3257
sbsVRetMax
p3261
g1
(g6
g7
g1231
tp3262
Rp3263
(dp3264
g12
g3261
sbsVIdList
p3265
g1
(g18
g19
(lp3266
g1
(g6
g7
S'111038374'
p3267
tp3268
Rp3269
(dp3270
g12
VId
p3271
sbag1
(g6
g7
S'91680927'
p3272
tp3273
Rp3274
(dp3275
g12
g3271
sbatp3276
Rp3277
(dp3278
g12
g3265
sbsVQueryTranslation
p3279
g1
(g6
g7
S'Lutjanus fulvus[PORG] AND 16S[title]'
p3280
tp3281
Rp3282
(dp3283
g12
g3279
sbsVTranslationStack
p3284
g1
(g18
g19
(lp3285
g1
(g2
g3
(dp3286
g3257
g1
(g6
g7
S'75'
p3287
tp3288
Rp3289
(dp3290
g12
g3257
sbsVField
p3291
g1
(g6
g7
S'PORG'
p3292
tp3293
Rp3294
(dp3295
g12
g3291
sbsVTerm
p3296
g1
(g6
g7
S'Lutjanus fulvus[PORG]'
p3297
tp3298
Rp3299
(dp3300
g12
g3296
sbsVExplode
p3301
g1
(g6
g7
g52
tp3302
Rp3303
(dp3304
g12
g3301
sbstp3305
Rp3306
(dp3307
g12
VTermSet
p3308
sbag1
(g2
g3
(dp3309
g3257
g1
(g6
g7
S'7108870'
p3310
tp3311
Rp3312
(dp3313
g12
g3257
sbsg3291
g1
(g6
g7
S'title'
p3314
tp3315
Rp3316
(dp3317
g12
g3291
sbsg3296
g1
(g6
g7
S'16S[title]'
p3318
tp3319
Rp3320
(dp3321
g12
g3296
sbsg3301
g1
(g6
g7
g73
tp3322
Rp3323
(dp3324
g12
g3301
sbstp3325
Rp3326
(dp3327
g12
g3308
sbag1
(g6
g7
S'AND'
p3328
tp3329
Rp3330
(dp3331
g12
VOP
p3332
sbatp3333
Rp3334
(dp3335
g12
g3284
sbsVRetStart
p3336
g1
(g6
g7
g89
tp3337
Rp3338
(dp3339
g12
g3336
sbsVTranslationSet
p3340
g1
(g18
g19
(lp3341
tp3342
Rp3343
(dp3344
g12
g3340
sbstp3345
Rp3346
(dp3347
g12
VeSearchResult
p3348
sbag1
(g2
g3
(dp3349
VCount
p3350
g1
(g6
g7
g89
tp3351
Rp3352
(dp3353
g12
g3350
sbsVRetMax
p3354
g1
(g6
g7
g89
tp3355
Rp3356
(dp3357
g12
g3354
sbsVIdList
p3358
g1
(g18
g19
(lp3359
tp3360
Rp3361
(dp3362
g12
g3358
sbsVRetStart
p3363
g1
(g6
g7
g89
tp3364
Rp3365
(dp3366
g12
g3363
sbsVErrorList
p3367
g1
(g1054
g3
(dp3368
VFieldNotFound
p3369
(lp3370
sVPhraseNotFound
p3371
(lp3372
g1
(g6
g7
S'Lutjanus fuscescens[PORG]'
p3373
tp3374
Rp3375
(dp3376
g12
VPhraseNotFound
p3377
sbastp3378
Rp3379
(dp3380
g12
g3367
sg1068
(lp3381
g3371
ag3369
asbsVTranslationSet
p3382
g1
(g18
g19
(lp3383
tp3384
Rp3385
(dp3386
g12
g3382
sbsVWarningList
p3387
g1
(g1054
g3
(dp3388
VOutputMessage
p3389
(lp3390
g1
(g6
g7
S'No items found.'
p3391
tp3392
Rp3393
(dp3394
g12
VOutputMessage
p3395
sbasVPhraseIgnored
p3396
(lp3397
sVQuotedPhraseNotFound
p3398
(lp3399
stp3400
Rp3401
(dp3402
g12
g3387
sg1068
(lp3403
g3396
ag3398
ag3389
asbsVQueryTranslation
p3404
g1
(g6
g7
S'Lutjanus fuscescens[PORG] AND 16S[title]'
p3405
tp3406
Rp3407
(dp3408
g12
g3404
sbstp3409
Rp3410
(dp3411
g12
VeSearchResult
p3412
sbag1
(g2
g3
(dp3413
VCount
p3414
g1
(g6
g7
g8
tp3415
Rp3416
(dp3417
g12
g3414
sbsVRetMax
p3418
g1
(g6
g7
g8
tp3419
Rp3420
(dp3421
g12
g3418
sbsVIdList
p3422
g1
(g18
g19
(lp3423
g1
(g6
g7
S'111038375'
p3424
tp3425
Rp3426
(dp3427
g12
VId
p3428
sbatp3429
Rp3430
(dp3431
g12
g3422
sbsVQueryTranslation
p3432
g1
(g6
g7
S'Lutjanus gibbus[PORG] AND 16S[title]'
p3433
tp3434
Rp3435
(dp3436
g12
g3432
sbsVTranslationStack
p3437
g1
(g18
g19
(lp3438
g1
(g2
g3
(dp3439
g3414
g1
(g6
g7
S'12'
p3440
tp3441
Rp3442
(dp3443
g12
g3414
sbsVField
p3444
g1
(g6
g7
S'PORG'
p3445
tp3446
Rp3447
(dp3448
g12
g3444
sbsVTerm
p3449
g1
(g6
g7
S'Lutjanus gibbus[PORG]'
p3450
tp3451
Rp3452
(dp3453
g12
g3449
sbsVExplode
p3454
g1
(g6
g7
g52
tp3455
Rp3456
(dp3457
g12
g3454
sbstp3458
Rp3459
(dp3460
g12
VTermSet
p3461
sbag1
(g2
g3
(dp3462
g3414
g1
(g6
g7
S'7108870'
p3463
tp3464
Rp3465
(dp3466
g12
g3414
sbsg3444
g1
(g6
g7
S'title'
p3467
tp3468
Rp3469
(dp3470
g12
g3444
sbsg3449
g1
(g6
g7
S'16S[title]'
p3471
tp3472
Rp3473
(dp3474
g12
g3449
sbsg3454
g1
(g6
g7
g73
tp3475
Rp3476
(dp3477
g12
g3454
sbstp3478
Rp3479
(dp3480
g12
g3461
sbag1
(g6
g7
S'AND'
p3481
tp3482
Rp3483
(dp3484
g12
VOP
p3485
sbatp3486
Rp3487
(dp3488
g12
g3437
sbsVRetStart
p3489
g1
(g6
g7
g89
tp3490
Rp3491
(dp3492
g12
g3489
sbsVTranslationSet
p3493
g1
(g18
g19
(lp3494
tp3495
Rp3496
(dp3497
g12
g3493
sbstp3498
Rp3499
(dp3500
g12
VeSearchResult
p3501
sbag1
(g2
g3
(dp3502
VCount
p3503
g1
(g6
g7
g89
tp3504
Rp3505
(dp3506
g12
g3503
sbsVRetMax
p3507
g1
(g6
g7
g89
tp3508
Rp3509
(dp3510
g12
g3507
sbsVIdList
p3511
g1
(g18
g19
(lp3512
tp3513
Rp3514
(dp3515
g12
g3511
sbsVQueryTranslation
p3516
g1
(g6
g7
S'Lutjanus goldiei[PORG] AND 16S[title]'
p3517
tp3518
Rp3519
(dp3520
g12
g3516
sbsVTranslationStack
p3521
g1
(g18
g19
(lp3522
g1
(g2
g3
(dp3523
g3503
g1
(g6
g7
g8
tp3524
Rp3525
(dp3526
g12
g3503
sbsVField
p3527
g1
(g6
g7
S'PORG'
p3528
tp3529
Rp3530
(dp3531
g12
g3527
sbsVTerm
p3532
g1
(g6
g7
S'Lutjanus goldiei[PORG]'
p3533
tp3534
Rp3535
(dp3536
g12
g3532
sbsVExplode
p3537
g1
(g6
g7
g52
tp3538
Rp3539
(dp3540
g12
g3537
sbstp3541
Rp3542
(dp3543
g12
VTermSet
p3544
sbag1
(g2
g3
(dp3545
g3503
g1
(g6
g7
S'7108870'
p3546
tp3547
Rp3548
(dp3549
g12
g3503
sbsg3527
g1
(g6
g7
S'title'
p3550
tp3551
Rp3552
(dp3553
g12
g3527
sbsg3532
g1
(g6
g7
S'16S[title]'
p3554
tp3555
Rp3556
(dp3557
g12
g3532
sbsg3537
g1
(g6
g7
g73
tp3558
Rp3559
(dp3560
g12
g3537
sbstp3561
Rp3562
(dp3563
g12
g3544
sbag1
(g6
g7
S'AND'
p3564
tp3565
Rp3566
(dp3567
g12
VOP
p3568
sbatp3569
Rp3570
(dp3571
g12
g3521
sbsVRetStart
p3572
g1
(g6
g7
g89
tp3573
Rp3574
(dp3575
g12
g3572
sbsVTranslationSet
p3576
g1
(g18
g19
(lp3577
tp3578
Rp3579
(dp3580
g12
g3576
sbstp3581
Rp3582
(dp3583
g12
VeSearchResult
p3584
sbag1
(g2
g3
(dp3585
VCount
p3586
g1
(g6
g7
g89
tp3587
Rp3588
(dp3589
g12
g3586
sbsVRetMax
p3590
g1
(g6
g7
g89
tp3591
Rp3592
(dp3593
g12
g3590
sbsVIdList
p3594
g1
(g18
g19
(lp3595
tp3596
Rp3597
(dp3598
g12
g3594
sbsVRetStart
p3599
g1
(g6
g7
g89
tp3600
Rp3601
(dp3602
g12
g3599
sbsVErrorList
p3603
g1
(g1054
g3
(dp3604
VFieldNotFound
p3605
(lp3606
sVPhraseNotFound
p3607
(lp3608
g1
(g6
g7
S'Lutjanus goreensis[PORG]'
p3609
tp3610
Rp3611
(dp3612
g12
VPhraseNotFound
p3613
sbastp3614
Rp3615
(dp3616
g12
g3603
sg1068
(lp3617
g3607
ag3605
asbsVTranslationSet
p3618
g1
(g18
g19
(lp3619
tp3620
Rp3621
(dp3622
g12
g3618
sbsVWarningList
p3623
g1
(g1054
g3
(dp3624
VOutputMessage
p3625
(lp3626
g1
(g6
g7
S'No items found.'
p3627
tp3628
Rp3629
(dp3630
g12
VOutputMessage
p3631
sbasVPhraseIgnored
p3632
(lp3633
sVQuotedPhraseNotFound
p3634
(lp3635
stp3636
Rp3637
(dp3638
g12
g3623
sg1068
(lp3639
g3632
ag3634
ag3625
asbsVQueryTranslation
p3640
g1
(g6
g7
S'Lutjanus goreensis[PORG] AND 16S[title]'
p3641
tp3642
Rp3643
(dp3644
g12
g3640
sbstp3645
Rp3646
(dp3647
g12
VeSearchResult
p3648
sbag1
(g2
g3
(dp3649
VCount
p3650
g1
(g6
g7
g1231
tp3651
Rp3652
(dp3653
g12
g3650
sbsVRetMax
p3654
g1
(g6
g7
g1231
tp3655
Rp3656
(dp3657
g12
g3654
sbsVIdList
p3658
g1
(g18
g19
(lp3659
g1
(g6
g7
S'444292719'
p3660
tp3661
Rp3662
(dp3663
g12
VId
p3664
sbag1
(g6
g7
S'113203273'
p3665
tp3666
Rp3667
(dp3668
g12
g3664
sbatp3669
Rp3670
(dp3671
g12
g3658
sbsVQueryTranslation
p3672
g1
(g6
g7
S'Lutjanus griseus[PORG] AND 16S[title]'
p3673
tp3674
Rp3675
(dp3676
g12
g3672
sbsVTranslationStack
p3677
g1
(g18
g19
(lp3678
g1
(g2
g3
(dp3679
g3650
g1
(g6
g7
S'116'
p3680
tp3681
Rp3682
(dp3683
g12
g3650
sbsVField
p3684
g1
(g6
g7
S'PORG'
p3685
tp3686
Rp3687
(dp3688
g12
g3684
sbsVTerm
p3689
g1
(g6
g7
S'Lutjanus griseus[PORG]'
p3690
tp3691
Rp3692
(dp3693
g12
g3689
sbsVExplode
p3694
g1
(g6
g7
g52
tp3695
Rp3696
(dp3697
g12
g3694
sbstp3698
Rp3699
(dp3700
g12
VTermSet
p3701
sbag1
(g2
g3
(dp3702
g3650
g1
(g6
g7
S'7108870'
p3703
tp3704
Rp3705
(dp3706
g12
g3650
sbsg3684
g1
(g6
g7
S'title'
p3707
tp3708
Rp3709
(dp3710
g12
g3684
sbsg3689
g1
(g6
g7
S'16S[title]'
p3711
tp3712
Rp3713
(dp3714
g12
g3689
sbsg3694
g1
(g6
g7
g73
tp3715
Rp3716
(dp3717
g12
g3694
sbstp3718
Rp3719
(dp3720
g12
g3701
sbag1
(g6
g7
S'AND'
p3721
tp3722
Rp3723
(dp3724
g12
VOP
p3725
sbatp3726
Rp3727
(dp3728
g12
g3677
sbsVRetStart
p3729
g1
(g6
g7
g89
tp3730
Rp3731
(dp3732
g12
g3729
sbsVTranslationSet
p3733
g1
(g18
g19
(lp3734
tp3735
Rp3736
(dp3737
g12
g3733
sbstp3738
Rp3739
(dp3740
g12
VeSearchResult
p3741
sbag1
(g2
g3
(dp3742
VCount
p3743
g1
(g6
g7
g89
tp3744
Rp3745
(dp3746
g12
g3743
sbsVRetMax
p3747
g1
(g6
g7
g89
tp3748
Rp3749
(dp3750
g12
g3747
sbsVIdList
p3751
g1
(g18
g19
(lp3752
tp3753
Rp3754
(dp3755
g12
g3751
sbsVRetStart
p3756
g1
(g6
g7
g89
tp3757
Rp3758
(dp3759
g12
g3756
sbsVErrorList
p3760
g1
(g1054
g3
(dp3761
VFieldNotFound
p3762
(lp3763
sVPhraseNotFound
p3764
(lp3765
g1
(g6
g7
S'Lutjanus guilcheri[PORG]'
p3766
tp3767
Rp3768
(dp3769
g12
VPhraseNotFound
p3770
sbastp3771
Rp3772
(dp3773
g12
g3760
sg1068
(lp3774
g3764
ag3762
asbsVTranslationSet
p3775
g1
(g18
g19
(lp3776
tp3777
Rp3778
(dp3779
g12
g3775
sbsVWarningList
p3780
g1
(g1054
g3
(dp3781
VOutputMessage
p3782
(lp3783
g1
(g6
g7
S'No items found.'
p3784
tp3785
Rp3786
(dp3787
g12
VOutputMessage
p3788
sbasVPhraseIgnored
p3789
(lp3790
sVQuotedPhraseNotFound
p3791
(lp3792
stp3793
Rp3794
(dp3795
g12
g3780
sg1068
(lp3796
g3789
ag3791
ag3782
asbsVQueryTranslation
p3797
g1
(g6
g7
S'Lutjanus guilcheri[PORG] AND 16S[title]'
p3798
tp3799
Rp3800
(dp3801
g12
g3797
sbstp3802
Rp3803
(dp3804
g12
VeSearchResult
p3805
sbag1
(g2
g3
(dp3806
VCount
p3807
g1
(g6
g7
g89
tp3808
Rp3809
(dp3810
g12
g3807
sbsVRetMax
p3811
g1
(g6
g7
g89
tp3812
Rp3813
(dp3814
g12
g3811
sbsVIdList
p3815
g1
(g18
g19
(lp3816
tp3817
Rp3818
(dp3819
g12
g3815
sbsVQueryTranslation
p3820
g1
(g6
g7
S'Lutjanus guttatus[PORG] AND 16S[title]'
p3821
tp3822
Rp3823
(dp3824
g12
g3820
sbsVTranslationStack
p3825
g1
(g18
g19
(lp3826
g1
(g2
g3
(dp3827
g3807
g1
(g6
g7
S'27'
p3828
tp3829
Rp3830
(dp3831
g12
g3807
sbsVField
p3832
g1
(g6
g7
S'PORG'
p3833
tp3834
Rp3835
(dp3836
g12
g3832
sbsVTerm
p3837
g1
(g6
g7
S'Lutjanus guttatus[PORG]'
p3838
tp3839
Rp3840
(dp3841
g12
g3837
sbsVExplode
p3842
g1
(g6
g7
g52
tp3843
Rp3844
(dp3845
g12
g3842
sbstp3846
Rp3847
(dp3848
g12
VTermSet
p3849
sbag1
(g2
g3
(dp3850
g3807
g1
(g6
g7
S'7108870'
p3851
tp3852
Rp3853
(dp3854
g12
g3807
sbsg3832
g1
(g6
g7
S'title'
p3855
tp3856
Rp3857
(dp3858
g12
g3832
sbsg3837
g1
(g6
g7
S'16S[title]'
p3859
tp3860
Rp3861
(dp3862
g12
g3837
sbsg3842
g1
(g6
g7
g73
tp3863
Rp3864
(dp3865
g12
g3842
sbstp3866
Rp3867
(dp3868
g12
g3849
sbag1
(g6
g7
S'AND'
p3869
tp3870
Rp3871
(dp3872
g12
VOP
p3873
sbatp3874
Rp3875
(dp3876
g12
g3825
sbsVRetStart
p3877
g1
(g6
g7
g89
tp3878
Rp3879
(dp3880
g12
g3877
sbsVTranslationSet
p3881
g1
(g18
g19
(lp3882
tp3883
Rp3884
(dp3885
g12
g3881
sbstp3886
Rp3887
(dp3888
g12
VeSearchResult
p3889
sbag1
(g2
g3
(dp3890
VCount
p3891
g1
(g6
g7
g89
tp3892
Rp3893
(dp3894
g12
g3891
sbsVRetMax
p3895
g1
(g6
g7
g89
tp3896
Rp3897
(dp3898
g12
g3895
sbsVIdList
p3899
g1
(g18
g19
(lp3900
tp3901
Rp3902
(dp3903
g12
g3899
sbsVQueryTranslation
p3904
g1
(g6
g7
S'Lutjanus indicus[PORG] AND 16S[title]'
p3905
tp3906
Rp3907
(dp3908
g12
g3904
sbsVTranslationStack
p3909
g1
(g18
g19
(lp3910
g1
(g2
g3
(dp3911
g3891
g1
(g6
g7
S'67'
p3912
tp3913
Rp3914
(dp3915
g12
g3891
sbsVField
p3916
g1
(g6
g7
S'PORG'
p3917
tp3918
Rp3919
(dp3920
g12
g3916
sbsVTerm
p3921
g1
(g6
g7
S'Lutjanus indicus[PORG]'
p3922
tp3923
Rp3924
(dp3925
g12
g3921
sbsVExplode
p3926
g1
(g6
g7
g52
tp3927
Rp3928
(dp3929
g12
g3926
sbstp3930
Rp3931
(dp3932
g12
VTermSet
p3933
sbag1
(g2
g3
(dp3934
g3891
g1
(g6
g7
S'7108870'
p3935
tp3936
Rp3937
(dp3938
g12
g3891
sbsg3916
g1
(g6
g7
S'title'
p3939
tp3940
Rp3941
(dp3942
g12
g3916
sbsg3921
g1
(g6
g7
S'16S[title]'
p3943
tp3944
Rp3945
(dp3946
g12
g3921
sbsg3926
g1
(g6
g7
g73
tp3947
Rp3948
(dp3949
g12
g3926
sbstp3950
Rp3951
(dp3952
g12
g3933
sbag1
(g6
g7
S'AND'
p3953
tp3954
Rp3955
(dp3956
g12
VOP
p3957
sbatp3958
Rp3959
(dp3960
g12
g3909
sbsVRetStart
p3961
g1
(g6
g7
g89
tp3962
Rp3963
(dp3964
g12
g3961
sbsVTranslationSet
p3965
g1
(g18
g19
(lp3966
tp3967
Rp3968
(dp3969
g12
g3965
sbstp3970
Rp3971
(dp3972
g12
VeSearchResult
p3973
sbag1
(g2
g3
(dp3974
VCount
p3975
g1
(g6
g7
g89
tp3976
Rp3977
(dp3978
g12
g3975
sbsVRetMax
p3979
g1
(g6
g7
g89
tp3980
Rp3981
(dp3982
g12
g3979
sbsVIdList
p3983
g1
(g18
g19
(lp3984
tp3985
Rp3986
(dp3987
g12
g3983
sbsVQueryTranslation
p3988
g1
(g6
g7
S'Lutjanus inermis[PORG] AND 16S[title]'
p3989
tp3990
Rp3991
(dp3992
g12
g3988
sbsVTranslationStack
p3993
g1
(g18
g19
(lp3994
g1
(g2
g3
(dp3995
g3975
g1
(g6
g7
g801
tp3996
Rp3997
(dp3998
g12
g3975
sbsVField
p3999
g1
(g6
g7
S'PORG'
p4000
tp4001
Rp4002
(dp4003
g12
g3999
sbsVTerm
p4004
g1
(g6
g7
S'Lutjanus inermis[PORG]'
p4005
tp4006
Rp4007
(dp4008
g12
g4004
sbsVExplode
p4009
g1
(g6
g7
g52
tp4010
Rp4011
(dp4012
g12
g4009
sbstp4013
Rp4014
(dp4015
g12
VTermSet
p4016
sbag1
(g2
g3
(dp4017
g3975
g1
(g6
g7
S'7108870'
p4018
tp4019
Rp4020
(dp4021
g12
g3975
sbsg3999
g1
(g6
g7
S'title'
p4022
tp4023
Rp4024
(dp4025
g12
g3999
sbsg4004
g1
(g6
g7
S'16S[title]'
p4026
tp4027
Rp4028
(dp4029
g12
g4004
sbsg4009
g1
(g6
g7
g73
tp4030
Rp4031
(dp4032
g12
g4009
sbstp4033
Rp4034
(dp4035
g12
g4016
sbag1
(g6
g7
S'AND'
p4036
tp4037
Rp4038
(dp4039
g12
VOP
p4040
sbatp4041
Rp4042
(dp4043
g12
g3993
sbsVRetStart
p4044
g1
(g6
g7
g89
tp4045
Rp4046
(dp4047
g12
g4044
sbsVTranslationSet
p4048
g1
(g18
g19
(lp4049
tp4050
Rp4051
(dp4052
g12
g4048
sbstp4053
Rp4054
(dp4055
g12
VeSearchResult
p4056
sbag1
(g2
g3
(dp4057
VCount
p4058
g1
(g6
g7
g8
tp4059
Rp4060
(dp4061
g12
g4058
sbsVRetMax
p4062
g1
(g6
g7
g8
tp4063
Rp4064
(dp4065
g12
g4062
sbsVIdList
p4066
g1
(g18
g19
(lp4067
g1
(g6
g7
S'113203272'
p4068
tp4069
Rp4070
(dp4071
g12
VId
p4072
sbatp4073
Rp4074
(dp4075
g12
g4066
sbsVQueryTranslation
p4076
g1
(g6
g7
S'Lutjanus jocu[PORG] AND 16S[title]'
p4077
tp4078
Rp4079
(dp4080
g12
g4076
sbsVTranslationStack
p4081
g1
(g18
g19
(lp4082
g1
(g2
g3
(dp4083
g4058
g1
(g6
g7
S'45'
p4084
tp4085
Rp4086
(dp4087
g12
g4058
sbsVField
p4088
g1
(g6
g7
S'PORG'
p4089
tp4090
Rp4091
(dp4092
g12
g4088
sbsVTerm
p4093
g1
(g6
g7
S'Lutjanus jocu[PORG]'
p4094
tp4095
Rp4096
(dp4097
g12
g4093
sbsVExplode
p4098
g1
(g6
g7
g52
tp4099
Rp4100
(dp4101
g12
g4098
sbstp4102
Rp4103
(dp4104
g12
VTermSet
p4105
sbag1
(g2
g3
(dp4106
g4058
g1
(g6
g7
S'7108870'
p4107
tp4108
Rp4109
(dp4110
g12
g4058
sbsg4088
g1
(g6
g7
S'title'
p4111
tp4112
Rp4113
(dp4114
g12
g4088
sbsg4093
g1
(g6
g7
S'16S[title]'
p4115
tp4116
Rp4117
(dp4118
g12
g4093
sbsg4098
g1
(g6
g7
g73
tp4119
Rp4120
(dp4121
g12
g4098
sbstp4122
Rp4123
(dp4124
g12
g4105
sbag1
(g6
g7
S'AND'
p4125
tp4126
Rp4127
(dp4128
g12
VOP
p4129
sbatp4130
Rp4131
(dp4132
g12
g4081
sbsVRetStart
p4133
g1
(g6
g7
g89
tp4134
Rp4135
(dp4136
g12
g4133
sbsVTranslationSet
p4137
g1
(g18
g19
(lp4138
tp4139
Rp4140
(dp4141
g12
g4137
sbstp4142
Rp4143
(dp4144
g12
VeSearchResult
p4145
sbag1
(g2
g3
(dp4146
VCount
p4147
g1
(g6
g7
g8
tp4148
Rp4149
(dp4150
g12
g4147
sbsVRetMax
p4151
g1
(g6
g7
g8
tp4152
Rp4153
(dp4154
g12
g4151
sbsVIdList
p4155
g1
(g18
g19
(lp4156
g1
(g6
g7
S'91680925'
p4157
tp4158
Rp4159
(dp4160
g12
VId
p4161
sbatp4162
Rp4163
(dp4164
g12
g4155
sbsVQueryTranslation
p4165
g1
(g6
g7
S'Lutjanus johnii[PORG] AND 16S[title]'
p4166
tp4167
Rp4168
(dp4169
g12
g4165
sbsVTranslationStack
p4170
g1
(g18
g19
(lp4171
g1
(g2
g3
(dp4172
g4147
g1
(g6
g7
S'145'
p4173
tp4174
Rp4175
(dp4176
g12
g4147
sbsVField
p4177
g1
(g6
g7
S'PORG'
p4178
tp4179
Rp4180
(dp4181
g12
g4177
sbsVTerm
p4182
g1
(g6
g7
S'Lutjanus johnii[PORG]'
p4183
tp4184
Rp4185
(dp4186
g12
g4182
sbsVExplode
p4187
g1
(g6
g7
g52
tp4188
Rp4189
(dp4190
g12
g4187
sbstp4191
Rp4192
(dp4193
g12
VTermSet
p4194
sbag1
(g2
g3
(dp4195
g4147
g1
(g6
g7
S'7108870'
p4196
tp4197
Rp4198
(dp4199
g12
g4147
sbsg4177
g1
(g6
g7
S'title'
p4200
tp4201
Rp4202
(dp4203
g12
g4177
sbsg4182
g1
(g6
g7
S'16S[title]'
p4204
tp4205
Rp4206
(dp4207
g12
g4182
sbsg4187
g1
(g6
g7
g73
tp4208
Rp4209
(dp4210
g12
g4187
sbstp4211
Rp4212
(dp4213
g12
g4194
sbag1
(g6
g7
S'AND'
p4214
tp4215
Rp4216
(dp4217
g12
VOP
p4218
sbatp4219
Rp4220
(dp4221
g12
g4170
sbsVRetStart
p4222
g1
(g6
g7
g89
tp4223
Rp4224
(dp4225
g12
g4222
sbsVTranslationSet
p4226
g1
(g18
g19
(lp4227
tp4228
Rp4229
(dp4230
g12
g4226
sbstp4231
Rp4232
(dp4233
g12
VeSearchResult
p4234
sbag1
(g2
g3
(dp4235
VCount
p4236
g1
(g6
g7
g89
tp4237
Rp4238
(dp4239
g12
g4236
sbsVRetMax
p4240
g1
(g6
g7
g89
tp4241
Rp4242
(dp4243
g12
g4240
sbsVIdList
p4244
g1
(g18
g19
(lp4245
tp4246
Rp4247
(dp4248
g12
g4244
sbsVRetStart
p4249
g1
(g6
g7
g89
tp4250
Rp4251
(dp4252
g12
g4249
sbsVErrorList
p4253
g1
(g1054
g3
(dp4254
VFieldNotFound
p4255
(lp4256
sVPhraseNotFound
p4257
(lp4258
g1
(g6
g7
S'Lutjanus jordani[PORG]'
p4259
tp4260
Rp4261
(dp4262
g12
VPhraseNotFound
p4263
sbastp4264
Rp4265
(dp4266
g12
g4253
sg1068
(lp4267
g4257
ag4255
asbsVTranslationSet
p4268
g1
(g18
g19
(lp4269
tp4270
Rp4271
(dp4272
g12
g4268
sbsVWarningList
p4273
g1
(g1054
g3
(dp4274
VOutputMessage
p4275
(lp4276
g1
(g6
g7
S'No items found.'
p4277
tp4278
Rp4279
(dp4280
g12
VOutputMessage
p4281
sbasVPhraseIgnored
p4282
(lp4283
sVQuotedPhraseNotFound
p4284
(lp4285
stp4286
Rp4287
(dp4288
g12
g4273
sg1068
(lp4289
g4282
ag4284
ag4275
asbsVQueryTranslation
p4290
g1
(g6
g7
S'Lutjanus jordani[PORG] AND 16S[title]'
p4291
tp4292
Rp4293
(dp4294
g12
g4290
sbstp4295
Rp4296
(dp4297
g12
VeSearchResult
p4298
sbag1
(g2
g3
(dp4299
VCount
p4300
g1
(g6
g7
g8
tp4301
Rp4302
(dp4303
g12
g4300
sbsVRetMax
p4304
g1
(g6
g7
g8
tp4305
Rp4306
(dp4307
g12
g4304
sbsVIdList
p4308
g1
(g18
g19
(lp4309
g1
(g6
g7
S'111038376'
p4310
tp4311
Rp4312
(dp4313
g12
VId
p4314
sbatp4315
Rp4316
(dp4317
g12
g4308
sbsVQueryTranslation
p4318
g1
(g6
g7
S'Lutjanus kasmira[PORG] AND 16S[title]'
p4319
tp4320
Rp4321
(dp4322
g12
g4318
sbsVTranslationStack
p4323
g1
(g18
g19
(lp4324
g1
(g2
g3
(dp4325
g4300
g1
(g6
g7
S'573'
p4326
tp4327
Rp4328
(dp4329
g12
g4300
sbsVField
p4330
g1
(g6
g7
S'PORG'
p4331
tp4332
Rp4333
(dp4334
g12
g4330
sbsVTerm
p4335
g1
(g6
g7
S'Lutjanus kasmira[PORG]'
p4336
tp4337
Rp4338
(dp4339
g12
g4335
sbsVExplode
p4340
g1
(g6
g7
g52
tp4341
Rp4342
(dp4343
g12
g4340
sbstp4344
Rp4345
(dp4346
g12
VTermSet
p4347
sbag1
(g2
g3
(dp4348
g4300
g1
(g6
g7
S'7108870'
p4349
tp4350
Rp4351
(dp4352
g12
g4300
sbsg4330
g1
(g6
g7
S'title'
p4353
tp4354
Rp4355
(dp4356
g12
g4330
sbsg4335
g1
(g6
g7
S'16S[title]'
p4357
tp4358
Rp4359
(dp4360
g12
g4335
sbsg4340
g1
(g6
g7
g73
tp4361
Rp4362
(dp4363
g12
g4340
sbstp4364
Rp4365
(dp4366
g12
g4347
sbag1
(g6
g7
S'AND'
p4367
tp4368
Rp4369
(dp4370
g12
VOP
p4371
sbatp4372
Rp4373
(dp4374
g12
g4323
sbsVRetStart
p4375
g1
(g6
g7
g89
tp4376
Rp4377
(dp4378
g12
g4375
sbsVTranslationSet
p4379
g1
(g18
g19
(lp4380
tp4381
Rp4382
(dp4383
g12
g4379
sbstp4384
Rp4385
(dp4386
g12
VeSearchResult
p4387
sbag1
(g2
g3
(dp4388
VCount
p4389
g1
(g6
g7
g89
tp4390
Rp4391
(dp4392
g12
g4389
sbsVRetMax
p4393
g1
(g6
g7
g89
tp4394
Rp4395
(dp4396
g12
g4393
sbsVIdList
p4397
g1
(g18
g19
(lp4398
tp4399
Rp4400
(dp4401
g12
g4397
sbsVQueryTranslation
p4402
g1
(g6
g7
S'Lutjanus lemniscatus[PORG] AND 16S[title]'
p4403
tp4404
Rp4405
(dp4406
g12
g4402
sbsVTranslationStack
p4407
g1
(g18
g19
(lp4408
g1
(g2
g3
(dp4409
g4389
g1
(g6
g7
g973
tp4410
Rp4411
(dp4412
g12
g4389
sbsVField
p4413
g1
(g6
g7
S'PORG'
p4414
tp4415
Rp4416
(dp4417
g12
g4413
sbsVTerm
p4418
g1
(g6
g7
S'Lutjanus lemniscatus[PORG]'
p4419
tp4420
Rp4421
(dp4422
g12
g4418
sbsVExplode
p4423
g1
(g6
g7
g52
tp4424
Rp4425
(dp4426
g12
g4423
sbstp4427
Rp4428
(dp4429
g12
VTermSet
p4430
sbag1
(g2
g3
(dp4431
g4389
g1
(g6
g7
S'7108870'
p4432
tp4433
Rp4434
(dp4435
g12
g4389
sbsg4413
g1
(g6
g7
S'title'
p4436
tp4437
Rp4438
(dp4439
g12
g4413
sbsg4418
g1
(g6
g7
S'16S[title]'
p4440
tp4441
Rp4442
(dp4443
g12
g4418
sbsg4423
g1
(g6
g7
g73
tp4444
Rp4445
(dp4446
g12
g4423
sbstp4447
Rp4448
(dp4449
g12
g4430
sbag1
(g6
g7
S'AND'
p4450
tp4451
Rp4452
(dp4453
g12
VOP
p4454
sbatp4455
Rp4456
(dp4457
g12
g4407
sbsVRetStart
p4458
g1
(g6
g7
g89
tp4459
Rp4460
(dp4461
g12
g4458
sbsVTranslationSet
p4462
g1
(g18
g19
(lp4463
tp4464
Rp4465
(dp4466
g12
g4462
sbstp4467
Rp4468
(dp4469
g12
VeSearchResult
p4470
sbag1
(g2
g3
(dp4471
VCount
p4472
g1
(g6
g7
g8
tp4473
Rp4474
(dp4475
g12
g4472
sbsVRetMax
p4476
g1
(g6
g7
g8
tp4477
Rp4478
(dp4479
g12
g4476
sbsVIdList
p4480
g1
(g18
g19
(lp4481
g1
(g6
g7
S'402483533'
p4482
tp4483
Rp4484
(dp4485
g12
VId
p4486
sbatp4487
Rp4488
(dp4489
g12
g4480
sbsVQueryTranslation
p4490
g1
(g6
g7
S'Lutjanus lunulatus[PORG] AND 16S[title]'
p4491
tp4492
Rp4493
(dp4494
g12
g4490
sbsVTranslationStack
p4495
g1
(g18
g19
(lp4496
g1
(g2
g3
(dp4497
g4472
g1
(g6
g7
g1231
tp4498
Rp4499
(dp4500
g12
g4472
sbsVField
p4501
g1
(g6
g7
S'PORG'
p4502
tp4503
Rp4504
(dp4505
g12
g4501
sbsVTerm
p4506
g1
(g6
g7
S'Lutjanus lunulatus[PORG]'
p4507
tp4508
Rp4509
(dp4510
g12
g4506
sbsVExplode
p4511
g1
(g6
g7
g52
tp4512
Rp4513
(dp4514
g12
g4511
sbstp4515
Rp4516
(dp4517
g12
VTermSet
p4518
sbag1
(g2
g3
(dp4519
g4472
g1
(g6
g7
S'7108870'
p4520
tp4521
Rp4522
(dp4523
g12
g4472
sbsg4501
g1
(g6
g7
S'title'
p4524
tp4525
Rp4526
(dp4527
g12
g4501
sbsg4506
g1
(g6
g7
S'16S[title]'
p4528
tp4529
Rp4530
(dp4531
g12
g4506
sbsg4511
g1
(g6
g7
g73
tp4532
Rp4533
(dp4534
g12
g4511
sbstp4535
Rp4536
(dp4537
g12
g4518
sbag1
(g6
g7
S'AND'
p4538
tp4539
Rp4540
(dp4541
g12
VOP
p4542
sbatp4543
Rp4544
(dp4545
g12
g4495
sbsVRetStart
p4546
g1
(g6
g7
g89
tp4547
Rp4548
(dp4549
g12
g4546
sbsVTranslationSet
p4550
g1
(g18
g19
(lp4551
tp4552
Rp4553
(dp4554
g12
g4550
sbstp4555
Rp4556
(dp4557
g12
VeSearchResult
p4558
sbag1
(g2
g3
(dp4559
VCount
p4560
g1
(g6
g7
g89
tp4561
Rp4562
(dp4563
g12
g4560
sbsVRetMax
p4564
g1
(g6
g7
g89
tp4565
Rp4566
(dp4567
g12
g4564
sbsVIdList
p4568
g1
(g18
g19
(lp4569
tp4570
Rp4571
(dp4572
g12
g4568
sbsVQueryTranslation
p4573
g1
(g6
g7
S'Lutjanus lutjanus[PORG] AND 16S[title]'
p4574
tp4575
Rp4576
(dp4577
g12
g4573
sbsVTranslationStack
p4578
g1
(g18
g19
(lp4579
g1
(g2
g3
(dp4580
g4560
g1
(g6
g7
S'43'
p4581
tp4582
Rp4583
(dp4584
g12
g4560
sbsVField
p4585
g1
(g6
g7
S'PORG'
p4586
tp4587
Rp4588
(dp4589
g12
g4585
sbsVTerm
p4590
g1
(g6
g7
S'Lutjanus lutjanus[PORG]'
p4591
tp4592
Rp4593
(dp4594
g12
g4590
sbsVExplode
p4595
g1
(g6
g7
g52
tp4596
Rp4597
(dp4598
g12
g4595
sbstp4599
Rp4600
(dp4601
g12
VTermSet
p4602
sbag1
(g2
g3
(dp4603
g4560
g1
(g6
g7
S'7108870'
p4604
tp4605
Rp4606
(dp4607
g12
g4560
sbsg4585
g1
(g6
g7
S'title'
p4608
tp4609
Rp4610
(dp4611
g12
g4585
sbsg4590
g1
(g6
g7
S'16S[title]'
p4612
tp4613
Rp4614
(dp4615
g12
g4590
sbsg4595
g1
(g6
g7
g73
tp4616
Rp4617
(dp4618
g12
g4595
sbstp4619
Rp4620
(dp4621
g12
g4602
sbag1
(g6
g7
S'AND'
p4622
tp4623
Rp4624
(dp4625
g12
VOP
p4626
sbatp4627
Rp4628
(dp4629
g12
g4578
sbsVRetStart
p4630
g1
(g6
g7
g89
tp4631
Rp4632
(dp4633
g12
g4630
sbsVTranslationSet
p4634
g1
(g18
g19
(lp4635
tp4636
Rp4637
(dp4638
g12
g4634
sbstp4639
Rp4640
(dp4641
g12
VeSearchResult
p4642
sbag1
(g2
g3
(dp4643
VCount
p4644
g1
(g6
g7
g89
tp4645
Rp4646
(dp4647
g12
g4644
sbsVRetMax
p4648
g1
(g6
g7
g89
tp4649
Rp4650
(dp4651
g12
g4648
sbsVIdList
p4652
g1
(g18
g19
(lp4653
tp4654
Rp4655
(dp4656
g12
g4652
sbsVQueryTranslation
p4657
g1
(g6
g7
S'Lutjanus madras[PORG] AND 16S[title]'
p4658
tp4659
Rp4660
(dp4661
g12
g4657
sbsVTranslationStack
p4662
g1
(g18
g19
(lp4663
g1
(g2
g3
(dp4664
g4644
g1
(g6
g7
S'15'
p4665
tp4666
Rp4667
(dp4668
g12
g4644
sbsVField
p4669
g1
(g6
g7
S'PORG'
p4670
tp4671
Rp4672
(dp4673
g12
g4669
sbsVTerm
p4674
g1
(g6
g7
S'Lutjanus madras[PORG]'
p4675
tp4676
Rp4677
(dp4678
g12
g4674
sbsVExplode
p4679
g1
(g6
g7
g52
tp4680
Rp4681
(dp4682
g12
g4679
sbstp4683
Rp4684
(dp4685
g12
VTermSet
p4686
sbag1
(g2
g3
(dp4687
g4644
g1
(g6
g7
S'7108870'
p4688
tp4689
Rp4690
(dp4691
g12
g4644
sbsg4669
g1
(g6
g7
S'title'
p4692
tp4693
Rp4694
(dp4695
g12
g4669
sbsg4674
g1
(g6
g7
S'16S[title]'
p4696
tp4697
Rp4698
(dp4699
g12
g4674
sbsg4679
g1
(g6
g7
g73
tp4700
Rp4701
(dp4702
g12
g4679
sbstp4703
Rp4704
(dp4705
g12
g4686
sbag1
(g6
g7
S'AND'
p4706
tp4707
Rp4708
(dp4709
g12
VOP
p4710
sbatp4711
Rp4712
(dp4713
g12
g4662
sbsVRetStart
p4714
g1
(g6
g7
g89
tp4715
Rp4716
(dp4717
g12
g4714
sbsVTranslationSet
p4718
g1
(g18
g19
(lp4719
tp4720
Rp4721
(dp4722
g12
g4718
sbstp4723
Rp4724
(dp4725
g12
VeSearchResult
p4726
sbag1
(g2
g3
(dp4727
VCount
p4728
g1
(g6
g7
g89
tp4729
Rp4730
(dp4731
g12
g4728
sbsVRetMax
p4732
g1
(g6
g7
g89
tp4733
Rp4734
(dp4735
g12
g4732
sbsVIdList
p4736
g1
(g18
g19
(lp4737
tp4738
Rp4739
(dp4740
g12
g4736
sbsVQueryTranslation
p4741
g1
(g6
g7
S'Lutjanus mahogoni[PORG] AND 16S[title]'
p4742
tp4743
Rp4744
(dp4745
g12
g4741
sbsVTranslationStack
p4746
g1
(g18
g19
(lp4747
g1
(g2
g3
(dp4748
g4728
g1
(g6
g7
S'40'
p4749
tp4750
Rp4751
(dp4752
g12
g4728
sbsVField
p4753
g1
(g6
g7
S'PORG'
p4754
tp4755
Rp4756
(dp4757
g12
g4753
sbsVTerm
p4758
g1
(g6
g7
S'Lutjanus mahogoni[PORG]'
p4759
tp4760
Rp4761
(dp4762
g12
g4758
sbsVExplode
p4763
g1
(g6
g7
g52
tp4764
Rp4765
(dp4766
g12
g4763
sbstp4767
Rp4768
(dp4769
g12
VTermSet
p4770
sbag1
(g2
g3
(dp4771
g4728
g1
(g6
g7
S'7108870'
p4772
tp4773
Rp4774
(dp4775
g12
g4728
sbsg4753
g1
(g6
g7
S'title'
p4776
tp4777
Rp4778
(dp4779
g12
g4753
sbsg4758
g1
(g6
g7
S'16S[title]'
p4780
tp4781
Rp4782
(dp4783
g12
g4758
sbsg4763
g1
(g6
g7
g73
tp4784
Rp4785
(dp4786
g12
g4763
sbstp4787
Rp4788
(dp4789
g12
g4770
sbag1
(g6
g7
S'AND'
p4790
tp4791
Rp4792
(dp4793
g12
VOP
p4794
sbatp4795
Rp4796
(dp4797
g12
g4746
sbsVRetStart
p4798
g1
(g6
g7
g89
tp4799
Rp4800
(dp4801
g12
g4798
sbsVTranslationSet
p4802
g1
(g18
g19
(lp4803
tp4804
Rp4805
(dp4806
g12
g4802
sbstp4807
Rp4808
(dp4809
g12
VeSearchResult
p4810
sbag1
(g2
g3
(dp4811
VCount
p4812
g1
(g6
g7
g89
tp4813
Rp4814
(dp4815
g12
g4812
sbsVRetMax
p4816
g1
(g6
g7
g89
tp4817
Rp4818
(dp4819
g12
g4816
sbsVIdList
p4820
g1
(g18
g19
(lp4821
tp4822
Rp4823
(dp4824
g12
g4820
sbsVQueryTranslation
p4825
g1
(g6
g7
S'Lutjanus malabaricus[PORG] AND 16S[title]'
p4826
tp4827
Rp4828
(dp4829
g12
g4825
sbsVTranslationStack
p4830
g1
(g18
g19
(lp4831
g1
(g2
g3
(dp4832
g4812
g1
(g6
g7
S'49'
p4833
tp4834
Rp4835
(dp4836
g12
g4812
sbsVField
p4837
g1
(g6
g7
S'PORG'
p4838
tp4839
Rp4840
(dp4841
g12
g4837
sbsVTerm
p4842
g1
(g6
g7
S'Lutjanus malabaricus[PORG]'
p4843
tp4844
Rp4845
(dp4846
g12
g4842
sbsVExplode
p4847
g1
(g6
g7
g52
tp4848
Rp4849
(dp4850
g12
g4847
sbstp4851
Rp4852
(dp4853
g12
VTermSet
p4854
sbag1
(g2
g3
(dp4855
g4812
g1
(g6
g7
S'7108870'
p4856
tp4857
Rp4858
(dp4859
g12
g4812
sbsg4837
g1
(g6
g7
S'title'
p4860
tp4861
Rp4862
(dp4863
g12
g4837
sbsg4842
g1
(g6
g7
S'16S[title]'
p4864
tp4865
Rp4866
(dp4867
g12
g4842
sbsg4847
g1
(g6
g7
g73
tp4868
Rp4869
(dp4870
g12
g4847
sbstp4871
Rp4872
(dp4873
g12
g4854
sbag1
(g6
g7
S'AND'
p4874
tp4875
Rp4876
(dp4877
g12
VOP
p4878
sbatp4879
Rp4880
(dp4881
g12
g4830
sbsVRetStart
p4882
g1
(g6
g7
g89
tp4883
Rp4884
(dp4885
g12
g4882
sbsVTranslationSet
p4886
g1
(g18
g19
(lp4887
tp4888
Rp4889
(dp4890
g12
g4886
sbstp4891
Rp4892
(dp4893
g12
VeSearchResult
p4894
sbag1
(g2
g3
(dp4895
VCount
p4896
g1
(g6
g7
g89
tp4897
Rp4898
(dp4899
g12
g4896
sbsVRetMax
p4900
g1
(g6
g7
g89
tp4901
Rp4902
(dp4903
g12
g4900
sbsVIdList
p4904
g1
(g18
g19
(lp4905
tp4906
Rp4907
(dp4908
g12
g4904
sbsVRetStart
p4909
g1
(g6
g7
g89
tp4910
Rp4911
(dp4912
g12
g4909
sbsVErrorList
p4913
g1
(g1054
g3
(dp4914
VFieldNotFound
p4915
(lp4916
sVPhraseNotFound
p4917
(lp4918
g1
(g6
g7
S'Lutjanus maxweberi[PORG]'
p4919
tp4920
Rp4921
(dp4922
g12
VPhraseNotFound
p4923
sbastp4924
Rp4925
(dp4926
g12
g4913
sg1068
(lp4927
g4917
ag4915
asbsVTranslationSet
p4928
g1
(g18
g19
(lp4929
tp4930
Rp4931
(dp4932
g12
g4928
sbsVWarningList
p4933
g1
(g1054
g3
(dp4934
VOutputMessage
p4935
(lp4936
g1
(g6
g7
S'No items found.'
p4937
tp4938
Rp4939
(dp4940
g12
VOutputMessage
p4941
sbasVPhraseIgnored
p4942
(lp4943
sVQuotedPhraseNotFound
p4944
(lp4945
stp4946
Rp4947
(dp4948
g12
g4933
sg1068
(lp4949
g4942
ag4944
ag4935
asbsVQueryTranslation
p4950
g1
(g6
g7
S'Lutjanus maxweberi[PORG] AND 16S[title]'
p4951
tp4952
Rp4953
(dp4954
g12
g4950
sbstp4955
Rp4956
(dp4957
g12
VeSearchResult
p4958
sbag1
(g2
g3
(dp4959
VCount
p4960
g1
(g6
g7
g89
tp4961
Rp4962
(dp4963
g12
g4960
sbsVRetMax
p4964
g1
(g6
g7
g89
tp4965
Rp4966
(dp4967
g12
g4964
sbsVIdList
p4968
g1
(g18
g19
(lp4969
tp4970
Rp4971
(dp4972
g12
g4968
sbsVRetStart
p4973
g1
(g6
g7
g89
tp4974
Rp4975
(dp4976
g12
g4973
sbsVErrorList
p4977
g1
(g1054
g3
(dp4978
VFieldNotFound
p4979
(lp4980
sVPhraseNotFound
p4981
(lp4982
g1
(g6
g7
S'Lutjanus mizenkoi[PORG]'
p4983
tp4984
Rp4985
(dp4986
g12
VPhraseNotFound
p4987
sbastp4988
Rp4989
(dp4990
g12
g4977
sg1068
(lp4991
g4981
ag4979
asbsVTranslationSet
p4992
g1
(g18
g19
(lp4993
tp4994
Rp4995
(dp4996
g12
g4992
sbsVWarningList
p4997
g1
(g1054
g3
(dp4998
VOutputMessage
p4999
(lp5000
g1
(g6
g7
S'No items found.'
p5001
tp5002
Rp5003
(dp5004
g12
VOutputMessage
p5005
sbasVPhraseIgnored
p5006
(lp5007
sVQuotedPhraseNotFound
p5008
(lp5009
stp5010
Rp5011
(dp5012
g12
g4997
sg1068
(lp5013
g5006
ag5008
ag4999
asbsVQueryTranslation
p5014
g1
(g6
g7
S'Lutjanus mizenkoi[PORG] AND 16S[title]'
p5015
tp5016
Rp5017
(dp5018
g12
g5014
sbstp5019
Rp5020
(dp5021
g12
VeSearchResult
p5022
sbag1
(g2
g3
(dp5023
VCount
p5024
g1
(g6
g7
g8
tp5025
Rp5026
(dp5027
g12
g5024
sbsVRetMax
p5028
g1
(g6
g7
g8
tp5029
Rp5030
(dp5031
g12
g5028
sbsVIdList
p5032
g1
(g18
g19
(lp5033
g1
(g6
g7
S'111038377'
p5034
tp5035
Rp5036
(dp5037
g12
VId
p5038
sbatp5039
Rp5040
(dp5041
g12
g5032
sbsVQueryTranslation
p5042
g1
(g6
g7
S'Lutjanus monostigma[PORG] AND 16S[title]'
p5043
tp5044
Rp5045
(dp5046
g12
g5042
sbsVTranslationStack
p5047
g1
(g18
g19
(lp5048
g1
(g2
g3
(dp5049
g5024
g1
(g6
g7
S'13'
p5050
tp5051
Rp5052
(dp5053
g12
g5024
sbsVField
p5054
g1
(g6
g7
S'PORG'
p5055
tp5056
Rp5057
(dp5058
g12
g5054
sbsVTerm
p5059
g1
(g6
g7
S'Lutjanus monostigma[PORG]'
p5060
tp5061
Rp5062
(dp5063
g12
g5059
sbsVExplode
p5064
g1
(g6
g7
g52
tp5065
Rp5066
(dp5067
g12
g5064
sbstp5068
Rp5069
(dp5070
g12
VTermSet
p5071
sbag1
(g2
g3
(dp5072
g5024
g1
(g6
g7
S'7108870'
p5073
tp5074
Rp5075
(dp5076
g12
g5024
sbsg5054
g1
(g6
g7
S'title'
p5077
tp5078
Rp5079
(dp5080
g12
g5054
sbsg5059
g1
(g6
g7
S'16S[title]'
p5081
tp5082
Rp5083
(dp5084
g12
g5059
sbsg5064
g1
(g6
g7
g73
tp5085
Rp5086
(dp5087
g12
g5064
sbstp5088
Rp5089
(dp5090
g12
g5071
sbag1
(g6
g7
S'AND'
p5091
tp5092
Rp5093
(dp5094
g12
VOP
p5095
sbatp5096
Rp5097
(dp5098
g12
g5047
sbsVRetStart
p5099
g1
(g6
g7
g89
tp5100
Rp5101
(dp5102
g12
g5099
sbsVTranslationSet
p5103
g1
(g18
g19
(lp5104
tp5105
Rp5106
(dp5107
g12
g5103
sbstp5108
Rp5109
(dp5110
g12
VeSearchResult
p5111
sbag1
(g2
g3
(dp5112
VCount
p5113
g1
(g6
g7
g89
tp5114
Rp5115
(dp5116
g12
g5113
sbsVRetMax
p5117
g1
(g6
g7
g89
tp5118
Rp5119
(dp5120
g12
g5117
sbsVIdList
p5121
g1
(g18
g19
(lp5122
tp5123
Rp5124
(dp5125
g12
g5121
sbsVQueryTranslation
p5126
g1
(g6
g7
S'Lutjanus notatus[PORG] AND 16S[title]'
p5127
tp5128
Rp5129
(dp5130
g12
g5126
sbsVTranslationStack
p5131
g1
(g18
g19
(lp5132
g1
(g2
g3
(dp5133
g5113
g1
(g6
g7
g2458
tp5134
Rp5135
(dp5136
g12
g5113
sbsVField
p5137
g1
(g6
g7
S'PORG'
p5138
tp5139
Rp5140
(dp5141
g12
g5137
sbsVTerm
p5142
g1
(g6
g7
S'Lutjanus notatus[PORG]'
p5143
tp5144
Rp5145
(dp5146
g12
g5142
sbsVExplode
p5147
g1
(g6
g7
g52
tp5148
Rp5149
(dp5150
g12
g5147
sbstp5151
Rp5152
(dp5153
g12
VTermSet
p5154
sbag1
(g2
g3
(dp5155
g5113
g1
(g6
g7
S'7108870'
p5156
tp5157
Rp5158
(dp5159
g12
g5113
sbsg5137
g1
(g6
g7
S'title'
p5160
tp5161
Rp5162
(dp5163
g12
g5137
sbsg5142
g1
(g6
g7
S'16S[title]'
p5164
tp5165
Rp5166
(dp5167
g12
g5142
sbsg5147
g1
(g6
g7
g73
tp5168
Rp5169
(dp5170
g12
g5147
sbstp5171
Rp5172
(dp5173
g12
g5154
sbag1
(g6
g7
S'AND'
p5174
tp5175
Rp5176
(dp5177
g12
VOP
p5178
sbatp5179
Rp5180
(dp5181
g12
g5131
sbsVRetStart
p5182
g1
(g6
g7
g89
tp5183
Rp5184
(dp5185
g12
g5182
sbsVTranslationSet
p5186
g1
(g18
g19
(lp5187
tp5188
Rp5189
(dp5190
g12
g5186
sbstp5191
Rp5192
(dp5193
g12
VeSearchResult
p5194
sbag1
(g2
g3
(dp5195
VCount
p5196
g1
(g6
g7
g8
tp5197
Rp5198
(dp5199
g12
g5196
sbsVRetMax
p5200
g1
(g6
g7
g8
tp5201
Rp5202
(dp5203
g12
g5200
sbsVIdList
p5204
g1
(g18
g19
(lp5205
g1
(g6
g7
S'62123271'
p5206
tp5207
Rp5208
(dp5209
g12
VId
p5210
sbatp5211
Rp5212
(dp5213
g12
g5204
sbsVQueryTranslation
p5214
g1
(g6
g7
S'Lutjanus novemfasciatus[PORG] AND 16S[title]'
p5215
tp5216
Rp5217
(dp5218
g12
g5214
sbsVTranslationStack
p5219
g1
(g18
g19
(lp5220
g1
(g2
g3
(dp5221
g5196
g1
(g6
g7
S'11'
p5222
tp5223
Rp5224
(dp5225
g12
g5196
sbsVField
p5226
g1
(g6
g7
S'PORG'
p5227
tp5228
Rp5229
(dp5230
g12
g5226
sbsVTerm
p5231
g1
(g6
g7
S'Lutjanus novemfasciatus[PORG]'
p5232
tp5233
Rp5234
(dp5235
g12
g5231
sbsVExplode
p5236
g1
(g6
g7
g52
tp5237
Rp5238
(dp5239
g12
g5236
sbstp5240
Rp5241
(dp5242
g12
VTermSet
p5243
sbag1
(g2
g3
(dp5244
g5196
g1
(g6
g7
S'7108870'
p5245
tp5246
Rp5247
(dp5248
g12
g5196
sbsg5226
g1
(g6
g7
S'title'
p5249
tp5250
Rp5251
(dp5252
g12
g5226
sbsg5231
g1
(g6
g7
S'16S[title]'
p5253
tp5254
Rp5255
(dp5256
g12
g5231
sbsg5236
g1
(g6
g7
g73
tp5257
Rp5258
(dp5259
g12
g5236
sbstp5260
Rp5261
(dp5262
g12
g5243
sbag1
(g6
g7
S'AND'
p5263
tp5264
Rp5265
(dp5266
g12
VOP
p5267
sbatp5268
Rp5269
(dp5270
g12
g5219
sbsVRetStart
p5271
g1
(g6
g7
g89
tp5272
Rp5273
(dp5274
g12
g5271
sbsVTranslationSet
p5275
g1
(g18
g19
(lp5276
tp5277
Rp5278
(dp5279
g12
g5275
sbstp5280
Rp5281
(dp5282
g12
VeSearchResult
p5283
sbag1
(g2
g3
(dp5284
VCount
p5285
g1
(g6
g7
g89
tp5286
Rp5287
(dp5288
g12
g5285
sbsVRetMax
p5289
g1
(g6
g7
g89
tp5290
Rp5291
(dp5292
g12
g5289
sbsVIdList
p5293
g1
(g18
g19
(lp5294
tp5295
Rp5296
(dp5297
g12
g5293
sbsVQueryTranslation
p5298
g1
(g6
g7
S'Lutjanus ophuysenii[PORG] AND 16S[title]'
p5299
tp5300
Rp5301
(dp5302
g12
g5298
sbsVTranslationStack
p5303
g1
(g18
g19
(lp5304
g1
(g2
g3
(dp5305
g5285
g1
(g6
g7
S'24'
p5306
tp5307
Rp5308
(dp5309
g12
g5285
sbsVField
p5310
g1
(g6
g7
S'PORG'
p5311
tp5312
Rp5313
(dp5314
g12
g5310
sbsVTerm
p5315
g1
(g6
g7
S'Lutjanus ophuysenii[PORG]'
p5316
tp5317
Rp5318
(dp5319
g12
g5315
sbsVExplode
p5320
g1
(g6
g7
g52
tp5321
Rp5322
(dp5323
g12
g5320
sbstp5324
Rp5325
(dp5326
g12
VTermSet
p5327
sbag1
(g2
g3
(dp5328
g5285
g1
(g6
g7
S'7108870'
p5329
tp5330
Rp5331
(dp5332
g12
g5285
sbsg5310
g1
(g6
g7
S'title'
p5333
tp5334
Rp5335
(dp5336
g12
g5310
sbsg5315
g1
(g6
g7
S'16S[title]'
p5337
tp5338
Rp5339
(dp5340
g12
g5315
sbsg5320
g1
(g6
g7
g73
tp5341
Rp5342
(dp5343
g12
g5320
sbstp5344
Rp5345
(dp5346
g12
g5327
sbag1
(g6
g7
S'AND'
p5347
tp5348
Rp5349
(dp5350
g12
VOP
p5351
sbatp5352
Rp5353
(dp5354
g12
g5303
sbsVRetStart
p5355
g1
(g6
g7
g89
tp5356
Rp5357
(dp5358
g12
g5355
sbsVTranslationSet
p5359
g1
(g18
g19
(lp5360
tp5361
Rp5362
(dp5363
g12
g5359
sbstp5364
Rp5365
(dp5366
g12
VeSearchResult
p5367
sbag1
(g2
g3
(dp5368
VCount
p5369
g1
(g6
g7
g89
tp5370
Rp5371
(dp5372
g12
g5369
sbsVRetMax
p5373
g1
(g6
g7
g89
tp5374
Rp5375
(dp5376
g12
g5373
sbsVIdList
p5377
g1
(g18
g19
(lp5378
tp5379
Rp5380
(dp5381
g12
g5377
sbsVQueryTranslation
p5382
g1
(g6
g7
S'Lutjanus papuensis[PORG] AND 16S[title]'
p5383
tp5384
Rp5385
(dp5386
g12
g5382
sbsVTranslationStack
p5387
g1
(g18
g19
(lp5388
g1
(g2
g3
(dp5389
g5369
g1
(g6
g7
g1231
tp5390
Rp5391
(dp5392
g12
g5369
sbsVField
p5393
g1
(g6
g7
S'PORG'
p5394
tp5395
Rp5396
(dp5397
g12
g5393
sbsVTerm
p5398
g1
(g6
g7
S'Lutjanus papuensis[PORG]'
p5399
tp5400
Rp5401
(dp5402
g12
g5398
sbsVExplode
p5403
g1
(g6
g7
g52
tp5404
Rp5405
(dp5406
g12
g5403
sbstp5407
Rp5408
(dp5409
g12
VTermSet
p5410
sbag1
(g2
g3
(dp5411
g5369
g1
(g6
g7
S'7108870'
p5412
tp5413
Rp5414
(dp5415
g12
g5369
sbsg5393
g1
(g6
g7
S'title'
p5416
tp5417
Rp5418
(dp5419
g12
g5393
sbsg5398
g1
(g6
g7
S'16S[title]'
p5420
tp5421
Rp5422
(dp5423
g12
g5398
sbsg5403
g1
(g6
g7
g73
tp5424
Rp5425
(dp5426
g12
g5403
sbstp5427
Rp5428
(dp5429
g12
g5410
sbag1
(g6
g7
S'AND'
p5430
tp5431
Rp5432
(dp5433
g12
VOP
p5434
sbatp5435
Rp5436
(dp5437
g12
g5387
sbsVRetStart
p5438
g1
(g6
g7
g89
tp5439
Rp5440
(dp5441
g12
g5438
sbsVTranslationSet
p5442
g1
(g18
g19
(lp5443
tp5444
Rp5445
(dp5446
g12
g5442
sbstp5447
Rp5448
(dp5449
g12
VeSearchResult
p5450
sbag1
(g2
g3
(dp5451
VCount
p5452
g1
(g6
g7
g1231
tp5453
Rp5454
(dp5455
g12
g5452
sbsVRetMax
p5456
g1
(g6
g7
g1231
tp5457
Rp5458
(dp5459
g12
g5456
sbsVIdList
p5460
g1
(g18
g19
(lp5461
g1
(g6
g7
S'302375305'
p5462
tp5463
Rp5464
(dp5465
g12
VId
p5466
sbag1
(g6
g7
S'151176094'
p5467
tp5468
Rp5469
(dp5470
g12
g5466
sbatp5471
Rp5472
(dp5473
g12
g5460
sbsVQueryTranslation
p5474
g1
(g6
g7
S'Lutjanus peru[PORG] AND 16S[title]'
p5475
tp5476
Rp5477
(dp5478
g12
g5474
sbsVTranslationStack
p5479
g1
(g18
g19
(lp5480
g1
(g2
g3
(dp5481
g5452
g1
(g6
g7
S'34'
p5482
tp5483
Rp5484
(dp5485
g12
g5452
sbsVField
p5486
g1
(g6
g7
S'PORG'
p5487
tp5488
Rp5489
(dp5490
g12
g5486
sbsVTerm
p5491
g1
(g6
g7
S'Lutjanus peru[PORG]'
p5492
tp5493
Rp5494
(dp5495
g12
g5491
sbsVExplode
p5496
g1
(g6
g7
g52
tp5497
Rp5498
(dp5499
g12
g5496
sbstp5500
Rp5501
(dp5502
g12
VTermSet
p5503
sbag1
(g2
g3
(dp5504
g5452
g1
(g6
g7
S'7108870'
p5505
tp5506
Rp5507
(dp5508
g12
g5452
sbsg5486
g1
(g6
g7
S'title'
p5509
tp5510
Rp5511
(dp5512
g12
g5486
sbsg5491
g1
(g6
g7
S'16S[title]'
p5513
tp5514
Rp5515
(dp5516
g12
g5491
sbsg5496
g1
(g6
g7
g73
tp5517
Rp5518
(dp5519
g12
g5496
sbstp5520
Rp5521
(dp5522
g12
g5503
sbag1
(g6
g7
S'AND'
p5523
tp5524
Rp5525
(dp5526
g12
VOP
p5527
sbatp5528
Rp5529
(dp5530
g12
g5479
sbsVRetStart
p5531
g1
(g6
g7
g89
tp5532
Rp5533
(dp5534
g12
g5531
sbsVTranslationSet
p5535
g1
(g18
g19
(lp5536
tp5537
Rp5538
(dp5539
g12
g5535
sbstp5540
Rp5541
(dp5542
g12
VeSearchResult
p5543
sbag1
(g2
g3
(dp5544
VCount
p5545
g1
(g6
g7
g8
tp5546
Rp5547
(dp5548
g12
g5545
sbsVRetMax
p5549
g1
(g6
g7
g8
tp5550
Rp5551
(dp5552
g12
g5549
sbsVIdList
p5553
g1
(g18
g19
(lp5554
g1
(g6
g7
S'667699058'
p5555
tp5556
Rp5557
(dp5558
g12
VId
p5559
sbatp5560
Rp5561
(dp5562
g12
g5553
sbsVQueryTranslation
p5563
g1
(g6
g7
S'Lutjanus purpureus[PORG] AND 16S[title]'
p5564
tp5565
Rp5566
(dp5567
g12
g5563
sbsVTranslationStack
p5568
g1
(g18
g19
(lp5569
g1
(g2
g3
(dp5570
g5545
g1
(g6
g7
S'899'
p5571
tp5572
Rp5573
(dp5574
g12
g5545
sbsVField
p5575
g1
(g6
g7
S'PORG'
p5576
tp5577
Rp5578
(dp5579
g12
g5575
sbsVTerm
p5580
g1
(g6
g7
S'Lutjanus purpureus[PORG]'
p5581
tp5582
Rp5583
(dp5584
g12
g5580
sbsVExplode
p5585
g1
(g6
g7
g52
tp5586
Rp5587
(dp5588
g12
g5585
sbstp5589
Rp5590
(dp5591
g12
VTermSet
p5592
sbag1
(g2
g3
(dp5593
g5545
g1
(g6
g7
S'7108870'
p5594
tp5595
Rp5596
(dp5597
g12
g5545
sbsg5575
g1
(g6
g7
S'title'
p5598
tp5599
Rp5600
(dp5601
g12
g5575
sbsg5580
g1
(g6
g7
S'16S[title]'
p5602
tp5603
Rp5604
(dp5605
g12
g5580
sbsg5585
g1
(g6
g7
g73
tp5606
Rp5607
(dp5608
g12
g5585
sbstp5609
Rp5610
(dp5611
g12
g5592
sbag1
(g6
g7
S'AND'
p5612
tp5613
Rp5614
(dp5615
g12
VOP
p5616
sbatp5617
Rp5618
(dp5619
g12
g5568
sbsVRetStart
p5620
g1
(g6
g7
g89
tp5621
Rp5622
(dp5623
g12
g5620
sbsVTranslationSet
p5624
g1
(g18
g19
(lp5625
tp5626
Rp5627
(dp5628
g12
g5624
sbstp5629
Rp5630
(dp5631
g12
VeSearchResult
p5632
sbag1
(g2
g3
(dp5633
VCount
p5634
g1
(g6
g7
g8
tp5635
Rp5636
(dp5637
g12
g5634
sbsVRetMax
p5638
g1
(g6
g7
g8
tp5639
Rp5640
(dp5641
g12
g5638
sbsVIdList
p5642
g1
(g18
g19
(lp5643
g1
(g6
g7
S'111038378'
p5644
tp5645
Rp5646
(dp5647
g12
VId
p5648
sbatp5649
Rp5650
(dp5651
g12
g5642
sbsVQueryTranslation
p5652
g1
(g6
g7
S'Lutjanus quinquelineatus[PORG] AND 16S[title]'
p5653
tp5654
Rp5655
(dp5656
g12
g5652
sbsVTranslationStack
p5657
g1
(g18
g19
(lp5658
g1
(g2
g3
(dp5659
g5634
g1
(g6
g7
S'13'
p5660
tp5661
Rp5662
(dp5663
g12
g5634
sbsVField
p5664
g1
(g6
g7
S'PORG'
p5665
tp5666
Rp5667
(dp5668
g12
g5664
sbsVTerm
p5669
g1
(g6
g7
S'Lutjanus quinquelineatus[PORG]'
p5670
tp5671
Rp5672
(dp5673
g12
g5669
sbsVExplode
p5674
g1
(g6
g7
g52
tp5675
Rp5676
(dp5677
g12
g5674
sbstp5678
Rp5679
(dp5680
g12
VTermSet
p5681
sbag1
(g2
g3
(dp5682
g5634
g1
(g6
g7
S'7108870'
p5683
tp5684
Rp5685
(dp5686
g12
g5634
sbsg5664
g1
(g6
g7
S'title'
p5687
tp5688
Rp5689
(dp5690
g12
g5664
sbsg5669
g1
(g6
g7
S'16S[title]'
p5691
tp5692
Rp5693
(dp5694
g12
g5669
sbsg5674
g1
(g6
g7
g73
tp5695
Rp5696
(dp5697
g12
g5674
sbstp5698
Rp5699
(dp5700
g12
g5681
sbag1
(g6
g7
S'AND'
p5701
tp5702
Rp5703
(dp5704
g12
VOP
p5705
sbatp5706
Rp5707
(dp5708
g12
g5657
sbsVRetStart
p5709
g1
(g6
g7
g89
tp5710
Rp5711
(dp5712
g12
g5709
sbsVTranslationSet
p5713
g1
(g18
g19
(lp5714
tp5715
Rp5716
(dp5717
g12
g5713
sbstp5718
Rp5719
(dp5720
g12
VeSearchResult
p5721
sbag1
(g2
g3
(dp5722
VCount
p5723
g1
(g6
g7
g89
tp5724
Rp5725
(dp5726
g12
g5723
sbsVRetMax
p5727
g1
(g6
g7
g89
tp5728
Rp5729
(dp5730
g12
g5727
sbsVIdList
p5731
g1
(g18
g19
(lp5732
tp5733
Rp5734
(dp5735
g12
g5731
sbsVQueryTranslation
p5736
g1
(g6
g7
S'Lutjanus rivulatus[PORG] AND 16S[title]'
p5737
tp5738
Rp5739
(dp5740
g12
g5736
sbsVTranslationStack
p5741
g1
(g18
g19
(lp5742
g1
(g2
g3
(dp5743
g5723
g1
(g6
g7
S'15'
p5744
tp5745
Rp5746
(dp5747
g12
g5723
sbsVField
p5748
g1
(g6
g7
S'PORG'
p5749
tp5750
Rp5751
(dp5752
g12
g5748
sbsVTerm
p5753
g1
(g6
g7
S'Lutjanus rivulatus[PORG]'
p5754
tp5755
Rp5756
(dp5757
g12
g5753
sbsVExplode
p5758
g1
(g6
g7
g52
tp5759
Rp5760
(dp5761
g12
g5758
sbstp5762
Rp5763
(dp5764
g12
VTermSet
p5765
sbag1
(g2
g3
(dp5766
g5723
g1
(g6
g7
S'7108870'
p5767
tp5768
Rp5769
(dp5770
g12
g5723
sbsg5748
g1
(g6
g7
S'title'
p5771
tp5772
Rp5773
(dp5774
g12
g5748
sbsg5753
g1
(g6
g7
S'16S[title]'
p5775
tp5776
Rp5777
(dp5778
g12
g5753
sbsg5758
g1
(g6
g7
g73
tp5779
Rp5780
(dp5781
g12
g5758
sbstp5782
Rp5783
(dp5784
g12
g5765
sbag1
(g6
g7
S'AND'
p5785
tp5786
Rp5787
(dp5788
g12
VOP
p5789
sbatp5790
Rp5791
(dp5792
g12
g5741
sbsVRetStart
p5793
g1
(g6
g7
g89
tp5794
Rp5795
(dp5796
g12
g5793
sbsVTranslationSet
p5797
g1
(g18
g19
(lp5798
tp5799
Rp5800
(dp5801
g12
g5797
sbstp5802
Rp5803
(dp5804
g12
VeSearchResult
p5805
sbag1
(g2
g3
(dp5806
VCount
p5807
g1
(g6
g7
g89
tp5808
Rp5809
(dp5810
g12
g5807
sbsVRetMax
p5811
g1
(g6
g7
g89
tp5812
Rp5813
(dp5814
g12
g5811
sbsVIdList
p5815
g1
(g18
g19
(lp5816
tp5817
Rp5818
(dp5819
g12
g5815
sbsVQueryTranslation
p5820
g1
(g6
g7
S'Lutjanus rufolineatus[PORG] AND 16S[title]'
p5821
tp5822
Rp5823
(dp5824
g12
g5820
sbsVTranslationStack
p5825
g1
(g18
g19
(lp5826
g1
(g2
g3
(dp5827
g5807
g1
(g6
g7
g8
tp5828
Rp5829
(dp5830
g12
g5807
sbsVField
p5831
g1
(g6
g7
S'PORG'
p5832
tp5833
Rp5834
(dp5835
g12
g5831
sbsVTerm
p5836
g1
(g6
g7
S'Lutjanus rufolineatus[PORG]'
p5837
tp5838
Rp5839
(dp5840
g12
g5836
sbsVExplode
p5841
g1
(g6
g7
g52
tp5842
Rp5843
(dp5844
g12
g5841
sbstp5845
Rp5846
(dp5847
g12
VTermSet
p5848
sbag1
(g2
g3
(dp5849
g5807
g1
(g6
g7
S'7108870'
p5850
tp5851
Rp5852
(dp5853
g12
g5807
sbsg5831
g1
(g6
g7
S'title'
p5854
tp5855
Rp5856
(dp5857
g12
g5831
sbsg5836
g1
(g6
g7
S'16S[title]'
p5858
tp5859
Rp5860
(dp5861
g12
g5836
sbsg5841
g1
(g6
g7
g73
tp5862
Rp5863
(dp5864
g12
g5841
sbstp5865
Rp5866
(dp5867
g12
g5848
sbag1
(g6
g7
S'AND'
p5868
tp5869
Rp5870
(dp5871
g12
VOP
p5872
sbatp5873
Rp5874
(dp5875
g12
g5825
sbsVRetStart
p5876
g1
(g6
g7
g89
tp5877
Rp5878
(dp5879
g12
g5876
sbsVTranslationSet
p5880
g1
(g18
g19
(lp5881
tp5882
Rp5883
(dp5884
g12
g5880
sbstp5885
Rp5886
(dp5887
g12
VeSearchResult
p5888
sbag1
(g2
g3
(dp5889
VCount
p5890
g1
(g6
g7
g381
tp5891
Rp5892
(dp5893
g12
g5890
sbsVRetMax
p5894
g1
(g6
g7
g381
tp5895
Rp5896
(dp5897
g12
g5894
sbsVIdList
p5898
g1
(g18
g19
(lp5899
g1
(g6
g7
S'111038379'
p5900
tp5901
Rp5902
(dp5903
g12
VId
p5904
sbag1
(g6
g7
S'91680919'
p5905
tp5906
Rp5907
(dp5908
g12
g5904
sbag1
(g6
g7
S'31559044'
p5909
tp5910
Rp5911
(dp5912
g12
g5904
sbatp5913
Rp5914
(dp5915
g12
g5898
sbsVQueryTranslation
p5916
g1
(g6
g7
S'Lutjanus russellii[PORG] AND 16S[title]'
p5917
tp5918
Rp5919
(dp5920
g12
g5916
sbsVTranslationStack
p5921
g1
(g18
g19
(lp5922
g1
(g2
g3
(dp5923
g5890
g1
(g6
g7
S'213'
p5924
tp5925
Rp5926
(dp5927
g12
g5890
sbsVField
p5928
g1
(g6
g7
S'PORG'
p5929
tp5930
Rp5931
(dp5932
g12
g5928
sbsVTerm
p5933
g1
(g6
g7
S'Lutjanus russellii[PORG]'
p5934
tp5935
Rp5936
(dp5937
g12
g5933
sbsVExplode
p5938
g1
(g6
g7
g52
tp5939
Rp5940
(dp5941
g12
g5938
sbstp5942
Rp5943
(dp5944
g12
VTermSet
p5945
sbag1
(g2
g3
(dp5946
g5890
g1
(g6
g7
S'7108870'
p5947
tp5948
Rp5949
(dp5950
g12
g5890
sbsg5928
g1
(g6
g7
S'title'
p5951
tp5952
Rp5953
(dp5954
g12
g5928
sbsg5933
g1
(g6
g7
S'16S[title]'
p5955
tp5956
Rp5957
(dp5958
g12
g5933
sbsg5938
g1
(g6
g7
g73
tp5959
Rp5960
(dp5961
g12
g5938
sbstp5962
Rp5963
(dp5964
g12
g5945
sbag1
(g6
g7
S'AND'
p5965
tp5966
Rp5967
(dp5968
g12
VOP
p5969
sbatp5970
Rp5971
(dp5972
g12
g5921
sbsVRetStart
p5973
g1
(g6
g7
g89
tp5974
Rp5975
(dp5976
g12
g5973
sbsVTranslationSet
p5977
g1
(g18
g19
(lp5978
tp5979
Rp5980
(dp5981
g12
g5977
sbstp5982
Rp5983
(dp5984
g12
VeSearchResult
p5985
sbag1
(g2
g3
(dp5986
VCount
p5987
g1
(g6
g7
g89
tp5988
Rp5989
(dp5990
g12
g5987
sbsVRetMax
p5991
g1
(g6
g7
g89
tp5992
Rp5993
(dp5994
g12
g5991
sbsVIdList
p5995
g1
(g18
g19
(lp5996
tp5997
Rp5998
(dp5999
g12
g5995
sbsVQueryTranslation
p6000
g1
(g6
g7
S'Lutjanus sanguineus[PORG] AND 16S[title]'
p6001
tp6002
Rp6003
(dp6004
g12
g6000
sbsVTranslationStack
p6005
g1
(g18
g19
(lp6006
g1
(g2
g3
(dp6007
g5987
g1
(g6
g7
S'55'
p6008
tp6009
Rp6010
(dp6011
g12
g5987
sbsVField
p6012
g1
(g6
g7
S'PORG'
p6013
tp6014
Rp6015
(dp6016
g12
g6012
sbsVTerm
p6017
g1
(g6
g7
S'Lutjanus sanguineus[PORG]'
p6018
tp6019
Rp6020
(dp6021
g12
g6017
sbsVExplode
p6022
g1
(g6
g7
g52
tp6023
Rp6024
(dp6025
g12
g6022
sbstp6026
Rp6027
(dp6028
g12
VTermSet
p6029
sbag1
(g2
g3
(dp6030
g5987
g1
(g6
g7
S'7108870'
p6031
tp6032
Rp6033
(dp6034
g12
g5987
sbsg6012
g1
(g6
g7
S'title'
p6035
tp6036
Rp6037
(dp6038
g12
g6012
sbsg6017
g1
(g6
g7
S'16S[title]'
p6039
tp6040
Rp6041
(dp6042
g12
g6017
sbsg6022
g1
(g6
g7
g73
tp6043
Rp6044
(dp6045
g12
g6022
sbstp6046
Rp6047
(dp6048
g12
g6029
sbag1
(g6
g7
S'AND'
p6049
tp6050
Rp6051
(dp6052
g12
VOP
p6053
sbatp6054
Rp6055
(dp6056
g12
g6005
sbsVRetStart
p6057
g1
(g6
g7
g89
tp6058
Rp6059
(dp6060
g12
g6057
sbsVTranslationSet
p6061
g1
(g18
g19
(lp6062
tp6063
Rp6064
(dp6065
g12
g6061
sbstp6066
Rp6067
(dp6068
g12
VeSearchResult
p6069
sbag1
(g2
g3
(dp6070
VCount
p6071
g1
(g6
g7
g381
tp6072
Rp6073
(dp6074
g12
g6071
sbsVRetMax
p6075
g1
(g6
g7
g381
tp6076
Rp6077
(dp6078
g12
g6075
sbsVIdList
p6079
g1
(g18
g19
(lp6080
g1
(g6
g7
S'111038380'
p6081
tp6082
Rp6083
(dp6084
g12
VId
p6085
sbag1
(g6
g7
S'91680926'
p6086
tp6087
Rp6088
(dp6089
g12
g6085
sbag1
(g6
g7
S'31559041'
p6090
tp6091
Rp6092
(dp6093
g12
g6085
sbatp6094
Rp6095
(dp6096
g12
g6079
sbsVQueryTranslation
p6097
g1
(g6
g7
S'Lutjanus sebae[PORG] AND 16S[title]'
p6098
tp6099
Rp6100
(dp6101
g12
g6097
sbsVTranslationStack
p6102
g1
(g18
g19
(lp6103
g1
(g2
g3
(dp6104
g6071
g1
(g6
g7
S'134'
p6105
tp6106
Rp6107
(dp6108
g12
g6071
sbsVField
p6109
g1
(g6
g7
S'PORG'
p6110
tp6111
Rp6112
(dp6113
g12
g6109
sbsVTerm
p6114
g1
(g6
g7
S'Lutjanus sebae[PORG]'
p6115
tp6116
Rp6117
(dp6118
g12
g6114
sbsVExplode
p6119
g1
(g6
g7
g52
tp6120
Rp6121
(dp6122
g12
g6119
sbstp6123
Rp6124
(dp6125
g12
VTermSet
p6126
sbag1
(g2
g3
(dp6127
g6071
g1
(g6
g7
S'7108870'
p6128
tp6129
Rp6130
(dp6131
g12
g6071
sbsg6109
g1
(g6
g7
S'title'
p6132
tp6133
Rp6134
(dp6135
g12
g6109
sbsg6114
g1
(g6
g7
S'16S[title]'
p6136
tp6137
Rp6138
(dp6139
g12
g6114
sbsg6119
g1
(g6
g7
g73
tp6140
Rp6141
(dp6142
g12
g6119
sbstp6143
Rp6144
(dp6145
g12
g6126
sbag1
(g6
g7
S'AND'
p6146
tp6147
Rp6148
(dp6149
g12
VOP
p6150
sbatp6151
Rp6152
(dp6153
g12
g6102
sbsVRetStart
p6154
g1
(g6
g7
g89
tp6155
Rp6156
(dp6157
g12
g6154
sbsVTranslationSet
p6158
g1
(g18
g19
(lp6159
tp6160
Rp6161
(dp6162
g12
g6158
sbstp6163
Rp6164
(dp6165
g12
VeSearchResult
p6166
sbag1
(g2
g3
(dp6167
VCount
p6168
g1
(g6
g7
g89
tp6169
Rp6170
(dp6171
g12
g6168
sbsVRetMax
p6172
g1
(g6
g7
g89
tp6173
Rp6174
(dp6175
g12
g6172
sbsVIdList
p6176
g1
(g18
g19
(lp6177
tp6178
Rp6179
(dp6180
g12
g6176
sbsVRetStart
p6181
g1
(g6
g7
g89
tp6182
Rp6183
(dp6184
g12
g6181
sbsVErrorList
p6185
g1
(g1054
g3
(dp6186
VFieldNotFound
p6187
(lp6188
sVPhraseNotFound
p6189
(lp6190
g1
(g6
g7
S'Lutjanus semicinctus[PORG]'
p6191
tp6192
Rp6193
(dp6194
g12
VPhraseNotFound
p6195
sbastp6196
Rp6197
(dp6198
g12
g6185
sg1068
(lp6199
g6189
ag6187
asbsVTranslationSet
p6200
g1
(g18
g19
(lp6201
tp6202
Rp6203
(dp6204
g12
g6200
sbsVWarningList
p6205
g1
(g1054
g3
(dp6206
VOutputMessage
p6207
(lp6208
g1
(g6
g7
S'No items found.'
p6209
tp6210
Rp6211
(dp6212
g12
VOutputMessage
p6213
sbasVPhraseIgnored
p6214
(lp6215
sVQuotedPhraseNotFound
p6216
(lp6217
stp6218
Rp6219
(dp6220
g12
g6205
sg1068
(lp6221
g6214
ag6216
ag6207
asbsVQueryTranslation
p6222
g1
(g6
g7
S'Lutjanus semicinctus[PORG] AND 16S[title]'
p6223
tp6224
Rp6225
(dp6226
g12
g6222
sbstp6227
Rp6228
(dp6229
g12
VeSearchResult
p6230
sbag1
(g2
g3
(dp6231
VCount
p6232
g1
(g6
g7
g1231
tp6233
Rp6234
(dp6235
g12
g6232
sbsVRetMax
p6236
g1
(g6
g7
g1231
tp6237
Rp6238
(dp6239
g12
g6236
sbsVIdList
p6240
g1
(g18
g19
(lp6241
g1
(g6
g7
S'91680924'
p6242
tp6243
Rp6244
(dp6245
g12
VId
p6246
sbag1
(g6
g7
S'31559045'
p6247
tp6248
Rp6249
(dp6250
g12
g6246
sbatp6251
Rp6252
(dp6253
g12
g6240
sbsVQueryTranslation
p6254
g1
(g6
g7
S'Lutjanus stellatus[PORG] AND 16S[title]'
p6255
tp6256
Rp6257
(dp6258
g12
g6254
sbsVTranslationStack
p6259
g1
(g18
g19
(lp6260
g1
(g2
g3
(dp6261
g6232
g1
(g6
g7
S'58'
p6262
tp6263
Rp6264
(dp6265
g12
g6232
sbsVField
p6266
g1
(g6
g7
S'PORG'
p6267
tp6268
Rp6269
(dp6270
g12
g6266
sbsVTerm
p6271
g1
(g6
g7
S'Lutjanus stellatus[PORG]'
p6272
tp6273
Rp6274
(dp6275
g12
g6271
sbsVExplode
p6276
g1
(g6
g7
g52
tp6277
Rp6278
(dp6279
g12
g6276
sbstp6280
Rp6281
(dp6282
g12
VTermSet
p6283
sbag1
(g2
g3
(dp6284
g6232
g1
(g6
g7
S'7108870'
p6285
tp6286
Rp6287
(dp6288
g12
g6232
sbsg6266
g1
(g6
g7
S'title'
p6289
tp6290
Rp6291
(dp6292
g12
g6266
sbsg6271
g1
(g6
g7
S'16S[title]'
p6293
tp6294
Rp6295
(dp6296
g12
g6271
sbsg6276
g1
(g6
g7
g73
tp6297
Rp6298
(dp6299
g12
g6276
sbstp6300
Rp6301
(dp6302
g12
g6283
sbag1
(g6
g7
S'AND'
p6303
tp6304
Rp6305
(dp6306
g12
VOP
p6307
sbatp6308
Rp6309
(dp6310
g12
g6259
sbsVRetStart
p6311
g1
(g6
g7
g89
tp6312
Rp6313
(dp6314
g12
g6311
sbsVTranslationSet
p6315
g1
(g18
g19
(lp6316
tp6317
Rp6318
(dp6319
g12
g6315
sbstp6320
Rp6321
(dp6322
g12
VeSearchResult
p6323
sbag1
(g2
g3
(dp6324
VCount
p6325
g1
(g6
g7
g381
tp6326
Rp6327
(dp6328
g12
g6325
sbsVRetMax
p6329
g1
(g6
g7
g381
tp6330
Rp6331
(dp6332
g12
g6329
sbsVIdList
p6333
g1
(g18
g19
(lp6334
g1
(g6
g7
S'109158923'
p6335
tp6336
Rp6337
(dp6338
g12
VId
p6339
sbag1
(g6
g7
S'109158590'
p6340
tp6341
Rp6342
(dp6343
g12
g6339
sbag1
(g6
g7
S'113203268'
p6344
tp6345
Rp6346
(dp6347
g12
g6339
sbatp6348
Rp6349
(dp6350
g12
g6333
sbsVQueryTranslation
p6351
g1
(g6
g7
S'Lutjanus synagris[PORG] AND 16S[title]'
p6352
tp6353
Rp6354
(dp6355
g12
g6351
sbsVTranslationStack
p6356
g1
(g18
g19
(lp6357
g1
(g2
g3
(dp6358
g6325
g1
(g6
g7
S'148'
p6359
tp6360
Rp6361
(dp6362
g12
g6325
sbsVField
p6363
g1
(g6
g7
S'PORG'
p6364
tp6365
Rp6366
(dp6367
g12
g6363
sbsVTerm
p6368
g1
(g6
g7
S'Lutjanus synagris[PORG]'
p6369
tp6370
Rp6371
(dp6372
g12
g6368
sbsVExplode
p6373
g1
(g6
g7
g52
tp6374
Rp6375
(dp6376
g12
g6373
sbstp6377
Rp6378
(dp6379
g12
VTermSet
p6380
sbag1
(g2
g3
(dp6381
g6325
g1
(g6
g7
S'7108870'
p6382
tp6383
Rp6384
(dp6385
g12
g6325
sbsg6363
g1
(g6
g7
S'title'
p6386
tp6387
Rp6388
(dp6389
g12
g6363
sbsg6368
g1
(g6
g7
S'16S[title]'
p6390
tp6391
Rp6392
(dp6393
g12
g6368
sbsg6373
g1
(g6
g7
g73
tp6394
Rp6395
(dp6396
g12
g6373
sbstp6397
Rp6398
(dp6399
g12
g6380
sbag1
(g6
g7
S'AND'
p6400
tp6401
Rp6402
(dp6403
g12
VOP
p6404
sbatp6405
Rp6406
(dp6407
g12
g6356
sbsVRetStart
p6408
g1
(g6
g7
g89
tp6409
Rp6410
(dp6411
g12
g6408
sbsVTranslationSet
p6412
g1
(g18
g19
(lp6413
tp6414
Rp6415
(dp6416
g12
g6412
sbstp6417
Rp6418
(dp6419
g12
VeSearchResult
p6420
sbag1
(g2
g3
(dp6421
VCount
p6422
g1
(g6
g7
g89
tp6423
Rp6424
(dp6425
g12
g6422
sbsVRetMax
p6426
g1
(g6
g7
g89
tp6427
Rp6428
(dp6429
g12
g6426
sbsVIdList
p6430
g1
(g18
g19
(lp6431
tp6432
Rp6433
(dp6434
g12
g6430
sbsVQueryTranslation
p6435
g1
(g6
g7
S'Lutjanus timoriensis[PORG] AND 16S[title]'
p6436
tp6437
Rp6438
(dp6439
g12
g6435
sbsVTranslationStack
p6440
g1
(g18
g19
(lp6441
g1
(g2
g3
(dp6442
g6422
g1
(g6
g7
g381
tp6443
Rp6444
(dp6445
g12
g6422
sbsVField
p6446
g1
(g6
g7
S'PORG'
p6447
tp6448
Rp6449
(dp6450
g12
g6446
sbsVTerm
p6451
g1
(g6
g7
S'Lutjanus timoriensis[PORG]'
p6452
tp6453
Rp6454
(dp6455
g12
g6451
sbsVExplode
p6456
g1
(g6
g7
g52
tp6457
Rp6458
(dp6459
g12
g6456
sbstp6460
Rp6461
(dp6462
g12
VTermSet
p6463
sbag1
(g2
g3
(dp6464
g6422
g1
(g6
g7
S'7108870'
p6465
tp6466
Rp6467
(dp6468
g12
g6422
sbsg6446
g1
(g6
g7
S'title'
p6469
tp6470
Rp6471
(dp6472
g12
g6446
sbsg6451
g1
(g6
g7
S'16S[title]'
p6473
tp6474
Rp6475
(dp6476
g12
g6451
sbsg6456
g1
(g6
g7
g73
tp6477
Rp6478
(dp6479
g12
g6456
sbstp6480
Rp6481
(dp6482
g12
g6463
sbag1
(g6
g7
S'AND'
p6483
tp6484
Rp6485
(dp6486
g12
VOP
p6487
sbatp6488
Rp6489
(dp6490
g12
g6440
sbsVRetStart
p6491
g1
(g6
g7
g89
tp6492
Rp6493
(dp6494
g12
g6491
sbsVTranslationSet
p6495
g1
(g18
g19
(lp6496
tp6497
Rp6498
(dp6499
g12
g6495
sbstp6500
Rp6501
(dp6502
g12
VeSearchResult
p6503
sbag1
(g2
g3
(dp6504
VCount
p6505
g1
(g6
g7
g89
tp6506
Rp6507
(dp6508
g12
g6505
sbsVRetMax
p6509
g1
(g6
g7
g89
tp6510
Rp6511
(dp6512
g12
g6509
sbsVIdList
p6513
g1
(g18
g19
(lp6514
tp6515
Rp6516
(dp6517
g12
g6513
sbsVQueryTranslation
p6518
g1
(g6
g7
S'Lutjanus viridis[PORG] AND 16S[title]'
p6519
tp6520
Rp6521
(dp6522
g12
g6518
sbsVTranslationStack
p6523
g1
(g18
g19
(lp6524
g1
(g2
g3
(dp6525
g6505
g1
(g6
g7
g801
tp6526
Rp6527
(dp6528
g12
g6505
sbsVField
p6529
g1
(g6
g7
S'PORG'
p6530
tp6531
Rp6532
(dp6533
g12
g6529
sbsVTerm
p6534
g1
(g6
g7
S'Lutjanus viridis[PORG]'
p6535
tp6536
Rp6537
(dp6538
g12
g6534
sbsVExplode
p6539
g1
(g6
g7
g52
tp6540
Rp6541
(dp6542
g12
g6539
sbstp6543
Rp6544
(dp6545
g12
VTermSet
p6546
sbag1
(g2
g3
(dp6547
g6505
g1
(g6
g7
S'7108870'
p6548
tp6549
Rp6550
(dp6551
g12
g6505
sbsg6529
g1
(g6
g7
S'title'
p6552
tp6553
Rp6554
(dp6555
g12
g6529
sbsg6534
g1
(g6
g7
S'16S[title]'
p6556
tp6557
Rp6558
(dp6559
g12
g6534
sbsg6539
g1
(g6
g7
g73
tp6560
Rp6561
(dp6562
g12
g6539
sbstp6563
Rp6564
(dp6565
g12
g6546
sbag1
(g6
g7
S'AND'
p6566
tp6567
Rp6568
(dp6569
g12
VOP
p6570
sbatp6571
Rp6572
(dp6573
g12
g6523
sbsVRetStart
p6574
g1
(g6
g7
g89
tp6575
Rp6576
(dp6577
g12
g6574
sbsVTranslationSet
p6578
g1
(g18
g19
(lp6579
tp6580
Rp6581
(dp6582
g12
g6578
sbstp6583
Rp6584
(dp6585
g12
VeSearchResult
p6586
sbag1
(g2
g3
(dp6587
VCount
p6588
g1
(g6
g7
g1231
tp6589
Rp6590
(dp6591
g12
g6588
sbsVRetMax
p6592
g1
(g6
g7
g1231
tp6593
Rp6594
(dp6595
g12
g6592
sbsVIdList
p6596
g1
(g18
g19
(lp6597
g1
(g6
g7
S'111038381'
p6598
tp6599
Rp6600
(dp6601
g12
VId
p6602
sbag1
(g6
g7
S'91680923'
p6603
tp6604
Rp6605
(dp6606
g12
g6602
sbatp6607
Rp6608
(dp6609
g12
g6596
sbsVQueryTranslation
p6610
g1
(g6
g7
S'Lutjanus vitta[PORG] AND 16S[title]'
p6611
tp6612
Rp6613
(dp6614
g12
g6610
sbsVTranslationStack
p6615
g1
(g18
g19
(lp6616
g1
(g2
g3
(dp6617
g6588
g1
(g6
g7
S'49'
p6618
tp6619
Rp6620
(dp6621
g12
g6588
sbsVField
p6622
g1
(g6
g7
S'PORG'
p6623
tp6624
Rp6625
(dp6626
g12
g6622
sbsVTerm
p6627
g1
(g6
g7
S'Lutjanus vitta[PORG]'
p6628
tp6629
Rp6630
(dp6631
g12
g6627
sbsVExplode
p6632
g1
(g6
g7
g52
tp6633
Rp6634
(dp6635
g12
g6632
sbstp6636
Rp6637
(dp6638
g12
VTermSet
p6639
sbag1
(g2
g3
(dp6640
g6588
g1
(g6
g7
S'7108870'
p6641
tp6642
Rp6643
(dp6644
g12
g6588
sbsg6622
g1
(g6
g7
S'title'
p6645
tp6646
Rp6647
(dp6648
g12
g6622
sbsg6627
g1
(g6
g7
S'16S[title]'
p6649
tp6650
Rp6651
(dp6652
g12
g6627
sbsg6632
g1
(g6
g7
g73
tp6653
Rp6654
(dp6655
g12
g6632
sbstp6656
Rp6657
(dp6658
g12
g6639
sbag1
(g6
g7
S'AND'
p6659
tp6660
Rp6661
(dp6662
g12
VOP
p6663
sbatp6664
Rp6665
(dp6666
g12
g6615
sbsVRetStart
p6667
g1
(g6
g7
g89
tp6668
Rp6669
(dp6670
g12
g6667
sbsVTranslationSet
p6671
g1
(g18
g19
(lp6672
tp6673
Rp6674
(dp6675
g12
g6671
sbstp6676
Rp6677
(dp6678
g12
VeSearchResult
p6679
sbag1
(g2
g3
(dp6680
VCount
p6681
g1
(g6
g7
g89
tp6682
Rp6683
(dp6684
g12
g6681
sbsVRetMax
p6685
g1
(g6
g7
g89
tp6686
Rp6687
(dp6688
g12
g6685
sbsVIdList
p6689
g1
(g18
g19
(lp6690
tp6691
Rp6692
(dp6693
g12
g6689
sbsVQueryTranslation
p6694
g1
(g6
g7
S'Lutjanus vivanus[PORG] AND 16S[title]'
p6695
tp6696
Rp6697
(dp6698
g12
g6694
sbsVTranslationStack
p6699
g1
(g18
g19
(lp6700
g1
(g2
g3
(dp6701
g6681
g1
(g6
g7
S'28'
p6702
tp6703
Rp6704
(dp6705
g12
g6681
sbsVField
p6706
g1
(g6
g7
S'PORG'
p6707
tp6708
Rp6709
(dp6710
g12
g6706
sbsVTerm
p6711
g1
(g6
g7
S'Lutjanus vivanus[PORG]'
p6712
tp6713
Rp6714
(dp6715
g12
g6711
sbsVExplode
p6716
g1
(g6
g7
g52
tp6717
Rp6718
(dp6719
g12
g6716
sbstp6720
Rp6721
(dp6722
g12
VTermSet
p6723
sbag1
(g2
g3
(dp6724
g6681
g1
(g6
g7
S'7108870'
p6725
tp6726
Rp6727
(dp6728
g12
g6681
sbsg6706
g1
(g6
g7
S'title'
p6729
tp6730
Rp6731
(dp6732
g12
g6706
sbsg6711
g1
(g6
g7
S'16S[title]'
p6733
tp6734
Rp6735
(dp6736
g12
g6711
sbsg6716
g1
(g6
g7
g73
tp6737
Rp6738
(dp6739
g12
g6716
sbstp6740
Rp6741
(dp6742
g12
g6723
sbag1
(g6
g7
S'AND'
p6743
tp6744
Rp6745
(dp6746
g12
VOP
p6747
sbatp6748
Rp6749
(dp6750
g12
g6699
sbsVRetStart
p6751
g1
(g6
g7
g89
tp6752
Rp6753
(dp6754
g12
g6751
sbsVTranslationSet
p6755
g1
(g18
g19
(lp6756
tp6757
Rp6758
(dp6759
g12
g6755
sbstp6760
Rp6761
(dp6762
g12
VeSearchResult
p6763
sbag1
(g2
g3
(dp6764
VCount
p6765
g1
(g6
g7
g89
tp6766
Rp6767
(dp6768
g12
g6765
sbsVRetMax
p6769
g1
(g6
g7
g89
tp6770
Rp6771
(dp6772
g12
g6769
sbsVIdList
p6773
g1
(g18
g19
(lp6774
tp6775
Rp6776
(dp6777
g12
g6773
sbsVQueryTranslation
p6778
g1
(g6
g7
S'Macolor macularis[PORG] AND 16S[title]'
p6779
tp6780
Rp6781
(dp6782
g12
g6778
sbsVTranslationStack
p6783
g1
(g18
g19
(lp6784
g1
(g2
g3
(dp6785
g6765
g1
(g6
g7
g2458
tp6786
Rp6787
(dp6788
g12
g6765
sbsVField
p6789
g1
(g6
g7
S'PORG'
p6790
tp6791
Rp6792
(dp6793
g12
g6789
sbsVTerm
p6794
g1
(g6
g7
S'Macolor macularis[PORG]'
p6795
tp6796
Rp6797
(dp6798
g12
g6794
sbsVExplode
p6799
g1
(g6
g7
g52
tp6800
Rp6801
(dp6802
g12
g6799
sbstp6803
Rp6804
(dp6805
g12
VTermSet
p6806
sbag1
(g2
g3
(dp6807
g6765
g1
(g6
g7
S'7108870'
p6808
tp6809
Rp6810
(dp6811
g12
g6765
sbsg6789
g1
(g6
g7
S'title'
p6812
tp6813
Rp6814
(dp6815
g12
g6789
sbsg6794
g1
(g6
g7
S'16S[title]'
p6816
tp6817
Rp6818
(dp6819
g12
g6794
sbsg6799
g1
(g6
g7
g73
tp6820
Rp6821
(dp6822
g12
g6799
sbstp6823
Rp6824
(dp6825
g12
g6806
sbag1
(g6
g7
S'AND'
p6826
tp6827
Rp6828
(dp6829
g12
VOP
p6830
sbatp6831
Rp6832
(dp6833
g12
g6783
sbsVRetStart
p6834
g1
(g6
g7
g89
tp6835
Rp6836
(dp6837
g12
g6834
sbsVTranslationSet
p6838
g1
(g18
g19
(lp6839
tp6840
Rp6841
(dp6842
g12
g6838
sbstp6843
Rp6844
(dp6845
g12
VeSearchResult
p6846
sbag1
(g2
g3
(dp6847
VCount
p6848
g1
(g6
g7
g8
tp6849
Rp6850
(dp6851
g12
g6848
sbsVRetMax
p6852
g1
(g6
g7
g8
tp6853
Rp6854
(dp6855
g12
g6852
sbsVIdList
p6856
g1
(g18
g19
(lp6857
g1
(g6
g7
S'111038382'
p6858
tp6859
Rp6860
(dp6861
g12
VId
p6862
sbatp6863
Rp6864
(dp6865
g12
g6856
sbsVQueryTranslation
p6866
g1
(g6
g7
S'Macolor niger[PORG] AND 16S[title]'
p6867
tp6868
Rp6869
(dp6870
g12
g6866
sbsVTranslationStack
p6871
g1
(g18
g19
(lp6872
g1
(g2
g3
(dp6873
g6848
g1
(g6
g7
S'19'
p6874
tp6875
Rp6876
(dp6877
g12
g6848
sbsVField
p6878
g1
(g6
g7
S'PORG'
p6879
tp6880
Rp6881
(dp6882
g12
g6878
sbsVTerm
p6883
g1
(g6
g7
S'Macolor niger[PORG]'
p6884
tp6885
Rp6886
(dp6887
g12
g6883
sbsVExplode
p6888
g1
(g6
g7
g52
tp6889
Rp6890
(dp6891
g12
g6888
sbstp6892
Rp6893
(dp6894
g12
VTermSet
p6895
sbag1
(g2
g3
(dp6896
g6848
g1
(g6
g7
S'7108870'
p6897
tp6898
Rp6899
(dp6900
g12
g6848
sbsg6878
g1
(g6
g7
S'title'
p6901
tp6902
Rp6903
(dp6904
g12
g6878
sbsg6883
g1
(g6
g7
S'16S[title]'
p6905
tp6906
Rp6907
(dp6908
g12
g6883
sbsg6888
g1
(g6
g7
g73
tp6909
Rp6910
(dp6911
g12
g6888
sbstp6912
Rp6913
(dp6914
g12
g6895
sbag1
(g6
g7
S'AND'
p6915
tp6916
Rp6917
(dp6918
g12
VOP
p6919
sbatp6920
Rp6921
(dp6922
g12
g6871
sbsVRetStart
p6923
g1
(g6
g7
g89
tp6924
Rp6925
(dp6926
g12
g6923
sbsVTranslationSet
p6927
g1
(g18
g19
(lp6928
tp6929
Rp6930
(dp6931
g12
g6927
sbstp6932
Rp6933
(dp6934
g12
VeSearchResult
p6935
sbag1
(g2
g3
(dp6936
VCount
p6937
g1
(g6
g7
g1231
tp6938
Rp6939
(dp6940
g12
g6937
sbsVRetMax
p6941
g1
(g6
g7
g1231
tp6942
Rp6943
(dp6944
g12
g6941
sbsVIdList
p6945
g1
(g18
g19
(lp6946
g1
(g6
g7
S'667699059'
p6947
tp6948
Rp6949
(dp6950
g12
VId
p6951
sbag1
(g6
g7
S'113203271'
p6952
tp6953
Rp6954
(dp6955
g12
g6951
sbatp6956
Rp6957
(dp6958
g12
g6945
sbsVQueryTranslation
p6959
g1
(g6
g7
S'Ocyurus chrysurus[PORG] AND 16S[title]'
p6960
tp6961
Rp6962
(dp6963
g12
g6959
sbsVTranslationStack
p6964
g1
(g18
g19
(lp6965
g1
(g2
g3
(dp6966
g6937
g1
(g6
g7
S'320'
p6967
tp6968
Rp6969
(dp6970
g12
g6937
sbsVField
p6971
g1
(g6
g7
S'PORG'
p6972
tp6973
Rp6974
(dp6975
g12
g6971
sbsVTerm
p6976
g1
(g6
g7
S'Ocyurus chrysurus[PORG]'
p6977
tp6978
Rp6979
(dp6980
g12
g6976
sbsVExplode
p6981
g1
(g6
g7
g52
tp6982
Rp6983
(dp6984
g12
g6981
sbstp6985
Rp6986
(dp6987
g12
VTermSet
p6988
sbag1
(g2
g3
(dp6989
g6937
g1
(g6
g7
S'7108870'
p6990
tp6991
Rp6992
(dp6993
g12
g6937
sbsg6971
g1
(g6
g7
S'title'
p6994
tp6995
Rp6996
(dp6997
g12
g6971
sbsg6976
g1
(g6
g7
S'16S[title]'
p6998
tp6999
Rp7000
(dp7001
g12
g6976
sbsg6981
g1
(g6
g7
g73
tp7002
Rp7003
(dp7004
g12
g6981
sbstp7005
Rp7006
(dp7007
g12
g6988
sbag1
(g6
g7
S'AND'
p7008
tp7009
Rp7010
(dp7011
g12
VOP
p7012
sbatp7013
Rp7014
(dp7015
g12
g6964
sbsVRetStart
p7016
g1
(g6
g7
g89
tp7017
Rp7018
(dp7019
g12
g7016
sbsVTranslationSet
p7020
g1
(g18
g19
(lp7021
tp7022
Rp7023
(dp7024
g12
g7020
sbstp7025
Rp7026
(dp7027
g12
VeSearchResult
p7028
sbag1
(g2
g3
(dp7029
VCount
p7030
g1
(g6
g7
g89
tp7031
Rp7032
(dp7033
g12
g7030
sbsVRetMax
p7034
g1
(g6
g7
g89
tp7035
Rp7036
(dp7037
g12
g7034
sbsVIdList
p7038
g1
(g18
g19
(lp7039
tp7040
Rp7041
(dp7042
g12
g7038
sbsVQueryTranslation
p7043
g1
(g6
g7
S'Paracaesio caerulea[PORG] AND 16S[title]'
p7044
tp7045
Rp7046
(dp7047
g12
g7043
sbsVTranslationStack
p7048
g1
(g18
g19
(lp7049
g1
(g2
g3
(dp7050
g7030
g1
(g6
g7
g8
tp7051
Rp7052
(dp7053
g12
g7030
sbsVField
p7054
g1
(g6
g7
S'PORG'
p7055
tp7056
Rp7057
(dp7058
g12
g7054
sbsVTerm
p7059
g1
(g6
g7
S'Paracaesio caerulea[PORG]'
p7060
tp7061
Rp7062
(dp7063
g12
g7059
sbsVExplode
p7064
g1
(g6
g7
g52
tp7065
Rp7066
(dp7067
g12
g7064
sbstp7068
Rp7069
(dp7070
g12
VTermSet
p7071
sbag1
(g2
g3
(dp7072
g7030
g1
(g6
g7
S'7108870'
p7073
tp7074
Rp7075
(dp7076
g12
g7030
sbsg7054
g1
(g6
g7
S'title'
p7077
tp7078
Rp7079
(dp7080
g12
g7054
sbsg7059
g1
(g6
g7
S'16S[title]'
p7081
tp7082
Rp7083
(dp7084
g12
g7059
sbsg7064
g1
(g6
g7
g73
tp7085
Rp7086
(dp7087
g12
g7064
sbstp7088
Rp7089
(dp7090
g12
g7071
sbag1
(g6
g7
S'AND'
p7091
tp7092
Rp7093
(dp7094
g12
VOP
p7095
sbatp7096
Rp7097
(dp7098
g12
g7048
sbsVRetStart
p7099
g1
(g6
g7
g89
tp7100
Rp7101
(dp7102
g12
g7099
sbsVTranslationSet
p7103
g1
(g18
g19
(lp7104
tp7105
Rp7106
(dp7107
g12
g7103
sbstp7108
Rp7109
(dp7110
g12
VeSearchResult
p7111
sbag1
(g2
g3
(dp7112
VCount
p7113
g1
(g6
g7
g89
tp7114
Rp7115
(dp7116
g12
g7113
sbsVRetMax
p7117
g1
(g6
g7
g89
tp7118
Rp7119
(dp7120
g12
g7117
sbsVIdList
p7121
g1
(g18
g19
(lp7122
tp7123
Rp7124
(dp7125
g12
g7121
sbsVRetStart
p7126
g1
(g6
g7
g89
tp7127
Rp7128
(dp7129
g12
g7126
sbsVErrorList
p7130
g1
(g1054
g3
(dp7131
VFieldNotFound
p7132
(lp7133
sVPhraseNotFound
p7134
(lp7135
g1
(g6
g7
S'Paracaesio gonzalesi[PORG]'
p7136
tp7137
Rp7138
(dp7139
g12
VPhraseNotFound
p7140
sbastp7141
Rp7142
(dp7143
g12
g7130
sg1068
(lp7144
g7134
ag7132
asbsVTranslationSet
p7145
g1
(g18
g19
(lp7146
tp7147
Rp7148
(dp7149
g12
g7145
sbsVWarningList
p7150
g1
(g1054
g3
(dp7151
VOutputMessage
p7152
(lp7153
g1
(g6
g7
S'No items found.'
p7154
tp7155
Rp7156
(dp7157
g12
VOutputMessage
p7158
sbasVPhraseIgnored
p7159
(lp7160
sVQuotedPhraseNotFound
p7161
(lp7162
stp7163
Rp7164
(dp7165
g12
g7150
sg1068
(lp7166
g7159
ag7161
ag7152
asbsVQueryTranslation
p7167
g1
(g6
g7
S'Paracaesio gonzalesi[PORG] AND 16S[title]'
p7168
tp7169
Rp7170
(dp7171
g12
g7167
sbstp7172
Rp7173
(dp7174
g12
VeSearchResult
p7175
sbag1
(g2
g3
(dp7176
VCount
p7177
g1
(g6
g7
g89
tp7178
Rp7179
(dp7180
g12
g7177
sbsVRetMax
p7181
g1
(g6
g7
g89
tp7182
Rp7183
(dp7184
g12
g7181
sbsVIdList
p7185
g1
(g18
g19
(lp7186
tp7187
Rp7188
(dp7189
g12
g7185
sbsVQueryTranslation
p7190
g1
(g6
g7
S'Paracaesio kusakarii[PORG] AND 16S[title]'
p7191
tp7192
Rp7193
(dp7194
g12
g7190
sbsVTranslationStack
p7195
g1
(g18
g19
(lp7196
g1
(g2
g3
(dp7197
g7177
g1
(g6
g7
g8
tp7198
Rp7199
(dp7200
g12
g7177
sbsVField
p7201
g1
(g6
g7
S'PORG'
p7202
tp7203
Rp7204
(dp7205
g12
g7201
sbsVTerm
p7206
g1
(g6
g7
S'Paracaesio kusakarii[PORG]'
p7207
tp7208
Rp7209
(dp7210
g12
g7206
sbsVExplode
p7211
g1
(g6
g7
g52
tp7212
Rp7213
(dp7214
g12
g7211
sbstp7215
Rp7216
(dp7217
g12
VTermSet
p7218
sbag1
(g2
g3
(dp7219
g7177
g1
(g6
g7
S'7108870'
p7220
tp7221
Rp7222
(dp7223
g12
g7177
sbsg7201
g1
(g6
g7
S'title'
p7224
tp7225
Rp7226
(dp7227
g12
g7201
sbsg7206
g1
(g6
g7
S'16S[title]'
p7228
tp7229
Rp7230
(dp7231
g12
g7206
sbsg7211
g1
(g6
g7
g73
tp7232
Rp7233
(dp7234
g12
g7211
sbstp7235
Rp7236
(dp7237
g12
g7218
sbag1
(g6
g7
S'AND'
p7238
tp7239
Rp7240
(dp7241
g12
VOP
p7242
sbatp7243
Rp7244
(dp7245
g12
g7195
sbsVRetStart
p7246
g1
(g6
g7
g89
tp7247
Rp7248
(dp7249
g12
g7246
sbsVTranslationSet
p7250
g1
(g18
g19
(lp7251
tp7252
Rp7253
(dp7254
g12
g7250
sbstp7255
Rp7256
(dp7257
g12
VeSearchResult
p7258
sbag1
(g2
g3
(dp7259
VCount
p7260
g1
(g6
g7
g89
tp7261
Rp7262
(dp7263
g12
g7260
sbsVRetMax
p7264
g1
(g6
g7
g89
tp7265
Rp7266
(dp7267
g12
g7264
sbsVIdList
p7268
g1
(g18
g19
(lp7269
tp7270
Rp7271
(dp7272
g12
g7268
sbsVRetStart
p7273
g1
(g6
g7
g89
tp7274
Rp7275
(dp7276
g12
g7273
sbsVErrorList
p7277
g1
(g1054
g3
(dp7278
VFieldNotFound
p7279
(lp7280
sVPhraseNotFound
p7281
(lp7282
g1
(g6
g7
S'Paracaesio paragrapsimodon[PORG]'
p7283
tp7284
Rp7285
(dp7286
g12
VPhraseNotFound
p7287
sbastp7288
Rp7289
(dp7290
g12
g7277
sg1068
(lp7291
g7281
ag7279
asbsVTranslationSet
p7292
g1
(g18
g19
(lp7293
tp7294
Rp7295
(dp7296
g12
g7292
sbsVWarningList
p7297
g1
(g1054
g3
(dp7298
VOutputMessage
p7299
(lp7300
g1
(g6
g7
S'No items found.'
p7301
tp7302
Rp7303
(dp7304
g12
VOutputMessage
p7305
sbasVPhraseIgnored
p7306
(lp7307
sVQuotedPhraseNotFound
p7308
(lp7309
stp7310
Rp7311
(dp7312
g12
g7297
sg1068
(lp7313
g7306
ag7308
ag7299
asbsVQueryTranslation
p7314
g1
(g6
g7
S'Paracaesio paragrapsimodon[PORG] AND 16S[title]'
p7315
tp7316
Rp7317
(dp7318
g12
g7314
sbstp7319
Rp7320
(dp7321
g12
VeSearchResult
p7322
sbag1
(g2
g3
(dp7323
VCount
p7324
g1
(g6
g7
g89
tp7325
Rp7326
(dp7327
g12
g7324
sbsVRetMax
p7328
g1
(g6
g7
g89
tp7329
Rp7330
(dp7331
g12
g7328
sbsVIdList
p7332
g1
(g18
g19
(lp7333
tp7334
Rp7335
(dp7336
g12
g7332
sbsVQueryTranslation
p7337
g1
(g6
g7
S'Paracaesio sordida[PORG] AND 16S[title]'
p7338
tp7339
Rp7340
(dp7341
g12
g7337
sbsVTranslationStack
p7342
g1
(g18
g19
(lp7343
g1
(g2
g3
(dp7344
g7324
g1
(g6
g7
S'10'
p7345
tp7346
Rp7347
(dp7348
g12
g7324
sbsVField
p7349
g1
(g6
g7
S'PORG'
p7350
tp7351
Rp7352
(dp7353
g12
g7349
sbsVTerm
p7354
g1
(g6
g7
S'Paracaesio sordida[PORG]'
p7355
tp7356
Rp7357
(dp7358
g12
g7354
sbsVExplode
p7359
g1
(g6
g7
g52
tp7360
Rp7361
(dp7362
g12
g7359
sbstp7363
Rp7364
(dp7365
g12
VTermSet
p7366
sbag1
(g2
g3
(dp7367
g7324
g1
(g6
g7
S'7108870'
p7368
tp7369
Rp7370
(dp7371
g12
g7324
sbsg7349
g1
(g6
g7
S'title'
p7372
tp7373
Rp7374
(dp7375
g12
g7349
sbsg7354
g1
(g6
g7
S'16S[title]'
p7376
tp7377
Rp7378
(dp7379
g12
g7354
sbsg7359
g1
(g6
g7
g73
tp7380
Rp7381
(dp7382
g12
g7359
sbstp7383
Rp7384
(dp7385
g12
g7366
sbag1
(g6
g7
S'AND'
p7386
tp7387
Rp7388
(dp7389
g12
VOP
p7390
sbatp7391
Rp7392
(dp7393
g12
g7342
sbsVRetStart
p7394
g1
(g6
g7
g89
tp7395
Rp7396
(dp7397
g12
g7394
sbsVTranslationSet
p7398
g1
(g18
g19
(lp7399
tp7400
Rp7401
(dp7402
g12
g7398
sbstp7403
Rp7404
(dp7405
g12
VeSearchResult
p7406
sbag1
(g2
g3
(dp7407
VCount
p7408
g1
(g6
g7
g89
tp7409
Rp7410
(dp7411
g12
g7408
sbsVRetMax
p7412
g1
(g6
g7
g89
tp7413
Rp7414
(dp7415
g12
g7412
sbsVIdList
p7416
g1
(g18
g19
(lp7417
tp7418
Rp7419
(dp7420
g12
g7416
sbsVQueryTranslation
p7421
g1
(g6
g7
S'Paracaesio stonei[PORG] AND 16S[title]'
p7422
tp7423
Rp7424
(dp7425
g12
g7421
sbsVTranslationStack
p7426
g1
(g18
g19
(lp7427
g1
(g2
g3
(dp7428
g7408
g1
(g6
g7
g8
tp7429
Rp7430
(dp7431
g12
g7408
sbsVField
p7432
g1
(g6
g7
S'PORG'
p7433
tp7434
Rp7435
(dp7436
g12
g7432
sbsVTerm
p7437
g1
(g6
g7
S'Paracaesio stonei[PORG]'
p7438
tp7439
Rp7440
(dp7441
g12
g7437
sbsVExplode
p7442
g1
(g6
g7
g52
tp7443
Rp7444
(dp7445
g12
g7442
sbstp7446
Rp7447
(dp7448
g12
VTermSet
p7449
sbag1
(g2
g3
(dp7450
g7408
g1
(g6
g7
S'7108870'
p7451
tp7452
Rp7453
(dp7454
g12
g7408
sbsg7432
g1
(g6
g7
S'title'
p7455
tp7456
Rp7457
(dp7458
g12
g7432
sbsg7437
g1
(g6
g7
S'16S[title]'
p7459
tp7460
Rp7461
(dp7462
g12
g7437
sbsg7442
g1
(g6
g7
g73
tp7463
Rp7464
(dp7465
g12
g7442
sbstp7466
Rp7467
(dp7468
g12
g7449
sbag1
(g6
g7
S'AND'
p7469
tp7470
Rp7471
(dp7472
g12
VOP
p7473
sbatp7474
Rp7475
(dp7476
g12
g7426
sbsVRetStart
p7477
g1
(g6
g7
g89
tp7478
Rp7479
(dp7480
g12
g7477
sbsVTranslationSet
p7481
g1
(g18
g19
(lp7482
tp7483
Rp7484
(dp7485
g12
g7481
sbstp7486
Rp7487
(dp7488
g12
VeSearchResult
p7489
sbag1
(g2
g3
(dp7490
VCount
p7491
g1
(g6
g7
g89
tp7492
Rp7493
(dp7494
g12
g7491
sbsVRetMax
p7495
g1
(g6
g7
g89
tp7496
Rp7497
(dp7498
g12
g7495
sbsVIdList
p7499
g1
(g18
g19
(lp7500
tp7501
Rp7502
(dp7503
g12
g7499
sbsVRetStart
p7504
g1
(g6
g7
g89
tp7505
Rp7506
(dp7507
g12
g7504
sbsVErrorList
p7508
g1
(g1054
g3
(dp7509
VFieldNotFound
p7510
(lp7511
sVPhraseNotFound
p7512
(lp7513
g1
(g6
g7
S'Paracaesio waltervadi[PORG]'
p7514
tp7515
Rp7516
(dp7517
g12
VPhraseNotFound
p7518
sbastp7519
Rp7520
(dp7521
g12
g7508
sg1068
(lp7522
g7512
ag7510
asbsVTranslationSet
p7523
g1
(g18
g19
(lp7524
tp7525
Rp7526
(dp7527
g12
g7523
sbsVWarningList
p7528
g1
(g1054
g3
(dp7529
VOutputMessage
p7530
(lp7531
g1
(g6
g7
S'No items found.'
p7532
tp7533
Rp7534
(dp7535
g12
VOutputMessage
p7536
sbasVPhraseIgnored
p7537
(lp7538
sVQuotedPhraseNotFound
p7539
(lp7540
stp7541
Rp7542
(dp7543
g12
g7528
sg1068
(lp7544
g7537
ag7539
ag7530
asbsVQueryTranslation
p7545
g1
(g6
g7
S'Paracaesio waltervadi[PORG] AND 16S[title]'
p7546
tp7547
Rp7548
(dp7549
g12
g7545
sbstp7550
Rp7551
(dp7552
g12
VeSearchResult
p7553
sbag1
(g2
g3
(dp7554
VCount
p7555
g1
(g6
g7
g89
tp7556
Rp7557
(dp7558
g12
g7555
sbsVRetMax
p7559
g1
(g6
g7
g89
tp7560
Rp7561
(dp7562
g12
g7559
sbsVIdList
p7563
g1
(g18
g19
(lp7564
tp7565
Rp7566
(dp7567
g12
g7563
sbsVQueryTranslation
p7568
g1
(g6
g7
S'Paracaesio xanthura[PORG] AND 16S[title]'
p7569
tp7570
Rp7571
(dp7572
g12
g7568
sbsVTranslationStack
p7573
g1
(g18
g19
(lp7574
g1
(g2
g3
(dp7575
g7555
g1
(g6
g7
g801
tp7576
Rp7577
(dp7578
g12
g7555
sbsVField
p7579
g1
(g6
g7
S'PORG'
p7580
tp7581
Rp7582
(dp7583
g12
g7579
sbsVTerm
p7584
g1
(g6
g7
S'Paracaesio xanthura[PORG]'
p7585
tp7586
Rp7587
(dp7588
g12
g7584
sbsVExplode
p7589
g1
(g6
g7
g52
tp7590
Rp7591
(dp7592
g12
g7589
sbstp7593
Rp7594
(dp7595
g12
VTermSet
p7596
sbag1
(g2
g3
(dp7597
g7555
g1
(g6
g7
S'7108870'
p7598
tp7599
Rp7600
(dp7601
g12
g7555
sbsg7579
g1
(g6
g7
S'title'
p7602
tp7603
Rp7604
(dp7605
g12
g7579
sbsg7584
g1
(g6
g7
S'16S[title]'
p7606
tp7607
Rp7608
(dp7609
g12
g7584
sbsg7589
g1
(g6
g7
g73
tp7610
Rp7611
(dp7612
g12
g7589
sbstp7613
Rp7614
(dp7615
g12
g7596
sbag1
(g6
g7
S'AND'
p7616
tp7617
Rp7618
(dp7619
g12
VOP
p7620
sbatp7621
Rp7622
(dp7623
g12
g7573
sbsVRetStart
p7624
g1
(g6
g7
g89
tp7625
Rp7626
(dp7627
g12
g7624
sbsVTranslationSet
p7628
g1
(g18
g19
(lp7629
tp7630
Rp7631
(dp7632
g12
g7628
sbstp7633
Rp7634
(dp7635
g12
VeSearchResult
p7636
sbag1
(g2
g3
(dp7637
VCount
p7638
g1
(g6
g7
g89
tp7639
Rp7640
(dp7641
g12
g7638
sbsVRetMax
p7642
g1
(g6
g7
g89
tp7643
Rp7644
(dp7645
g12
g7642
sbsVIdList
p7646
g1
(g18
g19
(lp7647
tp7648
Rp7649
(dp7650
g12
g7646
sbsVRetStart
p7651
g1
(g6
g7
g89
tp7652
Rp7653
(dp7654
g12
g7651
sbsVErrorList
p7655
g1
(g1054
g3
(dp7656
VFieldNotFound
p7657
(lp7658
sVPhraseNotFound
p7659
(lp7660
g1
(g6
g7
S'Parapristipomoides squamimaxillaris[PORG]'
p7661
tp7662
Rp7663
(dp7664
g12
VPhraseNotFound
p7665
sbastp7666
Rp7667
(dp7668
g12
g7655
sg1068
(lp7669
g7659
ag7657
asbsVTranslationSet
p7670
g1
(g18
g19
(lp7671
tp7672
Rp7673
(dp7674
g12
g7670
sbsVWarningList
p7675
g1
(g1054
g3
(dp7676
VOutputMessage
p7677
(lp7678
g1
(g6
g7
S'No items found.'
p7679
tp7680
Rp7681
(dp7682
g12
VOutputMessage
p7683
sbasVPhraseIgnored
p7684
(lp7685
sVQuotedPhraseNotFound
p7686
(lp7687
stp7688
Rp7689
(dp7690
g12
g7675
sg1068
(lp7691
g7684
ag7686
ag7677
asbsVQueryTranslation
p7692
g1
(g6
g7
S'Parapristipomoides squamimaxillaris[PORG] AND 16S[title]'
p7693
tp7694
Rp7695
(dp7696
g12
g7692
sbstp7697
Rp7698
(dp7699
g12
VeSearchResult
p7700
sbag1
(g2
g3
(dp7701
VCount
p7702
g1
(g6
g7
g89
tp7703
Rp7704
(dp7705
g12
g7702
sbsVRetMax
p7706
g1
(g6
g7
g89
tp7707
Rp7708
(dp7709
g12
g7706
sbsVIdList
p7710
g1
(g18
g19
(lp7711
tp7712
Rp7713
(dp7714
g12
g7710
sbsVQueryTranslation
p7715
g1
(g6
g7
S'Pinjalo lewisi[PORG] AND 16S[title]'
p7716
tp7717
Rp7718
(dp7719
g12
g7715
sbsVTranslationStack
p7720
g1
(g18
g19
(lp7721
g1
(g2
g3
(dp7722
g7702
g1
(g6
g7
S'6'
p7723
tp7724
Rp7725
(dp7726
g12
g7702
sbsVField
p7727
g1
(g6
g7
S'PORG'
p7728
tp7729
Rp7730
(dp7731
g12
g7727
sbsVTerm
p7732
g1
(g6
g7
S'Pinjalo lewisi[PORG]'
p7733
tp7734
Rp7735
(dp7736
g12
g7732
sbsVExplode
p7737
g1
(g6
g7
g52
tp7738
Rp7739
(dp7740
g12
g7737
sbstp7741
Rp7742
(dp7743
g12
VTermSet
p7744
sbag1
(g2
g3
(dp7745
g7702
g1
(g6
g7
S'7108870'
p7746
tp7747
Rp7748
(dp7749
g12
g7702
sbsg7727
g1
(g6
g7
S'title'
p7750
tp7751
Rp7752
(dp7753
g12
g7727
sbsg7732
g1
(g6
g7
S'16S[title]'
p7754
tp7755
Rp7756
(dp7757
g12
g7732
sbsg7737
g1
(g6
g7
g73
tp7758
Rp7759
(dp7760
g12
g7737
sbstp7761
Rp7762
(dp7763
g12
g7744
sbag1
(g6
g7
S'AND'
p7764
tp7765
Rp7766
(dp7767
g12
VOP
p7768
sbatp7769
Rp7770
(dp7771
g12
g7720
sbsVRetStart
p7772
g1
(g6
g7
g89
tp7773
Rp7774
(dp7775
g12
g7772
sbsVTranslationSet
p7776
g1
(g18
g19
(lp7777
tp7778
Rp7779
(dp7780
g12
g7776
sbstp7781
Rp7782
(dp7783
g12
VeSearchResult
p7784
sbag1
(g2
g3
(dp7785
VCount
p7786
g1
(g6
g7
g89
tp7787
Rp7788
(dp7789
g12
g7786
sbsVRetMax
p7790
g1
(g6
g7
g89
tp7791
Rp7792
(dp7793
g12
g7790
sbsVIdList
p7794
g1
(g18
g19
(lp7795
tp7796
Rp7797
(dp7798
g12
g7794
sbsVQueryTranslation
p7799
g1
(g6
g7
S'Pinjalo pinjalo[PORG] AND 16S[title]'
p7800
tp7801
Rp7802
(dp7803
g12
g7799
sbsVTranslationStack
p7804
g1
(g18
g19
(lp7805
g1
(g2
g3
(dp7806
g7786
g1
(g6
g7
S'16'
p7807
tp7808
Rp7809
(dp7810
g12
g7786
sbsVField
p7811
g1
(g6
g7
S'PORG'
p7812
tp7813
Rp7814
(dp7815
g12
g7811
sbsVTerm
p7816
g1
(g6
g7
S'Pinjalo pinjalo[PORG]'
p7817
tp7818
Rp7819
(dp7820
g12
g7816
sbsVExplode
p7821
g1
(g6
g7
g52
tp7822
Rp7823
(dp7824
g12
g7821
sbstp7825
Rp7826
(dp7827
g12
VTermSet
p7828
sbag1
(g2
g3
(dp7829
g7786
g1
(g6
g7
S'7108870'
p7830
tp7831
Rp7832
(dp7833
g12
g7786
sbsg7811
g1
(g6
g7
S'title'
p7834
tp7835
Rp7836
(dp7837
g12
g7811
sbsg7816
g1
(g6
g7
S'16S[title]'
p7838
tp7839
Rp7840
(dp7841
g12
g7816
sbsg7821
g1
(g6
g7
g73
tp7842
Rp7843
(dp7844
g12
g7821
sbstp7845
Rp7846
(dp7847
g12
g7828
sbag1
(g6
g7
S'AND'
p7848
tp7849
Rp7850
(dp7851
g12
VOP
p7852
sbatp7853
Rp7854
(dp7855
g12
g7804
sbsVRetStart
p7856
g1
(g6
g7
g89
tp7857
Rp7858
(dp7859
g12
g7856
sbsVTranslationSet
p7860
g1
(g18
g19
(lp7861
tp7862
Rp7863
(dp7864
g12
g7860
sbstp7865
Rp7866
(dp7867
g12
VeSearchResult
p7868
sbag1
(g2
g3
(dp7869
VCount
p7870
g1
(g6
g7
g1231
tp7871
Rp7872
(dp7873
g12
g7870
sbsVRetMax
p7874
g1
(g6
g7
g1231
tp7875
Rp7876
(dp7877
g12
g7874
sbsVIdList
p7878
g1
(g18
g19
(lp7879
g1
(g6
g7
S'109158967'
p7880
tp7881
Rp7882
(dp7883
g12
VId
p7884
sbag1
(g6
g7
S'109158632'
p7885
tp7886
Rp7887
(dp7888
g12
g7884
sbatp7889
Rp7890
(dp7891
g12
g7878
sbsVQueryTranslation
p7892
g1
(g6
g7
S'Pristipomoides aquilonaris[PORG] AND 16S[title]'
p7893
tp7894
Rp7895
(dp7896
g12
g7892
sbsVTranslationStack
p7897
g1
(g18
g19
(lp7898
g1
(g2
g3
(dp7899
g7870
g1
(g6
g7
S'26'
p7900
tp7901
Rp7902
(dp7903
g12
g7870
sbsVField
p7904
g1
(g6
g7
S'PORG'
p7905
tp7906
Rp7907
(dp7908
g12
g7904
sbsVTerm
p7909
g1
(g6
g7
S'Pristipomoides aquilonaris[PORG]'
p7910
tp7911
Rp7912
(dp7913
g12
g7909
sbsVExplode
p7914
g1
(g6
g7
g52
tp7915
Rp7916
(dp7917
g12
g7914
sbstp7918
Rp7919
(dp7920
g12
VTermSet
p7921
sbag1
(g2
g3
(dp7922
g7870
g1
(g6
g7
S'7108870'
p7923
tp7924
Rp7925
(dp7926
g12
g7870
sbsg7904
g1
(g6
g7
S'title'
p7927
tp7928
Rp7929
(dp7930
g12
g7904
sbsg7909
g1
(g6
g7
S'16S[title]'
p7931
tp7932
Rp7933
(dp7934
g12
g7909
sbsg7914
g1
(g6
g7
g73
tp7935
Rp7936
(dp7937
g12
g7914
sbstp7938
Rp7939
(dp7940
g12
g7921
sbag1
(g6
g7
S'AND'
p7941
tp7942
Rp7943
(dp7944
g12
VOP
p7945
sbatp7946
Rp7947
(dp7948
g12
g7897
sbsVRetStart
p7949
g1
(g6
g7
g89
tp7950
Rp7951
(dp7952
g12
g7949
sbsVTranslationSet
p7953
g1
(g18
g19
(lp7954
tp7955
Rp7956
(dp7957
g12
g7953
sbstp7958
Rp7959
(dp7960
g12
VeSearchResult
p7961
sbag1
(g2
g3
(dp7962
VCount
p7963
g1
(g6
g7
g89
tp7964
Rp7965
(dp7966
g12
g7963
sbsVRetMax
p7967
g1
(g6
g7
g89
tp7968
Rp7969
(dp7970
g12
g7967
sbsVIdList
p7971
g1
(g18
g19
(lp7972
tp7973
Rp7974
(dp7975
g12
g7971
sbsVQueryTranslation
p7976
g1
(g6
g7
S'Pristipomoides argyrogrammicus[PORG] AND 16S[title]'
p7977
tp7978
Rp7979
(dp7980
g12
g7976
sbsVTranslationStack
p7981
g1
(g18
g19
(lp7982
g1
(g2
g3
(dp7983
g7963
g1
(g6
g7
g973
tp7984
Rp7985
(dp7986
g12
g7963
sbsVField
p7987
g1
(g6
g7
S'PORG'
p7988
tp7989
Rp7990
(dp7991
g12
g7987
sbsVTerm
p7992
g1
(g6
g7
S'Pristipomoides argyrogrammicus[PORG]'
p7993
tp7994
Rp7995
(dp7996
g12
g7992
sbsVExplode
p7997
g1
(g6
g7
g52
tp7998
Rp7999
(dp8000
g12
g7997
sbstp8001
Rp8002
(dp8003
g12
VTermSet
p8004
sbag1
(g2
g3
(dp8005
g7963
g1
(g6
g7
S'7108870'
p8006
tp8007
Rp8008
(dp8009
g12
g7963
sbsg7987
g1
(g6
g7
S'title'
p8010
tp8011
Rp8012
(dp8013
g12
g7987
sbsg7992
g1
(g6
g7
S'16S[title]'
p8014
tp8015
Rp8016
(dp8017
g12
g7992
sbsg7997
g1
(g6
g7
g73
tp8018
Rp8019
(dp8020
g12
g7997
sbstp8021
Rp8022
(dp8023
g12
g8004
sbag1
(g6
g7
S'AND'
p8024
tp8025
Rp8026
(dp8027
g12
VOP
p8028
sbatp8029
Rp8030
(dp8031
g12
g7981
sbsVRetStart
p8032
g1
(g6
g7
g89
tp8033
Rp8034
(dp8035
g12
g8032
sbsVTranslationSet
p8036
g1
(g18
g19
(lp8037
tp8038
Rp8039
(dp8040
g12
g8036
sbstp8041
Rp8042
(dp8043
g12
VeSearchResult
p8044
sbag1
(g2
g3
(dp8045
VCount
p8046
g1
(g6
g7
g89
tp8047
Rp8048
(dp8049
g12
g8046
sbsVRetMax
p8050
g1
(g6
g7
g89
tp8051
Rp8052
(dp8053
g12
g8050
sbsVIdList
p8054
g1
(g18
g19
(lp8055
tp8056
Rp8057
(dp8058
g12
g8054
sbsVQueryTranslation
p8059
g1
(g6
g7
S'Pristipomoides auricilla[PORG] AND 16S[title]'
p8060
tp8061
Rp8062
(dp8063
g12
g8059
sbsVTranslationStack
p8064
g1
(g18
g19
(lp8065
g1
(g2
g3
(dp8066
g8046
g1
(g6
g7
S'11'
p8067
tp8068
Rp8069
(dp8070
g12
g8046
sbsVField
p8071
g1
(g6
g7
S'PORG'
p8072
tp8073
Rp8074
(dp8075
g12
g8071
sbsVTerm
p8076
g1
(g6
g7
S'Pristipomoides auricilla[PORG]'
p8077
tp8078
Rp8079
(dp8080
g12
g8076
sbsVExplode
p8081
g1
(g6
g7
g52
tp8082
Rp8083
(dp8084
g12
g8081
sbstp8085
Rp8086
(dp8087
g12
VTermSet
p8088
sbag1
(g2
g3
(dp8089
g8046
g1
(g6
g7
S'7108870'
p8090
tp8091
Rp8092
(dp8093
g12
g8046
sbsg8071
g1
(g6
g7
S'title'
p8094
tp8095
Rp8096
(dp8097
g12
g8071
sbsg8076
g1
(g6
g7
S'16S[title]'
p8098
tp8099
Rp8100
(dp8101
g12
g8076
sbsg8081
g1
(g6
g7
g73
tp8102
Rp8103
(dp8104
g12
g8081
sbstp8105
Rp8106
(dp8107
g12
g8088
sbag1
(g6
g7
S'AND'
p8108
tp8109
Rp8110
(dp8111
g12
VOP
p8112
sbatp8113
Rp8114
(dp8115
g12
g8064
sbsVRetStart
p8116
g1
(g6
g7
g89
tp8117
Rp8118
(dp8119
g12
g8116
sbsVTranslationSet
p8120
g1
(g18
g19
(lp8121
tp8122
Rp8123
(dp8124
g12
g8120
sbstp8125
Rp8126
(dp8127
g12
VeSearchResult
p8128
sbag1
(g2
g3
(dp8129
VCount
p8130
g1
(g6
g7
g89
tp8131
Rp8132
(dp8133
g12
g8130
sbsVRetMax
p8134
g1
(g6
g7
g89
tp8135
Rp8136
(dp8137
g12
g8134
sbsVIdList
p8138
g1
(g18
g19
(lp8139
tp8140
Rp8141
(dp8142
g12
g8138
sbsVQueryTranslation
p8143
g1
(g6
g7
S'Pristipomoides filamentosus[PORG] AND 16S[title]'
p8144
tp8145
Rp8146
(dp8147
g12
g8143
sbsVTranslationStack
p8148
g1
(g18
g19
(lp8149
g1
(g2
g3
(dp8150
g8130
g1
(g6
g7
S'184'
p8151
tp8152
Rp8153
(dp8154
g12
g8130
sbsVField
p8155
g1
(g6
g7
S'PORG'
p8156
tp8157
Rp8158
(dp8159
g12
g8155
sbsVTerm
p8160
g1
(g6
g7
S'Pristipomoides filamentosus[PORG]'
p8161
tp8162
Rp8163
(dp8164
g12
g8160
sbsVExplode
p8165
g1
(g6
g7
g52
tp8166
Rp8167
(dp8168
g12
g8165
sbstp8169
Rp8170
(dp8171
g12
VTermSet
p8172
sbag1
(g2
g3
(dp8173
g8130
g1
(g6
g7
S'7108870'
p8174
tp8175
Rp8176
(dp8177
g12
g8130
sbsg8155
g1
(g6
g7
S'title'
p8178
tp8179
Rp8180
(dp8181
g12
g8155
sbsg8160
g1
(g6
g7
S'16S[title]'
p8182
tp8183
Rp8184
(dp8185
g12
g8160
sbsg8165
g1
(g6
g7
g73
tp8186
Rp8187
(dp8188
g12
g8165
sbstp8189
Rp8190
(dp8191
g12
g8172
sbag1
(g6
g7
S'AND'
p8192
tp8193
Rp8194
(dp8195
g12
VOP
p8196
sbatp8197
Rp8198
(dp8199
g12
g8148
sbsVRetStart
p8200
g1
(g6
g7
g89
tp8201
Rp8202
(dp8203
g12
g8200
sbsVTranslationSet
p8204
g1
(g18
g19
(lp8205
tp8206
Rp8207
(dp8208
g12
g8204
sbstp8209
Rp8210
(dp8211
g12
VeSearchResult
p8212
sbag1
(g2
g3
(dp8213
VCount
p8214
g1
(g6
g7
g89
tp8215
Rp8216
(dp8217
g12
g8214
sbsVRetMax
p8218
g1
(g6
g7
g89
tp8219
Rp8220
(dp8221
g12
g8218
sbsVIdList
p8222
g1
(g18
g19
(lp8223
tp8224
Rp8225
(dp8226
g12
g8222
sbsVQueryTranslation
p8227
g1
(g6
g7
S'Pristipomoides flavipinnis[PORG] AND 16S[title]'
p8228
tp8229
Rp8230
(dp8231
g12
g8227
sbsVTranslationStack
p8232
g1
(g18
g19
(lp8233
g1
(g2
g3
(dp8234
g8214
g1
(g6
g7
g8
tp8235
Rp8236
(dp8237
g12
g8214
sbsVField
p8238
g1
(g6
g7
S'PORG'
p8239
tp8240
Rp8241
(dp8242
g12
g8238
sbsVTerm
p8243
g1
(g6
g7
S'Pristipomoides flavipinnis[PORG]'
p8244
tp8245
Rp8246
(dp8247
g12
g8243
sbsVExplode
p8248
g1
(g6
g7
g52
tp8249
Rp8250
(dp8251
g12
g8248
sbstp8252
Rp8253
(dp8254
g12
VTermSet
p8255
sbag1
(g2
g3
(dp8256
g8214
g1
(g6
g7
S'7108870'
p8257
tp8258
Rp8259
(dp8260
g12
g8214
sbsg8238
g1
(g6
g7
S'title'
p8261
tp8262
Rp8263
(dp8264
g12
g8238
sbsg8243
g1
(g6
g7
S'16S[title]'
p8265
tp8266
Rp8267
(dp8268
g12
g8243
sbsg8248
g1
(g6
g7
g73
tp8269
Rp8270
(dp8271
g12
g8248
sbstp8272
Rp8273
(dp8274
g12
g8255
sbag1
(g6
g7
S'AND'
p8275
tp8276
Rp8277
(dp8278
g12
VOP
p8279
sbatp8280
Rp8281
(dp8282
g12
g8232
sbsVRetStart
p8283
g1
(g6
g7
g89
tp8284
Rp8285
(dp8286
g12
g8283
sbsVTranslationSet
p8287
g1
(g18
g19
(lp8288
tp8289
Rp8290
(dp8291
g12
g8287
sbstp8292
Rp8293
(dp8294
g12
VeSearchResult
p8295
sbag1
(g2
g3
(dp8296
VCount
p8297
g1
(g6
g7
g89
tp8298
Rp8299
(dp8300
g12
g8297
sbsVRetMax
p8301
g1
(g6
g7
g89
tp8302
Rp8303
(dp8304
g12
g8301
sbsVIdList
p8305
g1
(g18
g19
(lp8306
tp8307
Rp8308
(dp8309
g12
g8305
sbsVRetStart
p8310
g1
(g6
g7
g89
tp8311
Rp8312
(dp8313
g12
g8310
sbsVErrorList
p8314
g1
(g1054
g3
(dp8315
VFieldNotFound
p8316
(lp8317
sVPhraseNotFound
p8318
(lp8319
g1
(g6
g7
S'Pristipomoides freemani[PORG]'
p8320
tp8321
Rp8322
(dp8323
g12
VPhraseNotFound
p8324
sbastp8325
Rp8326
(dp8327
g12
g8314
sg1068
(lp8328
g8318
ag8316
asbsVTranslationSet
p8329
g1
(g18
g19
(lp8330
tp8331
Rp8332
(dp8333
g12
g8329
sbsVWarningList
p8334
g1
(g1054
g3
(dp8335
VOutputMessage
p8336
(lp8337
g1
(g6
g7
S'No items found.'
p8338
tp8339
Rp8340
(dp8341
g12
VOutputMessage
p8342
sbasVPhraseIgnored
p8343
(lp8344
sVQuotedPhraseNotFound
p8345
(lp8346
stp8347
Rp8348
(dp8349
g12
g8334
sg1068
(lp8350
g8343
ag8345
ag8336
asbsVQueryTranslation
p8351
g1
(g6
g7
S'Pristipomoides freemani[PORG] AND 16S[title]'
p8352
tp8353
Rp8354
(dp8355
g12
g8351
sbstp8356
Rp8357
(dp8358
g12
VeSearchResult
p8359
sbag1
(g2
g3
(dp8360
VCount
p8361
g1
(g6
g7
g89
tp8362
Rp8363
(dp8364
g12
g8361
sbsVRetMax
p8365
g1
(g6
g7
g89
tp8366
Rp8367
(dp8368
g12
g8365
sbsVIdList
p8369
g1
(g18
g19
(lp8370
tp8371
Rp8372
(dp8373
g12
g8369
sbsVRetStart
p8374
g1
(g6
g7
g89
tp8375
Rp8376
(dp8377
g12
g8374
sbsVErrorList
p8378
g1
(g1054
g3
(dp8379
VFieldNotFound
p8380
(lp8381
sVPhraseNotFound
p8382
(lp8383
g1
(g6
g7
S'Pristipomoides macrophthalmus[PORG]'
p8384
tp8385
Rp8386
(dp8387
g12
VPhraseNotFound
p8388
sbastp8389
Rp8390
(dp8391
g12
g8378
sg1068
(lp8392
g8382
ag8380
asbsVTranslationSet
p8393
g1
(g18
g19
(lp8394
tp8395
Rp8396
(dp8397
g12
g8393
sbsVWarningList
p8398
g1
(g1054
g3
(dp8399
VOutputMessage
p8400
(lp8401
g1
(g6
g7
S'No items found.'
p8402
tp8403
Rp8404
(dp8405
g12
VOutputMessage
p8406
sbasVPhraseIgnored
p8407
(lp8408
sVQuotedPhraseNotFound
p8409
(lp8410
stp8411
Rp8412
(dp8413
g12
g8398
sg1068
(lp8414
g8407
ag8409
ag8400
asbsVQueryTranslation
p8415
g1
(g6
g7
S'Pristipomoides macrophthalmus[PORG] AND 16S[title]'
p8416
tp8417
Rp8418
(dp8419
g12
g8415
sbstp8420
Rp8421
(dp8422
g12
VeSearchResult
p8423
sbag1
(g2
g3
(dp8424
VCount
p8425
g1
(g6
g7
S'7'
p8426
tp8427
Rp8428
(dp8429
g12
g8425
sbsVRetMax
p8430
g1
(g6
g7
g8426
tp8431
Rp8432
(dp8433
g12
g8430
sbsVIdList
p8434
g1
(g18
g19
(lp8435
g1
(g6
g7
S'354550598'
p8436
tp8437
Rp8438
(dp8439
g12
VId
p8440
sbag1
(g6
g7
S'354550597'
p8441
tp8442
Rp8443
(dp8444
g12
g8440
sbag1
(g6
g7
S'354550596'
p8445
tp8446
Rp8447
(dp8448
g12
g8440
sbag1
(g6
g7
S'354550595'
p8449
tp8450
Rp8451
(dp8452
g12
g8440
sbag1
(g6
g7
S'354550594'
p8453
tp8454
Rp8455
(dp8456
g12
g8440
sbag1
(g6
g7
S'354550593'
p8457
tp8458
Rp8459
(dp8460
g12
g8440
sbag1
(g6
g7
S'354550592'
p8461
tp8462
Rp8463
(dp8464
g12
g8440
sbatp8465
Rp8466
(dp8467
g12
g8434
sbsVQueryTranslation
p8468
g1
(g6
g7
S'Pristipomoides multidens[PORG] AND 16S[title]'
p8469
tp8470
Rp8471
(dp8472
g12
g8468
sbsVTranslationStack
p8473
g1
(g18
g19
(lp8474
g1
(g2
g3
(dp8475
g8425
g1
(g6
g7
S'93'
p8476
tp8477
Rp8478
(dp8479
g12
g8425
sbsVField
p8480
g1
(g6
g7
S'PORG'
p8481
tp8482
Rp8483
(dp8484
g12
g8480
sbsVTerm
p8485
g1
(g6
g7
S'Pristipomoides multidens[PORG]'
p8486
tp8487
Rp8488
(dp8489
g12
g8485
sbsVExplode
p8490
g1
(g6
g7
g52
tp8491
Rp8492
(dp8493
g12
g8490
sbstp8494
Rp8495
(dp8496
g12
VTermSet
p8497
sbag1
(g2
g3
(dp8498
g8425
g1
(g6
g7
S'7108870'
p8499
tp8500
Rp8501
(dp8502
g12
g8425
sbsg8480
g1
(g6
g7
S'title'
p8503
tp8504
Rp8505
(dp8506
g12
g8480
sbsg8485
g1
(g6
g7
S'16S[title]'
p8507
tp8508
Rp8509
(dp8510
g12
g8485
sbsg8490
g1
(g6
g7
g73
tp8511
Rp8512
(dp8513
g12
g8490
sbstp8514
Rp8515
(dp8516
g12
g8497
sbag1
(g6
g7
S'AND'
p8517
tp8518
Rp8519
(dp8520
g12
VOP
p8521
sbatp8522
Rp8523
(dp8524
g12
g8473
sbsVRetStart
p8525
g1
(g6
g7
g89
tp8526
Rp8527
(dp8528
g12
g8525
sbsVTranslationSet
p8529
g1
(g18
g19
(lp8530
tp8531
Rp8532
(dp8533
g12
g8529
sbstp8534
Rp8535
(dp8536
g12
VeSearchResult
p8537
sbag1
(g2
g3
(dp8538
VCount
p8539
g1
(g6
g7
g89
tp8540
Rp8541
(dp8542
g12
g8539
sbsVRetMax
p8543
g1
(g6
g7
g89
tp8544
Rp8545
(dp8546
g12
g8543
sbsVIdList
p8547
g1
(g18
g19
(lp8548
tp8549
Rp8550
(dp8551
g12
g8547
sbsVQueryTranslation
p8552
g1
(g6
g7
S'Pristipomoides sieboldii[PORG] AND 16S[title]'
p8553
tp8554
Rp8555
(dp8556
g12
g8552
sbsVTranslationStack
p8557
g1
(g18
g19
(lp8558
g1
(g2
g3
(dp8559
g8539
g1
(g6
g7
g8426
tp8560
Rp8561
(dp8562
g12
g8539
sbsVField
p8563
g1
(g6
g7
S'PORG'
p8564
tp8565
Rp8566
(dp8567
g12
g8563
sbsVTerm
p8568
g1
(g6
g7
S'Pristipomoides sieboldii[PORG]'
p8569
tp8570
Rp8571
(dp8572
g12
g8568
sbsVExplode
p8573
g1
(g6
g7
g52
tp8574
Rp8575
(dp8576
g12
g8573
sbstp8577
Rp8578
(dp8579
g12
VTermSet
p8580
sbag1
(g2
g3
(dp8581
g8539
g1
(g6
g7
S'7108870'
p8582
tp8583
Rp8584
(dp8585
g12
g8539
sbsg8563
g1
(g6
g7
S'title'
p8586
tp8587
Rp8588
(dp8589
g12
g8563
sbsg8568
g1
(g6
g7
S'16S[title]'
p8590
tp8591
Rp8592
(dp8593
g12
g8568
sbsg8573
g1
(g6
g7
g73
tp8594
Rp8595
(dp8596
g12
g8573
sbstp8597
Rp8598
(dp8599
g12
g8580
sbag1
(g6
g7
S'AND'
p8600
tp8601
Rp8602
(dp8603
g12
VOP
p8604
sbatp8605
Rp8606
(dp8607
g12
g8557
sbsVRetStart
p8608
g1
(g6
g7
g89
tp8609
Rp8610
(dp8611
g12
g8608
sbsVTranslationSet
p8612
g1
(g18
g19
(lp8613
tp8614
Rp8615
(dp8616
g12
g8612
sbstp8617
Rp8618
(dp8619
g12
VeSearchResult
p8620
sbag1
(g2
g3
(dp8621
VCount
p8622
g1
(g6
g7
g89
tp8623
Rp8624
(dp8625
g12
g8622
sbsVRetMax
p8626
g1
(g6
g7
g89
tp8627
Rp8628
(dp8629
g12
g8626
sbsVIdList
p8630
g1
(g18
g19
(lp8631
tp8632
Rp8633
(dp8634
g12
g8630
sbsVQueryTranslation
p8635
g1
(g6
g7
S'Pristipomoides typus[PORG] AND 16S[title]'
p8636
tp8637
Rp8638
(dp8639
g12
g8635
sbsVTranslationStack
p8640
g1
(g18
g19
(lp8641
g1
(g2
g3
(dp8642
g8622
g1
(g6
g7
g973
tp8643
Rp8644
(dp8645
g12
g8622
sbsVField
p8646
g1
(g6
g7
S'PORG'
p8647
tp8648
Rp8649
(dp8650
g12
g8646
sbsVTerm
p8651
g1
(g6
g7
S'Pristipomoides typus[PORG]'
p8652
tp8653
Rp8654
(dp8655
g12
g8651
sbsVExplode
p8656
g1
(g6
g7
g52
tp8657
Rp8658
(dp8659
g12
g8656
sbstp8660
Rp8661
(dp8662
g12
VTermSet
p8663
sbag1
(g2
g3
(dp8664
g8622
g1
(g6
g7
S'7108870'
p8665
tp8666
Rp8667
(dp8668
g12
g8622
sbsg8646
g1
(g6
g7
S'title'
p8669
tp8670
Rp8671
(dp8672
g12
g8646
sbsg8651
g1
(g6
g7
S'16S[title]'
p8673
tp8674
Rp8675
(dp8676
g12
g8651
sbsg8656
g1
(g6
g7
g73
tp8677
Rp8678
(dp8679
g12
g8656
sbstp8680
Rp8681
(dp8682
g12
g8663
sbag1
(g6
g7
S'AND'
p8683
tp8684
Rp8685
(dp8686
g12
VOP
p8687
sbatp8688
Rp8689
(dp8690
g12
g8640
sbsVRetStart
p8691
g1
(g6
g7
g89
tp8692
Rp8693
(dp8694
g12
g8691
sbsVTranslationSet
p8695
g1
(g18
g19
(lp8696
tp8697
Rp8698
(dp8699
g12
g8695
sbstp8700
Rp8701
(dp8702
g12
VeSearchResult
p8703
sbag1
(g2
g3
(dp8704
VCount
p8705
g1
(g6
g7
g89
tp8706
Rp8707
(dp8708
g12
g8705
sbsVRetMax
p8709
g1
(g6
g7
g89
tp8710
Rp8711
(dp8712
g12
g8709
sbsVIdList
p8713
g1
(g18
g19
(lp8714
tp8715
Rp8716
(dp8717
g12
g8713
sbsVQueryTranslation
p8718
g1
(g6
g7
S'Pristipomoides zonatus[PORG] AND 16S[title]'
p8719
tp8720
Rp8721
(dp8722
g12
g8718
sbsVTranslationStack
p8723
g1
(g18
g19
(lp8724
g1
(g2
g3
(dp8725
g8705
g1
(g6
g7
g8
tp8726
Rp8727
(dp8728
g12
g8705
sbsVField
p8729
g1
(g6
g7
S'PORG'
p8730
tp8731
Rp8732
(dp8733
g12
g8729
sbsVTerm
p8734
g1
(g6
g7
S'Pristipomoides zonatus[PORG]'
p8735
tp8736
Rp8737
(dp8738
g12
g8734
sbsVExplode
p8739
g1
(g6
g7
g52
tp8740
Rp8741
(dp8742
g12
g8739
sbstp8743
Rp8744
(dp8745
g12
VTermSet
p8746
sbag1
(g2
g3
(dp8747
g8705
g1
(g6
g7
S'7108870'
p8748
tp8749
Rp8750
(dp8751
g12
g8705
sbsg8729
g1
(g6
g7
S'title'
p8752
tp8753
Rp8754
(dp8755
g12
g8729
sbsg8734
g1
(g6
g7
S'16S[title]'
p8756
tp8757
Rp8758
(dp8759
g12
g8734
sbsg8739
g1
(g6
g7
g73
tp8760
Rp8761
(dp8762
g12
g8739
sbstp8763
Rp8764
(dp8765
g12
g8746
sbag1
(g6
g7
S'AND'
p8766
tp8767
Rp8768
(dp8769
g12
VOP
p8770
sbatp8771
Rp8772
(dp8773
g12
g8723
sbsVRetStart
p8774
g1
(g6
g7
g89
tp8775
Rp8776
(dp8777
g12
g8774
sbsVTranslationSet
p8778
g1
(g18
g19
(lp8779
tp8780
Rp8781
(dp8782
g12
g8778
sbstp8783
Rp8784
(dp8785
g12
VeSearchResult
p8786
sbag1
(g2
g3
(dp8787
VCount
p8788
g1
(g6
g7
g89
tp8789
Rp8790
(dp8791
g12
g8788
sbsVRetMax
p8792
g1
(g6
g7
g89
tp8793
Rp8794
(dp8795
g12
g8792
sbsVIdList
p8796
g1
(g18
g19
(lp8797
tp8798
Rp8799
(dp8800
g12
g8796
sbsVQueryTranslation
p8801
g1
(g6
g7
S'Randallichthys filamentosus[PORG] AND 16S[title]'
p8802
tp8803
Rp8804
(dp8805
g12
g8801
sbsVTranslationStack
p8806
g1
(g18
g19
(lp8807
g1
(g2
g3
(dp8808
g8788
g1
(g6
g7
g1231
tp8809
Rp8810
(dp8811
g12
g8788
sbsVField
p8812
g1
(g6
g7
S'PORG'
p8813
tp8814
Rp8815
(dp8816
g12
g8812
sbsVTerm
p8817
g1
(g6
g7
S'Randallichthys filamentosus[PORG]'
p8818
tp8819
Rp8820
(dp8821
g12
g8817
sbsVExplode
p8822
g1
(g6
g7
g52
tp8823
Rp8824
(dp8825
g12
g8822
sbstp8826
Rp8827
(dp8828
g12
VTermSet
p8829
sbag1
(g2
g3
(dp8830
g8788
g1
(g6
g7
S'7108870'
p8831
tp8832
Rp8833
(dp8834
g12
g8788
sbsg8812
g1
(g6
g7
S'title'
p8835
tp8836
Rp8837
(dp8838
g12
g8812
sbsg8817
g1
(g6
g7
S'16S[title]'
p8839
tp8840
Rp8841
(dp8842
g12
g8817
sbsg8822
g1
(g6
g7
g73
tp8843
Rp8844
(dp8845
g12
g8822
sbstp8846
Rp8847
(dp8848
g12
g8829
sbag1
(g6
g7
S'AND'
p8849
tp8850
Rp8851
(dp8852
g12
VOP
p8853
sbatp8854
Rp8855
(dp8856
g12
g8806
sbsVRetStart
p8857
g1
(g6
g7
g89
tp8858
Rp8859
(dp8860
g12
g8857
sbsVTranslationSet
p8861
g1
(g18
g19
(lp8862
tp8863
Rp8864
(dp8865
g12
g8861
sbstp8866
Rp8867
(dp8868
g12
VeSearchResult
p8869
sbag1
(g2
g3
(dp8870
VCount
p8871
g1
(g6
g7
g8
tp8872
Rp8873
(dp8874
g12
g8871
sbsVRetMax
p8875
g1
(g6
g7
g8
tp8876
Rp8877
(dp8878
g12
g8875
sbsVIdList
p8879
g1
(g18
g19
(lp8880
g1
(g6
g7
S'113203270'
p8881
tp8882
Rp8883
(dp8884
g12
VId
p8885
sbatp8886
Rp8887
(dp8888
g12
g8879
sbsVQueryTranslation
p8889
g1
(g6
g7
S'Rhomboplites aurorubens[PORG] AND 16S[title]'
p8890
tp8891
Rp8892
(dp8893
g12
g8889
sbsVTranslationStack
p8894
g1
(g18
g19
(lp8895
g1
(g2
g3
(dp8896
g8871
g1
(g6
g7
S'60'
p8897
tp8898
Rp8899
(dp8900
g12
g8871
sbsVField
p8901
g1
(g6
g7
S'PORG'
p8902
tp8903
Rp8904
(dp8905
g12
g8901
sbsVTerm
p8906
g1
(g6
g7
S'Rhomboplites aurorubens[PORG]'
p8907
tp8908
Rp8909
(dp8910
g12
g8906
sbsVExplode
p8911
g1
(g6
g7
g52
tp8912
Rp8913
(dp8914
g12
g8911
sbstp8915
Rp8916
(dp8917
g12
VTermSet
p8918
sbag1
(g2
g3
(dp8919
g8871
g1
(g6
g7
S'7108870'
p8920
tp8921
Rp8922
(dp8923
g12
g8871
sbsg8901
g1
(g6
g7
S'title'
p8924
tp8925
Rp8926
(dp8927
g12
g8901
sbsg8906
g1
(g6
g7
S'16S[title]'
p8928
tp8929
Rp8930
(dp8931
g12
g8906
sbsg8911
g1
(g6
g7
g73
tp8932
Rp8933
(dp8934
g12
g8911
sbstp8935
Rp8936
(dp8937
g12
g8918
sbag1
(g6
g7
S'AND'
p8938
tp8939
Rp8940
(dp8941
g12
VOP
p8942
sbatp8943
Rp8944
(dp8945
g12
g8894
sbsVRetStart
p8946
g1
(g6
g7
g89
tp8947
Rp8948
(dp8949
g12
g8946
sbsVTranslationSet
p8950
g1
(g18
g19
(lp8951
tp8952
Rp8953
(dp8954
g12
g8950
sbstp8955
Rp8956
(dp8957
g12
VeSearchResult
p8958
sbag1
(g2
g3
(dp8959
VCount
p8960
g1
(g6
g7
g8
tp8961
Rp8962
(dp8963
g12
g8960
sbsVRetMax
p8964
g1
(g6
g7
g8
tp8965
Rp8966
(dp8967
g12
g8964
sbsVIdList
p8968
g1
(g18
g19
(lp8969
g1
(g6
g7
S'111038386'
p8970
tp8971
Rp8972
(dp8973
g12
VId
p8974
sbatp8975
Rp8976
(dp8977
g12
g8968
sbsVQueryTranslation
p8978
g1
(g6
g7
S'Symphorichthys spilurus[PORG] AND 16S[title]'
p8979
tp8980
Rp8981
(dp8982
g12
g8978
sbsVTranslationStack
p8983
g1
(g18
g19
(lp8984
g1
(g2
g3
(dp8985
g8960
g1
(g6
g7
g1871
tp8986
Rp8987
(dp8988
g12
g8960
sbsVField
p8989
g1
(g6
g7
S'PORG'
p8990
tp8991
Rp8992
(dp8993
g12
g8989
sbsVTerm
p8994
g1
(g6
g7
S'Symphorichthys spilurus[PORG]'
p8995
tp8996
Rp8997
(dp8998
g12
g8994
sbsVExplode
p8999
g1
(g6
g7
g52
tp9000
Rp9001
(dp9002
g12
g8999
sbstp9003
Rp9004
(dp9005
g12
VTermSet
p9006
sbag1
(g2
g3
(dp9007
g8960
g1
(g6
g7
S'7108870'
p9008
tp9009
Rp9010
(dp9011
g12
g8960
sbsg8989
g1
(g6
g7
S'title'
p9012
tp9013
Rp9014
(dp9015
g12
g8989
sbsg8994
g1
(g6
g7
S'16S[title]'
p9016
tp9017
Rp9018
(dp9019
g12
g8994
sbsg8999
g1
(g6
g7
g73
tp9020
Rp9021
(dp9022
g12
g8999
sbstp9023
Rp9024
(dp9025
g12
g9006
sbag1
(g6
g7
S'AND'
p9026
tp9027
Rp9028
(dp9029
g12
VOP
p9030
sbatp9031
Rp9032
(dp9033
g12
g8983
sbsVRetStart
p9034
g1
(g6
g7
g89
tp9035
Rp9036
(dp9037
g12
g9034
sbsVTranslationSet
p9038
g1
(g18
g19
(lp9039
tp9040
Rp9041
(dp9042
g12
g9038
sbstp9043
Rp9044
(dp9045
g12
VeSearchResult
p9046
sbag1
(g2
g3
(dp9047
VCount
p9048
g1
(g6
g7
g8
tp9049
Rp9050
(dp9051
g12
g9048
sbsVRetMax
p9052
g1
(g6
g7
g8
tp9053
Rp9054
(dp9055
g12
g9052
sbsVIdList
p9056
g1
(g18
g19
(lp9057
g1
(g6
g7
S'111038387'
p9058
tp9059
Rp9060
(dp9061
g12
VId
p9062
sbatp9063
Rp9064
(dp9065
g12
g9056
sbsVQueryTranslation
p9066
g1
(g6
g7
S'Symphorus nematophorus[PORG] AND 16S[title]'
p9067
tp9068
Rp9069
(dp9070
g12
g9066
sbsVTranslationStack
p9071
g1
(g18
g19
(lp9072
g1
(g2
g3
(dp9073
g9048
g1
(g6
g7
g973
tp9074
Rp9075
(dp9076
g12
g9048
sbsVField
p9077
g1
(g6
g7
S'PORG'
p9078
tp9079
Rp9080
(dp9081
g12
g9077
sbsVTerm
p9082
g1
(g6
g7
S'Symphorus nematophorus[PORG]'
p9083
tp9084
Rp9085
(dp9086
g12
g9082
sbsVExplode
p9087
g1
(g6
g7
g52
tp9088
Rp9089
(dp9090
g12
g9087
sbstp9091
Rp9092
(dp9093
g12
VTermSet
p9094
sbag1
(g2
g3
(dp9095
g9048
g1
(g6
g7
S'7108870'
p9096
tp9097
Rp9098
(dp9099
g12
g9048
sbsg9077
g1
(g6
g7
S'title'
p9100
tp9101
Rp9102
(dp9103
g12
g9077
sbsg9082
g1
(g6
g7
S'16S[title]'
p9104
tp9105
Rp9106
(dp9107
g12
g9082
sbsg9087
g1
(g6
g7
g73
tp9108
Rp9109
(dp9110
g12
g9087
sbstp9111
Rp9112
(dp9113
g12
g9094
sbag1
(g6
g7
S'AND'
p9114
tp9115
Rp9116
(dp9117
g12
VOP
p9118
sbatp9119
Rp9120
(dp9121
g12
g9071
sbsVRetStart
p9122
g1
(g6
g7
g89
tp9123
Rp9124
(dp9125
g12
g9122
sbsVTranslationSet
p9126
g1
(g18
g19
(lp9127
tp9128
Rp9129
(dp9130
g12
g9126
sbstp9131
Rp9132
(dp9133
g12
VeSearchResult
p9134
sba.