(lp0
ccopy_reg
_reconstructor
p1
(cBio.Entrez.Parser
DictionaryElement
p2
c__builtin__
dict
p3
(dp4
VCount
p5
g1
(cBio.Entrez.Parser
StringElement
p6
c__builtin__
str
p7
S'9'
p8
tp9
Rp10
(dp11
S'tag'
p12
g5
sbsVRetMax
p13
g1
(g6
g7
g8
tp14
Rp15
(dp16
g12
g13
sbsVIdList
p17
g1
(cBio.Entrez.Parser
ListElement
p18
c__builtin__
list
p19
(lp20
g1
(g6
g7
S'204308427'
p21
tp22
Rp23
(dp24
g12
VId
p25
sbag1
(g6
g7
S'204308375'
p26
tp27
Rp28
(dp29
g12
g25
sbag1
(g6
g7
S'204308309'
p30
tp31
Rp32
(dp33
g12
g25
sbag1
(g6
g7
S'140270790'
p34
tp35
Rp36
(dp37
g12
g25
sbag1
(g6
g7
S'941487643'
p38
tp39
Rp40
(dp41
g12
g25
sbag1
(g6
g7
S'941487641'
p42
tp43
Rp44
(dp45
g12
g25
sbag1
(g6
g7
S'667699270'
p46
tp47
Rp48
(dp49
g12
g25
sbag1
(g6
g7
S'667699268'
p50
tp51
Rp52
(dp53
g12
g25
sbag1
(g6
g7
S'444290747'
p54
tp55
Rp56
(dp57
g12
g25
sbatp58
Rp59
(dp60
g12
g17
sbsVQueryTranslation
p61
g1
(g6
g7
S'"Lutjanidae"[Organism] AND Rhodopsin[title]'
p62
tp63
Rp64
(dp65
g12
g61
sbsVTranslationStack
p66
g1
(g18
g19
(lp67
g1
(g2
g3
(dp68
g5
g1
(g6
g7
S'6175'
p69
tp70
Rp71
(dp72
g12
g5
sbsVField
p73
g1
(g6
g7
S'Organism'
p74
tp75
Rp76
(dp77
g12
g73
sbsVTerm
p78
g1
(g6
g7
S'"Lutjanidae"[Organism]'
p79
tp80
Rp81
(dp82
g12
g78
sbsVExplode
p83
g1
(g6
g7
S'Y'
p84
tp85
Rp86
(dp87
g12
g83
sbstp88
Rp89
(dp90
g12
VTermSet
p91
sbag1
(g2
g3
(dp92
g5
g1
(g6
g7
S'27665'
p93
tp94
Rp95
(dp96
g12
g5
sbsg73
g1
(g6
g7
S'title'
p97
tp98
Rp99
(dp100
g12
g73
sbsg78
g1
(g6
g7
S'Rhodopsin[title]'
p101
tp102
Rp103
(dp104
g12
g78
sbsg83
g1
(g6
g7
S'N'
p105
tp106
Rp107
(dp108
g12
g83
sbstp109
Rp110
(dp111
g12
g91
sbag1
(g6
g7
S'AND'
p112
tp113
Rp114
(dp115
g12
VOP
p116
sbatp117
Rp118
(dp119
g12
g66
sbsVRetStart
p120
g1
(g6
g7
S'0'
p121
tp122
Rp123
(dp124
g12
g120
sbsVTranslationSet
p125
g1
(g18
g19
(lp126
g1
(g2
g3
(dp127
VTo
p128
g1
(g6
g7
S'"Lutjanidae"[Organism]'
p129
tp130
Rp131
(dp132
g12
g128
sbsVFrom
p133
g1
(g6
g7
S'Lutjanidae[organism]'
p134
tp135
Rp136
(dp137
g12
g133
sbstp138
Rp139
(dp140
g12
VTranslation
p141
sbatp142
Rp143
(dp144
g12
g125
sbstp145
Rp146
(dp147
g12
VeSearchResult
p148
sba.