(lp0
ccopy_reg
_reconstructor
p1
(cBio.Entrez.Parser
DictionaryElement
p2
c__builtin__
dict
p3
(dp4
VCount
p5
g1
(cBio.Entrez.Parser
StringElement
p6
c__builtin__
str
p7
S'25'
p8
tp9
Rp10
(dp11
S'tag'
p12
g5
sbsVRetMax
p13
g1
(g6
g7
S'25'
p14
tp15
Rp16
(dp17
g12
g13
sbsVIdList
p18
g1
(cBio.Entrez.Parser
ListElement
p19
c__builtin__
list
p20
(lp21
g1
(g6
g7
S'651209365'
p22
tp23
Rp24
(dp25
g12
VId
p26
sbag1
(g6
g7
S'651209364'
p27
tp28
Rp29
(dp30
g12
g26
sbag1
(g6
g7
S'544582216'
p31
tp32
Rp33
(dp34
g12
g26
sbag1
(g6
g7
S'343469180'
p35
tp36
Rp37
(dp38
g12
g26
sbag1
(g6
g7
S'341864419'
p39
tp40
Rp41
(dp42
g12
g26
sbag1
(g6
g7
S'341864415'
p43
tp44
Rp45
(dp46
g12
g26
sbag1
(g6
g7
S'307343919'
p47
tp48
Rp49
(dp50
g12
g26
sbag1
(g6
g7
S'307343918'
p51
tp52
Rp53
(dp54
g12
g26
sbag1
(g6
g7
S'307343917'
p55
tp56
Rp57
(dp58
g12
g26
sbag1
(g6
g7
S'307343916'
p59
tp60
Rp61
(dp62
g12
g26
sbag1
(g6
g7
S'307343915'
p63
tp64
Rp65
(dp66
g12
g26
sbag1
(g6
g7
S'259121985'
p67
tp68
Rp69
(dp70
g12
g26
sbag1
(g6
g7
S'126655015'
p71
tp72
Rp73
(dp74
g12
g26
sbag1
(g6
g7
S'126654963'
p75
tp76
Rp77
(dp78
g12
g26
sbag1
(g6
g7
S'50813001'
p79
tp80
Rp81
(dp82
g12
g26
sbag1
(g6
g7
S'47088159'
p83
tp84
Rp85
(dp86
g12
g26
sbag1
(g6
g7
S'32454701'
p87
tp88
Rp89
(dp90
g12
g26
sbag1
(g6
g7
S'32344820'
p91
tp92
Rp93
(dp94
g12
g26
sbag1
(g6
g7
S'27435189'
p95
tp96
Rp97
(dp98
g12
g26
sbag1
(g6
g7
S'19850114'
p99
tp100
Rp101
(dp102
g12
g26
sbag1
(g6
g7
S'19850113'
p103
tp104
Rp105
(dp106
g12
g26
sbag1
(g6
g7
S'19850110'
p107
tp108
Rp109
(dp110
g12
g26
sbag1
(g6
g7
S'4494786'
p111
tp112
Rp113
(dp114
g12
g26
sbag1
(g6
g7
S'2801815'
p115
tp116
Rp117
(dp118
g12
g26
sbag1
(g6
g7
S'2801814'
p119
tp120
Rp121
(dp122
g12
g26
sbatp123
Rp124
(dp125
g12
g18
sbsVQueryTranslation
p126
g1
(g6
g7
S'"Moronidae"[Organism] AND 16S[title]'
p127
tp128
Rp129
(dp130
g12
g126
sbsVTranslationStack
p131
g1
(g19
g20
(lp132
g1
(g2
g3
(dp133
g5
g1
(g6
g7
S'389074'
p134
tp135
Rp136
(dp137
g12
g5
sbsVField
p138
g1
(g6
g7
S'Organism'
p139
tp140
Rp141
(dp142
g12
g138
sbsVTerm
p143
g1
(g6
g7
S'"Moronidae"[Organism]'
p144
tp145
Rp146
(dp147
g12
g143
sbsVExplode
p148
g1
(g6
g7
S'Y'
p149
tp150
Rp151
(dp152
g12
g148
sbstp153
Rp154
(dp155
g12
VTermSet
p156
sbag1
(g2
g3
(dp157
g5
g1
(g6
g7
S'7139828'
p158
tp159
Rp160
(dp161
g12
g5
sbsg138
g1
(g6
g7
S'title'
p162
tp163
Rp164
(dp165
g12
g138
sbsg143
g1
(g6
g7
S'16S[title]'
p166
tp167
Rp168
(dp169
g12
g143
sbsg148
g1
(g6
g7
S'N'
p170
tp171
Rp172
(dp173
g12
g148
sbstp174
Rp175
(dp176
g12
g156
sbag1
(g6
g7
S'AND'
p177
tp178
Rp179
(dp180
g12
VOP
p181
sbatp182
Rp183
(dp184
g12
g131
sbsVRetStart
p185
g1
(g6
g7
S'0'
p186
tp187
Rp188
(dp189
g12
g185
sbsVTranslationSet
p190
g1
(g19
g20
(lp191
g1
(g2
g3
(dp192
VTo
p193
g1
(g6
g7
S'"Moronidae"[Organism]'
p194
tp195
Rp196
(dp197
g12
g193
sbsVFrom
p198
g1
(g6
g7
S'Moronidae[organism]'
p199
tp200
Rp201
(dp202
g12
g198
sbstp203
Rp204
(dp205
g12
VTranslation
p206
sbatp207
Rp208
(dp209
g12
g190
sbstp210
Rp211
(dp212
g12
VeSearchResult
p213
sba.