(lp0
ccopy_reg
_reconstructor
p1
(cBio.Entrez.Parser
DictionaryElement
p2
c__builtin__
dict
p3
(dp4
VCount
p5
g1
(cBio.Entrez.Parser
StringElement
p6
c__builtin__
str
p7
S'37'
p8
tp9
Rp10
(dp11
S'tag'
p12
g5
sbsVRetMax
p13
g1
(g6
g7
S'37'
p14
tp15
Rp16
(dp17
g12
g13
sbsVIdList
p18
g1
(cBio.Entrez.Parser
ListElement
p19
c__builtin__
list
p20
(lp21
g1
(g6
g7
S'339740105'
p22
tp23
Rp24
(dp25
g12
VId
p26
sbag1
(g6
g7
S'171474848'
p27
tp28
Rp29
(dp30
g12
g26
sbag1
(g6
g7
S'171474846'
p31
tp32
Rp33
(dp34
g12
g26
sbag1
(g6
g7
S'81007350'
p35
tp36
Rp37
(dp38
g12
g26
sbag1
(g6
g7
S'81007348'
p39
tp40
Rp41
(dp42
g12
g26
sbag1
(g6
g7
S'57790860'
p43
tp44
Rp45
(dp46
g12
g26
sbag1
(g6
g7
S'38492076'
p47
tp48
Rp49
(dp50
g12
g26
sbag1
(g6
g7
S'4335845'
p51
tp52
Rp53
(dp54
g12
g26
sbag1
(g6
g7
S'296914744'
p55
tp56
Rp57
(dp58
g12
g26
sbag1
(g6
g7
S'13183274'
p59
tp60
Rp61
(dp62
g12
g26
sbag1
(g6
g7
S'13183272'
p63
tp64
Rp65
(dp66
g12
g26
sbag1
(g6
g7
S'13183270'
p67
tp68
Rp69
(dp70
g12
g26
sbag1
(g6
g7
S'13183262'
p71
tp72
Rp73
(dp74
g12
g26
sbag1
(g6
g7
S'1013181257'
p75
tp76
Rp77
(dp78
g12
g26
sbag1
(g6
g7
S'1013181255'
p79
tp80
Rp81
(dp82
g12
g26
sbag1
(g6
g7
S'1013181253'
p83
tp84
Rp85
(dp86
g12
g26
sbag1
(g6
g7
S'1013181251'
p87
tp88
Rp89
(dp90
g12
g26
sbag1
(g6
g7
S'1013181249'
p91
tp92
Rp93
(dp94
g12
g26
sbag1
(g6
g7
S'1013181247'
p95
tp96
Rp97
(dp98
g12
g26
sbag1
(g6
g7
S'1013181245'
p99
tp100
Rp101
(dp102
g12
g26
sbag1
(g6
g7
S'1013181243'
p103
tp104
Rp105
(dp106
g12
g26
sbag1
(g6
g7
S'1013181242'
p107
tp108
Rp109
(dp110
g12
g26
sbag1
(g6
g7
S'1013181240'
p111
tp112
Rp113
(dp114
g12
g26
sbag1
(g6
g7
S'1013181234'
p115
tp116
Rp117
(dp118
g12
g26
sbag1
(g6
g7
S'1013181230'
p119
tp120
Rp121
(dp122
g12
g26
sbag1
(g6
g7
S'1013181228'
p123
tp124
Rp125
(dp126
g12
g26
sbag1
(g6
g7
S'154744889'
p127
tp128
Rp129
(dp130
g12
g26
sbag1
(g6
g7
S'154744887'
p131
tp132
Rp133
(dp134
g12
g26
sbag1
(g6
g7
S'129561675'
p135
tp136
Rp137
(dp138
g12
g26
sbag1
(g6
g7
S'129561673'
p139
tp140
Rp141
(dp142
g12
g26
sbag1
(g6
g7
S'499297722'
p143
tp144
Rp145
(dp146
g12
g26
sbag1
(g6
g7
S'670736581'
p147
tp148
Rp149
(dp150
g12
g26
sbag1
(g6
g7
S'667371460'
p151
tp152
Rp153
(dp154
g12
g26
sbag1
(g6
g7
S'5070471'
p155
tp156
Rp157
(dp158
g12
g26
sbag1
(g6
g7
S'5070470'
p159
tp160
Rp161
(dp162
g12
g26
sbag1
(g6
g7
S'5070469'
p163
tp164
Rp165
(dp166
g12
g26
sbag1
(g6
g7
S'307344287'
p167
tp168
Rp169
(dp170
g12
g26
sbatp171
Rp172
(dp173
g12
g18
sbsVQueryTranslation
p174
g1
(g6
g7
S'"Moronidae"[Organism] AND CytB[title]'
p175
tp176
Rp177
(dp178
g12
g174
sbsVTranslationStack
p179
g1
(g19
g20
(lp180
g1
(g2
g3
(dp181
g5
g1
(g6
g7
S'389074'
p182
tp183
Rp184
(dp185
g12
g5
sbsVField
p186
g1
(g6
g7
S'Organism'
p187
tp188
Rp189
(dp190
g12
g186
sbsVTerm
p191
g1
(g6
g7
S'"Moronidae"[Organism]'
p192
tp193
Rp194
(dp195
g12
g191
sbsVExplode
p196
g1
(g6
g7
S'Y'
p197
tp198
Rp199
(dp200
g12
g196
sbstp201
Rp202
(dp203
g12
VTermSet
p204
sbag1
(g2
g3
(dp205
g5
g1
(g6
g7
S'320203'
p206
tp207
Rp208
(dp209
g12
g5
sbsg186
g1
(g6
g7
S'title'
p210
tp211
Rp212
(dp213
g12
g186
sbsg191
g1
(g6
g7
S'CytB[title]'
p214
tp215
Rp216
(dp217
g12
g191
sbsg196
g1
(g6
g7
S'N'
p218
tp219
Rp220
(dp221
g12
g196
sbstp222
Rp223
(dp224
g12
g204
sbag1
(g6
g7
S'AND'
p225
tp226
Rp227
(dp228
g12
VOP
p229
sbatp230
Rp231
(dp232
g12
g179
sbsVRetStart
p233
g1
(g6
g7
S'0'
p234
tp235
Rp236
(dp237
g12
g233
sbsVTranslationSet
p238
g1
(g19
g20
(lp239
g1
(g2
g3
(dp240
VTo
p241
g1
(g6
g7
S'"Moronidae"[Organism]'
p242
tp243
Rp244
(dp245
g12
g241
sbsVFrom
p246
g1
(g6
g7
S'Moronidae[organism]'
p247
tp248
Rp249
(dp250
g12
g246
sbstp251
Rp252
(dp253
g12
VTranslation
p254
sbatp255
Rp256
(dp257
g12
g238
sbstp258
Rp259
(dp260
g12
VeSearchResult
p261
sba.