(lp0
ccopy_reg
_reconstructor
p1
(cBio.Entrez.Parser
DictionaryElement
p2
c__builtin__
dict
p3
(dp4
VCount
p5
g1
(cBio.Entrez.Parser
StringElement
p6
c__builtin__
str
p7
S'86'
p8
tp9
Rp10
(dp11
S'tag'
p12
g5
sbsVRetMax
p13
g1
(g6
g7
S'86'
p14
tp15
Rp16
(dp17
g12
g13
sbsVIdList
p18
g1
(cBio.Entrez.Parser
ListElement
p19
c__builtin__
list
p20
(lp21
g1
(g6
g7
S'343469174'
p22
tp23
Rp24
(dp25
g12
VId
p26
sbag1
(g6
g7
S'339770833'
p27
tp28
Rp29
(dp30
g12
g26
sbag1
(g6
g7
S'339770831'
p31
tp32
Rp33
(dp34
g12
g26
sbag1
(g6
g7
S'339770829'
p35
tp36
Rp37
(dp38
g12
g26
sbag1
(g6
g7
S'339770827'
p39
tp40
Rp41
(dp42
g12
g26
sbag1
(g6
g7
S'339770825'
p43
tp44
Rp45
(dp46
g12
g26
sbag1
(g6
g7
S'339770823'
p47
tp48
Rp49
(dp50
g12
g26
sbag1
(g6
g7
S'339770821'
p51
tp52
Rp53
(dp54
g12
g26
sbag1
(g6
g7
S'339770819'
p55
tp56
Rp57
(dp58
g12
g26
sbag1
(g6
g7
S'1013181232'
p59
tp60
Rp61
(dp62
g12
g26
sbag1
(g6
g7
S'459141477'
p63
tp64
Rp65
(dp66
g12
g26
sbag1
(g6
g7
S'822657186'
p67
tp68
Rp69
(dp70
g12
g26
sbag1
(g6
g7
S'822657184'
p71
tp72
Rp73
(dp74
g12
g26
sbag1
(g6
g7
S'537107223'
p75
tp76
Rp77
(dp78
g12
g26
sbag1
(g6
g7
S'772181840'
p79
tp80
Rp81
(dp82
g12
g26
sbag1
(g6
g7
S'772181838'
p83
tp84
Rp85
(dp86
g12
g26
sbag1
(g6
g7
S'772181836'
p87
tp88
Rp89
(dp90
g12
g26
sbag1
(g6
g7
S'772181834'
p91
tp92
Rp93
(dp94
g12
g26
sbag1
(g6
g7
S'772181832'
p95
tp96
Rp97
(dp98
g12
g26
sbag1
(g6
g7
S'772181830'
p99
tp100
Rp101
(dp102
g12
g26
sbag1
(g6
g7
S'772181828'
p103
tp104
Rp105
(dp106
g12
g26
sbag1
(g6
g7
S'772181826'
p107
tp108
Rp109
(dp110
g12
g26
sbag1
(g6
g7
S'772181824'
p111
tp112
Rp113
(dp114
g12
g26
sbag1
(g6
g7
S'772181822'
p115
tp116
Rp117
(dp118
g12
g26
sbag1
(g6
g7
S'772181820'
p119
tp120
Rp121
(dp122
g12
g26
sbag1
(g6
g7
S'772181818'
p123
tp124
Rp125
(dp126
g12
g26
sbag1
(g6
g7
S'772181816'
p127
tp128
Rp129
(dp130
g12
g26
sbag1
(g6
g7
S'772181814'
p131
tp132
Rp133
(dp134
g12
g26
sbag1
(g6
g7
S'772181812'
p135
tp136
Rp137
(dp138
g12
g26
sbag1
(g6
g7
S'606240537'
p139
tp140
Rp141
(dp142
g12
g26
sbag1
(g6
g7
S'606240535'
p143
tp144
Rp145
(dp146
g12
g26
sbag1
(g6
g7
S'651208884'
p147
tp148
Rp149
(dp150
g12
g26
sbag1
(g6
g7
S'651208882'
p151
tp152
Rp153
(dp154
g12
g26
sbag1
(g6
g7
S'584296299'
p155
tp156
Rp157
(dp158
g12
g26
sbag1
(g6
g7
S'584296297'
p159
tp160
Rp161
(dp162
g12
g26
sbag1
(g6
g7
S'584296295'
p163
tp164
Rp165
(dp166
g12
g26
sbag1
(g6
g7
S'564282527'
p167
tp168
Rp169
(dp170
g12
g26
sbag1
(g6
g7
S'460418992'
p171
tp172
Rp173
(dp174
g12
g26
sbag1
(g6
g7
S'460418990'
p175
tp176
Rp177
(dp178
g12
g26
sbag1
(g6
g7
S'460418988'
p179
tp180
Rp181
(dp182
g12
g26
sbag1
(g6
g7
S'460418986'
p183
tp184
Rp185
(dp186
g12
g26
sbag1
(g6
g7
S'460418984'
p187
tp188
Rp189
(dp190
g12
g26
sbag1
(g6
g7
S'460418982'
p191
tp192
Rp193
(dp194
g12
g26
sbag1
(g6
g7
S'460418980'
p195
tp196
Rp197
(dp198
g12
g26
sbag1
(g6
g7
S'460418978'
p199
tp200
Rp201
(dp202
g12
g26
sbag1
(g6
g7
S'460418976'
p203
tp204
Rp205
(dp206
g12
g26
sbag1
(g6
g7
S'460418974'
p207
tp208
Rp209
(dp210
g12
g26
sbag1
(g6
g7
S'460418972'
p211
tp212
Rp213
(dp214
g12
g26
sbag1
(g6
g7
S'460418970'
p215
tp216
Rp217
(dp218
g12
g26
sbag1
(g6
g7
S'460418968'
p219
tp220
Rp221
(dp222
g12
g26
sbag1
(g6
g7
S'460418966'
p223
tp224
Rp225
(dp226
g12
g26
sbag1
(g6
g7
S'460418964'
p227
tp228
Rp229
(dp230
g12
g26
sbag1
(g6
g7
S'460418962'
p231
tp232
Rp233
(dp234
g12
g26
sbag1
(g6
g7
S'460418960'
p235
tp236
Rp237
(dp238
g12
g26
sbag1
(g6
g7
S'460418958'
p239
tp240
Rp241
(dp242
g12
g26
sbag1
(g6
g7
S'460418956'
p243
tp244
Rp245
(dp246
g12
g26
sbag1
(g6
g7
S'460418954'
p247
tp248
Rp249
(dp250
g12
g26
sbag1
(g6
g7
S'306992992'
p251
tp252
Rp253
(dp254
g12
g26
sbag1
(g6
g7
S'306992990'
p255
tp256
Rp257
(dp258
g12
g26
sbag1
(g6
g7
S'306992988'
p259
tp260
Rp261
(dp262
g12
g26
sbag1
(g6
g7
S'306992986'
p263
tp264
Rp265
(dp266
g12
g26
sbag1
(g6
g7
S'306992984'
p267
tp268
Rp269
(dp270
g12
g26
sbag1
(g6
g7
S'306992982'
p271
tp272
Rp273
(dp274
g12
g26
sbag1
(g6
g7
S'306992980'
p275
tp276
Rp277
(dp278
g12
g26
sbag1
(g6
g7
S'306992978'
p279
tp280
Rp281
(dp282
g12
g26
sbag1
(g6
g7
S'186883558'
p283
tp284
Rp285
(dp286
g12
g26
sbag1
(g6
g7
S'186883556'
p287
tp288
Rp289
(dp290
g12
g26
sbag1
(g6
g7
S'186883554'
p291
tp292
Rp293
(dp294
g12
g26
sbag1
(g6
g7
S'186883552'
p295
tp296
Rp297
(dp298
g12
g26
sbag1
(g6
g7
S'186883550'
p299
tp300
Rp301
(dp302
g12
g26
sbag1
(g6
g7
S'186883548'
p303
tp304
Rp305
(dp306
g12
g26
sbag1
(g6
g7
S'186883546'
p307
tp308
Rp309
(dp310
g12
g26
sbag1
(g6
g7
S'186883544'
p311
tp312
Rp313
(dp314
g12
g26
sbag1
(g6
g7
S'186883542'
p315
tp316
Rp317
(dp318
g12
g26
sbag1
(g6
g7
S'186883540'
p319
tp320
Rp321
(dp322
g12
g26
sbag1
(g6
g7
S'186883538'
p323
tp324
Rp325
(dp326
g12
g26
sbag1
(g6
g7
S'186883536'
p327
tp328
Rp329
(dp330
g12
g26
sbag1
(g6
g7
S'186883534'
p331
tp332
Rp333
(dp334
g12
g26
sbag1
(g6
g7
S'307342220'
p335
tp336
Rp337
(dp338
g12
g26
sbag1
(g6
g7
S'307342218'
p339
tp340
Rp341
(dp342
g12
g26
sbag1
(g6
g7
S'307342216'
p343
tp344
Rp345
(dp346
g12
g26
sbag1
(g6
g7
S'307342214'
p347
tp348
Rp349
(dp350
g12
g26
sbag1
(g6
g7
S'307342212'
p351
tp352
Rp353
(dp354
g12
g26
sbag1
(g6
g7
S'307342050'
p355
tp356
Rp357
(dp358
g12
g26
sbag1
(g6
g7
S'307341958'
p359
tp360
Rp361
(dp362
g12
g26
sbag1
(g6
g7
S'307341864'
p363
tp364
Rp365
(dp366
g12
g26
sbatp367
Rp368
(dp369
g12
g18
sbsVQueryTranslation
p370
g1
(g6
g7
S'"Moronidae"[Organism] AND COI[title]'
p371
tp372
Rp373
(dp374
g12
g370
sbsVTranslationStack
p375
g1
(g19
g20
(lp376
g1
(g2
g3
(dp377
g5
g1
(g6
g7
S'389074'
p378
tp379
Rp380
(dp381
g12
g5
sbsVField
p382
g1
(g6
g7
S'Organism'
p383
tp384
Rp385
(dp386
g12
g382
sbsVTerm
p387
g1
(g6
g7
S'"Moronidae"[Organism]'
p388
tp389
Rp390
(dp391
g12
g387
sbsVExplode
p392
g1
(g6
g7
S'Y'
p393
tp394
Rp395
(dp396
g12
g392
sbstp397
Rp398
(dp399
g12
VTermSet
p400
sbag1
(g2
g3
(dp401
g5
g1
(g6
g7
S'2167342'
p402
tp403
Rp404
(dp405
g12
g5
sbsg382
g1
(g6
g7
S'title'
p406
tp407
Rp408
(dp409
g12
g382
sbsg387
g1
(g6
g7
S'COI[title]'
p410
tp411
Rp412
(dp413
g12
g387
sbsg392
g1
(g6
g7
S'N'
p414
tp415
Rp416
(dp417
g12
g392
sbstp418
Rp419
(dp420
g12
g400
sbag1
(g6
g7
S'AND'
p421
tp422
Rp423
(dp424
g12
VOP
p425
sbatp426
Rp427
(dp428
g12
g375
sbsVRetStart
p429
g1
(g6
g7
S'0'
p430
tp431
Rp432
(dp433
g12
g429
sbsVTranslationSet
p434
g1
(g19
g20
(lp435
g1
(g2
g3
(dp436
VTo
p437
g1
(g6
g7
S'"Moronidae"[Organism]'
p438
tp439
Rp440
(dp441
g12
g437
sbsVFrom
p442
g1
(g6
g7
S'Moronidae[organism]'
p443
tp444
Rp445
(dp446
g12
g442
sbstp447
Rp448
(dp449
g12
VTranslation
p450
sbatp451
Rp452
(dp453
g12
g434
sbstp454
Rp455
(dp456
g12
VeSearchResult
p457
sba.