(lp0
ccopy_reg
_reconstructor
p1
(cBio.Entrez.Parser
DictionaryElement
p2
c__builtin__
dict
p3
(dp4
VCount
p5
g1
(cBio.Entrez.Parser
StringElement
p6
c__builtin__
str
p7
S'12'
p8
tp9
Rp10
(dp11
S'tag'
p12
g5
sbsVRetMax
p13
g1
(g6
g7
S'12'
p14
tp15
Rp16
(dp17
g12
g13
sbsVIdList
p18
g1
(cBio.Entrez.Parser
ListElement
p19
c__builtin__
list
p20
(lp21
g1
(g6
g7
S'204308389'
p22
tp23
Rp24
(dp25
g12
VId
p26
sbag1
(g6
g7
S'169641783'
p27
tp28
Rp29
(dp30
g12
g26
sbag1
(g6
g7
S'169641781'
p31
tp32
Rp33
(dp34
g12
g26
sbag1
(g6
g7
S'159462157'
p35
tp36
Rp37
(dp38
g12
g26
sbag1
(g6
g7
S'159462155'
p39
tp40
Rp41
(dp42
g12
g26
sbag1
(g6
g7
S'80524324'
p43
tp44
Rp45
(dp46
g12
g26
sbag1
(g6
g7
S'80524322'
p47
tp48
Rp49
(dp50
g12
g26
sbag1
(g6
g7
S'154745105'
p51
tp52
Rp53
(dp54
g12
g26
sbag1
(g6
g7
S'154745103'
p55
tp56
Rp57
(dp58
g12
g26
sbag1
(g6
g7
S'133923416'
p59
tp60
Rp61
(dp62
g12
g26
sbag1
(g6
g7
S'133923414'
p63
tp64
Rp65
(dp66
g12
g26
sbag1
(g6
g7
S'557746170'
p67
tp68
Rp69
(dp70
g12
g26
sbatp71
Rp72
(dp73
g12
g18
sbsVQueryTranslation
p74
g1
(g6
g7
S'"Moronidae"[Organism] AND Rhodopsin[title]'
p75
tp76
Rp77
(dp78
g12
g74
sbsVTranslationStack
p79
g1
(g19
g20
(lp80
g1
(g2
g3
(dp81
g5
g1
(g6
g7
S'389074'
p82
tp83
Rp84
(dp85
g12
g5
sbsVField
p86
g1
(g6
g7
S'Organism'
p87
tp88
Rp89
(dp90
g12
g86
sbsVTerm
p91
g1
(g6
g7
S'"Moronidae"[Organism]'
p92
tp93
Rp94
(dp95
g12
g91
sbsVExplode
p96
g1
(g6
g7
S'Y'
p97
tp98
Rp99
(dp100
g12
g96
sbstp101
Rp102
(dp103
g12
VTermSet
p104
sbag1
(g2
g3
(dp105
g5
g1
(g6
g7
S'27703'
p106
tp107
Rp108
(dp109
g12
g5
sbsg86
g1
(g6
g7
S'title'
p110
tp111
Rp112
(dp113
g12
g86
sbsg91
g1
(g6
g7
S'Rhodopsin[title]'
p114
tp115
Rp116
(dp117
g12
g91
sbsg96
g1
(g6
g7
S'N'
p118
tp119
Rp120
(dp121
g12
g96
sbstp122
Rp123
(dp124
g12
g104
sbag1
(g6
g7
S'AND'
p125
tp126
Rp127
(dp128
g12
VOP
p129
sbatp130
Rp131
(dp132
g12
g79
sbsVRetStart
p133
g1
(g6
g7
S'0'
p134
tp135
Rp136
(dp137
g12
g133
sbsVTranslationSet
p138
g1
(g19
g20
(lp139
g1
(g2
g3
(dp140
VTo
p141
g1
(g6
g7
S'"Moronidae"[Organism]'
p142
tp143
Rp144
(dp145
g12
g141
sbsVFrom
p146
g1
(g6
g7
S'Moronidae[organism]'
p147
tp148
Rp149
(dp150
g12
g146
sbstp151
Rp152
(dp153
g12
VTranslation
p154
sbatp155
Rp156
(dp157
g12
g138
sbstp158
Rp159
(dp160
g12
VeSearchResult
p161
sba.