(lp0
ccopy_reg
_reconstructor
p1
(cBio.Entrez.Parser
DictionaryElement
p2
c__builtin__
dict
p3
(dp4
VCount
p5
g1
(cBio.Entrez.Parser
StringElement
p6
c__builtin__
str
p7
S'8'
p8
tp9
Rp10
(dp11
S'tag'
p12
g5
sbsVRetMax
p13
g1
(g6
g7
g8
tp14
Rp15
(dp16
g12
g13
sbsVIdList
p17
g1
(cBio.Entrez.Parser
ListElement
p18
c__builtin__
list
p19
(lp20
g1
(g6
g7
S'386372917'
p21
tp22
Rp23
(dp24
g12
VId
p25
sbag1
(g6
g7
S'386372916'
p26
tp27
Rp28
(dp29
g12
g25
sbag1
(g6
g7
S'386372915'
p30
tp31
Rp32
(dp33
g12
g25
sbag1
(g6
g7
S'354550466'
p34
tp35
Rp36
(dp37
g12
g25
sbag1
(g6
g7
S'354550465'
p38
tp39
Rp40
(dp41
g12
g25
sbag1
(g6
g7
S'126655014'
p42
tp43
Rp44
(dp45
g12
g25
sbag1
(g6
g7
S'126654962'
p46
tp47
Rp48
(dp49
g12
g25
sbag1
(g6
g7
S'59939418'
p50
tp51
Rp52
(dp53
g12
g25
sbatp54
Rp55
(dp56
g12
g17
sbsVQueryTranslation
p57
g1
(g6
g7
S'"Lobotidae"[Organism] AND 16S[title]'
p58
tp59
Rp60
(dp61
g12
g57
sbsVTranslationStack
p62
g1
(g18
g19
(lp63
g1
(g2
g3
(dp64
g5
g1
(g6
g7
S'90'
p65
tp66
Rp67
(dp68
g12
g5
sbsVField
p69
g1
(g6
g7
S'Organism'
p70
tp71
Rp72
(dp73
g12
g69
sbsVTerm
p74
g1
(g6
g7
S'"Lobotidae"[Organism]'
p75
tp76
Rp77
(dp78
g12
g74
sbsVExplode
p79
g1
(g6
g7
S'Y'
p80
tp81
Rp82
(dp83
g12
g79
sbstp84
Rp85
(dp86
g12
VTermSet
p87
sbag1
(g2
g3
(dp88
g5
g1
(g6
g7
S'7139828'
p89
tp90
Rp91
(dp92
g12
g5
sbsg69
g1
(g6
g7
S'title'
p93
tp94
Rp95
(dp96
g12
g69
sbsg74
g1
(g6
g7
S'16S[title]'
p97
tp98
Rp99
(dp100
g12
g74
sbsg79
g1
(g6
g7
S'N'
p101
tp102
Rp103
(dp104
g12
g79
sbstp105
Rp106
(dp107
g12
g87
sbag1
(g6
g7
S'AND'
p108
tp109
Rp110
(dp111
g12
VOP
p112
sbatp113
Rp114
(dp115
g12
g62
sbsVRetStart
p116
g1
(g6
g7
S'0'
p117
tp118
Rp119
(dp120
g12
g116
sbsVTranslationSet
p121
g1
(g18
g19
(lp122
g1
(g2
g3
(dp123
VTo
p124
g1
(g6
g7
S'"Lobotidae"[Organism]'
p125
tp126
Rp127
(dp128
g12
g124
sbsVFrom
p129
g1
(g6
g7
S'Lobotidae[organism]'
p130
tp131
Rp132
(dp133
g12
g129
sbstp134
Rp135
(dp136
g12
VTranslation
p137
sbatp138
Rp139
(dp140
g12
g121
sbstp141
Rp142
(dp143
g12
VeSearchResult
p144
sba.