(lp0
ccopy_reg
_reconstructor
p1
(cBio.Entrez.Parser
DictionaryElement
p2
c__builtin__
dict
p3
(dp4
VCount
p5
g1
(cBio.Entrez.Parser
StringElement
p6
c__builtin__
str
p7
S'51'
p8
tp9
Rp10
(dp11
S'tag'
p12
g5
sbsVRetMax
p13
g1
(g6
g7
S'51'
p14
tp15
Rp16
(dp17
g12
g13
sbsVIdList
p18
g1
(cBio.Entrez.Parser
ListElement
p19
c__builtin__
list
p20
(lp21
g1
(g6
g7
S'1101493064'
p22
tp23
Rp24
(dp25
g12
VId
p26
sbag1
(g6
g7
S'1101493062'
p27
tp28
Rp29
(dp30
g12
g26
sbag1
(g6
g7
S'339518389'
p31
tp32
Rp33
(dp34
g12
g26
sbag1
(g6
g7
S'339518387'
p35
tp36
Rp37
(dp38
g12
g26
sbag1
(g6
g7
S'171850674'
p39
tp40
Rp41
(dp42
g12
g26
sbag1
(g6
g7
S'294989084'
p43
tp44
Rp45
(dp46
g12
g26
sbag1
(g6
g7
S'227936463'
p47
tp48
Rp49
(dp50
g12
g26
sbag1
(g6
g7
S'227936461'
p51
tp52
Rp53
(dp54
g12
g26
sbag1
(g6
g7
S'227936459'
p55
tp56
Rp57
(dp58
g12
g26
sbag1
(g6
g7
S'227936457'
p59
tp60
Rp61
(dp62
g12
g26
sbag1
(g6
g7
S'227936455'
p63
tp64
Rp65
(dp66
g12
g26
sbag1
(g6
g7
S'227936453'
p67
tp68
Rp69
(dp70
g12
g26
sbag1
(g6
g7
S'1041927270'
p71
tp72
Rp73
(dp74
g12
g26
sbag1
(g6
g7
S'383281094'
p75
tp76
Rp77
(dp78
g12
g26
sbag1
(g6
g7
S'912499373'
p79
tp80
Rp81
(dp82
g12
g26
sbag1
(g6
g7
S'912499371'
p83
tp84
Rp85
(dp86
g12
g26
sbag1
(g6
g7
S'912499369'
p87
tp88
Rp89
(dp90
g12
g26
sbag1
(g6
g7
S'554792065'
p91
tp92
Rp93
(dp94
g12
g26
sbag1
(g6
g7
S'554521342'
p95
tp96
Rp97
(dp98
g12
g26
sbag1
(g6
g7
S'460419712'
p99
tp100
Rp101
(dp102
g12
g26
sbag1
(g6
g7
S'460419710'
p103
tp104
Rp105
(dp106
g12
g26
sbag1
(g6
g7
S'460419708'
p107
tp108
Rp109
(dp110
g12
g26
sbag1
(g6
g7
S'460419706'
p111
tp112
Rp113
(dp114
g12
g26
sbag1
(g6
g7
S'460419704'
p115
tp116
Rp117
(dp118
g12
g26
sbag1
(g6
g7
S'460419702'
p119
tp120
Rp121
(dp122
g12
g26
sbag1
(g6
g7
S'460419700'
p123
tp124
Rp125
(dp126
g12
g26
sbag1
(g6
g7
S'460419698'
p127
tp128
Rp129
(dp130
g12
g26
sbag1
(g6
g7
S'460419696'
p131
tp132
Rp133
(dp134
g12
g26
sbag1
(g6
g7
S'460419694'
p135
tp136
Rp137
(dp138
g12
g26
sbag1
(g6
g7
S'460419692'
p139
tp140
Rp141
(dp142
g12
g26
sbag1
(g6
g7
S'460419690'
p143
tp144
Rp145
(dp146
g12
g26
sbag1
(g6
g7
S'460419688'
p147
tp148
Rp149
(dp150
g12
g26
sbag1
(g6
g7
S'460419686'
p151
tp152
Rp153
(dp154
g12
g26
sbag1
(g6
g7
S'460419684'
p155
tp156
Rp157
(dp158
g12
g26
sbag1
(g6
g7
S'460419682'
p159
tp160
Rp161
(dp162
g12
g26
sbag1
(g6
g7
S'460419680'
p163
tp164
Rp165
(dp166
g12
g26
sbag1
(g6
g7
S'460419678'
p167
tp168
Rp169
(dp170
g12
g26
sbag1
(g6
g7
S'460419676'
p171
tp172
Rp173
(dp174
g12
g26
sbag1
(g6
g7
S'460419674'
p175
tp176
Rp177
(dp178
g12
g26
sbag1
(g6
g7
S'295082196'
p179
tp180
Rp181
(dp182
g12
g26
sbag1
(g6
g7
S'295082194'
p183
tp184
Rp185
(dp186
g12
g26
sbag1
(g6
g7
S'295082192'
p187
tp188
Rp189
(dp190
g12
g26
sbag1
(g6
g7
S'295082190'
p191
tp192
Rp193
(dp194
g12
g26
sbag1
(g6
g7
S'295082062'
p195
tp196
Rp197
(dp198
g12
g26
sbag1
(g6
g7
S'386373294'
p199
tp200
Rp201
(dp202
g12
g26
sbag1
(g6
g7
S'386373292'
p203
tp204
Rp205
(dp206
g12
g26
sbag1
(g6
g7
S'383388424'
p207
tp208
Rp209
(dp210
g12
g26
sbag1
(g6
g7
S'383388422'
p211
tp212
Rp213
(dp214
g12
g26
sbag1
(g6
g7
S'393004366'
p215
tp216
Rp217
(dp218
g12
g26
sbag1
(g6
g7
S'345808877'
p219
tp220
Rp221
(dp222
g12
g26
sbag1
(g6
g7
S'345808875'
p223
tp224
Rp225
(dp226
g12
g26
sbatp227
Rp228
(dp229
g12
g18
sbsVQueryTranslation
p230
g1
(g6
g7
S'"Lobotidae"[Organism] AND COI[title]'
p231
tp232
Rp233
(dp234
g12
g230
sbsVTranslationStack
p235
g1
(g19
g20
(lp236
g1
(g2
g3
(dp237
g5
g1
(g6
g7
S'90'
p238
tp239
Rp240
(dp241
g12
g5
sbsVField
p242
g1
(g6
g7
S'Organism'
p243
tp244
Rp245
(dp246
g12
g242
sbsVTerm
p247
g1
(g6
g7
S'"Lobotidae"[Organism]'
p248
tp249
Rp250
(dp251
g12
g247
sbsVExplode
p252
g1
(g6
g7
S'Y'
p253
tp254
Rp255
(dp256
g12
g252
sbstp257
Rp258
(dp259
g12
VTermSet
p260
sbag1
(g2
g3
(dp261
g5
g1
(g6
g7
S'2167342'
p262
tp263
Rp264
(dp265
g12
g5
sbsg242
g1
(g6
g7
S'title'
p266
tp267
Rp268
(dp269
g12
g242
sbsg247
g1
(g6
g7
S'COI[title]'
p270
tp271
Rp272
(dp273
g12
g247
sbsg252
g1
(g6
g7
S'N'
p274
tp275
Rp276
(dp277
g12
g252
sbstp278
Rp279
(dp280
g12
g260
sbag1
(g6
g7
S'AND'
p281
tp282
Rp283
(dp284
g12
VOP
p285
sbatp286
Rp287
(dp288
g12
g235
sbsVRetStart
p289
g1
(g6
g7
S'0'
p290
tp291
Rp292
(dp293
g12
g289
sbsVTranslationSet
p294
g1
(g19
g20
(lp295
g1
(g2
g3
(dp296
VTo
p297
g1
(g6
g7
S'"Lobotidae"[Organism]'
p298
tp299
Rp300
(dp301
g12
g297
sbsVFrom
p302
g1
(g6
g7
S'Lobotidae[organism]'
p303
tp304
Rp305
(dp306
g12
g302
sbstp307
Rp308
(dp309
g12
VTranslation
p310
sbatp311
Rp312
(dp313
g12
g294
sbstp314
Rp315
(dp316
g12
VeSearchResult
p317
sba.