(lp0
ccopy_reg
_reconstructor
p1
(cBio.Entrez.Parser
DictionaryElement
p2
c__builtin__
dict
p3
(dp4
VCount
p5
g1
(cBio.Entrez.Parser
StringElement
p6
c__builtin__
str
p7
S'818'
p8
tp9
Rp10
(dp11
S'tag'
p12
g5
sbsVRetMax
p13
g1
(g6
g7
S'818'
p14
tp15
Rp16
(dp17
g12
g13
sbsVIdList
p18
g1
(cBio.Entrez.Parser
ListElement
p19
c__builtin__
list
p20
(lp21
g1
(g6
g7
S'1001003974'
p22
tp23
Rp24
(dp25
g12
VId
p26
sbag1
(g6
g7
S'1061899349'
p27
tp28
Rp29
(dp30
g12
g26
sbag1
(g6
g7
S'1061899348'
p31
tp32
Rp33
(dp34
g12
g26
sbag1
(g6
g7
S'1061899347'
p35
tp36
Rp37
(dp38
g12
g26
sbag1
(g6
g7
S'1055726233'
p39
tp40
Rp41
(dp42
g12
g26
sbag1
(g6
g7
S'1055726232'
p43
tp44
Rp45
(dp46
g12
g26
sbag1
(g6
g7
S'1055726231'
p47
tp48
Rp49
(dp50
g12
g26
sbag1
(g6
g7
S'1055726230'
p51
tp52
Rp53
(dp54
g12
g26
sbag1
(g6
g7
S'1055726229'
p55
tp56
Rp57
(dp58
g12
g26
sbag1
(g6
g7
S'1055726228'
p59
tp60
Rp61
(dp62
g12
g26
sbag1
(g6
g7
S'1055726227'
p63
tp64
Rp65
(dp66
g12
g26
sbag1
(g6
g7
S'1055726226'
p67
tp68
Rp69
(dp70
g12
g26
sbag1
(g6
g7
S'1055726225'
p71
tp72
Rp73
(dp74
g12
g26
sbag1
(g6
g7
S'1055726224'
p75
tp76
Rp77
(dp78
g12
g26
sbag1
(g6
g7
S'1055726223'
p79
tp80
Rp81
(dp82
g12
g26
sbag1
(g6
g7
S'1055726222'
p83
tp84
Rp85
(dp86
g12
g26
sbag1
(g6
g7
S'1043316205'
p87
tp88
Rp89
(dp90
g12
g26
sbag1
(g6
g7
S'1043112475'
p91
tp92
Rp93
(dp94
g12
g26
sbag1
(g6
g7
S'1007385317'
p95
tp96
Rp97
(dp98
g12
g26
sbag1
(g6
g7
S'1007385316'
p99
tp100
Rp101
(dp102
g12
g26
sbag1
(g6
g7
S'1001618973'
p103
tp104
Rp105
(dp106
g12
g26
sbag1
(g6
g7
S'728041269'
p107
tp108
Rp109
(dp110
g12
g26
sbag1
(g6
g7
S'728041268'
p111
tp112
Rp113
(dp114
g12
g26
sbag1
(g6
g7
S'728041267'
p115
tp116
Rp117
(dp118
g12
g26
sbag1
(g6
g7
S'728041266'
p119
tp120
Rp121
(dp122
g12
g26
sbag1
(g6
g7
S'728041265'
p123
tp124
Rp125
(dp126
g12
g26
sbag1
(g6
g7
S'728041264'
p127
tp128
Rp129
(dp130
g12
g26
sbag1
(g6
g7
S'728041263'
p131
tp132
Rp133
(dp134
g12
g26
sbag1
(g6
g7
S'728041262'
p135
tp136
Rp137
(dp138
g12
g26
sbag1
(g6
g7
S'728041261'
p139
tp140
Rp141
(dp142
g12
g26
sbag1
(g6
g7
S'728041260'
p143
tp144
Rp145
(dp146
g12
g26
sbag1
(g6
g7
S'728041259'
p147
tp148
Rp149
(dp150
g12
g26
sbag1
(g6
g7
S'728041258'
p151
tp152
Rp153
(dp154
g12
g26
sbag1
(g6
g7
S'728041257'
p155
tp156
Rp157
(dp158
g12
g26
sbag1
(g6
g7
S'728041256'
p159
tp160
Rp161
(dp162
g12
g26
sbag1
(g6
g7
S'728041255'
p163
tp164
Rp165
(dp166
g12
g26
sbag1
(g6
g7
S'728041254'
p167
tp168
Rp169
(dp170
g12
g26
sbag1
(g6
g7
S'728041253'
p171
tp172
Rp173
(dp174
g12
g26
sbag1
(g6
g7
S'728041252'
p175
tp176
Rp177
(dp178
g12
g26
sbag1
(g6
g7
S'728041251'
p179
tp180
Rp181
(dp182
g12
g26
sbag1
(g6
g7
S'728041250'
p183
tp184
Rp185
(dp186
g12
g26
sbag1
(g6
g7
S'728041249'
p187
tp188
Rp189
(dp190
g12
g26
sbag1
(g6
g7
S'728041248'
p191
tp192
Rp193
(dp194
g12
g26
sbag1
(g6
g7
S'728041247'
p195
tp196
Rp197
(dp198
g12
g26
sbag1
(g6
g7
S'728041246'
p199
tp200
Rp201
(dp202
g12
g26
sbag1
(g6
g7
S'728041245'
p203
tp204
Rp205
(dp206
g12
g26
sbag1
(g6
g7
S'728041244'
p207
tp208
Rp209
(dp210
g12
g26
sbag1
(g6
g7
S'728041243'
p211
tp212
Rp213
(dp214
g12
g26
sbag1
(g6
g7
S'728041242'
p215
tp216
Rp217
(dp218
g12
g26
sbag1
(g6
g7
S'728041241'
p219
tp220
Rp221
(dp222
g12
g26
sbag1
(g6
g7
S'728041240'
p223
tp224
Rp225
(dp226
g12
g26
sbag1
(g6
g7
S'728041239'
p227
tp228
Rp229
(dp230
g12
g26
sbag1
(g6
g7
S'728041238'
p231
tp232
Rp233
(dp234
g12
g26
sbag1
(g6
g7
S'728041237'
p235
tp236
Rp237
(dp238
g12
g26
sbag1
(g6
g7
S'728041236'
p239
tp240
Rp241
(dp242
g12
g26
sbag1
(g6
g7
S'728041235'
p243
tp244
Rp245
(dp246
g12
g26
sbag1
(g6
g7
S'728041234'
p247
tp248
Rp249
(dp250
g12
g26
sbag1
(g6
g7
S'728041233'
p251
tp252
Rp253
(dp254
g12
g26
sbag1
(g6
g7
S'728041232'
p255
tp256
Rp257
(dp258
g12
g26
sbag1
(g6
g7
S'728041231'
p259
tp260
Rp261
(dp262
g12
g26
sbag1
(g6
g7
S'728041230'
p263
tp264
Rp265
(dp266
g12
g26
sbag1
(g6
g7
S'728041229'
p267
tp268
Rp269
(dp270
g12
g26
sbag1
(g6
g7
S'728041228'
p271
tp272
Rp273
(dp274
g12
g26
sbag1
(g6
g7
S'728041227'
p275
tp276
Rp277
(dp278
g12
g26
sbag1
(g6
g7
S'728041226'
p279
tp280
Rp281
(dp282
g12
g26
sbag1
(g6
g7
S'728041225'
p283
tp284
Rp285
(dp286
g12
g26
sbag1
(g6
g7
S'728041224'
p287
tp288
Rp289
(dp290
g12
g26
sbag1
(g6
g7
S'728041223'
p291
tp292
Rp293
(dp294
g12
g26
sbag1
(g6
g7
S'728041222'
p295
tp296
Rp297
(dp298
g12
g26
sbag1
(g6
g7
S'728041221'
p299
tp300
Rp301
(dp302
g12
g26
sbag1
(g6
g7
S'728041220'
p303
tp304
Rp305
(dp306
g12
g26
sbag1
(g6
g7
S'728041219'
p307
tp308
Rp309
(dp310
g12
g26
sbag1
(g6
g7
S'728041218'
p311
tp312
Rp313
(dp314
g12
g26
sbag1
(g6
g7
S'728041217'
p315
tp316
Rp317
(dp318
g12
g26
sbag1
(g6
g7
S'728041216'
p319
tp320
Rp321
(dp322
g12
g26
sbag1
(g6
g7
S'728041215'
p323
tp324
Rp325
(dp326
g12
g26
sbag1
(g6
g7
S'728041214'
p327
tp328
Rp329
(dp330
g12
g26
sbag1
(g6
g7
S'728041213'
p331
tp332
Rp333
(dp334
g12
g26
sbag1
(g6
g7
S'728041212'
p335
tp336
Rp337
(dp338
g12
g26
sbag1
(g6
g7
S'728041211'
p339
tp340
Rp341
(dp342
g12
g26
sbag1
(g6
g7
S'728041210'
p343
tp344
Rp345
(dp346
g12
g26
sbag1
(g6
g7
S'728041209'
p347
tp348
Rp349
(dp350
g12
g26
sbag1
(g6
g7
S'728041208'
p351
tp352
Rp353
(dp354
g12
g26
sbag1
(g6
g7
S'728041207'
p355
tp356
Rp357
(dp358
g12
g26
sbag1
(g6
g7
S'728041206'
p359
tp360
Rp361
(dp362
g12
g26
sbag1
(g6
g7
S'728041205'
p363
tp364
Rp365
(dp366
g12
g26
sbag1
(g6
g7
S'728041204'
p367
tp368
Rp369
(dp370
g12
g26
sbag1
(g6
g7
S'728041203'
p371
tp372
Rp373
(dp374
g12
g26
sbag1
(g6
g7
S'728041202'
p375
tp376
Rp377
(dp378
g12
g26
sbag1
(g6
g7
S'728041201'
p379
tp380
Rp381
(dp382
g12
g26
sbag1
(g6
g7
S'728041200'
p383
tp384
Rp385
(dp386
g12
g26
sbag1
(g6
g7
S'728041199'
p387
tp388
Rp389
(dp390
g12
g26
sbag1
(g6
g7
S'728041198'
p391
tp392
Rp393
(dp394
g12
g26
sbag1
(g6
g7
S'728041197'
p395
tp396
Rp397
(dp398
g12
g26
sbag1
(g6
g7
S'728041196'
p399
tp400
Rp401
(dp402
g12
g26
sbag1
(g6
g7
S'728041195'
p403
tp404
Rp405
(dp406
g12
g26
sbag1
(g6
g7
S'728041194'
p407
tp408
Rp409
(dp410
g12
g26
sbag1
(g6
g7
S'728041193'
p411
tp412
Rp413
(dp414
g12
g26
sbag1
(g6
g7
S'728041192'
p415
tp416
Rp417
(dp418
g12
g26
sbag1
(g6
g7
S'728041191'
p419
tp420
Rp421
(dp422
g12
g26
sbag1
(g6
g7
S'728041190'
p423
tp424
Rp425
(dp426
g12
g26
sbag1
(g6
g7
S'701440303'
p427
tp428
Rp429
(dp430
g12
g26
sbag1
(g6
g7
S'701440302'
p431
tp432
Rp433
(dp434
g12
g26
sbag1
(g6
g7
S'701440301'
p435
tp436
Rp437
(dp438
g12
g26
sbag1
(g6
g7
S'701440300'
p439
tp440
Rp441
(dp442
g12
g26
sbag1
(g6
g7
S'701440299'
p443
tp444
Rp445
(dp446
g12
g26
sbag1
(g6
g7
S'701440298'
p447
tp448
Rp449
(dp450
g12
g26
sbag1
(g6
g7
S'701440297'
p451
tp452
Rp453
(dp454
g12
g26
sbag1
(g6
g7
S'701440296'
p455
tp456
Rp457
(dp458
g12
g26
sbag1
(g6
g7
S'701440295'
p459
tp460
Rp461
(dp462
g12
g26
sbag1
(g6
g7
S'701440294'
p463
tp464
Rp465
(dp466
g12
g26
sbag1
(g6
g7
S'701440293'
p467
tp468
Rp469
(dp470
g12
g26
sbag1
(g6
g7
S'701440292'
p471
tp472
Rp473
(dp474
g12
g26
sbag1
(g6
g7
S'701440291'
p475
tp476
Rp477
(dp478
g12
g26
sbag1
(g6
g7
S'701440290'
p479
tp480
Rp481
(dp482
g12
g26
sbag1
(g6
g7
S'701440289'
p483
tp484
Rp485
(dp486
g12
g26
sbag1
(g6
g7
S'701440288'
p487
tp488
Rp489
(dp490
g12
g26
sbag1
(g6
g7
S'701440287'
p491
tp492
Rp493
(dp494
g12
g26
sbag1
(g6
g7
S'701440286'
p495
tp496
Rp497
(dp498
g12
g26
sbag1
(g6
g7
S'701440285'
p499
tp500
Rp501
(dp502
g12
g26
sbag1
(g6
g7
S'701440284'
p503
tp504
Rp505
(dp506
g12
g26
sbag1
(g6
g7
S'701440283'
p507
tp508
Rp509
(dp510
g12
g26
sbag1
(g6
g7
S'701440282'
p511
tp512
Rp513
(dp514
g12
g26
sbag1
(g6
g7
S'701440281'
p515
tp516
Rp517
(dp518
g12
g26
sbag1
(g6
g7
S'971533407'
p519
tp520
Rp521
(dp522
g12
g26
sbag1
(g6
g7
S'971533406'
p523
tp524
Rp525
(dp526
g12
g26
sbag1
(g6
g7
S'971533405'
p527
tp528
Rp529
(dp530
g12
g26
sbag1
(g6
g7
S'971533362'
p531
tp532
Rp533
(dp534
g12
g26
sbag1
(g6
g7
S'971533361'
p535
tp536
Rp537
(dp538
g12
g26
sbag1
(g6
g7
S'971533360'
p539
tp540
Rp541
(dp542
g12
g26
sbag1
(g6
g7
S'971533359'
p543
tp544
Rp545
(dp546
g12
g26
sbag1
(g6
g7
S'971533358'
p547
tp548
Rp549
(dp550
g12
g26
sbag1
(g6
g7
S'971533357'
p551
tp552
Rp553
(dp554
g12
g26
sbag1
(g6
g7
S'971533356'
p555
tp556
Rp557
(dp558
g12
g26
sbag1
(g6
g7
S'971533355'
p559
tp560
Rp561
(dp562
g12
g26
sbag1
(g6
g7
S'971533354'
p563
tp564
Rp565
(dp566
g12
g26
sbag1
(g6
g7
S'971533353'
p567
tp568
Rp569
(dp570
g12
g26
sbag1
(g6
g7
S'971533352'
p571
tp572
Rp573
(dp574
g12
g26
sbag1
(g6
g7
S'971533351'
p575
tp576
Rp577
(dp578
g12
g26
sbag1
(g6
g7
S'971533350'
p579
tp580
Rp581
(dp582
g12
g26
sbag1
(g6
g7
S'940413962'
p583
tp584
Rp585
(dp586
g12
g26
sbag1
(g6
g7
S'701452991'
p587
tp588
Rp589
(dp590
g12
g26
sbag1
(g6
g7
S'576939558'
p591
tp592
Rp593
(dp594
g12
g26
sbag1
(g6
g7
S'576939557'
p595
tp596
Rp597
(dp598
g12
g26
sbag1
(g6
g7
S'576939556'
p599
tp600
Rp601
(dp602
g12
g26
sbag1
(g6
g7
S'576939555'
p603
tp604
Rp605
(dp606
g12
g26
sbag1
(g6
g7
S'576939554'
p607
tp608
Rp609
(dp610
g12
g26
sbag1
(g6
g7
S'576939553'
p611
tp612
Rp613
(dp614
g12
g26
sbag1
(g6
g7
S'576939552'
p615
tp616
Rp617
(dp618
g12
g26
sbag1
(g6
g7
S'576939551'
p619
tp620
Rp621
(dp622
g12
g26
sbag1
(g6
g7
S'576939550'
p623
tp624
Rp625
(dp626
g12
g26
sbag1
(g6
g7
S'699233681'
p627
tp628
Rp629
(dp630
g12
g26
sbag1
(g6
g7
S'699233680'
p631
tp632
Rp633
(dp634
g12
g26
sbag1
(g6
g7
S'699233679'
p635
tp636
Rp637
(dp638
g12
g26
sbag1
(g6
g7
S'699233678'
p639
tp640
Rp641
(dp642
g12
g26
sbag1
(g6
g7
S'699233677'
p643
tp644
Rp645
(dp646
g12
g26
sbag1
(g6
g7
S'699233676'
p647
tp648
Rp649
(dp650
g12
g26
sbag1
(g6
g7
S'699233675'
p651
tp652
Rp653
(dp654
g12
g26
sbag1
(g6
g7
S'699233674'
p655
tp656
Rp657
(dp658
g12
g26
sbag1
(g6
g7
S'699233673'
p659
tp660
Rp661
(dp662
g12
g26
sbag1
(g6
g7
S'699233672'
p663
tp664
Rp665
(dp666
g12
g26
sbag1
(g6
g7
S'699233671'
p667
tp668
Rp669
(dp670
g12
g26
sbag1
(g6
g7
S'699233642'
p671
tp672
Rp673
(dp674
g12
g26
sbag1
(g6
g7
S'699233641'
p675
tp676
Rp677
(dp678
g12
g26
sbag1
(g6
g7
S'699233640'
p679
tp680
Rp681
(dp682
g12
g26
sbag1
(g6
g7
S'699233639'
p683
tp684
Rp685
(dp686
g12
g26
sbag1
(g6
g7
S'699233638'
p687
tp688
Rp689
(dp690
g12
g26
sbag1
(g6
g7
S'699233637'
p691
tp692
Rp693
(dp694
g12
g26
sbag1
(g6
g7
S'699233636'
p695
tp696
Rp697
(dp698
g12
g26
sbag1
(g6
g7
S'699233635'
p699
tp700
Rp701
(dp702
g12
g26
sbag1
(g6
g7
S'699233634'
p703
tp704
Rp705
(dp706
g12
g26
sbag1
(g6
g7
S'699233633'
p707
tp708
Rp709
(dp710
g12
g26
sbag1
(g6
g7
S'699233632'
p711
tp712
Rp713
(dp714
g12
g26
sbag1
(g6
g7
S'699233631'
p715
tp716
Rp717
(dp718
g12
g26
sbag1
(g6
g7
S'699233630'
p719
tp720
Rp721
(dp722
g12
g26
sbag1
(g6
g7
S'699233629'
p723
tp724
Rp725
(dp726
g12
g26
sbag1
(g6
g7
S'699233628'
p727
tp728
Rp729
(dp730
g12
g26
sbag1
(g6
g7
S'699233627'
p731
tp732
Rp733
(dp734
g12
g26
sbag1
(g6
g7
S'699233626'
p735
tp736
Rp737
(dp738
g12
g26
sbag1
(g6
g7
S'699233625'
p739
tp740
Rp741
(dp742
g12
g26
sbag1
(g6
g7
S'699233624'
p743
tp744
Rp745
(dp746
g12
g26
sbag1
(g6
g7
S'699233623'
p747
tp748
Rp749
(dp750
g12
g26
sbag1
(g6
g7
S'699233622'
p751
tp752
Rp753
(dp754
g12
g26
sbag1
(g6
g7
S'699233621'
p755
tp756
Rp757
(dp758
g12
g26
sbag1
(g6
g7
S'699233620'
p759
tp760
Rp761
(dp762
g12
g26
sbag1
(g6
g7
S'699233619'
p763
tp764
Rp765
(dp766
g12
g26
sbag1
(g6
g7
S'699233618'
p767
tp768
Rp769
(dp770
g12
g26
sbag1
(g6
g7
S'699233617'
p771
tp772
Rp773
(dp774
g12
g26
sbag1
(g6
g7
S'699233616'
p775
tp776
Rp777
(dp778
g12
g26
sbag1
(g6
g7
S'699233615'
p779
tp780
Rp781
(dp782
g12
g26
sbag1
(g6
g7
S'699233614'
p783
tp784
Rp785
(dp786
g12
g26
sbag1
(g6
g7
S'699233613'
p787
tp788
Rp789
(dp790
g12
g26
sbag1
(g6
g7
S'699233612'
p791
tp792
Rp793
(dp794
g12
g26
sbag1
(g6
g7
S'699233611'
p795
tp796
Rp797
(dp798
g12
g26
sbag1
(g6
g7
S'699233610'
p799
tp800
Rp801
(dp802
g12
g26
sbag1
(g6
g7
S'699233609'
p803
tp804
Rp805
(dp806
g12
g26
sbag1
(g6
g7
S'699233608'
p807
tp808
Rp809
(dp810
g12
g26
sbag1
(g6
g7
S'699233607'
p811
tp812
Rp813
(dp814
g12
g26
sbag1
(g6
g7
S'699233606'
p815
tp816
Rp817
(dp818
g12
g26
sbag1
(g6
g7
S'698175410'
p819
tp820
Rp821
(dp822
g12
g26
sbag1
(g6
g7
S'672352248'
p823
tp824
Rp825
(dp826
g12
g26
sbag1
(g6
g7
S'672352247'
p827
tp828
Rp829
(dp830
g12
g26
sbag1
(g6
g7
S'672352246'
p831
tp832
Rp833
(dp834
g12
g26
sbag1
(g6
g7
S'672352245'
p835
tp836
Rp837
(dp838
g12
g26
sbag1
(g6
g7
S'672352244'
p839
tp840
Rp841
(dp842
g12
g26
sbag1
(g6
g7
S'672352243'
p843
tp844
Rp845
(dp846
g12
g26
sbag1
(g6
g7
S'672352242'
p847
tp848
Rp849
(dp850
g12
g26
sbag1
(g6
g7
S'672352241'
p851
tp852
Rp853
(dp854
g12
g26
sbag1
(g6
g7
S'672352240'
p855
tp856
Rp857
(dp858
g12
g26
sbag1
(g6
g7
S'672352239'
p859
tp860
Rp861
(dp862
g12
g26
sbag1
(g6
g7
S'672352238'
p863
tp864
Rp865
(dp866
g12
g26
sbag1
(g6
g7
S'672352237'
p867
tp868
Rp869
(dp870
g12
g26
sbag1
(g6
g7
S'672352236'
p871
tp872
Rp873
(dp874
g12
g26
sbag1
(g6
g7
S'672352235'
p875
tp876
Rp877
(dp878
g12
g26
sbag1
(g6
g7
S'672352234'
p879
tp880
Rp881
(dp882
g12
g26
sbag1
(g6
g7
S'672352233'
p883
tp884
Rp885
(dp886
g12
g26
sbag1
(g6
g7
S'672352232'
p887
tp888
Rp889
(dp890
g12
g26
sbag1
(g6
g7
S'672352231'
p891
tp892
Rp893
(dp894
g12
g26
sbag1
(g6
g7
S'672352230'
p895
tp896
Rp897
(dp898
g12
g26
sbag1
(g6
g7
S'672352229'
p899
tp900
Rp901
(dp902
g12
g26
sbag1
(g6
g7
S'672352228'
p903
tp904
Rp905
(dp906
g12
g26
sbag1
(g6
g7
S'672352227'
p907
tp908
Rp909
(dp910
g12
g26
sbag1
(g6
g7
S'672352226'
p911
tp912
Rp913
(dp914
g12
g26
sbag1
(g6
g7
S'672352225'
p915
tp916
Rp917
(dp918
g12
g26
sbag1
(g6
g7
S'672352224'
p919
tp920
Rp921
(dp922
g12
g26
sbag1
(g6
g7
S'672352223'
p923
tp924
Rp925
(dp926
g12
g26
sbag1
(g6
g7
S'672352222'
p927
tp928
Rp929
(dp930
g12
g26
sbag1
(g6
g7
S'672352221'
p931
tp932
Rp933
(dp934
g12
g26
sbag1
(g6
g7
S'672352220'
p935
tp936
Rp937
(dp938
g12
g26
sbag1
(g6
g7
S'672352219'
p939
tp940
Rp941
(dp942
g12
g26
sbag1
(g6
g7
S'672352218'
p943
tp944
Rp945
(dp946
g12
g26
sbag1
(g6
g7
S'451313344'
p947
tp948
Rp949
(dp950
g12
g26
sbag1
(g6
g7
S'451313343'
p951
tp952
Rp953
(dp954
g12
g26
sbag1
(g6
g7
S'451313342'
p955
tp956
Rp957
(dp958
g12
g26
sbag1
(g6
g7
S'451313341'
p959
tp960
Rp961
(dp962
g12
g26
sbag1
(g6
g7
S'451313340'
p963
tp964
Rp965
(dp966
g12
g26
sbag1
(g6
g7
S'451313339'
p967
tp968
Rp969
(dp970
g12
g26
sbag1
(g6
g7
S'451313338'
p971
tp972
Rp973
(dp974
g12
g26
sbag1
(g6
g7
S'451313337'
p975
tp976
Rp977
(dp978
g12
g26
sbag1
(g6
g7
S'451313336'
p979
tp980
Rp981
(dp982
g12
g26
sbag1
(g6
g7
S'451313335'
p983
tp984
Rp985
(dp986
g12
g26
sbag1
(g6
g7
S'451313334'
p987
tp988
Rp989
(dp990
g12
g26
sbag1
(g6
g7
S'451313333'
p991
tp992
Rp993
(dp994
g12
g26
sbag1
(g6
g7
S'451313332'
p995
tp996
Rp997
(dp998
g12
g26
sbag1
(g6
g7
S'451313331'
p999
tp1000
Rp1001
(dp1002
g12
g26
sbag1
(g6
g7
S'451313330'
p1003
tp1004
Rp1005
(dp1006
g12
g26
sbag1
(g6
g7
S'451313329'
p1007
tp1008
Rp1009
(dp1010
g12
g26
sbag1
(g6
g7
S'451313328'
p1011
tp1012
Rp1013
(dp1014
g12
g26
sbag1
(g6
g7
S'451313327'
p1015
tp1016
Rp1017
(dp1018
g12
g26
sbag1
(g6
g7
S'451313326'
p1019
tp1020
Rp1021
(dp1022
g12
g26
sbag1
(g6
g7
S'451313325'
p1023
tp1024
Rp1025
(dp1026
g12
g26
sbag1
(g6
g7
S'451313324'
p1027
tp1028
Rp1029
(dp1030
g12
g26
sbag1
(g6
g7
S'451313323'
p1031
tp1032
Rp1033
(dp1034
g12
g26
sbag1
(g6
g7
S'451313322'
p1035
tp1036
Rp1037
(dp1038
g12
g26
sbag1
(g6
g7
S'451313321'
p1039
tp1040
Rp1041
(dp1042
g12
g26
sbag1
(g6
g7
S'451313320'
p1043
tp1044
Rp1045
(dp1046
g12
g26
sbag1
(g6
g7
S'451313319'
p1047
tp1048
Rp1049
(dp1050
g12
g26
sbag1
(g6
g7
S'451313318'
p1051
tp1052
Rp1053
(dp1054
g12
g26
sbag1
(g6
g7
S'451313317'
p1055
tp1056
Rp1057
(dp1058
g12
g26
sbag1
(g6
g7
S'451313316'
p1059
tp1060
Rp1061
(dp1062
g12
g26
sbag1
(g6
g7
S'451313315'
p1063
tp1064
Rp1065
(dp1066
g12
g26
sbag1
(g6
g7
S'645097277'
p1067
tp1068
Rp1069
(dp1070
g12
g26
sbag1
(g6
g7
S'645097275'
p1071
tp1072
Rp1073
(dp1074
g12
g26
sbag1
(g6
g7
S'645097273'
p1075
tp1076
Rp1077
(dp1078
g12
g26
sbag1
(g6
g7
S'588264356'
p1079
tp1080
Rp1081
(dp1082
g12
g26
sbag1
(g6
g7
S'359719220'
p1083
tp1084
Rp1085
(dp1086
g12
g26
sbag1
(g6
g7
S'359719219'
p1087
tp1088
Rp1089
(dp1090
g12
g26
sbag1
(g6
g7
S'359719218'
p1091
tp1092
Rp1093
(dp1094
g12
g26
sbag1
(g6
g7
S'359719217'
p1095
tp1096
Rp1097
(dp1098
g12
g26
sbag1
(g6
g7
S'359719216'
p1099
tp1100
Rp1101
(dp1102
g12
g26
sbag1
(g6
g7
S'359719215'
p1103
tp1104
Rp1105
(dp1106
g12
g26
sbag1
(g6
g7
S'359719214'
p1107
tp1108
Rp1109
(dp1110
g12
g26
sbag1
(g6
g7
S'359719213'
p1111
tp1112
Rp1113
(dp1114
g12
g26
sbag1
(g6
g7
S'359719212'
p1115
tp1116
Rp1117
(dp1118
g12
g26
sbag1
(g6
g7
S'359719211'
p1119
tp1120
Rp1121
(dp1122
g12
g26
sbag1
(g6
g7
S'359719210'
p1123
tp1124
Rp1125
(dp1126
g12
g26
sbag1
(g6
g7
S'359719209'
p1127
tp1128
Rp1129
(dp1130
g12
g26
sbag1
(g6
g7
S'359719208'
p1131
tp1132
Rp1133
(dp1134
g12
g26
sbag1
(g6
g7
S'359719207'
p1135
tp1136
Rp1137
(dp1138
g12
g26
sbag1
(g6
g7
S'359719206'
p1139
tp1140
Rp1141
(dp1142
g12
g26
sbag1
(g6
g7
S'359719205'
p1143
tp1144
Rp1145
(dp1146
g12
g26
sbag1
(g6
g7
S'359719204'
p1147
tp1148
Rp1149
(dp1150
g12
g26
sbag1
(g6
g7
S'184215927'
p1151
tp1152
Rp1153
(dp1154
g12
g26
sbag1
(g6
g7
S'184215926'
p1155
tp1156
Rp1157
(dp1158
g12
g26
sbag1
(g6
g7
S'184215925'
p1159
tp1160
Rp1161
(dp1162
g12
g26
sbag1
(g6
g7
S'184215924'
p1163
tp1164
Rp1165
(dp1166
g12
g26
sbag1
(g6
g7
S'184215923'
p1167
tp1168
Rp1169
(dp1170
g12
g26
sbag1
(g6
g7
S'184215922'
p1171
tp1172
Rp1173
(dp1174
g12
g26
sbag1
(g6
g7
S'184215921'
p1175
tp1176
Rp1177
(dp1178
g12
g26
sbag1
(g6
g7
S'184215920'
p1179
tp1180
Rp1181
(dp1182
g12
g26
sbag1
(g6
g7
S'448871741'
p1183
tp1184
Rp1185
(dp1186
g12
g26
sbag1
(g6
g7
S'336044722'
p1187
tp1188
Rp1189
(dp1190
g12
g26
sbag1
(g6
g7
S'109159011'
p1191
tp1192
Rp1193
(dp1194
g12
g26
sbag1
(g6
g7
S'109158971'
p1195
tp1196
Rp1197
(dp1198
g12
g26
sbag1
(g6
g7
S'109158954'
p1199
tp1200
Rp1201
(dp1202
g12
g26
sbag1
(g6
g7
S'109158835'
p1203
tp1204
Rp1205
(dp1206
g12
g26
sbag1
(g6
g7
S'109158670'
p1207
tp1208
Rp1209
(dp1210
g12
g26
sbag1
(g6
g7
S'109158636'
p1211
tp1212
Rp1213
(dp1214
g12
g26
sbag1
(g6
g7
S'109158619'
p1215
tp1216
Rp1217
(dp1218
g12
g26
sbag1
(g6
g7
S'109158520'
p1219
tp1220
Rp1221
(dp1222
g12
g26
sbag1
(g6
g7
S'354550615'
p1223
tp1224
Rp1225
(dp1226
g12
g26
sbag1
(g6
g7
S'354550614'
p1227
tp1228
Rp1229
(dp1230
g12
g26
sbag1
(g6
g7
S'354550613'
p1231
tp1232
Rp1233
(dp1234
g12
g26
sbag1
(g6
g7
S'354550612'
p1235
tp1236
Rp1237
(dp1238
g12
g26
sbag1
(g6
g7
S'354550611'
p1239
tp1240
Rp1241
(dp1242
g12
g26
sbag1
(g6
g7
S'354550610'
p1243
tp1244
Rp1245
(dp1246
g12
g26
sbag1
(g6
g7
S'354550583'
p1247
tp1248
Rp1249
(dp1250
g12
g26
sbag1
(g6
g7
S'354550582'
p1251
tp1252
Rp1253
(dp1254
g12
g26
sbag1
(g6
g7
S'354550581'
p1255
tp1256
Rp1257
(dp1258
g12
g26
sbag1
(g6
g7
S'354550580'
p1259
tp1260
Rp1261
(dp1262
g12
g26
sbag1
(g6
g7
S'354550579'
p1263
tp1264
Rp1265
(dp1266
g12
g26
sbag1
(g6
g7
S'354550578'
p1267
tp1268
Rp1269
(dp1270
g12
g26
sbag1
(g6
g7
S'354550577'
p1271
tp1272
Rp1273
(dp1274
g12
g26
sbag1
(g6
g7
S'354550564'
p1275
tp1276
Rp1277
(dp1278
g12
g26
sbag1
(g6
g7
S'354550563'
p1279
tp1280
Rp1281
(dp1282
g12
g26
sbag1
(g6
g7
S'354550562'
p1283
tp1284
Rp1285
(dp1286
g12
g26
sbag1
(g6
g7
S'354550561'
p1287
tp1288
Rp1289
(dp1290
g12
g26
sbag1
(g6
g7
S'354550560'
p1291
tp1292
Rp1293
(dp1294
g12
g26
sbag1
(g6
g7
S'354550457'
p1295
tp1296
Rp1297
(dp1298
g12
g26
sbag1
(g6
g7
S'354550456'
p1299
tp1300
Rp1301
(dp1302
g12
g26
sbag1
(g6
g7
S'354550455'
p1303
tp1304
Rp1305
(dp1306
g12
g26
sbag1
(g6
g7
S'354550454'
p1307
tp1308
Rp1309
(dp1310
g12
g26
sbag1
(g6
g7
S'354550453'
p1311
tp1312
Rp1313
(dp1314
g12
g26
sbag1
(g6
g7
S'354550452'
p1315
tp1316
Rp1317
(dp1318
g12
g26
sbag1
(g6
g7
S'354550440'
p1319
tp1320
Rp1321
(dp1322
g12
g26
sbag1
(g6
g7
S'354550439'
p1323
tp1324
Rp1325
(dp1326
g12
g26
sbag1
(g6
g7
S'354550438'
p1327
tp1328
Rp1329
(dp1330
g12
g26
sbag1
(g6
g7
S'354550437'
p1331
tp1332
Rp1333
(dp1334
g12
g26
sbag1
(g6
g7
S'354550436'
p1335
tp1336
Rp1337
(dp1338
g12
g26
sbag1
(g6
g7
S'354550435'
p1339
tp1340
Rp1341
(dp1342
g12
g26
sbag1
(g6
g7
S'354550434'
p1343
tp1344
Rp1345
(dp1346
g12
g26
sbag1
(g6
g7
S'354550433'
p1347
tp1348
Rp1349
(dp1350
g12
g26
sbag1
(g6
g7
S'380084375'
p1351
tp1352
Rp1353
(dp1354
g12
g26
sbag1
(g6
g7
S'374087463'
p1355
tp1356
Rp1357
(dp1358
g12
g26
sbag1
(g6
g7
S'374087462'
p1359
tp1360
Rp1361
(dp1362
g12
g26
sbag1
(g6
g7
S'374087461'
p1363
tp1364
Rp1365
(dp1366
g12
g26
sbag1
(g6
g7
S'315019170'
p1367
tp1368
Rp1369
(dp1370
g12
g26
sbag1
(g6
g7
S'315019169'
p1371
tp1372
Rp1373
(dp1374
g12
g26
sbag1
(g6
g7
S'315019168'
p1375
tp1376
Rp1377
(dp1378
g12
g26
sbag1
(g6
g7
S'315019137'
p1379
tp1380
Rp1381
(dp1382
g12
g26
sbag1
(g6
g7
S'315019136'
p1383
tp1384
Rp1385
(dp1386
g12
g26
sbag1
(g6
g7
S'315019135'
p1387
tp1388
Rp1389
(dp1390
g12
g26
sbag1
(g6
g7
S'341864412'
p1391
tp1392
Rp1393
(dp1394
g12
g26
sbag1
(g6
g7
S'341864408'
p1395
tp1396
Rp1397
(dp1398
g12
g26
sbag1
(g6
g7
S'341864407'
p1399
tp1400
Rp1401
(dp1402
g12
g26
sbag1
(g6
g7
S'341864406'
p1403
tp1404
Rp1405
(dp1406
g12
g26
sbag1
(g6
g7
S'341864405'
p1407
tp1408
Rp1409
(dp1410
g12
g26
sbag1
(g6
g7
S'341864404'
p1411
tp1412
Rp1413
(dp1414
g12
g26
sbag1
(g6
g7
S'336090286'
p1415
tp1416
Rp1417
(dp1418
g12
g26
sbag1
(g6
g7
S'336090285'
p1419
tp1420
Rp1421
(dp1422
g12
g26
sbag1
(g6
g7
S'336090284'
p1423
tp1424
Rp1425
(dp1426
g12
g26
sbag1
(g6
g7
S'336090283'
p1427
tp1428
Rp1429
(dp1430
g12
g26
sbag1
(g6
g7
S'336090282'
p1431
tp1432
Rp1433
(dp1434
g12
g26
sbag1
(g6
g7
S'336090281'
p1435
tp1436
Rp1437
(dp1438
g12
g26
sbag1
(g6
g7
S'336090280'
p1439
tp1440
Rp1441
(dp1442
g12
g26
sbag1
(g6
g7
S'336090279'
p1443
tp1444
Rp1445
(dp1446
g12
g26
sbag1
(g6
g7
S'336090278'
p1447
tp1448
Rp1449
(dp1450
g12
g26
sbag1
(g6
g7
S'33569542'
p1451
tp1452
Rp1453
(dp1454
g12
g26
sbag1
(g6
g7
S'326368420'
p1455
tp1456
Rp1457
(dp1458
g12
g26
sbag1
(g6
g7
S'326368419'
p1459
tp1460
Rp1461
(dp1462
g12
g26
sbag1
(g6
g7
S'326368418'
p1463
tp1464
Rp1465
(dp1466
g12
g26
sbag1
(g6
g7
S'326368417'
p1467
tp1468
Rp1469
(dp1470
g12
g26
sbag1
(g6
g7
S'326368416'
p1471
tp1472
Rp1473
(dp1474
g12
g26
sbag1
(g6
g7
S'326368415'
p1475
tp1476
Rp1477
(dp1478
g12
g26
sbag1
(g6
g7
S'326368414'
p1479
tp1480
Rp1481
(dp1482
g12
g26
sbag1
(g6
g7
S'326368413'
p1483
tp1484
Rp1485
(dp1486
g12
g26
sbag1
(g6
g7
S'326368412'
p1487
tp1488
Rp1489
(dp1490
g12
g26
sbag1
(g6
g7
S'326368411'
p1491
tp1492
Rp1493
(dp1494
g12
g26
sbag1
(g6
g7
S'326368410'
p1495
tp1496
Rp1497
(dp1498
g12
g26
sbag1
(g6
g7
S'326368409'
p1499
tp1500
Rp1501
(dp1502
g12
g26
sbag1
(g6
g7
S'326368408'
p1503
tp1504
Rp1505
(dp1506
g12
g26
sbag1
(g6
g7
S'326368407'
p1507
tp1508
Rp1509
(dp1510
g12
g26
sbag1
(g6
g7
S'326368406'
p1511
tp1512
Rp1513
(dp1514
g12
g26
sbag1
(g6
g7
S'326368405'
p1515
tp1516
Rp1517
(dp1518
g12
g26
sbag1
(g6
g7
S'326368404'
p1519
tp1520
Rp1521
(dp1522
g12
g26
sbag1
(g6
g7
S'326368403'
p1523
tp1524
Rp1525
(dp1526
g12
g26
sbag1
(g6
g7
S'320090243'
p1527
tp1528
Rp1529
(dp1530
g12
g26
sbag1
(g6
g7
S'320090242'
p1531
tp1532
Rp1533
(dp1534
g12
g26
sbag1
(g6
g7
S'320090241'
p1535
tp1536
Rp1537
(dp1538
g12
g26
sbag1
(g6
g7
S'320090240'
p1539
tp1540
Rp1541
(dp1542
g12
g26
sbag1
(g6
g7
S'320090239'
p1543
tp1544
Rp1545
(dp1546
g12
g26
sbag1
(g6
g7
S'320090238'
p1547
tp1548
Rp1549
(dp1550
g12
g26
sbag1
(g6
g7
S'320090237'
p1551
tp1552
Rp1553
(dp1554
g12
g26
sbag1
(g6
g7
S'320090236'
p1555
tp1556
Rp1557
(dp1558
g12
g26
sbag1
(g6
g7
S'320090235'
p1559
tp1560
Rp1561
(dp1562
g12
g26
sbag1
(g6
g7
S'320090234'
p1563
tp1564
Rp1565
(dp1566
g12
g26
sbag1
(g6
g7
S'320090233'
p1567
tp1568
Rp1569
(dp1570
g12
g26
sbag1
(g6
g7
S'320090232'
p1571
tp1572
Rp1573
(dp1574
g12
g26
sbag1
(g6
g7
S'320090231'
p1575
tp1576
Rp1577
(dp1578
g12
g26
sbag1
(g6
g7
S'320090230'
p1579
tp1580
Rp1581
(dp1582
g12
g26
sbag1
(g6
g7
S'320090229'
p1583
tp1584
Rp1585
(dp1586
g12
g26
sbag1
(g6
g7
S'320090228'
p1587
tp1588
Rp1589
(dp1590
g12
g26
sbag1
(g6
g7
S'320090227'
p1591
tp1592
Rp1593
(dp1594
g12
g26
sbag1
(g6
g7
S'320090226'
p1595
tp1596
Rp1597
(dp1598
g12
g26
sbag1
(g6
g7
S'320090225'
p1599
tp1600
Rp1601
(dp1602
g12
g26
sbag1
(g6
g7
S'320090224'
p1603
tp1604
Rp1605
(dp1606
g12
g26
sbag1
(g6
g7
S'298289617'
p1607
tp1608
Rp1609
(dp1610
g12
g26
sbag1
(g6
g7
S'81170826'
p1611
tp1612
Rp1613
(dp1614
g12
g26
sbag1
(g6
g7
S'81170825'
p1615
tp1616
Rp1617
(dp1618
g12
g26
sbag1
(g6
g7
S'81170824'
p1619
tp1620
Rp1621
(dp1622
g12
g26
sbag1
(g6
g7
S'81170823'
p1623
tp1624
Rp1625
(dp1626
g12
g26
sbag1
(g6
g7
S'77456227'
p1627
tp1628
Rp1629
(dp1630
g12
g26
sbag1
(g6
g7
S'77456226'
p1631
tp1632
Rp1633
(dp1634
g12
g26
sbag1
(g6
g7
S'77456225'
p1635
tp1636
Rp1637
(dp1638
g12
g26
sbag1
(g6
g7
S'77456224'
p1639
tp1640
Rp1641
(dp1642
g12
g26
sbag1
(g6
g7
S'77456223'
p1643
tp1644
Rp1645
(dp1646
g12
g26
sbag1
(g6
g7
S'77456222'
p1647
tp1648
Rp1649
(dp1650
g12
g26
sbag1
(g6
g7
S'77456221'
p1651
tp1652
Rp1653
(dp1654
g12
g26
sbag1
(g6
g7
S'77456220'
p1655
tp1656
Rp1657
(dp1658
g12
g26
sbag1
(g6
g7
S'77456219'
p1659
tp1660
Rp1661
(dp1662
g12
g26
sbag1
(g6
g7
S'77456218'
p1663
tp1664
Rp1665
(dp1666
g12
g26
sbag1
(g6
g7
S'77456217'
p1667
tp1668
Rp1669
(dp1670
g12
g26
sbag1
(g6
g7
S'77456216'
p1671
tp1672
Rp1673
(dp1674
g12
g26
sbag1
(g6
g7
S'77456215'
p1675
tp1676
Rp1677
(dp1678
g12
g26
sbag1
(g6
g7
S'77456214'
p1679
tp1680
Rp1681
(dp1682
g12
g26
sbag1
(g6
g7
S'77456213'
p1683
tp1684
Rp1685
(dp1686
g12
g26
sbag1
(g6
g7
S'77456212'
p1687
tp1688
Rp1689
(dp1690
g12
g26
sbag1
(g6
g7
S'77456211'
p1691
tp1692
Rp1693
(dp1694
g12
g26
sbag1
(g6
g7
S'77456210'
p1695
tp1696
Rp1697
(dp1698
g12
g26
sbag1
(g6
g7
S'77456209'
p1699
tp1700
Rp1701
(dp1702
g12
g26
sbag1
(g6
g7
S'77456208'
p1703
tp1704
Rp1705
(dp1706
g12
g26
sbag1
(g6
g7
S'77456207'
p1707
tp1708
Rp1709
(dp1710
g12
g26
sbag1
(g6
g7
S'77456206'
p1711
tp1712
Rp1713
(dp1714
g12
g26
sbag1
(g6
g7
S'307147642'
p1715
tp1716
Rp1717
(dp1718
g12
g26
sbag1
(g6
g7
S'307344191'
p1719
tp1720
Rp1721
(dp1722
g12
g26
sbag1
(g6
g7
S'307344190'
p1723
tp1724
Rp1725
(dp1726
g12
g26
sbag1
(g6
g7
S'307344189'
p1727
tp1728
Rp1729
(dp1730
g12
g26
sbag1
(g6
g7
S'307344188'
p1731
tp1732
Rp1733
(dp1734
g12
g26
sbag1
(g6
g7
S'307344187'
p1735
tp1736
Rp1737
(dp1738
g12
g26
sbag1
(g6
g7
S'307344186'
p1739
tp1740
Rp1741
(dp1742
g12
g26
sbag1
(g6
g7
S'307344185'
p1743
tp1744
Rp1745
(dp1746
g12
g26
sbag1
(g6
g7
S'307344184'
p1747
tp1748
Rp1749
(dp1750
g12
g26
sbag1
(g6
g7
S'307344183'
p1751
tp1752
Rp1753
(dp1754
g12
g26
sbag1
(g6
g7
S'307344182'
p1755
tp1756
Rp1757
(dp1758
g12
g26
sbag1
(g6
g7
S'307344181'
p1759
tp1760
Rp1761
(dp1762
g12
g26
sbag1
(g6
g7
S'307344180'
p1763
tp1764
Rp1765
(dp1766
g12
g26
sbag1
(g6
g7
S'307344179'
p1767
tp1768
Rp1769
(dp1770
g12
g26
sbag1
(g6
g7
S'307344178'
p1771
tp1772
Rp1773
(dp1774
g12
g26
sbag1
(g6
g7
S'307344177'
p1775
tp1776
Rp1777
(dp1778
g12
g26
sbag1
(g6
g7
S'307344176'
p1779
tp1780
Rp1781
(dp1782
g12
g26
sbag1
(g6
g7
S'307344175'
p1783
tp1784
Rp1785
(dp1786
g12
g26
sbag1
(g6
g7
S'307344174'
p1787
tp1788
Rp1789
(dp1790
g12
g26
sbag1
(g6
g7
S'307344173'
p1791
tp1792
Rp1793
(dp1794
g12
g26
sbag1
(g6
g7
S'307344172'
p1795
tp1796
Rp1797
(dp1798
g12
g26
sbag1
(g6
g7
S'307344171'
p1799
tp1800
Rp1801
(dp1802
g12
g26
sbag1
(g6
g7
S'307344170'
p1803
tp1804
Rp1805
(dp1806
g12
g26
sbag1
(g6
g7
S'307343951'
p1807
tp1808
Rp1809
(dp1810
g12
g26
sbag1
(g6
g7
S'307343950'
p1811
tp1812
Rp1813
(dp1814
g12
g26
sbag1
(g6
g7
S'307343949'
p1815
tp1816
Rp1817
(dp1818
g12
g26
sbag1
(g6
g7
S'307343948'
p1819
tp1820
Rp1821
(dp1822
g12
g26
sbag1
(g6
g7
S'307343947'
p1823
tp1824
Rp1825
(dp1826
g12
g26
sbag1
(g6
g7
S'307343946'
p1827
tp1828
Rp1829
(dp1830
g12
g26
sbag1
(g6
g7
S'307343945'
p1831
tp1832
Rp1833
(dp1834
g12
g26
sbag1
(g6
g7
S'307343944'
p1835
tp1836
Rp1837
(dp1838
g12
g26
sbag1
(g6
g7
S'303386873'
p1839
tp1840
Rp1841
(dp1842
g12
g26
sbag1
(g6
g7
S'303386868'
p1843
tp1844
Rp1845
(dp1846
g12
g26
sbag1
(g6
g7
S'297528279'
p1847
tp1848
Rp1849
(dp1850
g12
g26
sbag1
(g6
g7
S'254679803'
p1851
tp1852
Rp1853
(dp1854
g12
g26
sbag1
(g6
g7
S'254679802'
p1855
tp1856
Rp1857
(dp1858
g12
g26
sbag1
(g6
g7
S'254679801'
p1859
tp1860
Rp1861
(dp1862
g12
g26
sbag1
(g6
g7
S'254679800'
p1863
tp1864
Rp1865
(dp1866
g12
g26
sbag1
(g6
g7
S'254679799'
p1867
tp1868
Rp1869
(dp1870
g12
g26
sbag1
(g6
g7
S'254679798'
p1871
tp1872
Rp1873
(dp1874
g12
g26
sbag1
(g6
g7
S'254679797'
p1875
tp1876
Rp1877
(dp1878
g12
g26
sbag1
(g6
g7
S'254679796'
p1879
tp1880
Rp1881
(dp1882
g12
g26
sbag1
(g6
g7
S'254679795'
p1883
tp1884
Rp1885
(dp1886
g12
g26
sbag1
(g6
g7
S'254679794'
p1887
tp1888
Rp1889
(dp1890
g12
g26
sbag1
(g6
g7
S'254679793'
p1891
tp1892
Rp1893
(dp1894
g12
g26
sbag1
(g6
g7
S'254679792'
p1895
tp1896
Rp1897
(dp1898
g12
g26
sbag1
(g6
g7
S'254679791'
p1899
tp1900
Rp1901
(dp1902
g12
g26
sbag1
(g6
g7
S'254679790'
p1903
tp1904
Rp1905
(dp1906
g12
g26
sbag1
(g6
g7
S'254679789'
p1907
tp1908
Rp1909
(dp1910
g12
g26
sbag1
(g6
g7
S'254679788'
p1911
tp1912
Rp1913
(dp1914
g12
g26
sbag1
(g6
g7
S'254679787'
p1915
tp1916
Rp1917
(dp1918
g12
g26
sbag1
(g6
g7
S'254679786'
p1919
tp1920
Rp1921
(dp1922
g12
g26
sbag1
(g6
g7
S'254679785'
p1923
tp1924
Rp1925
(dp1926
g12
g26
sbag1
(g6
g7
S'254679784'
p1927
tp1928
Rp1929
(dp1930
g12
g26
sbag1
(g6
g7
S'254679783'
p1931
tp1932
Rp1933
(dp1934
g12
g26
sbag1
(g6
g7
S'259122003'
p1935
tp1936
Rp1937
(dp1938
g12
g26
sbag1
(g6
g7
S'259122002'
p1939
tp1940
Rp1941
(dp1942
g12
g26
sbag1
(g6
g7
S'148612531'
p1943
tp1944
Rp1945
(dp1946
g12
g26
sbag1
(g6
g7
S'148612530'
p1947
tp1948
Rp1949
(dp1950
g12
g26
sbag1
(g6
g7
S'148612529'
p1951
tp1952
Rp1953
(dp1954
g12
g26
sbag1
(g6
g7
S'148612528'
p1955
tp1956
Rp1957
(dp1958
g12
g26
sbag1
(g6
g7
S'148612527'
p1959
tp1960
Rp1961
(dp1962
g12
g26
sbag1
(g6
g7
S'148612526'
p1963
tp1964
Rp1965
(dp1966
g12
g26
sbag1
(g6
g7
S'148612525'
p1967
tp1968
Rp1969
(dp1970
g12
g26
sbag1
(g6
g7
S'148612524'
p1971
tp1972
Rp1973
(dp1974
g12
g26
sbag1
(g6
g7
S'126673555'
p1975
tp1976
Rp1977
(dp1978
g12
g26
sbag1
(g6
g7
S'126673554'
p1979
tp1980
Rp1981
(dp1982
g12
g26
sbag1
(g6
g7
S'126673553'
p1983
tp1984
Rp1985
(dp1986
g12
g26
sbag1
(g6
g7
S'126673552'
p1987
tp1988
Rp1989
(dp1990
g12
g26
sbag1
(g6
g7
S'126673551'
p1991
tp1992
Rp1993
(dp1994
g12
g26
sbag1
(g6
g7
S'126673550'
p1995
tp1996
Rp1997
(dp1998
g12
g26
sbag1
(g6
g7
S'126673548'
p1999
tp2000
Rp2001
(dp2002
g12
g26
sbag1
(g6
g7
S'126673547'
p2003
tp2004
Rp2005
(dp2006
g12
g26
sbag1
(g6
g7
S'126673546'
p2007
tp2008
Rp2009
(dp2010
g12
g26
sbag1
(g6
g7
S'126655003'
p2011
tp2012
Rp2013
(dp2014
g12
g26
sbag1
(g6
g7
S'126655002'
p2015
tp2016
Rp2017
(dp2018
g12
g26
sbag1
(g6
g7
S'126655001'
p2019
tp2020
Rp2021
(dp2022
g12
g26
sbag1
(g6
g7
S'126655000'
p2023
tp2024
Rp2025
(dp2026
g12
g26
sbag1
(g6
g7
S'126654999'
p2027
tp2028
Rp2029
(dp2030
g12
g26
sbag1
(g6
g7
S'126654998'
p2031
tp2032
Rp2033
(dp2034
g12
g26
sbag1
(g6
g7
S'126654997'
p2035
tp2036
Rp2037
(dp2038
g12
g26
sbag1
(g6
g7
S'126654996'
p2039
tp2040
Rp2041
(dp2042
g12
g26
sbag1
(g6
g7
S'126654995'
p2043
tp2044
Rp2045
(dp2046
g12
g26
sbag1
(g6
g7
S'126654994'
p2047
tp2048
Rp2049
(dp2050
g12
g26
sbag1
(g6
g7
S'126654993'
p2051
tp2052
Rp2053
(dp2054
g12
g26
sbag1
(g6
g7
S'126654992'
p2055
tp2056
Rp2057
(dp2058
g12
g26
sbag1
(g6
g7
S'126654991'
p2059
tp2060
Rp2061
(dp2062
g12
g26
sbag1
(g6
g7
S'126654990'
p2063
tp2064
Rp2065
(dp2066
g12
g26
sbag1
(g6
g7
S'126654989'
p2067
tp2068
Rp2069
(dp2070
g12
g26
sbag1
(g6
g7
S'126654988'
p2071
tp2072
Rp2073
(dp2074
g12
g26
sbag1
(g6
g7
S'126654987'
p2075
tp2076
Rp2077
(dp2078
g12
g26
sbag1
(g6
g7
S'126654986'
p2079
tp2080
Rp2081
(dp2082
g12
g26
sbag1
(g6
g7
S'126654985'
p2083
tp2084
Rp2085
(dp2086
g12
g26
sbag1
(g6
g7
S'126654984'
p2087
tp2088
Rp2089
(dp2090
g12
g26
sbag1
(g6
g7
S'126654983'
p2091
tp2092
Rp2093
(dp2094
g12
g26
sbag1
(g6
g7
S'126654982'
p2095
tp2096
Rp2097
(dp2098
g12
g26
sbag1
(g6
g7
S'126654981'
p2099
tp2100
Rp2101
(dp2102
g12
g26
sbag1
(g6
g7
S'126654980'
p2103
tp2104
Rp2105
(dp2106
g12
g26
sbag1
(g6
g7
S'126654979'
p2107
tp2108
Rp2109
(dp2110
g12
g26
sbag1
(g6
g7
S'126654978'
p2111
tp2112
Rp2113
(dp2114
g12
g26
sbag1
(g6
g7
S'126654977'
p2115
tp2116
Rp2117
(dp2118
g12
g26
sbag1
(g6
g7
S'126654951'
p2119
tp2120
Rp2121
(dp2122
g12
g26
sbag1
(g6
g7
S'126654950'
p2123
tp2124
Rp2125
(dp2126
g12
g26
sbag1
(g6
g7
S'126654949'
p2127
tp2128
Rp2129
(dp2130
g12
g26
sbag1
(g6
g7
S'126654948'
p2131
tp2132
Rp2133
(dp2134
g12
g26
sbag1
(g6
g7
S'126654947'
p2135
tp2136
Rp2137
(dp2138
g12
g26
sbag1
(g6
g7
S'126654946'
p2139
tp2140
Rp2141
(dp2142
g12
g26
sbag1
(g6
g7
S'126654945'
p2143
tp2144
Rp2145
(dp2146
g12
g26
sbag1
(g6
g7
S'126654944'
p2147
tp2148
Rp2149
(dp2150
g12
g26
sbag1
(g6
g7
S'126654943'
p2151
tp2152
Rp2153
(dp2154
g12
g26
sbag1
(g6
g7
S'126654942'
p2155
tp2156
Rp2157
(dp2158
g12
g26
sbag1
(g6
g7
S'126654941'
p2159
tp2160
Rp2161
(dp2162
g12
g26
sbag1
(g6
g7
S'126654940'
p2163
tp2164
Rp2165
(dp2166
g12
g26
sbag1
(g6
g7
S'126654939'
p2167
tp2168
Rp2169
(dp2170
g12
g26
sbag1
(g6
g7
S'126654938'
p2171
tp2172
Rp2173
(dp2174
g12
g26
sbag1
(g6
g7
S'126654937'
p2175
tp2176
Rp2177
(dp2178
g12
g26
sbag1
(g6
g7
S'126654936'
p2179
tp2180
Rp2181
(dp2182
g12
g26
sbag1
(g6
g7
S'126654935'
p2183
tp2184
Rp2185
(dp2186
g12
g26
sbag1
(g6
g7
S'113203283'
p2187
tp2188
Rp2189
(dp2190
g12
g26
sbag1
(g6
g7
S'113203282'
p2191
tp2192
Rp2193
(dp2194
g12
g26
sbag1
(g6
g7
S'112361635'
p2195
tp2196
Rp2197
(dp2198
g12
g26
sbag1
(g6
g7
S'71743813'
p2199
tp2200
Rp2201
(dp2202
g12
g26
sbag1
(g6
g7
S'71743812'
p2203
tp2204
Rp2205
(dp2206
g12
g26
sbag1
(g6
g7
S'68271257'
p2207
tp2208
Rp2209
(dp2210
g12
g26
sbag1
(g6
g7
S'68271256'
p2211
tp2212
Rp2213
(dp2214
g12
g26
sbag1
(g6
g7
S'68271255'
p2215
tp2216
Rp2217
(dp2218
g12
g26
sbag1
(g6
g7
S'68271254'
p2219
tp2220
Rp2221
(dp2222
g12
g26
sbag1
(g6
g7
S'68271253'
p2223
tp2224
Rp2225
(dp2226
g12
g26
sbag1
(g6
g7
S'68271252'
p2227
tp2228
Rp2229
(dp2230
g12
g26
sbag1
(g6
g7
S'68271251'
p2231
tp2232
Rp2233
(dp2234
g12
g26
sbag1
(g6
g7
S'68271250'
p2235
tp2236
Rp2237
(dp2238
g12
g26
sbag1
(g6
g7
S'68271249'
p2239
tp2240
Rp2241
(dp2242
g12
g26
sbag1
(g6
g7
S'68271248'
p2243
tp2244
Rp2245
(dp2246
g12
g26
sbag1
(g6
g7
S'68271247'
p2247
tp2248
Rp2249
(dp2250
g12
g26
sbag1
(g6
g7
S'67633272'
p2251
tp2252
Rp2253
(dp2254
g12
g26
sbag1
(g6
g7
S'67633271'
p2255
tp2256
Rp2257
(dp2258
g12
g26
sbag1
(g6
g7
S'67633270'
p2259
tp2260
Rp2261
(dp2262
g12
g26
sbag1
(g6
g7
S'67633269'
p2263
tp2264
Rp2265
(dp2266
g12
g26
sbag1
(g6
g7
S'67633268'
p2267
tp2268
Rp2269
(dp2270
g12
g26
sbag1
(g6
g7
S'67633267'
p2271
tp2272
Rp2273
(dp2274
g12
g26
sbag1
(g6
g7
S'67633266'
p2275
tp2276
Rp2277
(dp2278
g12
g26
sbag1
(g6
g7
S'67633265'
p2279
tp2280
Rp2281
(dp2282
g12
g26
sbag1
(g6
g7
S'67633264'
p2283
tp2284
Rp2285
(dp2286
g12
g26
sbag1
(g6
g7
S'67633263'
p2287
tp2288
Rp2289
(dp2290
g12
g26
sbag1
(g6
g7
S'67633262'
p2291
tp2292
Rp2293
(dp2294
g12
g26
sbag1
(g6
g7
S'67633261'
p2295
tp2296
Rp2297
(dp2298
g12
g26
sbag1
(g6
g7
S'67633259'
p2299
tp2300
Rp2301
(dp2302
g12
g26
sbag1
(g6
g7
S'67633258'
p2303
tp2304
Rp2305
(dp2306
g12
g26
sbag1
(g6
g7
S'67633257'
p2307
tp2308
Rp2309
(dp2310
g12
g26
sbag1
(g6
g7
S'67633256'
p2311
tp2312
Rp2313
(dp2314
g12
g26
sbag1
(g6
g7
S'67633255'
p2315
tp2316
Rp2317
(dp2318
g12
g26
sbag1
(g6
g7
S'63099923'
p2319
tp2320
Rp2321
(dp2322
g12
g26
sbag1
(g6
g7
S'63099922'
p2323
tp2324
Rp2325
(dp2326
g12
g26
sbag1
(g6
g7
S'63099921'
p2327
tp2328
Rp2329
(dp2330
g12
g26
sbag1
(g6
g7
S'63099920'
p2331
tp2332
Rp2333
(dp2334
g12
g26
sbag1
(g6
g7
S'63099919'
p2335
tp2336
Rp2337
(dp2338
g12
g26
sbag1
(g6
g7
S'63099918'
p2339
tp2340
Rp2341
(dp2342
g12
g26
sbag1
(g6
g7
S'63099917'
p2343
tp2344
Rp2345
(dp2346
g12
g26
sbag1
(g6
g7
S'63099916'
p2347
tp2348
Rp2349
(dp2350
g12
g26
sbag1
(g6
g7
S'63099915'
p2351
tp2352
Rp2353
(dp2354
g12
g26
sbag1
(g6
g7
S'63099914'
p2355
tp2356
Rp2357
(dp2358
g12
g26
sbag1
(g6
g7
S'63099913'
p2359
tp2360
Rp2361
(dp2362
g12
g26
sbag1
(g6
g7
S'63099912'
p2363
tp2364
Rp2365
(dp2366
g12
g26
sbag1
(g6
g7
S'63099911'
p2367
tp2368
Rp2369
(dp2370
g12
g26
sbag1
(g6
g7
S'63099910'
p2371
tp2372
Rp2373
(dp2374
g12
g26
sbag1
(g6
g7
S'63099909'
p2375
tp2376
Rp2377
(dp2378
g12
g26
sbag1
(g6
g7
S'63099908'
p2379
tp2380
Rp2381
(dp2382
g12
g26
sbag1
(g6
g7
S'63099907'
p2383
tp2384
Rp2385
(dp2386
g12
g26
sbag1
(g6
g7
S'63099906'
p2387
tp2388
Rp2389
(dp2390
g12
g26
sbag1
(g6
g7
S'63099905'
p2391
tp2392
Rp2393
(dp2394
g12
g26
sbag1
(g6
g7
S'63099904'
p2395
tp2396
Rp2397
(dp2398
g12
g26
sbag1
(g6
g7
S'63099903'
p2399
tp2400
Rp2401
(dp2402
g12
g26
sbag1
(g6
g7
S'63099901'
p2403
tp2404
Rp2405
(dp2406
g12
g26
sbag1
(g6
g7
S'63099900'
p2407
tp2408
Rp2409
(dp2410
g12
g26
sbag1
(g6
g7
S'63099899'
p2411
tp2412
Rp2413
(dp2414
g12
g26
sbag1
(g6
g7
S'63099898'
p2415
tp2416
Rp2417
(dp2418
g12
g26
sbag1
(g6
g7
S'63099897'
p2419
tp2420
Rp2421
(dp2422
g12
g26
sbag1
(g6
g7
S'63099896'
p2423
tp2424
Rp2425
(dp2426
g12
g26
sbag1
(g6
g7
S'63099895'
p2427
tp2428
Rp2429
(dp2430
g12
g26
sbag1
(g6
g7
S'63099894'
p2431
tp2432
Rp2433
(dp2434
g12
g26
sbag1
(g6
g7
S'63099893'
p2435
tp2436
Rp2437
(dp2438
g12
g26
sbag1
(g6
g7
S'63099892'
p2439
tp2440
Rp2441
(dp2442
g12
g26
sbag1
(g6
g7
S'63099891'
p2443
tp2444
Rp2445
(dp2446
g12
g26
sbag1
(g6
g7
S'63099890'
p2447
tp2448
Rp2449
(dp2450
g12
g26
sbag1
(g6
g7
S'63099889'
p2451
tp2452
Rp2453
(dp2454
g12
g26
sbag1
(g6
g7
S'63099888'
p2455
tp2456
Rp2457
(dp2458
g12
g26
sbag1
(g6
g7
S'63099887'
p2459
tp2460
Rp2461
(dp2462
g12
g26
sbag1
(g6
g7
S'63099886'
p2463
tp2464
Rp2465
(dp2466
g12
g26
sbag1
(g6
g7
S'63099885'
p2467
tp2468
Rp2469
(dp2470
g12
g26
sbag1
(g6
g7
S'63099884'
p2471
tp2472
Rp2473
(dp2474
g12
g26
sbag1
(g6
g7
S'63099883'
p2475
tp2476
Rp2477
(dp2478
g12
g26
sbag1
(g6
g7
S'63099882'
p2479
tp2480
Rp2481
(dp2482
g12
g26
sbag1
(g6
g7
S'63099881'
p2483
tp2484
Rp2485
(dp2486
g12
g26
sbag1
(g6
g7
S'63099880'
p2487
tp2488
Rp2489
(dp2490
g12
g26
sbag1
(g6
g7
S'63099879'
p2491
tp2492
Rp2493
(dp2494
g12
g26
sbag1
(g6
g7
S'63099878'
p2495
tp2496
Rp2497
(dp2498
g12
g26
sbag1
(g6
g7
S'63099877'
p2499
tp2500
Rp2501
(dp2502
g12
g26
sbag1
(g6
g7
S'63099876'
p2503
tp2504
Rp2505
(dp2506
g12
g26
sbag1
(g6
g7
S'63099875'
p2507
tp2508
Rp2509
(dp2510
g12
g26
sbag1
(g6
g7
S'63099874'
p2511
tp2512
Rp2513
(dp2514
g12
g26
sbag1
(g6
g7
S'63099873'
p2515
tp2516
Rp2517
(dp2518
g12
g26
sbag1
(g6
g7
S'63099872'
p2519
tp2520
Rp2521
(dp2522
g12
g26
sbag1
(g6
g7
S'63099871'
p2523
tp2524
Rp2525
(dp2526
g12
g26
sbag1
(g6
g7
S'63099870'
p2527
tp2528
Rp2529
(dp2530
g12
g26
sbag1
(g6
g7
S'63099869'
p2531
tp2532
Rp2533
(dp2534
g12
g26
sbag1
(g6
g7
S'63099868'
p2535
tp2536
Rp2537
(dp2538
g12
g26
sbag1
(g6
g7
S'63099867'
p2539
tp2540
Rp2541
(dp2542
g12
g26
sbag1
(g6
g7
S'63099866'
p2543
tp2544
Rp2545
(dp2546
g12
g26
sbag1
(g6
g7
S'63099865'
p2547
tp2548
Rp2549
(dp2550
g12
g26
sbag1
(g6
g7
S'63099864'
p2551
tp2552
Rp2553
(dp2554
g12
g26
sbag1
(g6
g7
S'63099863'
p2555
tp2556
Rp2557
(dp2558
g12
g26
sbag1
(g6
g7
S'63099862'
p2559
tp2560
Rp2561
(dp2562
g12
g26
sbag1
(g6
g7
S'63099860'
p2563
tp2564
Rp2565
(dp2566
g12
g26
sbag1
(g6
g7
S'63099859'
p2567
tp2568
Rp2569
(dp2570
g12
g26
sbag1
(g6
g7
S'63099858'
p2571
tp2572
Rp2573
(dp2574
g12
g26
sbag1
(g6
g7
S'63099857'
p2575
tp2576
Rp2577
(dp2578
g12
g26
sbag1
(g6
g7
S'63099856'
p2579
tp2580
Rp2581
(dp2582
g12
g26
sbag1
(g6
g7
S'63099855'
p2583
tp2584
Rp2585
(dp2586
g12
g26
sbag1
(g6
g7
S'63099854'
p2587
tp2588
Rp2589
(dp2590
g12
g26
sbag1
(g6
g7
S'63099853'
p2591
tp2592
Rp2593
(dp2594
g12
g26
sbag1
(g6
g7
S'63099852'
p2595
tp2596
Rp2597
(dp2598
g12
g26
sbag1
(g6
g7
S'63099851'
p2599
tp2600
Rp2601
(dp2602
g12
g26
sbag1
(g6
g7
S'63099850'
p2603
tp2604
Rp2605
(dp2606
g12
g26
sbag1
(g6
g7
S'63099849'
p2607
tp2608
Rp2609
(dp2610
g12
g26
sbag1
(g6
g7
S'63099848'
p2611
tp2612
Rp2613
(dp2614
g12
g26
sbag1
(g6
g7
S'63099847'
p2615
tp2616
Rp2617
(dp2618
g12
g26
sbag1
(g6
g7
S'63099846'
p2619
tp2620
Rp2621
(dp2622
g12
g26
sbag1
(g6
g7
S'63099845'
p2623
tp2624
Rp2625
(dp2626
g12
g26
sbag1
(g6
g7
S'63099844'
p2627
tp2628
Rp2629
(dp2630
g12
g26
sbag1
(g6
g7
S'63099843'
p2631
tp2632
Rp2633
(dp2634
g12
g26
sbag1
(g6
g7
S'63099842'
p2635
tp2636
Rp2637
(dp2638
g12
g26
sbag1
(g6
g7
S'63099841'
p2639
tp2640
Rp2641
(dp2642
g12
g26
sbag1
(g6
g7
S'57648750'
p2643
tp2644
Rp2645
(dp2646
g12
g26
sbag1
(g6
g7
S'57648749'
p2647
tp2648
Rp2649
(dp2650
g12
g26
sbag1
(g6
g7
S'57648748'
p2651
tp2652
Rp2653
(dp2654
g12
g26
sbag1
(g6
g7
S'57648747'
p2655
tp2656
Rp2657
(dp2658
g12
g26
sbag1
(g6
g7
S'57648746'
p2659
tp2660
Rp2661
(dp2662
g12
g26
sbag1
(g6
g7
S'57648745'
p2663
tp2664
Rp2665
(dp2666
g12
g26
sbag1
(g6
g7
S'57648744'
p2667
tp2668
Rp2669
(dp2670
g12
g26
sbag1
(g6
g7
S'57648743'
p2671
tp2672
Rp2673
(dp2674
g12
g26
sbag1
(g6
g7
S'57648742'
p2675
tp2676
Rp2677
(dp2678
g12
g26
sbag1
(g6
g7
S'57648741'
p2679
tp2680
Rp2681
(dp2682
g12
g26
sbag1
(g6
g7
S'57648740'
p2683
tp2684
Rp2685
(dp2686
g12
g26
sbag1
(g6
g7
S'50813007'
p2687
tp2688
Rp2689
(dp2690
g12
g26
sbag1
(g6
g7
S'50813006'
p2691
tp2692
Rp2693
(dp2694
g12
g26
sbag1
(g6
g7
S'50813005'
p2695
tp2696
Rp2697
(dp2698
g12
g26
sbag1
(g6
g7
S'50813004'
p2699
tp2700
Rp2701
(dp2702
g12
g26
sbag1
(g6
g7
S'50813003'
p2703
tp2704
Rp2705
(dp2706
g12
g26
sbag1
(g6
g7
S'50812957'
p2707
tp2708
Rp2709
(dp2710
g12
g26
sbag1
(g6
g7
S'47088165'
p2711
tp2712
Rp2713
(dp2714
g12
g26
sbag1
(g6
g7
S'47088164'
p2715
tp2716
Rp2717
(dp2718
g12
g26
sbag1
(g6
g7
S'47088163'
p2719
tp2720
Rp2721
(dp2722
g12
g26
sbag1
(g6
g7
S'47088162'
p2723
tp2724
Rp2725
(dp2726
g12
g26
sbag1
(g6
g7
S'47088161'
p2727
tp2728
Rp2729
(dp2730
g12
g26
sbag1
(g6
g7
S'47088115'
p2731
tp2732
Rp2733
(dp2734
g12
g26
sbag1
(g6
g7
S'38569033'
p2735
tp2736
Rp2737
(dp2738
g12
g26
sbag1
(g6
g7
S'37596273'
p2739
tp2740
Rp2741
(dp2742
g12
g26
sbag1
(g6
g7
S'37596272'
p2743
tp2744
Rp2745
(dp2746
g12
g26
sbag1
(g6
g7
S'37596271'
p2747
tp2748
Rp2749
(dp2750
g12
g26
sbag1
(g6
g7
S'32454702'
p2751
tp2752
Rp2753
(dp2754
g12
g26
sbag1
(g6
g7
S'32344824'
p2755
tp2756
Rp2757
(dp2758
g12
g26
sbag1
(g6
g7
S'32344823'
p2759
tp2760
Rp2761
(dp2762
g12
g26
sbag1
(g6
g7
S'32344822'
p2763
tp2764
Rp2765
(dp2766
g12
g26
sbag1
(g6
g7
S'32344818'
p2767
tp2768
Rp2769
(dp2770
g12
g26
sbag1
(g6
g7
S'32344817'
p2771
tp2772
Rp2773
(dp2774
g12
g26
sbag1
(g6
g7
S'32344816'
p2775
tp2776
Rp2777
(dp2778
g12
g26
sbag1
(g6
g7
S'32344815'
p2779
tp2780
Rp2781
(dp2782
g12
g26
sbag1
(g6
g7
S'32344814'
p2783
tp2784
Rp2785
(dp2786
g12
g26
sbag1
(g6
g7
S'32344813'
p2787
tp2788
Rp2789
(dp2790
g12
g26
sbag1
(g6
g7
S'32344812'
p2791
tp2792
Rp2793
(dp2794
g12
g26
sbag1
(g6
g7
S'32344811'
p2795
tp2796
Rp2797
(dp2798
g12
g26
sbag1
(g6
g7
S'32344810'
p2799
tp2800
Rp2801
(dp2802
g12
g26
sbag1
(g6
g7
S'32344809'
p2803
tp2804
Rp2805
(dp2806
g12
g26
sbag1
(g6
g7
S'32344808'
p2807
tp2808
Rp2809
(dp2810
g12
g26
sbag1
(g6
g7
S'32344807'
p2811
tp2812
Rp2813
(dp2814
g12
g26
sbag1
(g6
g7
S'32344806'
p2815
tp2816
Rp2817
(dp2818
g12
g26
sbag1
(g6
g7
S'32344805'
p2819
tp2820
Rp2821
(dp2822
g12
g26
sbag1
(g6
g7
S'32344804'
p2823
tp2824
Rp2825
(dp2826
g12
g26
sbag1
(g6
g7
S'32344803'
p2827
tp2828
Rp2829
(dp2830
g12
g26
sbag1
(g6
g7
S'27435187'
p2831
tp2832
Rp2833
(dp2834
g12
g26
sbag1
(g6
g7
S'27435186'
p2835
tp2836
Rp2837
(dp2838
g12
g26
sbag1
(g6
g7
S'27435185'
p2839
tp2840
Rp2841
(dp2842
g12
g26
sbag1
(g6
g7
S'27435184'
p2843
tp2844
Rp2845
(dp2846
g12
g26
sbag1
(g6
g7
S'18375780'
p2847
tp2848
Rp2849
(dp2850
g12
g26
sbag1
(g6
g7
S'18375779'
p2851
tp2852
Rp2853
(dp2854
g12
g26
sbag1
(g6
g7
S'18375778'
p2855
tp2856
Rp2857
(dp2858
g12
g26
sbag1
(g6
g7
S'18375777'
p2859
tp2860
Rp2861
(dp2862
g12
g26
sbag1
(g6
g7
S'18375776'
p2863
tp2864
Rp2865
(dp2866
g12
g26
sbag1
(g6
g7
S'18375775'
p2867
tp2868
Rp2869
(dp2870
g12
g26
sbag1
(g6
g7
S'18375774'
p2871
tp2872
Rp2873
(dp2874
g12
g26
sbag1
(g6
g7
S'18375773'
p2875
tp2876
Rp2877
(dp2878
g12
g26
sbag1
(g6
g7
S'18375772'
p2879
tp2880
Rp2881
(dp2882
g12
g26
sbag1
(g6
g7
S'18375771'
p2883
tp2884
Rp2885
(dp2886
g12
g26
sbag1
(g6
g7
S'18375770'
p2887
tp2888
Rp2889
(dp2890
g12
g26
sbag1
(g6
g7
S'18375769'
p2891
tp2892
Rp2893
(dp2894
g12
g26
sbag1
(g6
g7
S'18375768'
p2895
tp2896
Rp2897
(dp2898
g12
g26
sbag1
(g6
g7
S'18375767'
p2899
tp2900
Rp2901
(dp2902
g12
g26
sbag1
(g6
g7
S'18375766'
p2903
tp2904
Rp2905
(dp2906
g12
g26
sbag1
(g6
g7
S'18375765'
p2907
tp2908
Rp2909
(dp2910
g12
g26
sbag1
(g6
g7
S'18375764'
p2911
tp2912
Rp2913
(dp2914
g12
g26
sbag1
(g6
g7
S'18375763'
p2915
tp2916
Rp2917
(dp2918
g12
g26
sbag1
(g6
g7
S'18375762'
p2919
tp2920
Rp2921
(dp2922
g12
g26
sbag1
(g6
g7
S'18375761'
p2923
tp2924
Rp2925
(dp2926
g12
g26
sbag1
(g6
g7
S'18375760'
p2927
tp2928
Rp2929
(dp2930
g12
g26
sbag1
(g6
g7
S'18375759'
p2931
tp2932
Rp2933
(dp2934
g12
g26
sbag1
(g6
g7
S'14196326'
p2935
tp2936
Rp2937
(dp2938
g12
g26
sbag1
(g6
g7
S'14196314'
p2939
tp2940
Rp2941
(dp2942
g12
g26
sbag1
(g6
g7
S'14196298'
p2943
tp2944
Rp2945
(dp2946
g12
g26
sbag1
(g6
g7
S'58041818'
p2947
tp2948
Rp2949
(dp2950
g12
g26
sbag1
(g6
g7
S'58041817'
p2951
tp2952
Rp2953
(dp2954
g12
g26
sbag1
(g6
g7
S'58041816'
p2955
tp2956
Rp2957
(dp2958
g12
g26
sbag1
(g6
g7
S'157168284'
p2959
tp2960
Rp2961
(dp2962
g12
g26
sbag1
(g6
g7
S'157168283'
p2963
tp2964
Rp2965
(dp2966
g12
g26
sbag1
(g6
g7
S'157168282'
p2967
tp2968
Rp2969
(dp2970
g12
g26
sbag1
(g6
g7
S'114758846'
p2971
tp2972
Rp2973
(dp2974
g12
g26
sbag1
(g6
g7
S'114758844'
p2975
tp2976
Rp2977
(dp2978
g12
g26
sbag1
(g6
g7
S'114758843'
p2979
tp2980
Rp2981
(dp2982
g12
g26
sbag1
(g6
g7
S'114758842'
p2983
tp2984
Rp2985
(dp2986
g12
g26
sbag1
(g6
g7
S'114758840'
p2987
tp2988
Rp2989
(dp2990
g12
g26
sbag1
(g6
g7
S'114758837'
p2991
tp2992
Rp2993
(dp2994
g12
g26
sbag1
(g6
g7
S'114758834'
p2995
tp2996
Rp2997
(dp2998
g12
g26
sbag1
(g6
g7
S'114758832'
p2999
tp3000
Rp3001
(dp3002
g12
g26
sbag1
(g6
g7
S'114758831'
p3003
tp3004
Rp3005
(dp3006
g12
g26
sbag1
(g6
g7
S'114758828'
p3007
tp3008
Rp3009
(dp3010
g12
g26
sbag1
(g6
g7
S'114758825'
p3011
tp3012
Rp3013
(dp3014
g12
g26
sbag1
(g6
g7
S'114758793'
p3015
tp3016
Rp3017
(dp3018
g12
g26
sbag1
(g6
g7
S'114758792'
p3019
tp3020
Rp3021
(dp3022
g12
g26
sbag1
(g6
g7
S'114758791'
p3023
tp3024
Rp3025
(dp3026
g12
g26
sbag1
(g6
g7
S'114758790'
p3027
tp3028
Rp3029
(dp3030
g12
g26
sbag1
(g6
g7
S'114758789'
p3031
tp3032
Rp3033
(dp3034
g12
g26
sbag1
(g6
g7
S'114758788'
p3035
tp3036
Rp3037
(dp3038
g12
g26
sbag1
(g6
g7
S'158633601'
p3039
tp3040
Rp3041
(dp3042
g12
g26
sbag1
(g6
g7
S'158633580'
p3043
tp3044
Rp3045
(dp3046
g12
g26
sbag1
(g6
g7
S'158633579'
p3047
tp3048
Rp3049
(dp3050
g12
g26
sbag1
(g6
g7
S'158633578'
p3051
tp3052
Rp3053
(dp3054
g12
g26
sbag1
(g6
g7
S'73697827'
p3055
tp3056
Rp3057
(dp3058
g12
g26
sbag1
(g6
g7
S'73697825'
p3059
tp3060
Rp3061
(dp3062
g12
g26
sbag1
(g6
g7
S'73697826'
p3063
tp3064
Rp3065
(dp3066
g12
g26
sbag1
(g6
g7
S'61992501'
p3067
tp3068
Rp3069
(dp3070
g12
g26
sbag1
(g6
g7
S'61992489'
p3071
tp3072
Rp3073
(dp3074
g12
g26
sbag1
(g6
g7
S'14268955'
p3075
tp3076
Rp3077
(dp3078
g12
g26
sbag1
(g6
g7
S'14196335'
p3079
tp3080
Rp3081
(dp3082
g12
g26
sbag1
(g6
g7
S'14196334'
p3083
tp3084
Rp3085
(dp3086
g12
g26
sbag1
(g6
g7
S'14196332'
p3087
tp3088
Rp3089
(dp3090
g12
g26
sbag1
(g6
g7
S'14196331'
p3091
tp3092
Rp3093
(dp3094
g12
g26
sbag1
(g6
g7
S'14196330'
p3095
tp3096
Rp3097
(dp3098
g12
g26
sbag1
(g6
g7
S'14196329'
p3099
tp3100
Rp3101
(dp3102
g12
g26
sbag1
(g6
g7
S'14196328'
p3103
tp3104
Rp3105
(dp3106
g12
g26
sbag1
(g6
g7
S'14196327'
p3107
tp3108
Rp3109
(dp3110
g12
g26
sbag1
(g6
g7
S'14196325'
p3111
tp3112
Rp3113
(dp3114
g12
g26
sbag1
(g6
g7
S'14196324'
p3115
tp3116
Rp3117
(dp3118
g12
g26
sbag1
(g6
g7
S'14196323'
p3119
tp3120
Rp3121
(dp3122
g12
g26
sbag1
(g6
g7
S'14196322'
p3123
tp3124
Rp3125
(dp3126
g12
g26
sbag1
(g6
g7
S'14196321'
p3127
tp3128
Rp3129
(dp3130
g12
g26
sbag1
(g6
g7
S'14196320'
p3131
tp3132
Rp3133
(dp3134
g12
g26
sbag1
(g6
g7
S'14196319'
p3135
tp3136
Rp3137
(dp3138
g12
g26
sbag1
(g6
g7
S'14196318'
p3139
tp3140
Rp3141
(dp3142
g12
g26
sbag1
(g6
g7
S'14196317'
p3143
tp3144
Rp3145
(dp3146
g12
g26
sbag1
(g6
g7
S'14196316'
p3147
tp3148
Rp3149
(dp3150
g12
g26
sbag1
(g6
g7
S'14196315'
p3151
tp3152
Rp3153
(dp3154
g12
g26
sbag1
(g6
g7
S'14196313'
p3155
tp3156
Rp3157
(dp3158
g12
g26
sbag1
(g6
g7
S'14196312'
p3159
tp3160
Rp3161
(dp3162
g12
g26
sbag1
(g6
g7
S'14196311'
p3163
tp3164
Rp3165
(dp3166
g12
g26
sbag1
(g6
g7
S'14196310'
p3167
tp3168
Rp3169
(dp3170
g12
g26
sbag1
(g6
g7
S'14196309'
p3171
tp3172
Rp3173
(dp3174
g12
g26
sbag1
(g6
g7
S'14196308'
p3175
tp3176
Rp3177
(dp3178
g12
g26
sbag1
(g6
g7
S'14196307'
p3179
tp3180
Rp3181
(dp3182
g12
g26
sbag1
(g6
g7
S'14196306'
p3183
tp3184
Rp3185
(dp3186
g12
g26
sbag1
(g6
g7
S'14196305'
p3187
tp3188
Rp3189
(dp3190
g12
g26
sbag1
(g6
g7
S'14196304'
p3191
tp3192
Rp3193
(dp3194
g12
g26
sbag1
(g6
g7
S'14196303'
p3195
tp3196
Rp3197
(dp3198
g12
g26
sbag1
(g6
g7
S'14196302'
p3199
tp3200
Rp3201
(dp3202
g12
g26
sbag1
(g6
g7
S'14196301'
p3203
tp3204
Rp3205
(dp3206
g12
g26
sbag1
(g6
g7
S'14196300'
p3207
tp3208
Rp3209
(dp3210
g12
g26
sbag1
(g6
g7
S'14196299'
p3211
tp3212
Rp3213
(dp3214
g12
g26
sbag1
(g6
g7
S'14196297'
p3215
tp3216
Rp3217
(dp3218
g12
g26
sbag1
(g6
g7
S'14196296'
p3219
tp3220
Rp3221
(dp3222
g12
g26
sbag1
(g6
g7
S'14196295'
p3223
tp3224
Rp3225
(dp3226
g12
g26
sbag1
(g6
g7
S'56790866'
p3227
tp3228
Rp3229
(dp3230
g12
g26
sbag1
(g6
g7
S'56790865'
p3231
tp3232
Rp3233
(dp3234
g12
g26
sbag1
(g6
g7
S'56790864'
p3235
tp3236
Rp3237
(dp3238
g12
g26
sbag1
(g6
g7
S'56790863'
p3239
tp3240
Rp3241
(dp3242
g12
g26
sbag1
(g6
g7
S'56790862'
p3243
tp3244
Rp3245
(dp3246
g12
g26
sbag1
(g6
g7
S'56790861'
p3247
tp3248
Rp3249
(dp3250
g12
g26
sbag1
(g6
g7
S'56790860'
p3251
tp3252
Rp3253
(dp3254
g12
g26
sbag1
(g6
g7
S'56790859'
p3255
tp3256
Rp3257
(dp3258
g12
g26
sbag1
(g6
g7
S'56790858'
p3259
tp3260
Rp3261
(dp3262
g12
g26
sbag1
(g6
g7
S'56790857'
p3263
tp3264
Rp3265
(dp3266
g12
g26
sbag1
(g6
g7
S'56790856'
p3267
tp3268
Rp3269
(dp3270
g12
g26
sbag1
(g6
g7
S'56790855'
p3271
tp3272
Rp3273
(dp3274
g12
g26
sbag1
(g6
g7
S'37964397'
p3275
tp3276
Rp3277
(dp3278
g12
g26
sbag1
(g6
g7
S'27526311'
p3279
tp3280
Rp3281
(dp3282
g12
g26
sbag1
(g6
g7
S'27526310'
p3283
tp3284
Rp3285
(dp3286
g12
g26
sbag1
(g6
g7
S'27526309'
p3287
tp3288
Rp3289
(dp3290
g12
g26
sbag1
(g6
g7
S'27526308'
p3291
tp3292
Rp3293
(dp3294
g12
g26
sbatp3295
Rp3296
(dp3297
g12
g18
sbsVQueryTranslation
p3298
g1
(g6
g7
S'"Serranidae"[Organism] AND 16S[title]'
p3299
tp3300
Rp3301
(dp3302
g12
g3298
sbsVTranslationStack
p3303
g1
(g19
g20
(lp3304
g1
(g2
g3
(dp3305
g5
g1
(g6
g7
S'17158'
p3306
tp3307
Rp3308
(dp3309
g12
g5
sbsVField
p3310
g1
(g6
g7
S'Organism'
p3311
tp3312
Rp3313
(dp3314
g12
g3310
sbsVTerm
p3315
g1
(g6
g7
S'"Serranidae"[Organism]'
p3316
tp3317
Rp3318
(dp3319
g12
g3315
sbsVExplode
p3320
g1
(g6
g7
S'Y'
p3321
tp3322
Rp3323
(dp3324
g12
g3320
sbstp3325
Rp3326
(dp3327
g12
VTermSet
p3328
sbag1
(g2
g3
(dp3329
g5
g1
(g6
g7
S'7139828'
p3330
tp3331
Rp3332
(dp3333
g12
g5
sbsg3310
g1
(g6
g7
S'title'
p3334
tp3335
Rp3336
(dp3337
g12
g3310
sbsg3315
g1
(g6
g7
S'16S[title]'
p3338
tp3339
Rp3340
(dp3341
g12
g3315
sbsg3320
g1
(g6
g7
S'N'
p3342
tp3343
Rp3344
(dp3345
g12
g3320
sbstp3346
Rp3347
(dp3348
g12
g3328
sbag1
(g6
g7
S'AND'
p3349
tp3350
Rp3351
(dp3352
g12
VOP
p3353
sbatp3354
Rp3355
(dp3356
g12
g3303
sbsVRetStart
p3357
g1
(g6
g7
S'0'
p3358
tp3359
Rp3360
(dp3361
g12
g3357
sbsVTranslationSet
p3362
g1
(g19
g20
(lp3363
g1
(g2
g3
(dp3364
VTo
p3365
g1
(g6
g7
S'"Serranidae"[Organism]'
p3366
tp3367
Rp3368
(dp3369
g12
g3365
sbsVFrom
p3370
g1
(g6
g7
S'Serranidae[organism]'
p3371
tp3372
Rp3373
(dp3374
g12
g3370
sbstp3375
Rp3376
(dp3377
g12
VTranslation
p3378
sbatp3379
Rp3380
(dp3381
g12
g3362
sbstp3382
Rp3383
(dp3384
g12
VeSearchResult
p3385
sba.