(lp0
ccopy_reg
_reconstructor
p1
(cBio.Entrez.Parser
DictionaryElement
p2
c__builtin__
dict
p3
(dp4
VCount
p5
g1
(cBio.Entrez.Parser
StringElement
p6
c__builtin__
str
p7
S'29'
p8
tp9
Rp10
(dp11
S'tag'
p12
g5
sbsVRetMax
p13
g1
(g6
g7
S'29'
p14
tp15
Rp16
(dp17
g12
g13
sbsVIdList
p18
g1
(cBio.Entrez.Parser
ListElement
p19
c__builtin__
list
p20
(lp21
g1
(g6
g7
S'166092483'
p22
tp23
Rp24
(dp25
g12
VId
p26
sbag1
(g6
g7
S'531996045'
p27
tp28
Rp29
(dp30
g12
g26
sbag1
(g6
g7
S'341864222'
p31
tp32
Rp33
(dp34
g12
g26
sbag1
(g6
g7
S'341864220'
p35
tp36
Rp37
(dp38
g12
g26
sbag1
(g6
g7
S'341864218'
p39
tp40
Rp41
(dp42
g12
g26
sbag1
(g6
g7
S'341864216'
p43
tp44
Rp45
(dp46
g12
g26
sbag1
(g6
g7
S'341864214'
p47
tp48
Rp49
(dp50
g12
g26
sbag1
(g6
g7
S'48526502'
p51
tp52
Rp53
(dp54
g12
g26
sbag1
(g6
g7
S'293612655'
p55
tp56
Rp57
(dp58
g12
g26
sbag1
(g6
g7
S'140271036'
p59
tp60
Rp61
(dp62
g12
g26
sbag1
(g6
g7
S'1043316592'
p63
tp64
Rp65
(dp66
g12
g26
sbag1
(g6
g7
S'1043316552'
p67
tp68
Rp69
(dp70
g12
g26
sbag1
(g6
g7
S'1043316538'
p71
tp72
Rp73
(dp74
g12
g26
sbag1
(g6
g7
S'896682432'
p75
tp76
Rp77
(dp78
g12
g26
sbag1
(g6
g7
S'896682430'
p79
tp80
Rp81
(dp82
g12
g26
sbag1
(g6
g7
S'896682428'
p83
tp84
Rp85
(dp86
g12
g26
sbag1
(g6
g7
S'896682426'
p87
tp88
Rp89
(dp90
g12
g26
sbag1
(g6
g7
S'844287027'
p91
tp92
Rp93
(dp94
g12
g26
sbag1
(g6
g7
S'844287025'
p95
tp96
Rp97
(dp98
g12
g26
sbag1
(g6
g7
S'558550776'
p99
tp100
Rp101
(dp102
g12
g26
sbag1
(g6
g7
S'394339775'
p103
tp104
Rp105
(dp106
g12
g26
sbag1
(g6
g7
S'394339773'
p107
tp108
Rp109
(dp110
g12
g26
sbag1
(g6
g7
S'394339771'
p111
tp112
Rp113
(dp114
g12
g26
sbag1
(g6
g7
S'394339769'
p115
tp116
Rp117
(dp118
g12
g26
sbag1
(g6
g7
S'394339767'
p119
tp120
Rp121
(dp122
g12
g26
sbag1
(g6
g7
S'394339765'
p123
tp124
Rp125
(dp126
g12
g26
sbag1
(g6
g7
S'394339763'
p127
tp128
Rp129
(dp130
g12
g26
sbag1
(g6
g7
S'394339761'
p131
tp132
Rp133
(dp134
g12
g26
sbag1
(g6
g7
S'343388022'
p135
tp136
Rp137
(dp138
g12
g26
sbatp139
Rp140
(dp141
g12
g18
sbsVQueryTranslation
p142
g1
(g6
g7
S'"Serranidae"[Organism] AND RAG1[title]'
p143
tp144
Rp145
(dp146
g12
g142
sbsVTranslationStack
p147
g1
(g19
g20
(lp148
g1
(g2
g3
(dp149
g5
g1
(g6
g7
S'17158'
p150
tp151
Rp152
(dp153
g12
g5
sbsVField
p154
g1
(g6
g7
S'Organism'
p155
tp156
Rp157
(dp158
g12
g154
sbsVTerm
p159
g1
(g6
g7
S'"Serranidae"[Organism]'
p160
tp161
Rp162
(dp163
g12
g159
sbsVExplode
p164
g1
(g6
g7
S'Y'
p165
tp166
Rp167
(dp168
g12
g164
sbstp169
Rp170
(dp171
g12
VTermSet
p172
sbag1
(g2
g3
(dp173
g5
g1
(g6
g7
S'31715'
p174
tp175
Rp176
(dp177
g12
g5
sbsg154
g1
(g6
g7
S'title'
p178
tp179
Rp180
(dp181
g12
g154
sbsg159
g1
(g6
g7
S'RAG1[title]'
p182
tp183
Rp184
(dp185
g12
g159
sbsg164
g1
(g6
g7
S'N'
p186
tp187
Rp188
(dp189
g12
g164
sbstp190
Rp191
(dp192
g12
g172
sbag1
(g6
g7
S'AND'
p193
tp194
Rp195
(dp196
g12
VOP
p197
sbatp198
Rp199
(dp200
g12
g147
sbsVRetStart
p201
g1
(g6
g7
S'0'
p202
tp203
Rp204
(dp205
g12
g201
sbsVTranslationSet
p206
g1
(g19
g20
(lp207
g1
(g2
g3
(dp208
VTo
p209
g1
(g6
g7
S'"Serranidae"[Organism]'
p210
tp211
Rp212
(dp213
g12
g209
sbsVFrom
p214
g1
(g6
g7
S'Serranidae[organism]'
p215
tp216
Rp217
(dp218
g12
g214
sbstp219
Rp220
(dp221
g12
VTranslation
p222
sbatp223
Rp224
(dp225
g12
g206
sbstp226
Rp227
(dp228
g12
VeSearchResult
p229
sba.