(lp0
ccopy_reg
_reconstructor
p1
(cBio.Entrez.Parser
DictionaryElement
p2
c__builtin__
dict
p3
(dp4
VCount
p5
g1
(cBio.Entrez.Parser
StringElement
p6
c__builtin__
str
p7
S'79'
p8
tp9
Rp10
(dp11
S'tag'
p12
g5
sbsVRetMax
p13
g1
(g6
g7
S'79'
p14
tp15
Rp16
(dp17
g12
g13
sbsVIdList
p18
g1
(cBio.Entrez.Parser
ListElement
p19
c__builtin__
list
p20
(lp21
g1
(g6
g7
S'985700717'
p22
tp23
Rp24
(dp25
g12
VId
p26
sbag1
(g6
g7
S'985700716'
p27
tp28
Rp29
(dp30
g12
g26
sbag1
(g6
g7
S'985700715'
p31
tp32
Rp33
(dp34
g12
g26
sbag1
(g6
g7
S'985700714'
p35
tp36
Rp37
(dp38
g12
g26
sbag1
(g6
g7
S'985700713'
p39
tp40
Rp41
(dp42
g12
g26
sbag1
(g6
g7
S'985700712'
p43
tp44
Rp45
(dp46
g12
g26
sbag1
(g6
g7
S'985700711'
p47
tp48
Rp49
(dp50
g12
g26
sbag1
(g6
g7
S'985700710'
p51
tp52
Rp53
(dp54
g12
g26
sbag1
(g6
g7
S'985700709'
p55
tp56
Rp57
(dp58
g12
g26
sbag1
(g6
g7
S'985700708'
p59
tp60
Rp61
(dp62
g12
g26
sbag1
(g6
g7
S'966557877'
p63
tp64
Rp65
(dp66
g12
g26
sbag1
(g6
g7
S'444292719'
p67
tp68
Rp69
(dp70
g12
g26
sbag1
(g6
g7
S'444292700'
p71
tp72
Rp73
(dp74
g12
g26
sbag1
(g6
g7
S'667699059'
p75
tp76
Rp77
(dp78
g12
g26
sbag1
(g6
g7
S'667699058'
p79
tp80
Rp81
(dp82
g12
g26
sbag1
(g6
g7
S'109158967'
p83
tp84
Rp85
(dp86
g12
g26
sbag1
(g6
g7
S'109158923'
p87
tp88
Rp89
(dp90
g12
g26
sbag1
(g6
g7
S'109158632'
p91
tp92
Rp93
(dp94
g12
g26
sbag1
(g6
g7
S'109158590'
p95
tp96
Rp97
(dp98
g12
g26
sbag1
(g6
g7
S'402483533'
p99
tp100
Rp101
(dp102
g12
g26
sbag1
(g6
g7
S'386372918'
p103
tp104
Rp105
(dp106
g12
g26
sbag1
(g6
g7
S'354550598'
p107
tp108
Rp109
(dp110
g12
g26
sbag1
(g6
g7
S'354550597'
p111
tp112
Rp113
(dp114
g12
g26
sbag1
(g6
g7
S'354550596'
p115
tp116
Rp117
(dp118
g12
g26
sbag1
(g6
g7
S'354550595'
p119
tp120
Rp121
(dp122
g12
g26
sbag1
(g6
g7
S'354550594'
p123
tp124
Rp125
(dp126
g12
g26
sbag1
(g6
g7
S'354550593'
p127
tp128
Rp129
(dp130
g12
g26
sbag1
(g6
g7
S'354550592'
p131
tp132
Rp133
(dp134
g12
g26
sbag1
(g6
g7
S'140288580'
p135
tp136
Rp137
(dp138
g12
g26
sbag1
(g6
g7
S'307147651'
p139
tp140
Rp141
(dp142
g12
g26
sbag1
(g6
g7
S'302375305'
p143
tp144
Rp145
(dp146
g12
g26
sbag1
(g6
g7
S'113203273'
p147
tp148
Rp149
(dp150
g12
g26
sbag1
(g6
g7
S'113203272'
p151
tp152
Rp153
(dp154
g12
g26
sbag1
(g6
g7
S'113203271'
p155
tp156
Rp157
(dp158
g12
g26
sbag1
(g6
g7
S'113203270'
p159
tp160
Rp161
(dp162
g12
g26
sbag1
(g6
g7
S'113203269'
p163
tp164
Rp165
(dp166
g12
g26
sbag1
(g6
g7
S'113203268'
p167
tp168
Rp169
(dp170
g12
g26
sbag1
(g6
g7
S'113203267'
p171
tp172
Rp173
(dp174
g12
g26
sbag1
(g6
g7
S'111038387'
p175
tp176
Rp177
(dp178
g12
g26
sbag1
(g6
g7
S'111038386'
p179
tp180
Rp181
(dp182
g12
g26
sbag1
(g6
g7
S'111038385'
p183
tp184
Rp185
(dp186
g12
g26
sbag1
(g6
g7
S'111038384'
p187
tp188
Rp189
(dp190
g12
g26
sbag1
(g6
g7
S'111038382'
p191
tp192
Rp193
(dp194
g12
g26
sbag1
(g6
g7
S'111038381'
p195
tp196
Rp197
(dp198
g12
g26
sbag1
(g6
g7
S'111038380'
p199
tp200
Rp201
(dp202
g12
g26
sbag1
(g6
g7
S'111038379'
p203
tp204
Rp205
(dp206
g12
g26
sbag1
(g6
g7
S'111038378'
p207
tp208
Rp209
(dp210
g12
g26
sbag1
(g6
g7
S'111038377'
p211
tp212
Rp213
(dp214
g12
g26
sbag1
(g6
g7
S'111038376'
p215
tp216
Rp217
(dp218
g12
g26
sbag1
(g6
g7
S'111038375'
p219
tp220
Rp221
(dp222
g12
g26
sbag1
(g6
g7
S'111038374'
p223
tp224
Rp225
(dp226
g12
g26
sbag1
(g6
g7
S'111038373'
p227
tp228
Rp229
(dp230
g12
g26
sbag1
(g6
g7
S'111038372'
p231
tp232
Rp233
(dp234
g12
g26
sbag1
(g6
g7
S'111038371'
p235
tp236
Rp237
(dp238
g12
g26
sbag1
(g6
g7
S'111038370'
p239
tp240
Rp241
(dp242
g12
g26
sbag1
(g6
g7
S'111038369'
p243
tp244
Rp245
(dp246
g12
g26
sbag1
(g6
g7
S'111038367'
p247
tp248
Rp249
(dp250
g12
g26
sbag1
(g6
g7
S'111038366'
p251
tp252
Rp253
(dp254
g12
g26
sbag1
(g6
g7
S'111038365'
p255
tp256
Rp257
(dp258
g12
g26
sbag1
(g6
g7
S'111038364'
p259
tp260
Rp261
(dp262
g12
g26
sbag1
(g6
g7
S'19850118'
p263
tp264
Rp265
(dp266
g12
g26
sbag1
(g6
g7
S'19850117'
p267
tp268
Rp269
(dp270
g12
g26
sbag1
(g6
g7
S'151176094'
p271
tp272
Rp273
(dp274
g12
g26
sbag1
(g6
g7
S'91680927'
p275
tp276
Rp277
(dp278
g12
g26
sbag1
(g6
g7
S'91680926'
p279
tp280
Rp281
(dp282
g12
g26
sbag1
(g6
g7
S'91680925'
p283
tp284
Rp285
(dp286
g12
g26
sbag1
(g6
g7
S'91680924'
p287
tp288
Rp289
(dp290
g12
g26
sbag1
(g6
g7
S'91680923'
p291
tp292
Rp293
(dp294
g12
g26
sbag1
(g6
g7
S'91680922'
p295
tp296
Rp297
(dp298
g12
g26
sbag1
(g6
g7
S'91680921'
p299
tp300
Rp301
(dp302
g12
g26
sbag1
(g6
g7
S'91680920'
p303
tp304
Rp305
(dp306
g12
g26
sbag1
(g6
g7
S'91680919'
p307
tp308
Rp309
(dp310
g12
g26
sbag1
(g6
g7
S'62123271'
p311
tp312
Rp313
(dp314
g12
g26
sbag1
(g6
g7
S'61678381'
p315
tp316
Rp317
(dp318
g12
g26
sbag1
(g6
g7
S'31559045'
p319
tp320
Rp321
(dp322
g12
g26
sbag1
(g6
g7
S'31559044'
p323
tp324
Rp325
(dp326
g12
g26
sbag1
(g6
g7
S'31559043'
p327
tp328
Rp329
(dp330
g12
g26
sbag1
(g6
g7
S'31559042'
p331
tp332
Rp333
(dp334
g12
g26
sbag1
(g6
g7
S'31559041'
p335
tp336
Rp337
(dp338
g12
g26
sbatp339
Rp340
(dp341
g12
g18
sbsVQueryTranslation
p342
g1
(g6
g7
S'"Lutjanidae"[Organism] AND 16S[title]'
p343
tp344
Rp345
(dp346
g12
g342
sbsVTranslationStack
p347
g1
(g19
g20
(lp348
g1
(g2
g3
(dp349
g5
g1
(g6
g7
S'6277'
p350
tp351
Rp352
(dp353
g12
g5
sbsVField
p354
g1
(g6
g7
S'Organism'
p355
tp356
Rp357
(dp358
g12
g354
sbsVTerm
p359
g1
(g6
g7
S'"Lutjanidae"[Organism]'
p360
tp361
Rp362
(dp363
g12
g359
sbsVExplode
p364
g1
(g6
g7
S'Y'
p365
tp366
Rp367
(dp368
g12
g364
sbstp369
Rp370
(dp371
g12
VTermSet
p372
sbag1
(g2
g3
(dp373
g5
g1
(g6
g7
S'7139828'
p374
tp375
Rp376
(dp377
g12
g5
sbsg354
g1
(g6
g7
S'title'
p378
tp379
Rp380
(dp381
g12
g354
sbsg359
g1
(g6
g7
S'16S[title]'
p382
tp383
Rp384
(dp385
g12
g359
sbsg364
g1
(g6
g7
S'N'
p386
tp387
Rp388
(dp389
g12
g364
sbstp390
Rp391
(dp392
g12
g372
sbag1
(g6
g7
S'AND'
p393
tp394
Rp395
(dp396
g12
VOP
p397
sbatp398
Rp399
(dp400
g12
g347
sbsVRetStart
p401
g1
(g6
g7
S'0'
p402
tp403
Rp404
(dp405
g12
g401
sbsVTranslationSet
p406
g1
(g19
g20
(lp407
g1
(g2
g3
(dp408
VTo
p409
g1
(g6
g7
S'"Lutjanidae"[Organism]'
p410
tp411
Rp412
(dp413
g12
g409
sbsVFrom
p414
g1
(g6
g7
S'Lutjanidae[organism]'
p415
tp416
Rp417
(dp418
g12
g414
sbstp419
Rp420
(dp421
g12
VTranslation
p422
sbatp423
Rp424
(dp425
g12
g406
sbstp426
Rp427
(dp428
g12
VeSearchResult
p429
sba.