(lp0
ccopy_reg
_reconstructor
p1
(cBio.Entrez.Parser
DictionaryElement
p2
c__builtin__
dict
p3
(dp4
VCount
p5
g1
(cBio.Entrez.Parser
StringElement
p6
c__builtin__
str
p7
S'34'
p8
tp9
Rp10
(dp11
S'tag'
p12
g5
sbsVRetMax
p13
g1
(g6
g7
S'34'
p14
tp15
Rp16
(dp17
g12
g13
sbsVIdList
p18
g1
(cBio.Entrez.Parser
ListElement
p19
c__builtin__
list
p20
(lp21
g1
(g6
g7
S'166092589'
p22
tp23
Rp24
(dp25
g12
VId
p26
sbag1
(g6
g7
S'166092557'
p27
tp28
Rp29
(dp30
g12
g26
sbag1
(g6
g7
S'166092529'
p31
tp32
Rp33
(dp34
g12
g26
sbag1
(g6
g7
S'166092511'
p35
tp36
Rp37
(dp38
g12
g26
sbag1
(g6
g7
S'166092463'
p39
tp40
Rp41
(dp42
g12
g26
sbag1
(g6
g7
S'531996251'
p43
tp44
Rp45
(dp46
g12
g26
sbag1
(g6
g7
S'531996239'
p47
tp48
Rp49
(dp50
g12
g26
sbag1
(g6
g7
S'531996237'
p51
tp52
Rp53
(dp54
g12
g26
sbag1
(g6
g7
S'531996101'
p55
tp56
Rp57
(dp58
g12
g26
sbag1
(g6
g7
S'531995939'
p59
tp60
Rp61
(dp62
g12
g26
sbag1
(g6
g7
S'193875615'
p63
tp64
Rp65
(dp66
g12
g26
sbag1
(g6
g7
S'193875613'
p67
tp68
Rp69
(dp70
g12
g26
sbag1
(g6
g7
S'193875611'
p71
tp72
Rp73
(dp74
g12
g26
sbag1
(g6
g7
S'193875609'
p75
tp76
Rp77
(dp78
g12
g26
sbag1
(g6
g7
S'193875607'
p79
tp80
Rp81
(dp82
g12
g26
sbag1
(g6
g7
S'193875605'
p83
tp84
Rp85
(dp86
g12
g26
sbag1
(g6
g7
S'193875603'
p87
tp88
Rp89
(dp90
g12
g26
sbag1
(g6
g7
S'193875601'
p91
tp92
Rp93
(dp94
g12
g26
sbag1
(g6
g7
S'193875599'
p95
tp96
Rp97
(dp98
g12
g26
sbag1
(g6
g7
S'193875597'
p99
tp100
Rp101
(dp102
g12
g26
sbag1
(g6
g7
S'193875595'
p103
tp104
Rp105
(dp106
g12
g26
sbag1
(g6
g7
S'193875593'
p107
tp108
Rp109
(dp110
g12
g26
sbag1
(g6
g7
S'193875591'
p111
tp112
Rp113
(dp114
g12
g26
sbag1
(g6
g7
S'193875589'
p115
tp116
Rp117
(dp118
g12
g26
sbag1
(g6
g7
S'332168012'
p119
tp120
Rp121
(dp122
g12
g26
sbag1
(g6
g7
S'332167956'
p123
tp124
Rp125
(dp126
g12
g26
sbag1
(g6
g7
S'164417778'
p127
tp128
Rp129
(dp130
g12
g26
sbag1
(g6
g7
S'140271070'
p131
tp132
Rp133
(dp134
g12
g26
sbag1
(g6
g7
S'667699326'
p135
tp136
Rp137
(dp138
g12
g26
sbag1
(g6
g7
S'667699324'
p139
tp140
Rp141
(dp142
g12
g26
sbag1
(g6
g7
S'394339709'
p143
tp144
Rp145
(dp146
g12
g26
sbag1
(g6
g7
S'394339707'
p147
tp148
Rp149
(dp150
g12
g26
sbag1
(g6
g7
S'120544776'
p151
tp152
Rp153
(dp154
g12
g26
sbag1
(g6
g7
S'336044158'
p155
tp156
Rp157
(dp158
g12
g26
sbatp159
Rp160
(dp161
g12
g18
sbsVQueryTranslation
p162
g1
(g6
g7
S'"Lutjanidae"[Organism] AND RAG1[title]'
p163
tp164
Rp165
(dp166
g12
g162
sbsVTranslationStack
p167
g1
(g19
g20
(lp168
g1
(g2
g3
(dp169
g5
g1
(g6
g7
S'6277'
p170
tp171
Rp172
(dp173
g12
g5
sbsVField
p174
g1
(g6
g7
S'Organism'
p175
tp176
Rp177
(dp178
g12
g174
sbsVTerm
p179
g1
(g6
g7
S'"Lutjanidae"[Organism]'
p180
tp181
Rp182
(dp183
g12
g179
sbsVExplode
p184
g1
(g6
g7
S'Y'
p185
tp186
Rp187
(dp188
g12
g184
sbstp189
Rp190
(dp191
g12
VTermSet
p192
sbag1
(g2
g3
(dp193
g5
g1
(g6
g7
S'31715'
p194
tp195
Rp196
(dp197
g12
g5
sbsg174
g1
(g6
g7
S'title'
p198
tp199
Rp200
(dp201
g12
g174
sbsg179
g1
(g6
g7
S'RAG1[title]'
p202
tp203
Rp204
(dp205
g12
g179
sbsg184
g1
(g6
g7
S'N'
p206
tp207
Rp208
(dp209
g12
g184
sbstp210
Rp211
(dp212
g12
g192
sbag1
(g6
g7
S'AND'
p213
tp214
Rp215
(dp216
g12
VOP
p217
sbatp218
Rp219
(dp220
g12
g167
sbsVRetStart
p221
g1
(g6
g7
S'0'
p222
tp223
Rp224
(dp225
g12
g221
sbsVTranslationSet
p226
g1
(g19
g20
(lp227
g1
(g2
g3
(dp228
VTo
p229
g1
(g6
g7
S'"Lutjanidae"[Organism]'
p230
tp231
Rp232
(dp233
g12
g229
sbsVFrom
p234
g1
(g6
g7
S'Lutjanidae[organism]'
p235
tp236
Rp237
(dp238
g12
g234
sbstp239
Rp240
(dp241
g12
VTranslation
p242
sbatp243
Rp244
(dp245
g12
g226
sbstp246
Rp247
(dp248
g12
VeSearchResult
p249
sba.