(lp0
ccopy_reg
_reconstructor
p1
(cBio.Entrez.Parser
DictionaryElement
p2
c__builtin__
dict
p3
(dp4
VCount
p5
g1
(cBio.Entrez.Parser
StringElement
p6
c__builtin__
str
p7
S'1428'
p8
tp9
Rp10
(dp11
S'tag'
p12
g5
sbsVRetMax
p13
g1
(g6
g7
S'1428'
p14
tp15
Rp16
(dp17
g12
g13
sbsVIdList
p18
g1
(cBio.Entrez.Parser
ListElement
p19
c__builtin__
list
p20
(lp21
g1
(g6
g7
S'1102601330'
p22
tp23
Rp24
(dp25
g12
VId
p26
sbag1
(g6
g7
S'1101493060'
p27
tp28
Rp29
(dp30
g12
g26
sbag1
(g6
g7
S'1101493058'
p31
tp32
Rp33
(dp34
g12
g26
sbag1
(g6
g7
S'1101493056'
p35
tp36
Rp37
(dp38
g12
g26
sbag1
(g6
g7
S'1101493054'
p39
tp40
Rp41
(dp42
g12
g26
sbag1
(g6
g7
S'1101493052'
p43
tp44
Rp45
(dp46
g12
g26
sbag1
(g6
g7
S'1101493050'
p47
tp48
Rp49
(dp50
g12
g26
sbag1
(g6
g7
S'1101493048'
p51
tp52
Rp53
(dp54
g12
g26
sbag1
(g6
g7
S'1101493046'
p55
tp56
Rp57
(dp58
g12
g26
sbag1
(g6
g7
S'1101493044'
p59
tp60
Rp61
(dp62
g12
g26
sbag1
(g6
g7
S'1101493042'
p63
tp64
Rp65
(dp66
g12
g26
sbag1
(g6
g7
S'1101493040'
p67
tp68
Rp69
(dp70
g12
g26
sbag1
(g6
g7
S'1101493038'
p71
tp72
Rp73
(dp74
g12
g26
sbag1
(g6
g7
S'1101493036'
p75
tp76
Rp77
(dp78
g12
g26
sbag1
(g6
g7
S'1101493034'
p79
tp80
Rp81
(dp82
g12
g26
sbag1
(g6
g7
S'1101493032'
p83
tp84
Rp85
(dp86
g12
g26
sbag1
(g6
g7
S'1101493030'
p87
tp88
Rp89
(dp90
g12
g26
sbag1
(g6
g7
S'1101493028'
p91
tp92
Rp93
(dp94
g12
g26
sbag1
(g6
g7
S'1101493026'
p95
tp96
Rp97
(dp98
g12
g26
sbag1
(g6
g7
S'1101493024'
p99
tp100
Rp101
(dp102
g12
g26
sbag1
(g6
g7
S'1101493022'
p103
tp104
Rp105
(dp106
g12
g26
sbag1
(g6
g7
S'1101493020'
p107
tp108
Rp109
(dp110
g12
g26
sbag1
(g6
g7
S'1101493018'
p111
tp112
Rp113
(dp114
g12
g26
sbag1
(g6
g7
S'1101493016'
p115
tp116
Rp117
(dp118
g12
g26
sbag1
(g6
g7
S'1101493014'
p119
tp120
Rp121
(dp122
g12
g26
sbag1
(g6
g7
S'1101493012'
p123
tp124
Rp125
(dp126
g12
g26
sbag1
(g6
g7
S'1101493010'
p127
tp128
Rp129
(dp130
g12
g26
sbag1
(g6
g7
S'1101493008'
p131
tp132
Rp133
(dp134
g12
g26
sbag1
(g6
g7
S'1101493006'
p135
tp136
Rp137
(dp138
g12
g26
sbag1
(g6
g7
S'1101493004'
p139
tp140
Rp141
(dp142
g12
g26
sbag1
(g6
g7
S'1101493002'
p143
tp144
Rp145
(dp146
g12
g26
sbag1
(g6
g7
S'1101493000'
p147
tp148
Rp149
(dp150
g12
g26
sbag1
(g6
g7
S'1101492998'
p151
tp152
Rp153
(dp154
g12
g26
sbag1
(g6
g7
S'1101492996'
p155
tp156
Rp157
(dp158
g12
g26
sbag1
(g6
g7
S'1101492994'
p159
tp160
Rp161
(dp162
g12
g26
sbag1
(g6
g7
S'1101492992'
p163
tp164
Rp165
(dp166
g12
g26
sbag1
(g6
g7
S'1101492990'
p167
tp168
Rp169
(dp170
g12
g26
sbag1
(g6
g7
S'1101492988'
p171
tp172
Rp173
(dp174
g12
g26
sbag1
(g6
g7
S'1101492986'
p175
tp176
Rp177
(dp178
g12
g26
sbag1
(g6
g7
S'1101492984'
p179
tp180
Rp181
(dp182
g12
g26
sbag1
(g6
g7
S'1101492982'
p183
tp184
Rp185
(dp186
g12
g26
sbag1
(g6
g7
S'1101492980'
p187
tp188
Rp189
(dp190
g12
g26
sbag1
(g6
g7
S'1101492978'
p191
tp192
Rp193
(dp194
g12
g26
sbag1
(g6
g7
S'1101492976'
p195
tp196
Rp197
(dp198
g12
g26
sbag1
(g6
g7
S'1101492974'
p199
tp200
Rp201
(dp202
g12
g26
sbag1
(g6
g7
S'1101492972'
p203
tp204
Rp205
(dp206
g12
g26
sbag1
(g6
g7
S'1101492970'
p207
tp208
Rp209
(dp210
g12
g26
sbag1
(g6
g7
S'1101492968'
p211
tp212
Rp213
(dp214
g12
g26
sbag1
(g6
g7
S'1101492966'
p215
tp216
Rp217
(dp218
g12
g26
sbag1
(g6
g7
S'1101492964'
p219
tp220
Rp221
(dp222
g12
g26
sbag1
(g6
g7
S'1101492962'
p223
tp224
Rp225
(dp226
g12
g26
sbag1
(g6
g7
S'1101492960'
p227
tp228
Rp229
(dp230
g12
g26
sbag1
(g6
g7
S'1101492958'
p231
tp232
Rp233
(dp234
g12
g26
sbag1
(g6
g7
S'1101492956'
p235
tp236
Rp237
(dp238
g12
g26
sbag1
(g6
g7
S'1101492954'
p239
tp240
Rp241
(dp242
g12
g26
sbag1
(g6
g7
S'1101492952'
p243
tp244
Rp245
(dp246
g12
g26
sbag1
(g6
g7
S'1101492950'
p247
tp248
Rp249
(dp250
g12
g26
sbag1
(g6
g7
S'1101492948'
p251
tp252
Rp253
(dp254
g12
g26
sbag1
(g6
g7
S'1101492946'
p255
tp256
Rp257
(dp258
g12
g26
sbag1
(g6
g7
S'1101492944'
p259
tp260
Rp261
(dp262
g12
g26
sbag1
(g6
g7
S'1101492942'
p263
tp264
Rp265
(dp266
g12
g26
sbag1
(g6
g7
S'1101492940'
p267
tp268
Rp269
(dp270
g12
g26
sbag1
(g6
g7
S'1101492938'
p271
tp272
Rp273
(dp274
g12
g26
sbag1
(g6
g7
S'1101492936'
p275
tp276
Rp277
(dp278
g12
g26
sbag1
(g6
g7
S'1101492934'
p279
tp280
Rp281
(dp282
g12
g26
sbag1
(g6
g7
S'1101492932'
p283
tp284
Rp285
(dp286
g12
g26
sbag1
(g6
g7
S'1101492930'
p287
tp288
Rp289
(dp290
g12
g26
sbag1
(g6
g7
S'1101492928'
p291
tp292
Rp293
(dp294
g12
g26
sbag1
(g6
g7
S'1101492926'
p295
tp296
Rp297
(dp298
g12
g26
sbag1
(g6
g7
S'1101492924'
p299
tp300
Rp301
(dp302
g12
g26
sbag1
(g6
g7
S'1101492922'
p303
tp304
Rp305
(dp306
g12
g26
sbag1
(g6
g7
S'1101492920'
p307
tp308
Rp309
(dp310
g12
g26
sbag1
(g6
g7
S'1101492918'
p311
tp312
Rp313
(dp314
g12
g26
sbag1
(g6
g7
S'1101492916'
p315
tp316
Rp317
(dp318
g12
g26
sbag1
(g6
g7
S'1101492914'
p319
tp320
Rp321
(dp322
g12
g26
sbag1
(g6
g7
S'1101492912'
p323
tp324
Rp325
(dp326
g12
g26
sbag1
(g6
g7
S'1101492910'
p327
tp328
Rp329
(dp330
g12
g26
sbag1
(g6
g7
S'1101492908'
p331
tp332
Rp333
(dp334
g12
g26
sbag1
(g6
g7
S'1101492906'
p335
tp336
Rp337
(dp338
g12
g26
sbag1
(g6
g7
S'1101492904'
p339
tp340
Rp341
(dp342
g12
g26
sbag1
(g6
g7
S'1101492902'
p343
tp344
Rp345
(dp346
g12
g26
sbag1
(g6
g7
S'1101492900'
p347
tp348
Rp349
(dp350
g12
g26
sbag1
(g6
g7
S'1101492898'
p351
tp352
Rp353
(dp354
g12
g26
sbag1
(g6
g7
S'1101492896'
p355
tp356
Rp357
(dp358
g12
g26
sbag1
(g6
g7
S'1101492894'
p359
tp360
Rp361
(dp362
g12
g26
sbag1
(g6
g7
S'1101492892'
p363
tp364
Rp365
(dp366
g12
g26
sbag1
(g6
g7
S'1101488364'
p367
tp368
Rp369
(dp370
g12
g26
sbag1
(g6
g7
S'1101011417'
p371
tp372
Rp373
(dp374
g12
g26
sbag1
(g6
g7
S'1101011105'
p375
tp376
Rp377
(dp378
g12
g26
sbag1
(g6
g7
S'1101011103'
p379
tp380
Rp381
(dp382
g12
g26
sbag1
(g6
g7
S'1101011101'
p383
tp384
Rp385
(dp386
g12
g26
sbag1
(g6
g7
S'1101011099'
p387
tp388
Rp389
(dp390
g12
g26
sbag1
(g6
g7
S'1101011097'
p391
tp392
Rp393
(dp394
g12
g26
sbag1
(g6
g7
S'1101011095'
p395
tp396
Rp397
(dp398
g12
g26
sbag1
(g6
g7
S'1101011093'
p399
tp400
Rp401
(dp402
g12
g26
sbag1
(g6
g7
S'1101011091'
p403
tp404
Rp405
(dp406
g12
g26
sbag1
(g6
g7
S'1101011089'
p407
tp408
Rp409
(dp410
g12
g26
sbag1
(g6
g7
S'1101011087'
p411
tp412
Rp413
(dp414
g12
g26
sbag1
(g6
g7
S'1075008846'
p415
tp416
Rp417
(dp418
g12
g26
sbag1
(g6
g7
S'1035518645'
p419
tp420
Rp421
(dp422
g12
g26
sbag1
(g6
g7
S'1035518643'
p423
tp424
Rp425
(dp426
g12
g26
sbag1
(g6
g7
S'1035518641'
p427
tp428
Rp429
(dp430
g12
g26
sbag1
(g6
g7
S'1035518639'
p431
tp432
Rp433
(dp434
g12
g26
sbag1
(g6
g7
S'1035518637'
p435
tp436
Rp437
(dp438
g12
g26
sbag1
(g6
g7
S'1035518635'
p439
tp440
Rp441
(dp442
g12
g26
sbag1
(g6
g7
S'1035518633'
p443
tp444
Rp445
(dp446
g12
g26
sbag1
(g6
g7
S'1059075997'
p447
tp448
Rp449
(dp450
g12
g26
sbag1
(g6
g7
S'1059075990'
p451
tp452
Rp453
(dp454
g12
g26
sbag1
(g6
g7
S'1059075983'
p455
tp456
Rp457
(dp458
g12
g26
sbag1
(g6
g7
S'1049305228'
p459
tp460
Rp461
(dp462
g12
g26
sbag1
(g6
g7
S'1049013555'
p463
tp464
Rp465
(dp466
g12
g26
sbag1
(g6
g7
S'1049013553'
p467
tp468
Rp469
(dp470
g12
g26
sbag1
(g6
g7
S'1049013551'
p471
tp472
Rp473
(dp474
g12
g26
sbag1
(g6
g7
S'1049013549'
p475
tp476
Rp477
(dp478
g12
g26
sbag1
(g6
g7
S'194738625'
p479
tp480
Rp481
(dp482
g12
g26
sbag1
(g6
g7
S'194738624'
p483
tp484
Rp485
(dp486
g12
g26
sbag1
(g6
g7
S'194738623'
p487
tp488
Rp489
(dp490
g12
g26
sbag1
(g6
g7
S'194738621'
p491
tp492
Rp493
(dp494
g12
g26
sbag1
(g6
g7
S'194738620'
p495
tp496
Rp497
(dp498
g12
g26
sbag1
(g6
g7
S'194738619'
p499
tp500
Rp501
(dp502
g12
g26
sbag1
(g6
g7
S'190608709'
p503
tp504
Rp505
(dp506
g12
g26
sbag1
(g6
g7
S'190608707'
p507
tp508
Rp509
(dp510
g12
g26
sbag1
(g6
g7
S'190608705'
p511
tp512
Rp513
(dp514
g12
g26
sbag1
(g6
g7
S'190608703'
p515
tp516
Rp517
(dp518
g12
g26
sbag1
(g6
g7
S'190608701'
p519
tp520
Rp521
(dp522
g12
g26
sbag1
(g6
g7
S'190608699'
p523
tp524
Rp525
(dp526
g12
g26
sbag1
(g6
g7
S'190608697'
p527
tp528
Rp529
(dp530
g12
g26
sbag1
(g6
g7
S'190608695'
p531
tp532
Rp533
(dp534
g12
g26
sbag1
(g6
g7
S'190608693'
p535
tp536
Rp537
(dp538
g12
g26
sbag1
(g6
g7
S'190608691'
p539
tp540
Rp541
(dp542
g12
g26
sbag1
(g6
g7
S'190608689'
p543
tp544
Rp545
(dp546
g12
g26
sbag1
(g6
g7
S'190608687'
p547
tp548
Rp549
(dp550
g12
g26
sbag1
(g6
g7
S'190608685'
p551
tp552
Rp553
(dp554
g12
g26
sbag1
(g6
g7
S'190608683'
p555
tp556
Rp557
(dp558
g12
g26
sbag1
(g6
g7
S'190608681'
p559
tp560
Rp561
(dp562
g12
g26
sbag1
(g6
g7
S'190608679'
p563
tp564
Rp565
(dp566
g12
g26
sbag1
(g6
g7
S'190608677'
p567
tp568
Rp569
(dp570
g12
g26
sbag1
(g6
g7
S'190608675'
p571
tp572
Rp573
(dp574
g12
g26
sbag1
(g6
g7
S'190608673'
p575
tp576
Rp577
(dp578
g12
g26
sbag1
(g6
g7
S'190608671'
p579
tp580
Rp581
(dp582
g12
g26
sbag1
(g6
g7
S'190608669'
p583
tp584
Rp585
(dp586
g12
g26
sbag1
(g6
g7
S'190608667'
p587
tp588
Rp589
(dp590
g12
g26
sbag1
(g6
g7
S'190608665'
p591
tp592
Rp593
(dp594
g12
g26
sbag1
(g6
g7
S'190608663'
p595
tp596
Rp597
(dp598
g12
g26
sbag1
(g6
g7
S'190608661'
p599
tp600
Rp601
(dp602
g12
g26
sbag1
(g6
g7
S'190608659'
p603
tp604
Rp605
(dp606
g12
g26
sbag1
(g6
g7
S'190608657'
p607
tp608
Rp609
(dp610
g12
g26
sbag1
(g6
g7
S'190608655'
p611
tp612
Rp613
(dp614
g12
g26
sbag1
(g6
g7
S'190608653'
p615
tp616
Rp617
(dp618
g12
g26
sbag1
(g6
g7
S'190608651'
p619
tp620
Rp621
(dp622
g12
g26
sbag1
(g6
g7
S'190608649'
p623
tp624
Rp625
(dp626
g12
g26
sbag1
(g6
g7
S'190608647'
p627
tp628
Rp629
(dp630
g12
g26
sbag1
(g6
g7
S'190608645'
p631
tp632
Rp633
(dp634
g12
g26
sbag1
(g6
g7
S'190608643'
p635
tp636
Rp637
(dp638
g12
g26
sbag1
(g6
g7
S'190608641'
p639
tp640
Rp641
(dp642
g12
g26
sbag1
(g6
g7
S'190608639'
p643
tp644
Rp645
(dp646
g12
g26
sbag1
(g6
g7
S'190608637'
p647
tp648
Rp649
(dp650
g12
g26
sbag1
(g6
g7
S'190608635'
p651
tp652
Rp653
(dp654
g12
g26
sbag1
(g6
g7
S'190608633'
p655
tp656
Rp657
(dp658
g12
g26
sbag1
(g6
g7
S'190608631'
p659
tp660
Rp661
(dp662
g12
g26
sbag1
(g6
g7
S'190608629'
p663
tp664
Rp665
(dp666
g12
g26
sbag1
(g6
g7
S'190608627'
p667
tp668
Rp669
(dp670
g12
g26
sbag1
(g6
g7
S'190608625'
p671
tp672
Rp673
(dp674
g12
g26
sbag1
(g6
g7
S'190608623'
p675
tp676
Rp677
(dp678
g12
g26
sbag1
(g6
g7
S'190608621'
p679
tp680
Rp681
(dp682
g12
g26
sbag1
(g6
g7
S'189165572'
p683
tp684
Rp685
(dp686
g12
g26
sbag1
(g6
g7
S'189165564'
p687
tp688
Rp689
(dp690
g12
g26
sbag1
(g6
g7
S'189165562'
p691
tp692
Rp693
(dp694
g12
g26
sbag1
(g6
g7
S'189165560'
p695
tp696
Rp697
(dp698
g12
g26
sbag1
(g6
g7
S'189165558'
p699
tp700
Rp701
(dp702
g12
g26
sbag1
(g6
g7
S'189165556'
p703
tp704
Rp705
(dp706
g12
g26
sbag1
(g6
g7
S'189165554'
p707
tp708
Rp709
(dp710
g12
g26
sbag1
(g6
g7
S'189165552'
p711
tp712
Rp713
(dp714
g12
g26
sbag1
(g6
g7
S'189165550'
p715
tp716
Rp717
(dp718
g12
g26
sbag1
(g6
g7
S'189165548'
p719
tp720
Rp721
(dp722
g12
g26
sbag1
(g6
g7
S'189165546'
p723
tp724
Rp725
(dp726
g12
g26
sbag1
(g6
g7
S'189165544'
p727
tp728
Rp729
(dp730
g12
g26
sbag1
(g6
g7
S'340034771'
p731
tp732
Rp733
(dp734
g12
g26
sbag1
(g6
g7
S'340034761'
p735
tp736
Rp737
(dp738
g12
g26
sbag1
(g6
g7
S'340034755'
p739
tp740
Rp741
(dp742
g12
g26
sbag1
(g6
g7
S'340034753'
p743
tp744
Rp745
(dp746
g12
g26
sbag1
(g6
g7
S'340034751'
p747
tp748
Rp749
(dp750
g12
g26
sbag1
(g6
g7
S'340034749'
p751
tp752
Rp753
(dp754
g12
g26
sbag1
(g6
g7
S'340034747'
p755
tp756
Rp757
(dp758
g12
g26
sbag1
(g6
g7
S'340034745'
p759
tp760
Rp761
(dp762
g12
g26
sbag1
(g6
g7
S'339716844'
p763
tp764
Rp765
(dp766
g12
g26
sbag1
(g6
g7
S'339716842'
p767
tp768
Rp769
(dp770
g12
g26
sbag1
(g6
g7
S'339716840'
p771
tp772
Rp773
(dp774
g12
g26
sbag1
(g6
g7
S'339716838'
p775
tp776
Rp777
(dp778
g12
g26
sbag1
(g6
g7
S'339716836'
p779
tp780
Rp781
(dp782
g12
g26
sbag1
(g6
g7
S'339716834'
p783
tp784
Rp785
(dp786
g12
g26
sbag1
(g6
g7
S'339518391'
p787
tp788
Rp789
(dp790
g12
g26
sbag1
(g6
g7
S'339518345'
p791
tp792
Rp793
(dp794
g12
g26
sbag1
(g6
g7
S'339431726'
p795
tp796
Rp797
(dp798
g12
g26
sbag1
(g6
g7
S'339431724'
p799
tp800
Rp801
(dp802
g12
g26
sbag1
(g6
g7
S'339431640'
p803
tp804
Rp805
(dp806
g12
g26
sbag1
(g6
g7
S'339431638'
p807
tp808
Rp809
(dp810
g12
g26
sbag1
(g6
g7
S'339431636'
p811
tp812
Rp813
(dp814
g12
g26
sbag1
(g6
g7
S'339431525'
p815
tp816
Rp817
(dp818
g12
g26
sbag1
(g6
g7
S'336283405'
p819
tp820
Rp821
(dp822
g12
g26
sbag1
(g6
g7
S'328487098'
p823
tp824
Rp825
(dp826
g12
g26
sbag1
(g6
g7
S'328487096'
p827
tp828
Rp829
(dp830
g12
g26
sbag1
(g6
g7
S'328487094'
p831
tp832
Rp833
(dp834
g12
g26
sbag1
(g6
g7
S'328487092'
p835
tp836
Rp837
(dp838
g12
g26
sbag1
(g6
g7
S'328487090'
p839
tp840
Rp841
(dp842
g12
g26
sbag1
(g6
g7
S'328487088'
p843
tp844
Rp845
(dp846
g12
g26
sbag1
(g6
g7
S'328487086'
p847
tp848
Rp849
(dp850
g12
g26
sbag1
(g6
g7
S'328487010'
p851
tp852
Rp853
(dp854
g12
g26
sbag1
(g6
g7
S'328486580'
p855
tp856
Rp857
(dp858
g12
g26
sbag1
(g6
g7
S'328486578'
p859
tp860
Rp861
(dp862
g12
g26
sbag1
(g6
g7
S'328486576'
p863
tp864
Rp865
(dp866
g12
g26
sbag1
(g6
g7
S'328486574'
p867
tp868
Rp869
(dp870
g12
g26
sbag1
(g6
g7
S'328486572'
p871
tp872
Rp873
(dp874
g12
g26
sbag1
(g6
g7
S'328486570'
p875
tp876
Rp877
(dp878
g12
g26
sbag1
(g6
g7
S'328486150'
p879
tp880
Rp881
(dp882
g12
g26
sbag1
(g6
g7
S'328486148'
p883
tp884
Rp885
(dp886
g12
g26
sbag1
(g6
g7
S'328486146'
p887
tp888
Rp889
(dp890
g12
g26
sbag1
(g6
g7
S'328486144'
p891
tp892
Rp893
(dp894
g12
g26
sbag1
(g6
g7
S'328486142'
p895
tp896
Rp897
(dp898
g12
g26
sbag1
(g6
g7
S'328486140'
p899
tp900
Rp901
(dp902
g12
g26
sbag1
(g6
g7
S'328486138'
p903
tp904
Rp905
(dp906
g12
g26
sbag1
(g6
g7
S'328486136'
p907
tp908
Rp909
(dp910
g12
g26
sbag1
(g6
g7
S'328486134'
p911
tp912
Rp913
(dp914
g12
g26
sbag1
(g6
g7
S'328486132'
p915
tp916
Rp917
(dp918
g12
g26
sbag1
(g6
g7
S'328486130'
p919
tp920
Rp921
(dp922
g12
g26
sbag1
(g6
g7
S'328486128'
p923
tp924
Rp925
(dp926
g12
g26
sbag1
(g6
g7
S'328486126'
p927
tp928
Rp929
(dp930
g12
g26
sbag1
(g6
g7
S'328486124'
p931
tp932
Rp933
(dp934
g12
g26
sbag1
(g6
g7
S'328486122'
p935
tp936
Rp937
(dp938
g12
g26
sbag1
(g6
g7
S'328486120'
p939
tp940
Rp941
(dp942
g12
g26
sbag1
(g6
g7
S'328486118'
p943
tp944
Rp945
(dp946
g12
g26
sbag1
(g6
g7
S'328486116'
p947
tp948
Rp949
(dp950
g12
g26
sbag1
(g6
g7
S'328486114'
p951
tp952
Rp953
(dp954
g12
g26
sbag1
(g6
g7
S'328486112'
p955
tp956
Rp957
(dp958
g12
g26
sbag1
(g6
g7
S'328486110'
p959
tp960
Rp961
(dp962
g12
g26
sbag1
(g6
g7
S'328486108'
p963
tp964
Rp965
(dp966
g12
g26
sbag1
(g6
g7
S'328486106'
p967
tp968
Rp969
(dp970
g12
g26
sbag1
(g6
g7
S'328486104'
p971
tp972
Rp973
(dp974
g12
g26
sbag1
(g6
g7
S'328486102'
p975
tp976
Rp977
(dp978
g12
g26
sbag1
(g6
g7
S'328486100'
p979
tp980
Rp981
(dp982
g12
g26
sbag1
(g6
g7
S'328486098'
p983
tp984
Rp985
(dp986
g12
g26
sbag1
(g6
g7
S'328486096'
p987
tp988
Rp989
(dp990
g12
g26
sbag1
(g6
g7
S'328486094'
p991
tp992
Rp993
(dp994
g12
g26
sbag1
(g6
g7
S'328486092'
p995
tp996
Rp997
(dp998
g12
g26
sbag1
(g6
g7
S'328486090'
p999
tp1000
Rp1001
(dp1002
g12
g26
sbag1
(g6
g7
S'328485382'
p1003
tp1004
Rp1005
(dp1006
g12
g26
sbag1
(g6
g7
S'328485380'
p1007
tp1008
Rp1009
(dp1010
g12
g26
sbag1
(g6
g7
S'328485378'
p1011
tp1012
Rp1013
(dp1014
g12
g26
sbag1
(g6
g7
S'328485376'
p1015
tp1016
Rp1017
(dp1018
g12
g26
sbag1
(g6
g7
S'328485374'
p1019
tp1020
Rp1021
(dp1022
g12
g26
sbag1
(g6
g7
S'328484444'
p1023
tp1024
Rp1025
(dp1026
g12
g26
sbag1
(g6
g7
S'328484442'
p1027
tp1028
Rp1029
(dp1030
g12
g26
sbag1
(g6
g7
S'328484440'
p1031
tp1032
Rp1033
(dp1034
g12
g26
sbag1
(g6
g7
S'328484438'
p1035
tp1036
Rp1037
(dp1038
g12
g26
sbag1
(g6
g7
S'328484436'
p1039
tp1040
Rp1041
(dp1042
g12
g26
sbag1
(g6
g7
S'328484434'
p1043
tp1044
Rp1045
(dp1046
g12
g26
sbag1
(g6
g7
S'328484432'
p1047
tp1048
Rp1049
(dp1050
g12
g26
sbag1
(g6
g7
S'328484430'
p1051
tp1052
Rp1053
(dp1054
g12
g26
sbag1
(g6
g7
S'328484428'
p1055
tp1056
Rp1057
(dp1058
g12
g26
sbag1
(g6
g7
S'328484426'
p1059
tp1060
Rp1061
(dp1062
g12
g26
sbag1
(g6
g7
S'328484424'
p1063
tp1064
Rp1065
(dp1066
g12
g26
sbag1
(g6
g7
S'328484422'
p1067
tp1068
Rp1069
(dp1070
g12
g26
sbag1
(g6
g7
S'328484188'
p1071
tp1072
Rp1073
(dp1074
g12
g26
sbag1
(g6
g7
S'328484186'
p1075
tp1076
Rp1077
(dp1078
g12
g26
sbag1
(g6
g7
S'328484184'
p1079
tp1080
Rp1081
(dp1082
g12
g26
sbag1
(g6
g7
S'328484182'
p1083
tp1084
Rp1085
(dp1086
g12
g26
sbag1
(g6
g7
S'328484130'
p1087
tp1088
Rp1089
(dp1090
g12
g26
sbag1
(g6
g7
S'328484128'
p1091
tp1092
Rp1093
(dp1094
g12
g26
sbag1
(g6
g7
S'171850682'
p1095
tp1096
Rp1097
(dp1098
g12
g26
sbag1
(g6
g7
S'171850680'
p1099
tp1100
Rp1101
(dp1102
g12
g26
sbag1
(g6
g7
S'161777712'
p1103
tp1104
Rp1105
(dp1106
g12
g26
sbag1
(g6
g7
S'161777710'
p1107
tp1108
Rp1109
(dp1110
g12
g26
sbag1
(g6
g7
S'161777708'
p1111
tp1112
Rp1113
(dp1114
g12
g26
sbag1
(g6
g7
S'161777706'
p1115
tp1116
Rp1117
(dp1118
g12
g26
sbag1
(g6
g7
S'161777704'
p1119
tp1120
Rp1121
(dp1122
g12
g26
sbag1
(g6
g7
S'161777702'
p1123
tp1124
Rp1125
(dp1126
g12
g26
sbag1
(g6
g7
S'161777700'
p1127
tp1128
Rp1129
(dp1130
g12
g26
sbag1
(g6
g7
S'155965040'
p1131
tp1132
Rp1133
(dp1134
g12
g26
sbag1
(g6
g7
S'155965038'
p1135
tp1136
Rp1137
(dp1138
g12
g26
sbag1
(g6
g7
S'155965036'
p1139
tp1140
Rp1141
(dp1142
g12
g26
sbag1
(g6
g7
S'155965034'
p1143
tp1144
Rp1145
(dp1146
g12
g26
sbag1
(g6
g7
S'155965032'
p1147
tp1148
Rp1149
(dp1150
g12
g26
sbag1
(g6
g7
S'1044815199'
p1151
tp1152
Rp1153
(dp1154
g12
g26
sbag1
(g6
g7
S'322402497'
p1155
tp1156
Rp1157
(dp1158
g12
g26
sbag1
(g6
g7
S'322402463'
p1159
tp1160
Rp1161
(dp1162
g12
g26
sbag1
(g6
g7
S'322402381'
p1163
tp1164
Rp1165
(dp1166
g12
g26
sbag1
(g6
g7
S'322402325'
p1167
tp1168
Rp1169
(dp1170
g12
g26
sbag1
(g6
g7
S'322402263'
p1171
tp1172
Rp1173
(dp1174
g12
g26
sbag1
(g6
g7
S'321480733'
p1175
tp1176
Rp1177
(dp1178
g12
g26
sbag1
(g6
g7
S'320578827'
p1179
tp1180
Rp1181
(dp1182
g12
g26
sbag1
(g6
g7
S'320578825'
p1183
tp1184
Rp1185
(dp1186
g12
g26
sbag1
(g6
g7
S'320578823'
p1187
tp1188
Rp1189
(dp1190
g12
g26
sbag1
(g6
g7
S'320578821'
p1191
tp1192
Rp1193
(dp1194
g12
g26
sbag1
(g6
g7
S'320578819'
p1195
tp1196
Rp1197
(dp1198
g12
g26
sbag1
(g6
g7
S'320578817'
p1199
tp1200
Rp1201
(dp1202
g12
g26
sbag1
(g6
g7
S'320578815'
p1203
tp1204
Rp1205
(dp1206
g12
g26
sbag1
(g6
g7
S'320578813'
p1207
tp1208
Rp1209
(dp1210
g12
g26
sbag1
(g6
g7
S'320578811'
p1211
tp1212
Rp1213
(dp1214
g12
g26
sbag1
(g6
g7
S'320578809'
p1215
tp1216
Rp1217
(dp1218
g12
g26
sbag1
(g6
g7
S'320578807'
p1219
tp1220
Rp1221
(dp1222
g12
g26
sbag1
(g6
g7
S'320578805'
p1223
tp1224
Rp1225
(dp1226
g12
g26
sbag1
(g6
g7
S'320578803'
p1227
tp1228
Rp1229
(dp1230
g12
g26
sbag1
(g6
g7
S'320578801'
p1231
tp1232
Rp1233
(dp1234
g12
g26
sbag1
(g6
g7
S'320578799'
p1235
tp1236
Rp1237
(dp1238
g12
g26
sbag1
(g6
g7
S'320578797'
p1239
tp1240
Rp1241
(dp1242
g12
g26
sbag1
(g6
g7
S'320578795'
p1243
tp1244
Rp1245
(dp1246
g12
g26
sbag1
(g6
g7
S'320578793'
p1247
tp1248
Rp1249
(dp1250
g12
g26
sbag1
(g6
g7
S'320578791'
p1251
tp1252
Rp1253
(dp1254
g12
g26
sbag1
(g6
g7
S'320578789'
p1255
tp1256
Rp1257
(dp1258
g12
g26
sbag1
(g6
g7
S'320578787'
p1259
tp1260
Rp1261
(dp1262
g12
g26
sbag1
(g6
g7
S'320578785'
p1263
tp1264
Rp1265
(dp1266
g12
g26
sbag1
(g6
g7
S'320578783'
p1267
tp1268
Rp1269
(dp1270
g12
g26
sbag1
(g6
g7
S'320578781'
p1271
tp1272
Rp1273
(dp1274
g12
g26
sbag1
(g6
g7
S'320578779'
p1275
tp1276
Rp1277
(dp1278
g12
g26
sbag1
(g6
g7
S'320578777'
p1279
tp1280
Rp1281
(dp1282
g12
g26
sbag1
(g6
g7
S'320578775'
p1283
tp1284
Rp1285
(dp1286
g12
g26
sbag1
(g6
g7
S'320578773'
p1287
tp1288
Rp1289
(dp1290
g12
g26
sbag1
(g6
g7
S'320578771'
p1291
tp1292
Rp1293
(dp1294
g12
g26
sbag1
(g6
g7
S'320578769'
p1295
tp1296
Rp1297
(dp1298
g12
g26
sbag1
(g6
g7
S'320578767'
p1299
tp1300
Rp1301
(dp1302
g12
g26
sbag1
(g6
g7
S'320578765'
p1303
tp1304
Rp1305
(dp1306
g12
g26
sbag1
(g6
g7
S'320578763'
p1307
tp1308
Rp1309
(dp1310
g12
g26
sbag1
(g6
g7
S'320578761'
p1311
tp1312
Rp1313
(dp1314
g12
g26
sbag1
(g6
g7
S'320578759'
p1315
tp1316
Rp1317
(dp1318
g12
g26
sbag1
(g6
g7
S'320578757'
p1319
tp1320
Rp1321
(dp1322
g12
g26
sbag1
(g6
g7
S'320578755'
p1323
tp1324
Rp1325
(dp1326
g12
g26
sbag1
(g6
g7
S'320578753'
p1327
tp1328
Rp1329
(dp1330
g12
g26
sbag1
(g6
g7
S'320578751'
p1331
tp1332
Rp1333
(dp1334
g12
g26
sbag1
(g6
g7
S'320578749'
p1335
tp1336
Rp1337
(dp1338
g12
g26
sbag1
(g6
g7
S'320578747'
p1339
tp1340
Rp1341
(dp1342
g12
g26
sbag1
(g6
g7
S'320578745'
p1343
tp1344
Rp1345
(dp1346
g12
g26
sbag1
(g6
g7
S'320578743'
p1347
tp1348
Rp1349
(dp1350
g12
g26
sbag1
(g6
g7
S'320578741'
p1351
tp1352
Rp1353
(dp1354
g12
g26
sbag1
(g6
g7
S'320578739'
p1355
tp1356
Rp1357
(dp1358
g12
g26
sbag1
(g6
g7
S'320578737'
p1359
tp1360
Rp1361
(dp1362
g12
g26
sbag1
(g6
g7
S'320578735'
p1363
tp1364
Rp1365
(dp1366
g12
g26
sbag1
(g6
g7
S'320578733'
p1367
tp1368
Rp1369
(dp1370
g12
g26
sbag1
(g6
g7
S'320578731'
p1371
tp1372
Rp1373
(dp1374
g12
g26
sbag1
(g6
g7
S'320578729'
p1375
tp1376
Rp1377
(dp1378
g12
g26
sbag1
(g6
g7
S'312841857'
p1379
tp1380
Rp1381
(dp1382
g12
g26
sbag1
(g6
g7
S'312841855'
p1383
tp1384
Rp1385
(dp1386
g12
g26
sbag1
(g6
g7
S'312841853'
p1387
tp1388
Rp1389
(dp1390
g12
g26
sbag1
(g6
g7
S'312841847'
p1391
tp1392
Rp1393
(dp1394
g12
g26
sbag1
(g6
g7
S'312841843'
p1395
tp1396
Rp1397
(dp1398
g12
g26
sbag1
(g6
g7
S'312841841'
p1399
tp1400
Rp1401
(dp1402
g12
g26
sbag1
(g6
g7
S'312841839'
p1403
tp1404
Rp1405
(dp1406
g12
g26
sbag1
(g6
g7
S'312841837'
p1407
tp1408
Rp1409
(dp1410
g12
g26
sbag1
(g6
g7
S'312841833'
p1411
tp1412
Rp1413
(dp1414
g12
g26
sbag1
(g6
g7
S'312841813'
p1415
tp1416
Rp1417
(dp1418
g12
g26
sbag1
(g6
g7
S'312841793'
p1419
tp1420
Rp1421
(dp1422
g12
g26
sbag1
(g6
g7
S'312841791'
p1423
tp1424
Rp1425
(dp1426
g12
g26
sbag1
(g6
g7
S'312841771'
p1427
tp1428
Rp1429
(dp1430
g12
g26
sbag1
(g6
g7
S'312841757'
p1431
tp1432
Rp1433
(dp1434
g12
g26
sbag1
(g6
g7
S'312841739'
p1435
tp1436
Rp1437
(dp1438
g12
g26
sbag1
(g6
g7
S'312841727'
p1439
tp1440
Rp1441
(dp1442
g12
g26
sbag1
(g6
g7
S'312841695'
p1443
tp1444
Rp1445
(dp1446
g12
g26
sbag1
(g6
g7
S'309321073'
p1447
tp1448
Rp1449
(dp1450
g12
g26
sbag1
(g6
g7
S'309321071'
p1451
tp1452
Rp1453
(dp1454
g12
g26
sbag1
(g6
g7
S'309321069'
p1455
tp1456
Rp1457
(dp1458
g12
g26
sbag1
(g6
g7
S'309321067'
p1459
tp1460
Rp1461
(dp1462
g12
g26
sbag1
(g6
g7
S'309321065'
p1463
tp1464
Rp1465
(dp1466
g12
g26
sbag1
(g6
g7
S'309321063'
p1467
tp1468
Rp1469
(dp1470
g12
g26
sbag1
(g6
g7
S'309321061'
p1471
tp1472
Rp1473
(dp1474
g12
g26
sbag1
(g6
g7
S'309321059'
p1475
tp1476
Rp1477
(dp1478
g12
g26
sbag1
(g6
g7
S'297525640'
p1479
tp1480
Rp1481
(dp1482
g12
g26
sbag1
(g6
g7
S'297525638'
p1483
tp1484
Rp1485
(dp1486
g12
g26
sbag1
(g6
g7
S'297525636'
p1487
tp1488
Rp1489
(dp1490
g12
g26
sbag1
(g6
g7
S'297525634'
p1491
tp1492
Rp1493
(dp1494
g12
g26
sbag1
(g6
g7
S'297525632'
p1495
tp1496
Rp1497
(dp1498
g12
g26
sbag1
(g6
g7
S'297525630'
p1499
tp1500
Rp1501
(dp1502
g12
g26
sbag1
(g6
g7
S'297525628'
p1503
tp1504
Rp1505
(dp1506
g12
g26
sbag1
(g6
g7
S'297525626'
p1507
tp1508
Rp1509
(dp1510
g12
g26
sbag1
(g6
g7
S'297525624'
p1511
tp1512
Rp1513
(dp1514
g12
g26
sbag1
(g6
g7
S'297525622'
p1515
tp1516
Rp1517
(dp1518
g12
g26
sbag1
(g6
g7
S'297525620'
p1519
tp1520
Rp1521
(dp1522
g12
g26
sbag1
(g6
g7
S'297525528'
p1523
tp1524
Rp1525
(dp1526
g12
g26
sbag1
(g6
g7
S'297525526'
p1527
tp1528
Rp1529
(dp1530
g12
g26
sbag1
(g6
g7
S'297525524'
p1531
tp1532
Rp1533
(dp1534
g12
g26
sbag1
(g6
g7
S'297525522'
p1535
tp1536
Rp1537
(dp1538
g12
g26
sbag1
(g6
g7
S'297525520'
p1539
tp1540
Rp1541
(dp1542
g12
g26
sbag1
(g6
g7
S'297525518'
p1543
tp1544
Rp1545
(dp1546
g12
g26
sbag1
(g6
g7
S'297525516'
p1547
tp1548
Rp1549
(dp1550
g12
g26
sbag1
(g6
g7
S'297525514'
p1551
tp1552
Rp1553
(dp1554
g12
g26
sbag1
(g6
g7
S'297525512'
p1555
tp1556
Rp1557
(dp1558
g12
g26
sbag1
(g6
g7
S'297525510'
p1559
tp1560
Rp1561
(dp1562
g12
g26
sbag1
(g6
g7
S'297525508'
p1563
tp1564
Rp1565
(dp1566
g12
g26
sbag1
(g6
g7
S'297525506'
p1567
tp1568
Rp1569
(dp1570
g12
g26
sbag1
(g6
g7
S'297525504'
p1571
tp1572
Rp1573
(dp1574
g12
g26
sbag1
(g6
g7
S'297525502'
p1575
tp1576
Rp1577
(dp1578
g12
g26
sbag1
(g6
g7
S'297525500'
p1579
tp1580
Rp1581
(dp1582
g12
g26
sbag1
(g6
g7
S'297525498'
p1583
tp1584
Rp1585
(dp1586
g12
g26
sbag1
(g6
g7
S'297525496'
p1587
tp1588
Rp1589
(dp1590
g12
g26
sbag1
(g6
g7
S'297525494'
p1591
tp1592
Rp1593
(dp1594
g12
g26
sbag1
(g6
g7
S'297525492'
p1595
tp1596
Rp1597
(dp1598
g12
g26
sbag1
(g6
g7
S'297525490'
p1599
tp1600
Rp1601
(dp1602
g12
g26
sbag1
(g6
g7
S'297525488'
p1603
tp1604
Rp1605
(dp1606
g12
g26
sbag1
(g6
g7
S'297525486'
p1607
tp1608
Rp1609
(dp1610
g12
g26
sbag1
(g6
g7
S'297525484'
p1611
tp1612
Rp1613
(dp1614
g12
g26
sbag1
(g6
g7
S'297525482'
p1615
tp1616
Rp1617
(dp1618
g12
g26
sbag1
(g6
g7
S'297525480'
p1619
tp1620
Rp1621
(dp1622
g12
g26
sbag1
(g6
g7
S'297525478'
p1623
tp1624
Rp1625
(dp1626
g12
g26
sbag1
(g6
g7
S'297525476'
p1627
tp1628
Rp1629
(dp1630
g12
g26
sbag1
(g6
g7
S'297525474'
p1631
tp1632
Rp1633
(dp1634
g12
g26
sbag1
(g6
g7
S'297525472'
p1635
tp1636
Rp1637
(dp1638
g12
g26
sbag1
(g6
g7
S'297525470'
p1639
tp1640
Rp1641
(dp1642
g12
g26
sbag1
(g6
g7
S'297525468'
p1643
tp1644
Rp1645
(dp1646
g12
g26
sbag1
(g6
g7
S'297525466'
p1647
tp1648
Rp1649
(dp1650
g12
g26
sbag1
(g6
g7
S'297525464'
p1651
tp1652
Rp1653
(dp1654
g12
g26
sbag1
(g6
g7
S'297525462'
p1655
tp1656
Rp1657
(dp1658
g12
g26
sbag1
(g6
g7
S'297525460'
p1659
tp1660
Rp1661
(dp1662
g12
g26
sbag1
(g6
g7
S'297525458'
p1663
tp1664
Rp1665
(dp1666
g12
g26
sbag1
(g6
g7
S'297525456'
p1667
tp1668
Rp1669
(dp1670
g12
g26
sbag1
(g6
g7
S'297525454'
p1671
tp1672
Rp1673
(dp1674
g12
g26
sbag1
(g6
g7
S'297525452'
p1675
tp1676
Rp1677
(dp1678
g12
g26
sbag1
(g6
g7
S'297525450'
p1679
tp1680
Rp1681
(dp1682
g12
g26
sbag1
(g6
g7
S'297525448'
p1683
tp1684
Rp1685
(dp1686
g12
g26
sbag1
(g6
g7
S'297525446'
p1687
tp1688
Rp1689
(dp1690
g12
g26
sbag1
(g6
g7
S'297525444'
p1691
tp1692
Rp1693
(dp1694
g12
g26
sbag1
(g6
g7
S'297525442'
p1695
tp1696
Rp1697
(dp1698
g12
g26
sbag1
(g6
g7
S'297524751'
p1699
tp1700
Rp1701
(dp1702
g12
g26
sbag1
(g6
g7
S'297524749'
p1703
tp1704
Rp1705
(dp1706
g12
g26
sbag1
(g6
g7
S'297524747'
p1707
tp1708
Rp1709
(dp1710
g12
g26
sbag1
(g6
g7
S'297524745'
p1711
tp1712
Rp1713
(dp1714
g12
g26
sbag1
(g6
g7
S'297524743'
p1715
tp1716
Rp1717
(dp1718
g12
g26
sbag1
(g6
g7
S'296836986'
p1719
tp1720
Rp1721
(dp1722
g12
g26
sbag1
(g6
g7
S'296836982'
p1723
tp1724
Rp1725
(dp1726
g12
g26
sbag1
(g6
g7
S'296836964'
p1727
tp1728
Rp1729
(dp1730
g12
g26
sbag1
(g6
g7
S'296836892'
p1731
tp1732
Rp1733
(dp1734
g12
g26
sbag1
(g6
g7
S'296836876'
p1735
tp1736
Rp1737
(dp1738
g12
g26
sbag1
(g6
g7
S'296836844'
p1739
tp1740
Rp1741
(dp1742
g12
g26
sbag1
(g6
g7
S'296747037'
p1743
tp1744
Rp1745
(dp1746
g12
g26
sbag1
(g6
g7
S'296747009'
p1747
tp1748
Rp1749
(dp1750
g12
g26
sbag1
(g6
g7
S'296747003'
p1751
tp1752
Rp1753
(dp1754
g12
g26
sbag1
(g6
g7
S'296746949'
p1755
tp1756
Rp1757
(dp1758
g12
g26
sbag1
(g6
g7
S'296746905'
p1759
tp1760
Rp1761
(dp1762
g12
g26
sbag1
(g6
g7
S'296746887'
p1763
tp1764
Rp1765
(dp1766
g12
g26
sbag1
(g6
g7
S'296746881'
p1767
tp1768
Rp1769
(dp1770
g12
g26
sbag1
(g6
g7
S'296746847'
p1771
tp1772
Rp1773
(dp1774
g12
g26
sbag1
(g6
g7
S'296746845'
p1775
tp1776
Rp1777
(dp1778
g12
g26
sbag1
(g6
g7
S'296746841'
p1779
tp1780
Rp1781
(dp1782
g12
g26
sbag1
(g6
g7
S'296746839'
p1783
tp1784
Rp1785
(dp1786
g12
g26
sbag1
(g6
g7
S'296746837'
p1787
tp1788
Rp1789
(dp1790
g12
g26
sbag1
(g6
g7
S'296746819'
p1791
tp1792
Rp1793
(dp1794
g12
g26
sbag1
(g6
g7
S'294989096'
p1795
tp1796
Rp1797
(dp1798
g12
g26
sbag1
(g6
g7
S'294989094'
p1799
tp1800
Rp1801
(dp1802
g12
g26
sbag1
(g6
g7
S'291164100'
p1803
tp1804
Rp1805
(dp1806
g12
g26
sbag1
(g6
g7
S'291164098'
p1807
tp1808
Rp1809
(dp1810
g12
g26
sbag1
(g6
g7
S'291164096'
p1811
tp1812
Rp1813
(dp1814
g12
g26
sbag1
(g6
g7
S'291164094'
p1815
tp1816
Rp1817
(dp1818
g12
g26
sbag1
(g6
g7
S'291164092'
p1819
tp1820
Rp1821
(dp1822
g12
g26
sbag1
(g6
g7
S'291164040'
p1823
tp1824
Rp1825
(dp1826
g12
g26
sbag1
(g6
g7
S'291164038'
p1827
tp1828
Rp1829
(dp1830
g12
g26
sbag1
(g6
g7
S'291164036'
p1831
tp1832
Rp1833
(dp1834
g12
g26
sbag1
(g6
g7
S'291164034'
p1835
tp1836
Rp1837
(dp1838
g12
g26
sbag1
(g6
g7
S'291164032'
p1839
tp1840
Rp1841
(dp1842
g12
g26
sbag1
(g6
g7
S'291164030'
p1843
tp1844
Rp1845
(dp1846
g12
g26
sbag1
(g6
g7
S'291164028'
p1847
tp1848
Rp1849
(dp1850
g12
g26
sbag1
(g6
g7
S'291164026'
p1851
tp1852
Rp1853
(dp1854
g12
g26
sbag1
(g6
g7
S'291164024'
p1855
tp1856
Rp1857
(dp1858
g12
g26
sbag1
(g6
g7
S'291164022'
p1859
tp1860
Rp1861
(dp1862
g12
g26
sbag1
(g6
g7
S'291164020'
p1863
tp1864
Rp1865
(dp1866
g12
g26
sbag1
(g6
g7
S'291164018'
p1867
tp1868
Rp1869
(dp1870
g12
g26
sbag1
(g6
g7
S'291164016'
p1871
tp1872
Rp1873
(dp1874
g12
g26
sbag1
(g6
g7
S'291164014'
p1875
tp1876
Rp1877
(dp1878
g12
g26
sbag1
(g6
g7
S'291164012'
p1879
tp1880
Rp1881
(dp1882
g12
g26
sbag1
(g6
g7
S'291164010'
p1883
tp1884
Rp1885
(dp1886
g12
g26
sbag1
(g6
g7
S'291164008'
p1887
tp1888
Rp1889
(dp1890
g12
g26
sbag1
(g6
g7
S'291164006'
p1891
tp1892
Rp1893
(dp1894
g12
g26
sbag1
(g6
g7
S'291164004'
p1895
tp1896
Rp1897
(dp1898
g12
g26
sbag1
(g6
g7
S'291164002'
p1899
tp1900
Rp1901
(dp1902
g12
g26
sbag1
(g6
g7
S'291164000'
p1903
tp1904
Rp1905
(dp1906
g12
g26
sbag1
(g6
g7
S'291163998'
p1907
tp1908
Rp1909
(dp1910
g12
g26
sbag1
(g6
g7
S'291163996'
p1911
tp1912
Rp1913
(dp1914
g12
g26
sbag1
(g6
g7
S'291163994'
p1915
tp1916
Rp1917
(dp1918
g12
g26
sbag1
(g6
g7
S'291163992'
p1919
tp1920
Rp1921
(dp1922
g12
g26
sbag1
(g6
g7
S'291163990'
p1923
tp1924
Rp1925
(dp1926
g12
g26
sbag1
(g6
g7
S'291163988'
p1927
tp1928
Rp1929
(dp1930
g12
g26
sbag1
(g6
g7
S'291163986'
p1931
tp1932
Rp1933
(dp1934
g12
g26
sbag1
(g6
g7
S'291163984'
p1935
tp1936
Rp1937
(dp1938
g12
g26
sbag1
(g6
g7
S'291163982'
p1939
tp1940
Rp1941
(dp1942
g12
g26
sbag1
(g6
g7
S'291163980'
p1943
tp1944
Rp1945
(dp1946
g12
g26
sbag1
(g6
g7
S'291163978'
p1947
tp1948
Rp1949
(dp1950
g12
g26
sbag1
(g6
g7
S'291163976'
p1951
tp1952
Rp1953
(dp1954
g12
g26
sbag1
(g6
g7
S'291163682'
p1955
tp1956
Rp1957
(dp1958
g12
g26
sbag1
(g6
g7
S'289467776'
p1959
tp1960
Rp1961
(dp1962
g12
g26
sbag1
(g6
g7
S'289467774'
p1963
tp1964
Rp1965
(dp1966
g12
g26
sbag1
(g6
g7
S'289467772'
p1967
tp1968
Rp1969
(dp1970
g12
g26
sbag1
(g6
g7
S'270310964'
p1971
tp1972
Rp1973
(dp1974
g12
g26
sbag1
(g6
g7
S'255958974'
p1975
tp1976
Rp1977
(dp1978
g12
g26
sbag1
(g6
g7
S'255958972'
p1979
tp1980
Rp1981
(dp1982
g12
g26
sbag1
(g6
g7
S'255958970'
p1983
tp1984
Rp1985
(dp1986
g12
g26
sbag1
(g6
g7
S'238551264'
p1987
tp1988
Rp1989
(dp1990
g12
g26
sbag1
(g6
g7
S'238551262'
p1991
tp1992
Rp1993
(dp1994
g12
g26
sbag1
(g6
g7
S'238551260'
p1995
tp1996
Rp1997
(dp1998
g12
g26
sbag1
(g6
g7
S'238551258'
p1999
tp2000
Rp2001
(dp2002
g12
g26
sbag1
(g6
g7
S'238551256'
p2003
tp2004
Rp2005
(dp2006
g12
g26
sbag1
(g6
g7
S'238551254'
p2007
tp2008
Rp2009
(dp2010
g12
g26
sbag1
(g6
g7
S'238551252'
p2011
tp2012
Rp2013
(dp2014
g12
g26
sbag1
(g6
g7
S'238551250'
p2015
tp2016
Rp2017
(dp2018
g12
g26
sbag1
(g6
g7
S'238551248'
p2019
tp2020
Rp2021
(dp2022
g12
g26
sbag1
(g6
g7
S'238551246'
p2023
tp2024
Rp2025
(dp2026
g12
g26
sbag1
(g6
g7
S'238551244'
p2027
tp2028
Rp2029
(dp2030
g12
g26
sbag1
(g6
g7
S'238551242'
p2031
tp2032
Rp2033
(dp2034
g12
g26
sbag1
(g6
g7
S'238551240'
p2035
tp2036
Rp2037
(dp2038
g12
g26
sbag1
(g6
g7
S'238551238'
p2039
tp2040
Rp2041
(dp2042
g12
g26
sbag1
(g6
g7
S'238551236'
p2043
tp2044
Rp2045
(dp2046
g12
g26
sbag1
(g6
g7
S'238551234'
p2047
tp2048
Rp2049
(dp2050
g12
g26
sbag1
(g6
g7
S'238551232'
p2051
tp2052
Rp2053
(dp2054
g12
g26
sbag1
(g6
g7
S'238551230'
p2055
tp2056
Rp2057
(dp2058
g12
g26
sbag1
(g6
g7
S'238551228'
p2059
tp2060
Rp2061
(dp2062
g12
g26
sbag1
(g6
g7
S'238551226'
p2063
tp2064
Rp2065
(dp2066
g12
g26
sbag1
(g6
g7
S'238551224'
p2067
tp2068
Rp2069
(dp2070
g12
g26
sbag1
(g6
g7
S'238551222'
p2071
tp2072
Rp2073
(dp2074
g12
g26
sbag1
(g6
g7
S'238551220'
p2075
tp2076
Rp2077
(dp2078
g12
g26
sbag1
(g6
g7
S'238551218'
p2079
tp2080
Rp2081
(dp2082
g12
g26
sbag1
(g6
g7
S'238551216'
p2083
tp2084
Rp2085
(dp2086
g12
g26
sbag1
(g6
g7
S'238551214'
p2087
tp2088
Rp2089
(dp2090
g12
g26
sbag1
(g6
g7
S'238551212'
p2091
tp2092
Rp2093
(dp2094
g12
g26
sbag1
(g6
g7
S'238551210'
p2095
tp2096
Rp2097
(dp2098
g12
g26
sbag1
(g6
g7
S'238551208'
p2099
tp2100
Rp2101
(dp2102
g12
g26
sbag1
(g6
g7
S'238551206'
p2103
tp2104
Rp2105
(dp2106
g12
g26
sbag1
(g6
g7
S'238551204'
p2107
tp2108
Rp2109
(dp2110
g12
g26
sbag1
(g6
g7
S'238551202'
p2111
tp2112
Rp2113
(dp2114
g12
g26
sbag1
(g6
g7
S'238551200'
p2115
tp2116
Rp2117
(dp2118
g12
g26
sbag1
(g6
g7
S'238551198'
p2119
tp2120
Rp2121
(dp2122
g12
g26
sbag1
(g6
g7
S'238551196'
p2123
tp2124
Rp2125
(dp2126
g12
g26
sbag1
(g6
g7
S'238551194'
p2127
tp2128
Rp2129
(dp2130
g12
g26
sbag1
(g6
g7
S'238551192'
p2131
tp2132
Rp2133
(dp2134
g12
g26
sbag1
(g6
g7
S'227937148'
p2135
tp2136
Rp2137
(dp2138
g12
g26
sbag1
(g6
g7
S'227937144'
p2139
tp2140
Rp2141
(dp2142
g12
g26
sbag1
(g6
g7
S'227937126'
p2143
tp2144
Rp2145
(dp2146
g12
g26
sbag1
(g6
g7
S'227937076'
p2147
tp2148
Rp2149
(dp2150
g12
g26
sbag1
(g6
g7
S'227937074'
p2151
tp2152
Rp2153
(dp2154
g12
g26
sbag1
(g6
g7
S'227937072'
p2155
tp2156
Rp2157
(dp2158
g12
g26
sbag1
(g6
g7
S'227936471'
p2159
tp2160
Rp2161
(dp2162
g12
g26
sbag1
(g6
g7
S'227936469'
p2163
tp2164
Rp2165
(dp2166
g12
g26
sbag1
(g6
g7
S'227936467'
p2167
tp2168
Rp2169
(dp2170
g12
g26
sbag1
(g6
g7
S'227936465'
p2171
tp2172
Rp2173
(dp2174
g12
g26
sbag1
(g6
g7
S'227936165'
p2175
tp2176
Rp2177
(dp2178
g12
g26
sbag1
(g6
g7
S'227936163'
p2179
tp2180
Rp2181
(dp2182
g12
g26
sbag1
(g6
g7
S'227936161'
p2183
tp2184
Rp2185
(dp2186
g12
g26
sbag1
(g6
g7
S'227936159'
p2187
tp2188
Rp2189
(dp2190
g12
g26
sbag1
(g6
g7
S'227936157'
p2191
tp2192
Rp2193
(dp2194
g12
g26
sbag1
(g6
g7
S'227936155'
p2195
tp2196
Rp2197
(dp2198
g12
g26
sbag1
(g6
g7
S'227936153'
p2199
tp2200
Rp2201
(dp2202
g12
g26
sbag1
(g6
g7
S'227936151'
p2203
tp2204
Rp2205
(dp2206
g12
g26
sbag1
(g6
g7
S'227935829'
p2207
tp2208
Rp2209
(dp2210
g12
g26
sbag1
(g6
g7
S'227935827'
p2211
tp2212
Rp2213
(dp2214
g12
g26
sbag1
(g6
g7
S'227935825'
p2215
tp2216
Rp2217
(dp2218
g12
g26
sbag1
(g6
g7
S'227935823'
p2219
tp2220
Rp2221
(dp2222
g12
g26
sbag1
(g6
g7
S'227935821'
p2223
tp2224
Rp2225
(dp2226
g12
g26
sbag1
(g6
g7
S'227935819'
p2227
tp2228
Rp2229
(dp2230
g12
g26
sbag1
(g6
g7
S'227935817'
p2231
tp2232
Rp2233
(dp2234
g12
g26
sbag1
(g6
g7
S'227935815'
p2235
tp2236
Rp2237
(dp2238
g12
g26
sbag1
(g6
g7
S'227935813'
p2239
tp2240
Rp2241
(dp2242
g12
g26
sbag1
(g6
g7
S'227935811'
p2243
tp2244
Rp2245
(dp2246
g12
g26
sbag1
(g6
g7
S'227935809'
p2247
tp2248
Rp2249
(dp2250
g12
g26
sbag1
(g6
g7
S'227935807'
p2251
tp2252
Rp2253
(dp2254
g12
g26
sbag1
(g6
g7
S'227935805'
p2255
tp2256
Rp2257
(dp2258
g12
g26
sbag1
(g6
g7
S'227935803'
p2259
tp2260
Rp2261
(dp2262
g12
g26
sbag1
(g6
g7
S'227935801'
p2263
tp2264
Rp2265
(dp2266
g12
g26
sbag1
(g6
g7
S'227935799'
p2267
tp2268
Rp2269
(dp2270
g12
g26
sbag1
(g6
g7
S'227935797'
p2271
tp2272
Rp2273
(dp2274
g12
g26
sbag1
(g6
g7
S'227935795'
p2275
tp2276
Rp2277
(dp2278
g12
g26
sbag1
(g6
g7
S'227935793'
p2279
tp2280
Rp2281
(dp2282
g12
g26
sbag1
(g6
g7
S'227935791'
p2283
tp2284
Rp2285
(dp2286
g12
g26
sbag1
(g6
g7
S'227935789'
p2287
tp2288
Rp2289
(dp2290
g12
g26
sbag1
(g6
g7
S'227935787'
p2291
tp2292
Rp2293
(dp2294
g12
g26
sbag1
(g6
g7
S'227935785'
p2295
tp2296
Rp2297
(dp2298
g12
g26
sbag1
(g6
g7
S'227935783'
p2299
tp2300
Rp2301
(dp2302
g12
g26
sbag1
(g6
g7
S'227935781'
p2303
tp2304
Rp2305
(dp2306
g12
g26
sbag1
(g6
g7
S'227935779'
p2307
tp2308
Rp2309
(dp2310
g12
g26
sbag1
(g6
g7
S'227935777'
p2311
tp2312
Rp2313
(dp2314
g12
g26
sbag1
(g6
g7
S'227935775'
p2315
tp2316
Rp2317
(dp2318
g12
g26
sbag1
(g6
g7
S'227935773'
p2319
tp2320
Rp2321
(dp2322
g12
g26
sbag1
(g6
g7
S'227935771'
p2323
tp2324
Rp2325
(dp2326
g12
g26
sbag1
(g6
g7
S'227935769'
p2327
tp2328
Rp2329
(dp2330
g12
g26
sbag1
(g6
g7
S'151975669'
p2331
tp2332
Rp2333
(dp2334
g12
g26
sbag1
(g6
g7
S'151975667'
p2335
tp2336
Rp2337
(dp2338
g12
g26
sbag1
(g6
g7
S'151975665'
p2339
tp2340
Rp2341
(dp2342
g12
g26
sbag1
(g6
g7
S'151975663'
p2343
tp2344
Rp2345
(dp2346
g12
g26
sbag1
(g6
g7
S'151975443'
p2347
tp2348
Rp2349
(dp2350
g12
g26
sbag1
(g6
g7
S'148374013'
p2351
tp2352
Rp2353
(dp2354
g12
g26
sbag1
(g6
g7
S'116608043'
p2355
tp2356
Rp2357
(dp2358
g12
g26
sbag1
(g6
g7
S'116608041'
p2359
tp2360
Rp2361
(dp2362
g12
g26
sbag1
(g6
g7
S'116608039'
p2363
tp2364
Rp2365
(dp2366
g12
g26
sbag1
(g6
g7
S'116608037'
p2367
tp2368
Rp2369
(dp2370
g12
g26
sbag1
(g6
g7
S'116608009'
p2371
tp2372
Rp2373
(dp2374
g12
g26
sbag1
(g6
g7
S'116608007'
p2375
tp2376
Rp2377
(dp2378
g12
g26
sbag1
(g6
g7
S'116608005'
p2379
tp2380
Rp2381
(dp2382
g12
g26
sbag1
(g6
g7
S'116608003'
p2383
tp2384
Rp2385
(dp2386
g12
g26
sbag1
(g6
g7
S'116608001'
p2387
tp2388
Rp2389
(dp2390
g12
g26
sbag1
(g6
g7
S'1041927442'
p2391
tp2392
Rp2393
(dp2394
g12
g26
sbag1
(g6
g7
S'1041927402'
p2395
tp2396
Rp2397
(dp2398
g12
g26
sbag1
(g6
g7
S'1041927258'
p2399
tp2400
Rp2401
(dp2402
g12
g26
sbag1
(g6
g7
S'1041927232'
p2403
tp2404
Rp2405
(dp2406
g12
g26
sbag1
(g6
g7
S'1041927218'
p2407
tp2408
Rp2409
(dp2410
g12
g26
sbag1
(g6
g7
S'1041927178'
p2411
tp2412
Rp2413
(dp2414
g12
g26
sbag1
(g6
g7
S'954001173'
p2415
tp2416
Rp2417
(dp2418
g12
g26
sbag1
(g6
g7
S'1020878021'
p2419
tp2420
Rp2421
(dp2422
g12
g26
sbag1
(g6
g7
S'1020878019'
p2423
tp2424
Rp2425
(dp2426
g12
g26
sbag1
(g6
g7
S'1020878017'
p2427
tp2428
Rp2429
(dp2430
g12
g26
sbag1
(g6
g7
S'1020878015'
p2431
tp2432
Rp2433
(dp2434
g12
g26
sbag1
(g6
g7
S'1020878013'
p2435
tp2436
Rp2437
(dp2438
g12
g26
sbag1
(g6
g7
S'1020878011'
p2439
tp2440
Rp2441
(dp2442
g12
g26
sbag1
(g6
g7
S'1020878009'
p2443
tp2444
Rp2445
(dp2446
g12
g26
sbag1
(g6
g7
S'1020878007'
p2447
tp2448
Rp2449
(dp2450
g12
g26
sbag1
(g6
g7
S'1020878005'
p2451
tp2452
Rp2453
(dp2454
g12
g26
sbag1
(g6
g7
S'1020878003'
p2455
tp2456
Rp2457
(dp2458
g12
g26
sbag1
(g6
g7
S'1020878001'
p2459
tp2460
Rp2461
(dp2462
g12
g26
sbag1
(g6
g7
S'1020877999'
p2463
tp2464
Rp2465
(dp2466
g12
g26
sbag1
(g6
g7
S'1020877997'
p2467
tp2468
Rp2469
(dp2470
g12
g26
sbag1
(g6
g7
S'1020877995'
p2471
tp2472
Rp2473
(dp2474
g12
g26
sbag1
(g6
g7
S'1020877993'
p2475
tp2476
Rp2477
(dp2478
g12
g26
sbag1
(g6
g7
S'1020877991'
p2479
tp2480
Rp2481
(dp2482
g12
g26
sbag1
(g6
g7
S'1020877989'
p2483
tp2484
Rp2485
(dp2486
g12
g26
sbag1
(g6
g7
S'1020877987'
p2487
tp2488
Rp2489
(dp2490
g12
g26
sbag1
(g6
g7
S'1020877985'
p2491
tp2492
Rp2493
(dp2494
g12
g26
sbag1
(g6
g7
S'1020877983'
p2495
tp2496
Rp2497
(dp2498
g12
g26
sbag1
(g6
g7
S'1020877981'
p2499
tp2500
Rp2501
(dp2502
g12
g26
sbag1
(g6
g7
S'1020877979'
p2503
tp2504
Rp2505
(dp2506
g12
g26
sbag1
(g6
g7
S'1020877977'
p2507
tp2508
Rp2509
(dp2510
g12
g26
sbag1
(g6
g7
S'1020877975'
p2511
tp2512
Rp2513
(dp2514
g12
g26
sbag1
(g6
g7
S'1020877973'
p2515
tp2516
Rp2517
(dp2518
g12
g26
sbag1
(g6
g7
S'1020877971'
p2519
tp2520
Rp2521
(dp2522
g12
g26
sbag1
(g6
g7
S'1020877969'
p2523
tp2524
Rp2525
(dp2526
g12
g26
sbag1
(g6
g7
S'1020877967'
p2527
tp2528
Rp2529
(dp2530
g12
g26
sbag1
(g6
g7
S'1020877965'
p2531
tp2532
Rp2533
(dp2534
g12
g26
sbag1
(g6
g7
S'1020877963'
p2535
tp2536
Rp2537
(dp2538
g12
g26
sbag1
(g6
g7
S'1020877961'
p2539
tp2540
Rp2541
(dp2542
g12
g26
sbag1
(g6
g7
S'1020877959'
p2543
tp2544
Rp2545
(dp2546
g12
g26
sbag1
(g6
g7
S'1018444388'
p2547
tp2548
Rp2549
(dp2550
g12
g26
sbag1
(g6
g7
S'1002677601'
p2551
tp2552
Rp2553
(dp2554
g12
g26
sbag1
(g6
g7
S'1002677600'
p2555
tp2556
Rp2557
(dp2558
g12
g26
sbag1
(g6
g7
S'1002677599'
p2559
tp2560
Rp2561
(dp2562
g12
g26
sbag1
(g6
g7
S'980976893'
p2563
tp2564
Rp2565
(dp2566
g12
g26
sbag1
(g6
g7
S'980976890'
p2567
tp2568
Rp2569
(dp2570
g12
g26
sbag1
(g6
g7
S'980976884'
p2571
tp2572
Rp2573
(dp2574
g12
g26
sbag1
(g6
g7
S'980976877'
p2575
tp2576
Rp2577
(dp2578
g12
g26
sbag1
(g6
g7
S'980976865'
p2579
tp2580
Rp2581
(dp2582
g12
g26
sbag1
(g6
g7
S'980976861'
p2583
tp2584
Rp2585
(dp2586
g12
g26
sbag1
(g6
g7
S'980976857'
p2587
tp2588
Rp2589
(dp2590
g12
g26
sbag1
(g6
g7
S'980976850'
p2591
tp2592
Rp2593
(dp2594
g12
g26
sbag1
(g6
g7
S'980976842'
p2595
tp2596
Rp2597
(dp2598
g12
g26
sbag1
(g6
g7
S'980976838'
p2599
tp2600
Rp2601
(dp2602
g12
g26
sbag1
(g6
g7
S'980976834'
p2603
tp2604
Rp2605
(dp2606
g12
g26
sbag1
(g6
g7
S'980976827'
p2607
tp2608
Rp2609
(dp2610
g12
g26
sbag1
(g6
g7
S'923479828'
p2611
tp2612
Rp2613
(dp2614
g12
g26
sbag1
(g6
g7
S'584483912'
p2615
tp2616
Rp2617
(dp2618
g12
g26
sbag1
(g6
g7
S'584483910'
p2619
tp2620
Rp2621
(dp2622
g12
g26
sbag1
(g6
g7
S'584483908'
p2623
tp2624
Rp2625
(dp2626
g12
g26
sbag1
(g6
g7
S'584483906'
p2627
tp2628
Rp2629
(dp2630
g12
g26
sbag1
(g6
g7
S'584483904'
p2631
tp2632
Rp2633
(dp2634
g12
g26
sbag1
(g6
g7
S'584483902'
p2635
tp2636
Rp2637
(dp2638
g12
g26
sbag1
(g6
g7
S'584483900'
p2639
tp2640
Rp2641
(dp2642
g12
g26
sbag1
(g6
g7
S'584483898'
p2643
tp2644
Rp2645
(dp2646
g12
g26
sbag1
(g6
g7
S'584483896'
p2647
tp2648
Rp2649
(dp2650
g12
g26
sbag1
(g6
g7
S'584483894'
p2651
tp2652
Rp2653
(dp2654
g12
g26
sbag1
(g6
g7
S'584483892'
p2655
tp2656
Rp2657
(dp2658
g12
g26
sbag1
(g6
g7
S'584483890'
p2659
tp2660
Rp2661
(dp2662
g12
g26
sbag1
(g6
g7
S'584483888'
p2663
tp2664
Rp2665
(dp2666
g12
g26
sbag1
(g6
g7
S'584483886'
p2667
tp2668
Rp2669
(dp2670
g12
g26
sbag1
(g6
g7
S'584483884'
p2671
tp2672
Rp2673
(dp2674
g12
g26
sbag1
(g6
g7
S'584483882'
p2675
tp2676
Rp2677
(dp2678
g12
g26
sbag1
(g6
g7
S'584483880'
p2679
tp2680
Rp2681
(dp2682
g12
g26
sbag1
(g6
g7
S'584483878'
p2683
tp2684
Rp2685
(dp2686
g12
g26
sbag1
(g6
g7
S'584483876'
p2687
tp2688
Rp2689
(dp2690
g12
g26
sbag1
(g6
g7
S'584483874'
p2691
tp2692
Rp2693
(dp2694
g12
g26
sbag1
(g6
g7
S'584483872'
p2695
tp2696
Rp2697
(dp2698
g12
g26
sbag1
(g6
g7
S'584483870'
p2699
tp2700
Rp2701
(dp2702
g12
g26
sbag1
(g6
g7
S'584483868'
p2703
tp2704
Rp2705
(dp2706
g12
g26
sbag1
(g6
g7
S'584483866'
p2707
tp2708
Rp2709
(dp2710
g12
g26
sbag1
(g6
g7
S'966557878'
p2711
tp2712
Rp2713
(dp2714
g12
g26
sbag1
(g6
g7
S'959478886'
p2715
tp2716
Rp2717
(dp2718
g12
g26
sbag1
(g6
g7
S'959315937'
p2719
tp2720
Rp2721
(dp2722
g12
g26
sbag1
(g6
g7
S'816377323'
p2723
tp2724
Rp2725
(dp2726
g12
g26
sbag1
(g6
g7
S'816377189'
p2727
tp2728
Rp2729
(dp2730
g12
g26
sbag1
(g6
g7
S'816376919'
p2731
tp2732
Rp2733
(dp2734
g12
g26
sbag1
(g6
g7
S'816376819'
p2735
tp2736
Rp2737
(dp2738
g12
g26
sbag1
(g6
g7
S'816376679'
p2739
tp2740
Rp2741
(dp2742
g12
g26
sbag1
(g6
g7
S'816376649'
p2743
tp2744
Rp2745
(dp2746
g12
g26
sbag1
(g6
g7
S'816376617'
p2747
tp2748
Rp2749
(dp2750
g12
g26
sbag1
(g6
g7
S'816376513'
p2751
tp2752
Rp2753
(dp2754
g12
g26
sbag1
(g6
g7
S'816376455'
p2755
tp2756
Rp2757
(dp2758
g12
g26
sbag1
(g6
g7
S'816376321'
p2759
tp2760
Rp2761
(dp2762
g12
g26
sbag1
(g6
g7
S'816376313'
p2763
tp2764
Rp2765
(dp2766
g12
g26
sbag1
(g6
g7
S'816376275'
p2767
tp2768
Rp2769
(dp2770
g12
g26
sbag1
(g6
g7
S'816376273'
p2771
tp2772
Rp2773
(dp2774
g12
g26
sbag1
(g6
g7
S'816376191'
p2775
tp2776
Rp2777
(dp2778
g12
g26
sbag1
(g6
g7
S'816375921'
p2779
tp2780
Rp2781
(dp2782
g12
g26
sbag1
(g6
g7
S'816375899'
p2783
tp2784
Rp2785
(dp2786
g12
g26
sbag1
(g6
g7
S'816375875'
p2787
tp2788
Rp2789
(dp2790
g12
g26
sbag1
(g6
g7
S'816375769'
p2791
tp2792
Rp2793
(dp2794
g12
g26
sbag1
(g6
g7
S'816375747'
p2795
tp2796
Rp2797
(dp2798
g12
g26
sbag1
(g6
g7
S'816375739'
p2799
tp2800
Rp2801
(dp2802
g12
g26
sbag1
(g6
g7
S'816375669'
p2803
tp2804
Rp2805
(dp2806
g12
g26
sbag1
(g6
g7
S'816375623'
p2807
tp2808
Rp2809
(dp2810
g12
g26
sbag1
(g6
g7
S'918768411'
p2811
tp2812
Rp2813
(dp2814
g12
g26
sbag1
(g6
g7
S'918768409'
p2815
tp2816
Rp2817
(dp2818
g12
g26
sbag1
(g6
g7
S'918768407'
p2819
tp2820
Rp2821
(dp2822
g12
g26
sbag1
(g6
g7
S'918768405'
p2823
tp2824
Rp2825
(dp2826
g12
g26
sbag1
(g6
g7
S'912499383'
p2827
tp2828
Rp2829
(dp2830
g12
g26
sbag1
(g6
g7
S'912499381'
p2831
tp2832
Rp2833
(dp2834
g12
g26
sbag1
(g6
g7
S'912499379'
p2835
tp2836
Rp2837
(dp2838
g12
g26
sbag1
(g6
g7
S'912499377'
p2839
tp2840
Rp2841
(dp2842
g12
g26
sbag1
(g6
g7
S'912499375'
p2843
tp2844
Rp2845
(dp2846
g12
g26
sbag1
(g6
g7
S'912499321'
p2847
tp2848
Rp2849
(dp2850
g12
g26
sbag1
(g6
g7
S'912499319'
p2851
tp2852
Rp2853
(dp2854
g12
g26
sbag1
(g6
g7
S'755322470'
p2855
tp2856
Rp2857
(dp2858
g12
g26
sbag1
(g6
g7
S'755322468'
p2859
tp2860
Rp2861
(dp2862
g12
g26
sbag1
(g6
g7
S'755322466'
p2863
tp2864
Rp2865
(dp2866
g12
g26
sbag1
(g6
g7
S'755322464'
p2867
tp2868
Rp2869
(dp2870
g12
g26
sbag1
(g6
g7
S'657306628'
p2871
tp2872
Rp2873
(dp2874
g12
g26
sbag1
(g6
g7
S'657306604'
p2875
tp2876
Rp2877
(dp2878
g12
g26
sbag1
(g6
g7
S'657306602'
p2879
tp2880
Rp2881
(dp2882
g12
g26
sbag1
(g6
g7
S'807197911'
p2883
tp2884
Rp2885
(dp2886
g12
g26
sbag1
(g6
g7
S'807197880'
p2887
tp2888
Rp2889
(dp2890
g12
g26
sbag1
(g6
g7
S'807197868'
p2891
tp2892
Rp2893
(dp2894
g12
g26
sbag1
(g6
g7
S'807197867'
p2895
tp2896
Rp2897
(dp2898
g12
g26
sbag1
(g6
g7
S'807197854'
p2899
tp2900
Rp2901
(dp2902
g12
g26
sbag1
(g6
g7
S'662357712'
p2903
tp2904
Rp2905
(dp2906
g12
g26
sbag1
(g6
g7
S'662357710'
p2907
tp2908
Rp2909
(dp2910
g12
g26
sbag1
(g6
g7
S'662357708'
p2911
tp2912
Rp2913
(dp2914
g12
g26
sbag1
(g6
g7
S'662357706'
p2915
tp2916
Rp2917
(dp2918
g12
g26
sbag1
(g6
g7
S'662357704'
p2919
tp2920
Rp2921
(dp2922
g12
g26
sbag1
(g6
g7
S'662357702'
p2923
tp2924
Rp2925
(dp2926
g12
g26
sbag1
(g6
g7
S'662357700'
p2927
tp2928
Rp2929
(dp2930
g12
g26
sbag1
(g6
g7
S'662357698'
p2931
tp2932
Rp2933
(dp2934
g12
g26
sbag1
(g6
g7
S'662357696'
p2935
tp2936
Rp2937
(dp2938
g12
g26
sbag1
(g6
g7
S'662357694'
p2939
tp2940
Rp2941
(dp2942
g12
g26
sbag1
(g6
g7
S'662357692'
p2943
tp2944
Rp2945
(dp2946
g12
g26
sbag1
(g6
g7
S'662357690'
p2947
tp2948
Rp2949
(dp2950
g12
g26
sbag1
(g6
g7
S'662357688'
p2951
tp2952
Rp2953
(dp2954
g12
g26
sbag1
(g6
g7
S'662357686'
p2955
tp2956
Rp2957
(dp2958
g12
g26
sbag1
(g6
g7
S'662357684'
p2959
tp2960
Rp2961
(dp2962
g12
g26
sbag1
(g6
g7
S'662357682'
p2963
tp2964
Rp2965
(dp2966
g12
g26
sbag1
(g6
g7
S'662357680'
p2967
tp2968
Rp2969
(dp2970
g12
g26
sbag1
(g6
g7
S'662357678'
p2971
tp2972
Rp2973
(dp2974
g12
g26
sbag1
(g6
g7
S'662357676'
p2975
tp2976
Rp2977
(dp2978
g12
g26
sbag1
(g6
g7
S'662357674'
p2979
tp2980
Rp2981
(dp2982
g12
g26
sbag1
(g6
g7
S'662357672'
p2983
tp2984
Rp2985
(dp2986
g12
g26
sbag1
(g6
g7
S'662357670'
p2987
tp2988
Rp2989
(dp2990
g12
g26
sbag1
(g6
g7
S'662357668'
p2991
tp2992
Rp2993
(dp2994
g12
g26
sbag1
(g6
g7
S'662357666'
p2995
tp2996
Rp2997
(dp2998
g12
g26
sbag1
(g6
g7
S'628820474'
p2999
tp3000
Rp3001
(dp3002
g12
g26
sbag1
(g6
g7
S'628820472'
p3003
tp3004
Rp3005
(dp3006
g12
g26
sbag1
(g6
g7
S'628820443'
p3007
tp3008
Rp3009
(dp3010
g12
g26
sbag1
(g6
g7
S'628820441'
p3011
tp3012
Rp3013
(dp3014
g12
g26
sbag1
(g6
g7
S'628820439'
p3015
tp3016
Rp3017
(dp3018
g12
g26
sbag1
(g6
g7
S'628820437'
p3019
tp3020
Rp3021
(dp3022
g12
g26
sbag1
(g6
g7
S'628820435'
p3023
tp3024
Rp3025
(dp3026
g12
g26
sbag1
(g6
g7
S'628820433'
p3027
tp3028
Rp3029
(dp3030
g12
g26
sbag1
(g6
g7
S'628820431'
p3031
tp3032
Rp3033
(dp3034
g12
g26
sbag1
(g6
g7
S'584483843'
p3035
tp3036
Rp3037
(dp3038
g12
g26
sbag1
(g6
g7
S'584483841'
p3039
tp3040
Rp3041
(dp3042
g12
g26
sbag1
(g6
g7
S'584483839'
p3043
tp3044
Rp3045
(dp3046
g12
g26
sbag1
(g6
g7
S'584483837'
p3047
tp3048
Rp3049
(dp3050
g12
g26
sbag1
(g6
g7
S'584483835'
p3051
tp3052
Rp3053
(dp3054
g12
g26
sbag1
(g6
g7
S'584483833'
p3055
tp3056
Rp3057
(dp3058
g12
g26
sbag1
(g6
g7
S'584483831'
p3059
tp3060
Rp3061
(dp3062
g12
g26
sbag1
(g6
g7
S'584483829'
p3063
tp3064
Rp3065
(dp3066
g12
g26
sbag1
(g6
g7
S'584483827'
p3067
tp3068
Rp3069
(dp3070
g12
g26
sbag1
(g6
g7
S'584483825'
p3071
tp3072
Rp3073
(dp3074
g12
g26
sbag1
(g6
g7
S'584483823'
p3075
tp3076
Rp3077
(dp3078
g12
g26
sbag1
(g6
g7
S'584483821'
p3079
tp3080
Rp3081
(dp3082
g12
g26
sbag1
(g6
g7
S'584483819'
p3083
tp3084
Rp3085
(dp3086
g12
g26
sbag1
(g6
g7
S'584483817'
p3087
tp3088
Rp3089
(dp3090
g12
g26
sbag1
(g6
g7
S'584483815'
p3091
tp3092
Rp3093
(dp3094
g12
g26
sbag1
(g6
g7
S'584483813'
p3095
tp3096
Rp3097
(dp3098
g12
g26
sbag1
(g6
g7
S'584483811'
p3099
tp3100
Rp3101
(dp3102
g12
g26
sbag1
(g6
g7
S'584483809'
p3103
tp3104
Rp3105
(dp3106
g12
g26
sbag1
(g6
g7
S'584483807'
p3107
tp3108
Rp3109
(dp3110
g12
g26
sbag1
(g6
g7
S'584483805'
p3111
tp3112
Rp3113
(dp3114
g12
g26
sbag1
(g6
g7
S'584483803'
p3115
tp3116
Rp3117
(dp3118
g12
g26
sbag1
(g6
g7
S'584483801'
p3119
tp3120
Rp3121
(dp3122
g12
g26
sbag1
(g6
g7
S'584483799'
p3123
tp3124
Rp3125
(dp3126
g12
g26
sbag1
(g6
g7
S'584483797'
p3127
tp3128
Rp3129
(dp3130
g12
g26
sbag1
(g6
g7
S'584483795'
p3131
tp3132
Rp3133
(dp3134
g12
g26
sbag1
(g6
g7
S'584483793'
p3135
tp3136
Rp3137
(dp3138
g12
g26
sbag1
(g6
g7
S'584483791'
p3139
tp3140
Rp3141
(dp3142
g12
g26
sbag1
(g6
g7
S'584483789'
p3143
tp3144
Rp3145
(dp3146
g12
g26
sbag1
(g6
g7
S'584483787'
p3147
tp3148
Rp3149
(dp3150
g12
g26
sbag1
(g6
g7
S'584483785'
p3151
tp3152
Rp3153
(dp3154
g12
g26
sbag1
(g6
g7
S'584483783'
p3155
tp3156
Rp3157
(dp3158
g12
g26
sbag1
(g6
g7
S'584483781'
p3159
tp3160
Rp3161
(dp3162
g12
g26
sbag1
(g6
g7
S'584483779'
p3163
tp3164
Rp3165
(dp3166
g12
g26
sbag1
(g6
g7
S'584483777'
p3167
tp3168
Rp3169
(dp3170
g12
g26
sbag1
(g6
g7
S'584483775'
p3171
tp3172
Rp3173
(dp3174
g12
g26
sbag1
(g6
g7
S'584483773'
p3175
tp3176
Rp3177
(dp3178
g12
g26
sbag1
(g6
g7
S'584483771'
p3179
tp3180
Rp3181
(dp3182
g12
g26
sbag1
(g6
g7
S'584483769'
p3183
tp3184
Rp3185
(dp3186
g12
g26
sbag1
(g6
g7
S'584483767'
p3187
tp3188
Rp3189
(dp3190
g12
g26
sbag1
(g6
g7
S'584483765'
p3191
tp3192
Rp3193
(dp3194
g12
g26
sbag1
(g6
g7
S'584483763'
p3195
tp3196
Rp3197
(dp3198
g12
g26
sbag1
(g6
g7
S'584483761'
p3199
tp3200
Rp3201
(dp3202
g12
g26
sbag1
(g6
g7
S'584483759'
p3203
tp3204
Rp3205
(dp3206
g12
g26
sbag1
(g6
g7
S'584483757'
p3207
tp3208
Rp3209
(dp3210
g12
g26
sbag1
(g6
g7
S'584483755'
p3211
tp3212
Rp3213
(dp3214
g12
g26
sbag1
(g6
g7
S'584483753'
p3215
tp3216
Rp3217
(dp3218
g12
g26
sbag1
(g6
g7
S'584483751'
p3219
tp3220
Rp3221
(dp3222
g12
g26
sbag1
(g6
g7
S'584483749'
p3223
tp3224
Rp3225
(dp3226
g12
g26
sbag1
(g6
g7
S'584483747'
p3227
tp3228
Rp3229
(dp3230
g12
g26
sbag1
(g6
g7
S'584483745'
p3231
tp3232
Rp3233
(dp3234
g12
g26
sbag1
(g6
g7
S'584483743'
p3235
tp3236
Rp3237
(dp3238
g12
g26
sbag1
(g6
g7
S'584483741'
p3239
tp3240
Rp3241
(dp3242
g12
g26
sbag1
(g6
g7
S'584483739'
p3243
tp3244
Rp3245
(dp3246
g12
g26
sbag1
(g6
g7
S'584483737'
p3247
tp3248
Rp3249
(dp3250
g12
g26
sbag1
(g6
g7
S'584483735'
p3251
tp3252
Rp3253
(dp3254
g12
g26
sbag1
(g6
g7
S'584483733'
p3255
tp3256
Rp3257
(dp3258
g12
g26
sbag1
(g6
g7
S'584483731'
p3259
tp3260
Rp3261
(dp3262
g12
g26
sbag1
(g6
g7
S'584483729'
p3263
tp3264
Rp3265
(dp3266
g12
g26
sbag1
(g6
g7
S'584483727'
p3267
tp3268
Rp3269
(dp3270
g12
g26
sbag1
(g6
g7
S'584483725'
p3271
tp3272
Rp3273
(dp3274
g12
g26
sbag1
(g6
g7
S'584483723'
p3275
tp3276
Rp3277
(dp3278
g12
g26
sbag1
(g6
g7
S'584483721'
p3279
tp3280
Rp3281
(dp3282
g12
g26
sbag1
(g6
g7
S'584483719'
p3283
tp3284
Rp3285
(dp3286
g12
g26
sbag1
(g6
g7
S'584483717'
p3287
tp3288
Rp3289
(dp3290
g12
g26
sbag1
(g6
g7
S'584483715'
p3291
tp3292
Rp3293
(dp3294
g12
g26
sbag1
(g6
g7
S'584483713'
p3295
tp3296
Rp3297
(dp3298
g12
g26
sbag1
(g6
g7
S'584483711'
p3299
tp3300
Rp3301
(dp3302
g12
g26
sbag1
(g6
g7
S'584483709'
p3303
tp3304
Rp3305
(dp3306
g12
g26
sbag1
(g6
g7
S'584483707'
p3307
tp3308
Rp3309
(dp3310
g12
g26
sbag1
(g6
g7
S'584483705'
p3311
tp3312
Rp3313
(dp3314
g12
g26
sbag1
(g6
g7
S'584483703'
p3315
tp3316
Rp3317
(dp3318
g12
g26
sbag1
(g6
g7
S'584483701'
p3319
tp3320
Rp3321
(dp3322
g12
g26
sbag1
(g6
g7
S'584483699'
p3323
tp3324
Rp3325
(dp3326
g12
g26
sbag1
(g6
g7
S'584483697'
p3327
tp3328
Rp3329
(dp3330
g12
g26
sbag1
(g6
g7
S'584483695'
p3331
tp3332
Rp3333
(dp3334
g12
g26
sbag1
(g6
g7
S'584483693'
p3335
tp3336
Rp3337
(dp3338
g12
g26
sbag1
(g6
g7
S'584483691'
p3339
tp3340
Rp3341
(dp3342
g12
g26
sbag1
(g6
g7
S'584483689'
p3343
tp3344
Rp3345
(dp3346
g12
g26
sbag1
(g6
g7
S'584483687'
p3347
tp3348
Rp3349
(dp3350
g12
g26
sbag1
(g6
g7
S'584483685'
p3351
tp3352
Rp3353
(dp3354
g12
g26
sbag1
(g6
g7
S'584483683'
p3355
tp3356
Rp3357
(dp3358
g12
g26
sbag1
(g6
g7
S'584483681'
p3359
tp3360
Rp3361
(dp3362
g12
g26
sbag1
(g6
g7
S'584483679'
p3363
tp3364
Rp3365
(dp3366
g12
g26
sbag1
(g6
g7
S'584483677'
p3367
tp3368
Rp3369
(dp3370
g12
g26
sbag1
(g6
g7
S'584483675'
p3371
tp3372
Rp3373
(dp3374
g12
g26
sbag1
(g6
g7
S'584483673'
p3375
tp3376
Rp3377
(dp3378
g12
g26
sbag1
(g6
g7
S'584483671'
p3379
tp3380
Rp3381
(dp3382
g12
g26
sbag1
(g6
g7
S'584483669'
p3383
tp3384
Rp3385
(dp3386
g12
g26
sbag1
(g6
g7
S'584483667'
p3387
tp3388
Rp3389
(dp3390
g12
g26
sbag1
(g6
g7
S'584483665'
p3391
tp3392
Rp3393
(dp3394
g12
g26
sbag1
(g6
g7
S'584483663'
p3395
tp3396
Rp3397
(dp3398
g12
g26
sbag1
(g6
g7
S'584483661'
p3399
tp3400
Rp3401
(dp3402
g12
g26
sbag1
(g6
g7
S'584483659'
p3403
tp3404
Rp3405
(dp3406
g12
g26
sbag1
(g6
g7
S'584483657'
p3407
tp3408
Rp3409
(dp3410
g12
g26
sbag1
(g6
g7
S'584483655'
p3411
tp3412
Rp3413
(dp3414
g12
g26
sbag1
(g6
g7
S'584483653'
p3415
tp3416
Rp3417
(dp3418
g12
g26
sbag1
(g6
g7
S'584483651'
p3419
tp3420
Rp3421
(dp3422
g12
g26
sbag1
(g6
g7
S'584483649'
p3423
tp3424
Rp3425
(dp3426
g12
g26
sbag1
(g6
g7
S'584483647'
p3427
tp3428
Rp3429
(dp3430
g12
g26
sbag1
(g6
g7
S'584483645'
p3431
tp3432
Rp3433
(dp3434
g12
g26
sbag1
(g6
g7
S'584483643'
p3435
tp3436
Rp3437
(dp3438
g12
g26
sbag1
(g6
g7
S'584483641'
p3439
tp3440
Rp3441
(dp3442
g12
g26
sbag1
(g6
g7
S'584483639'
p3443
tp3444
Rp3445
(dp3446
g12
g26
sbag1
(g6
g7
S'584483637'
p3447
tp3448
Rp3449
(dp3450
g12
g26
sbag1
(g6
g7
S'584483635'
p3451
tp3452
Rp3453
(dp3454
g12
g26
sbag1
(g6
g7
S'584483633'
p3455
tp3456
Rp3457
(dp3458
g12
g26
sbag1
(g6
g7
S'584483631'
p3459
tp3460
Rp3461
(dp3462
g12
g26
sbag1
(g6
g7
S'584483629'
p3463
tp3464
Rp3465
(dp3466
g12
g26
sbag1
(g6
g7
S'584483627'
p3467
tp3468
Rp3469
(dp3470
g12
g26
sbag1
(g6
g7
S'584483625'
p3471
tp3472
Rp3473
(dp3474
g12
g26
sbag1
(g6
g7
S'584483623'
p3475
tp3476
Rp3477
(dp3478
g12
g26
sbag1
(g6
g7
S'584483621'
p3479
tp3480
Rp3481
(dp3482
g12
g26
sbag1
(g6
g7
S'584483619'
p3483
tp3484
Rp3485
(dp3486
g12
g26
sbag1
(g6
g7
S'584483617'
p3487
tp3488
Rp3489
(dp3490
g12
g26
sbag1
(g6
g7
S'584483615'
p3491
tp3492
Rp3493
(dp3494
g12
g26
sbag1
(g6
g7
S'584483613'
p3495
tp3496
Rp3497
(dp3498
g12
g26
sbag1
(g6
g7
S'584483611'
p3499
tp3500
Rp3501
(dp3502
g12
g26
sbag1
(g6
g7
S'584483609'
p3503
tp3504
Rp3505
(dp3506
g12
g26
sbag1
(g6
g7
S'650086652'
p3507
tp3508
Rp3509
(dp3510
g12
g26
sbag1
(g6
g7
S'580961947'
p3511
tp3512
Rp3513
(dp3514
g12
g26
sbag1
(g6
g7
S'592747536'
p3515
tp3516
Rp3517
(dp3518
g12
g26
sbag1
(g6
g7
S'592747534'
p3519
tp3520
Rp3521
(dp3522
g12
g26
sbag1
(g6
g7
S'628819206'
p3523
tp3524
Rp3525
(dp3526
g12
g26
sbag1
(g6
g7
S'628819204'
p3527
tp3528
Rp3529
(dp3530
g12
g26
sbag1
(g6
g7
S'628819179'
p3531
tp3532
Rp3533
(dp3534
g12
g26
sbag1
(g6
g7
S'573464322'
p3535
tp3536
Rp3537
(dp3538
g12
g26
sbag1
(g6
g7
S'573464264'
p3539
tp3540
Rp3541
(dp3542
g12
g26
sbag1
(g6
g7
S'573464262'
p3543
tp3544
Rp3545
(dp3546
g12
g26
sbag1
(g6
g7
S'573464261'
p3547
tp3548
Rp3549
(dp3550
g12
g26
sbag1
(g6
g7
S'573464259'
p3551
tp3552
Rp3553
(dp3554
g12
g26
sbag1
(g6
g7
S'573464258'
p3555
tp3556
Rp3557
(dp3558
g12
g26
sbag1
(g6
g7
S'573464257'
p3559
tp3560
Rp3561
(dp3562
g12
g26
sbag1
(g6
g7
S'573464255'
p3563
tp3564
Rp3565
(dp3566
g12
g26
sbag1
(g6
g7
S'573464253'
p3567
tp3568
Rp3569
(dp3570
g12
g26
sbag1
(g6
g7
S'573464251'
p3571
tp3572
Rp3573
(dp3574
g12
g26
sbag1
(g6
g7
S'573464249'
p3575
tp3576
Rp3577
(dp3578
g12
g26
sbag1
(g6
g7
S'573464247'
p3579
tp3580
Rp3581
(dp3582
g12
g26
sbag1
(g6
g7
S'554792265'
p3583
tp3584
Rp3585
(dp3586
g12
g26
sbag1
(g6
g7
S'554792263'
p3587
tp3588
Rp3589
(dp3590
g12
g26
sbag1
(g6
g7
S'554792165'
p3591
tp3592
Rp3593
(dp3594
g12
g26
sbag1
(g6
g7
S'554792163'
p3595
tp3596
Rp3597
(dp3598
g12
g26
sbag1
(g6
g7
S'554792161'
p3599
tp3600
Rp3601
(dp3602
g12
g26
sbag1
(g6
g7
S'554792071'
p3603
tp3604
Rp3605
(dp3606
g12
g26
sbag1
(g6
g7
S'554792069'
p3607
tp3608
Rp3609
(dp3610
g12
g26
sbag1
(g6
g7
S'554792067'
p3611
tp3612
Rp3613
(dp3614
g12
g26
sbag1
(g6
g7
S'554791997'
p3615
tp3616
Rp3617
(dp3618
g12
g26
sbag1
(g6
g7
S'554791971'
p3619
tp3620
Rp3621
(dp3622
g12
g26
sbag1
(g6
g7
S'554791969'
p3623
tp3624
Rp3625
(dp3626
g12
g26
sbag1
(g6
g7
S'554791967'
p3627
tp3628
Rp3629
(dp3630
g12
g26
sbag1
(g6
g7
S'554791931'
p3631
tp3632
Rp3633
(dp3634
g12
g26
sbag1
(g6
g7
S'554791929'
p3635
tp3636
Rp3637
(dp3638
g12
g26
sbag1
(g6
g7
S'554791927'
p3639
tp3640
Rp3641
(dp3642
g12
g26
sbag1
(g6
g7
S'554791817'
p3643
tp3644
Rp3645
(dp3646
g12
g26
sbag1
(g6
g7
S'554791815'
p3647
tp3648
Rp3649
(dp3650
g12
g26
sbag1
(g6
g7
S'554791813'
p3651
tp3652
Rp3653
(dp3654
g12
g26
sbag1
(g6
g7
S'554791811'
p3655
tp3656
Rp3657
(dp3658
g12
g26
sbag1
(g6
g7
S'554791771'
p3659
tp3660
Rp3661
(dp3662
g12
g26
sbag1
(g6
g7
S'554791769'
p3663
tp3664
Rp3665
(dp3666
g12
g26
sbag1
(g6
g7
S'667699134'
p3667
tp3668
Rp3669
(dp3670
g12
g26
sbag1
(g6
g7
S'667699132'
p3671
tp3672
Rp3673
(dp3674
g12
g26
sbag1
(g6
g7
S'666877856'
p3675
tp3676
Rp3677
(dp3678
g12
g26
sbag1
(g6
g7
S'666877764'
p3679
tp3680
Rp3681
(dp3682
g12
g26
sbag1
(g6
g7
S'666877762'
p3683
tp3684
Rp3685
(dp3686
g12
g26
sbag1
(g6
g7
S'666877760'
p3687
tp3688
Rp3689
(dp3690
g12
g26
sbag1
(g6
g7
S'666877758'
p3691
tp3692
Rp3693
(dp3694
g12
g26
sbag1
(g6
g7
S'666877756'
p3695
tp3696
Rp3697
(dp3698
g12
g26
sbag1
(g6
g7
S'666877754'
p3699
tp3700
Rp3701
(dp3702
g12
g26
sbag1
(g6
g7
S'554521412'
p3703
tp3704
Rp3705
(dp3706
g12
g26
sbag1
(g6
g7
S'554521410'
p3707
tp3708
Rp3709
(dp3710
g12
g26
sbag1
(g6
g7
S'554521372'
p3711
tp3712
Rp3713
(dp3714
g12
g26
sbag1
(g6
g7
S'554521356'
p3715
tp3716
Rp3717
(dp3718
g12
g26
sbag1
(g6
g7
S'554521354'
p3719
tp3720
Rp3721
(dp3722
g12
g26
sbag1
(g6
g7
S'554521352'
p3723
tp3724
Rp3725
(dp3726
g12
g26
sbag1
(g6
g7
S'554521350'
p3727
tp3728
Rp3729
(dp3730
g12
g26
sbag1
(g6
g7
S'554521348'
p3731
tp3732
Rp3733
(dp3734
g12
g26
sbag1
(g6
g7
S'554521346'
p3735
tp3736
Rp3737
(dp3738
g12
g26
sbag1
(g6
g7
S'554521344'
p3739
tp3740
Rp3741
(dp3742
g12
g26
sbag1
(g6
g7
S'557955576'
p3743
tp3744
Rp3745
(dp3746
g12
g26
sbag1
(g6
g7
S'557955574'
p3747
tp3748
Rp3749
(dp3750
g12
g26
sbag1
(g6
g7
S'557955568'
p3751
tp3752
Rp3753
(dp3754
g12
g26
sbag1
(g6
g7
S'557955566'
p3755
tp3756
Rp3757
(dp3758
g12
g26
sbag1
(g6
g7
S'557955516'
p3759
tp3760
Rp3761
(dp3762
g12
g26
sbag1
(g6
g7
S'557955514'
p3763
tp3764
Rp3765
(dp3766
g12
g26
sbag1
(g6
g7
S'557955512'
p3767
tp3768
Rp3769
(dp3770
g12
g26
sbag1
(g6
g7
S'557955510'
p3771
tp3772
Rp3773
(dp3774
g12
g26
sbag1
(g6
g7
S'557955508'
p3775
tp3776
Rp3777
(dp3778
g12
g26
sbag1
(g6
g7
S'557955506'
p3779
tp3780
Rp3781
(dp3782
g12
g26
sbag1
(g6
g7
S'557955504'
p3783
tp3784
Rp3785
(dp3786
g12
g26
sbag1
(g6
g7
S'557955502'
p3787
tp3788
Rp3789
(dp3790
g12
g26
sbag1
(g6
g7
S'557955500'
p3791
tp3792
Rp3793
(dp3794
g12
g26
sbag1
(g6
g7
S'557955498'
p3795
tp3796
Rp3797
(dp3798
g12
g26
sbag1
(g6
g7
S'557955496'
p3799
tp3800
Rp3801
(dp3802
g12
g26
sbag1
(g6
g7
S'557955494'
p3803
tp3804
Rp3805
(dp3806
g12
g26
sbag1
(g6
g7
S'557955492'
p3807
tp3808
Rp3809
(dp3810
g12
g26
sbag1
(g6
g7
S'557955490'
p3811
tp3812
Rp3813
(dp3814
g12
g26
sbag1
(g6
g7
S'557955488'
p3815
tp3816
Rp3817
(dp3818
g12
g26
sbag1
(g6
g7
S'557955486'
p3819
tp3820
Rp3821
(dp3822
g12
g26
sbag1
(g6
g7
S'557955484'
p3823
tp3824
Rp3825
(dp3826
g12
g26
sbag1
(g6
g7
S'557955482'
p3827
tp3828
Rp3829
(dp3830
g12
g26
sbag1
(g6
g7
S'557955408'
p3831
tp3832
Rp3833
(dp3834
g12
g26
sbag1
(g6
g7
S'557955406'
p3835
tp3836
Rp3837
(dp3838
g12
g26
sbag1
(g6
g7
S'557955402'
p3839
tp3840
Rp3841
(dp3842
g12
g26
sbag1
(g6
g7
S'557955400'
p3843
tp3844
Rp3845
(dp3846
g12
g26
sbag1
(g6
g7
S'557955398'
p3847
tp3848
Rp3849
(dp3850
g12
g26
sbag1
(g6
g7
S'531992210'
p3851
tp3852
Rp3853
(dp3854
g12
g26
sbag1
(g6
g7
S'531992208'
p3855
tp3856
Rp3857
(dp3858
g12
g26
sbag1
(g6
g7
S'531992187'
p3859
tp3860
Rp3861
(dp3862
g12
g26
sbag1
(g6
g7
S'531992185'
p3863
tp3864
Rp3865
(dp3866
g12
g26
sbag1
(g6
g7
S'531992183'
p3867
tp3868
Rp3869
(dp3870
g12
g26
sbag1
(g6
g7
S'531992181'
p3871
tp3872
Rp3873
(dp3874
g12
g26
sbag1
(g6
g7
S'531992179'
p3875
tp3876
Rp3877
(dp3878
g12
g26
sbag1
(g6
g7
S'531992177'
p3879
tp3880
Rp3881
(dp3882
g12
g26
sbag1
(g6
g7
S'531992119'
p3883
tp3884
Rp3885
(dp3886
g12
g26
sbag1
(g6
g7
S'531992117'
p3887
tp3888
Rp3889
(dp3890
g12
g26
sbag1
(g6
g7
S'525317045'
p3891
tp3892
Rp3893
(dp3894
g12
g26
sbag1
(g6
g7
S'525317043'
p3895
tp3896
Rp3897
(dp3898
g12
g26
sbag1
(g6
g7
S'525317041'
p3899
tp3900
Rp3901
(dp3902
g12
g26
sbag1
(g6
g7
S'525317039'
p3903
tp3904
Rp3905
(dp3906
g12
g26
sbag1
(g6
g7
S'525317037'
p3907
tp3908
Rp3909
(dp3910
g12
g26
sbag1
(g6
g7
S'525317035'
p3911
tp3912
Rp3913
(dp3914
g12
g26
sbag1
(g6
g7
S'525317033'
p3915
tp3916
Rp3917
(dp3918
g12
g26
sbag1
(g6
g7
S'525317031'
p3919
tp3920
Rp3921
(dp3922
g12
g26
sbag1
(g6
g7
S'564732789'
p3923
tp3924
Rp3925
(dp3926
g12
g26
sbag1
(g6
g7
S'564732787'
p3927
tp3928
Rp3929
(dp3930
g12
g26
sbag1
(g6
g7
S'564732785'
p3931
tp3932
Rp3933
(dp3934
g12
g26
sbag1
(g6
g7
S'564732783'
p3935
tp3936
Rp3937
(dp3938
g12
g26
sbag1
(g6
g7
S'564732781'
p3939
tp3940
Rp3941
(dp3942
g12
g26
sbag1
(g6
g7
S'564732779'
p3943
tp3944
Rp3945
(dp3946
g12
g26
sbag1
(g6
g7
S'564732777'
p3947
tp3948
Rp3949
(dp3950
g12
g26
sbag1
(g6
g7
S'564732775'
p3951
tp3952
Rp3953
(dp3954
g12
g26
sbag1
(g6
g7
S'564732773'
p3955
tp3956
Rp3957
(dp3958
g12
g26
sbag1
(g6
g7
S'564732771'
p3959
tp3960
Rp3961
(dp3962
g12
g26
sbag1
(g6
g7
S'564732769'
p3963
tp3964
Rp3965
(dp3966
g12
g26
sbag1
(g6
g7
S'564732767'
p3967
tp3968
Rp3969
(dp3970
g12
g26
sbag1
(g6
g7
S'564732765'
p3971
tp3972
Rp3973
(dp3974
g12
g26
sbag1
(g6
g7
S'564732763'
p3975
tp3976
Rp3977
(dp3978
g12
g26
sbag1
(g6
g7
S'564732761'
p3979
tp3980
Rp3981
(dp3982
g12
g26
sbag1
(g6
g7
S'564732759'
p3983
tp3984
Rp3985
(dp3986
g12
g26
sbag1
(g6
g7
S'343222638'
p3987
tp3988
Rp3989
(dp3990
g12
g26
sbag1
(g6
g7
S'301037475'
p3991
tp3992
Rp3993
(dp3994
g12
g26
sbag1
(g6
g7
S'584296691'
p3995
tp3996
Rp3997
(dp3998
g12
g26
sbag1
(g6
g7
S'584296656'
p3999
tp4000
Rp4001
(dp4002
g12
g26
sbag1
(g6
g7
S'584296654'
p4003
tp4004
Rp4005
(dp4006
g12
g26
sbag1
(g6
g7
S'584296407'
p4007
tp4008
Rp4009
(dp4010
g12
g26
sbag1
(g6
g7
S'584296198'
p4011
tp4012
Rp4013
(dp4014
g12
g26
sbag1
(g6
g7
S'584296162'
p4015
tp4016
Rp4017
(dp4018
g12
g26
sbag1
(g6
g7
S'584296160'
p4019
tp4020
Rp4021
(dp4022
g12
g26
sbag1
(g6
g7
S'584296158'
p4023
tp4024
Rp4025
(dp4026
g12
g26
sbag1
(g6
g7
S'584296156'
p4027
tp4028
Rp4029
(dp4030
g12
g26
sbag1
(g6
g7
S'584296154'
p4031
tp4032
Rp4033
(dp4034
g12
g26
sbag1
(g6
g7
S'584296152'
p4035
tp4036
Rp4037
(dp4038
g12
g26
sbag1
(g6
g7
S'584296150'
p4039
tp4040
Rp4041
(dp4042
g12
g26
sbag1
(g6
g7
S'584296148'
p4043
tp4044
Rp4045
(dp4046
g12
g26
sbag1
(g6
g7
S'584296146'
p4047
tp4048
Rp4049
(dp4050
g12
g26
sbag1
(g6
g7
S'584296144'
p4051
tp4052
Rp4053
(dp4054
g12
g26
sbag1
(g6
g7
S'584296142'
p4055
tp4056
Rp4057
(dp4058
g12
g26
sbag1
(g6
g7
S'584296140'
p4059
tp4060
Rp4061
(dp4062
g12
g26
sbag1
(g6
g7
S'557849699'
p4063
tp4064
Rp4065
(dp4066
g12
g26
sbag1
(g6
g7
S'557849697'
p4067
tp4068
Rp4069
(dp4070
g12
g26
sbag1
(g6
g7
S'558500938'
p4071
tp4072
Rp4073
(dp4074
g12
g26
sbag1
(g6
g7
S'558500936'
p4075
tp4076
Rp4077
(dp4078
g12
g26
sbag1
(g6
g7
S'558500934'
p4079
tp4080
Rp4081
(dp4082
g12
g26
sbag1
(g6
g7
S'558500932'
p4083
tp4084
Rp4085
(dp4086
g12
g26
sbag1
(g6
g7
S'558500930'
p4087
tp4088
Rp4089
(dp4090
g12
g26
sbag1
(g6
g7
S'558500928'
p4091
tp4092
Rp4093
(dp4094
g12
g26
sbag1
(g6
g7
S'558500926'
p4095
tp4096
Rp4097
(dp4098
g12
g26
sbag1
(g6
g7
S'558500924'
p4099
tp4100
Rp4101
(dp4102
g12
g26
sbag1
(g6
g7
S'558500922'
p4103
tp4104
Rp4105
(dp4106
g12
g26
sbag1
(g6
g7
S'558500920'
p4107
tp4108
Rp4109
(dp4110
g12
g26
sbag1
(g6
g7
S'558500918'
p4111
tp4112
Rp4113
(dp4114
g12
g26
sbag1
(g6
g7
S'558500916'
p4115
tp4116
Rp4117
(dp4118
g12
g26
sbag1
(g6
g7
S'558500914'
p4119
tp4120
Rp4121
(dp4122
g12
g26
sbag1
(g6
g7
S'558500912'
p4123
tp4124
Rp4125
(dp4126
g12
g26
sbag1
(g6
g7
S'558500910'
p4127
tp4128
Rp4129
(dp4130
g12
g26
sbag1
(g6
g7
S'558500908'
p4131
tp4132
Rp4133
(dp4134
g12
g26
sbag1
(g6
g7
S'558500906'
p4135
tp4136
Rp4137
(dp4138
g12
g26
sbag1
(g6
g7
S'558500904'
p4139
tp4140
Rp4141
(dp4142
g12
g26
sbag1
(g6
g7
S'558500902'
p4143
tp4144
Rp4145
(dp4146
g12
g26
sbag1
(g6
g7
S'558500900'
p4147
tp4148
Rp4149
(dp4150
g12
g26
sbag1
(g6
g7
S'558500898'
p4151
tp4152
Rp4153
(dp4154
g12
g26
sbag1
(g6
g7
S'558500896'
p4155
tp4156
Rp4157
(dp4158
g12
g26
sbag1
(g6
g7
S'558500894'
p4159
tp4160
Rp4161
(dp4162
g12
g26
sbag1
(g6
g7
S'558500892'
p4163
tp4164
Rp4165
(dp4166
g12
g26
sbag1
(g6
g7
S'558500890'
p4167
tp4168
Rp4169
(dp4170
g12
g26
sbag1
(g6
g7
S'558500888'
p4171
tp4172
Rp4173
(dp4174
g12
g26
sbag1
(g6
g7
S'558500886'
p4175
tp4176
Rp4177
(dp4178
g12
g26
sbag1
(g6
g7
S'558500884'
p4179
tp4180
Rp4181
(dp4182
g12
g26
sbag1
(g6
g7
S'558500882'
p4183
tp4184
Rp4185
(dp4186
g12
g26
sbag1
(g6
g7
S'558500880'
p4187
tp4188
Rp4189
(dp4190
g12
g26
sbag1
(g6
g7
S'558500878'
p4191
tp4192
Rp4193
(dp4194
g12
g26
sbag1
(g6
g7
S'558500876'
p4195
tp4196
Rp4197
(dp4198
g12
g26
sbag1
(g6
g7
S'558500874'
p4199
tp4200
Rp4201
(dp4202
g12
g26
sbag1
(g6
g7
S'558500872'
p4203
tp4204
Rp4205
(dp4206
g12
g26
sbag1
(g6
g7
S'558500870'
p4207
tp4208
Rp4209
(dp4210
g12
g26
sbag1
(g6
g7
S'558500868'
p4211
tp4212
Rp4213
(dp4214
g12
g26
sbag1
(g6
g7
S'558500866'
p4215
tp4216
Rp4217
(dp4218
g12
g26
sbag1
(g6
g7
S'558500864'
p4219
tp4220
Rp4221
(dp4222
g12
g26
sbag1
(g6
g7
S'558500862'
p4223
tp4224
Rp4225
(dp4226
g12
g26
sbag1
(g6
g7
S'558500860'
p4227
tp4228
Rp4229
(dp4230
g12
g26
sbag1
(g6
g7
S'558500858'
p4231
tp4232
Rp4233
(dp4234
g12
g26
sbag1
(g6
g7
S'558500856'
p4235
tp4236
Rp4237
(dp4238
g12
g26
sbag1
(g6
g7
S'558500854'
p4239
tp4240
Rp4241
(dp4242
g12
g26
sbag1
(g6
g7
S'558500852'
p4243
tp4244
Rp4245
(dp4246
g12
g26
sbag1
(g6
g7
S'558500850'
p4247
tp4248
Rp4249
(dp4250
g12
g26
sbag1
(g6
g7
S'558500848'
p4251
tp4252
Rp4253
(dp4254
g12
g26
sbag1
(g6
g7
S'558500846'
p4255
tp4256
Rp4257
(dp4258
g12
g26
sbag1
(g6
g7
S'558500844'
p4259
tp4260
Rp4261
(dp4262
g12
g26
sbag1
(g6
g7
S'558500842'
p4263
tp4264
Rp4265
(dp4266
g12
g26
sbag1
(g6
g7
S'558500840'
p4267
tp4268
Rp4269
(dp4270
g12
g26
sbag1
(g6
g7
S'558500838'
p4271
tp4272
Rp4273
(dp4274
g12
g26
sbag1
(g6
g7
S'558500836'
p4275
tp4276
Rp4277
(dp4278
g12
g26
sbag1
(g6
g7
S'558500834'
p4279
tp4280
Rp4281
(dp4282
g12
g26
sbag1
(g6
g7
S'558500832'
p4283
tp4284
Rp4285
(dp4286
g12
g26
sbag1
(g6
g7
S'558500830'
p4287
tp4288
Rp4289
(dp4290
g12
g26
sbag1
(g6
g7
S'558500828'
p4291
tp4292
Rp4293
(dp4294
g12
g26
sbag1
(g6
g7
S'558500826'
p4295
tp4296
Rp4297
(dp4298
g12
g26
sbag1
(g6
g7
S'558500824'
p4299
tp4300
Rp4301
(dp4302
g12
g26
sbag1
(g6
g7
S'558500822'
p4303
tp4304
Rp4305
(dp4306
g12
g26
sbag1
(g6
g7
S'558500820'
p4307
tp4308
Rp4309
(dp4310
g12
g26
sbag1
(g6
g7
S'558500818'
p4311
tp4312
Rp4313
(dp4314
g12
g26
sbag1
(g6
g7
S'558500816'
p4315
tp4316
Rp4317
(dp4318
g12
g26
sbag1
(g6
g7
S'558500814'
p4319
tp4320
Rp4321
(dp4322
g12
g26
sbag1
(g6
g7
S'558500812'
p4323
tp4324
Rp4325
(dp4326
g12
g26
sbag1
(g6
g7
S'558500810'
p4327
tp4328
Rp4329
(dp4330
g12
g26
sbag1
(g6
g7
S'558500808'
p4331
tp4332
Rp4333
(dp4334
g12
g26
sbag1
(g6
g7
S'558500806'
p4335
tp4336
Rp4337
(dp4338
g12
g26
sbag1
(g6
g7
S'558500804'
p4339
tp4340
Rp4341
(dp4342
g12
g26
sbag1
(g6
g7
S'558500802'
p4343
tp4344
Rp4345
(dp4346
g12
g26
sbag1
(g6
g7
S'558500800'
p4347
tp4348
Rp4349
(dp4350
g12
g26
sbag1
(g6
g7
S'558500798'
p4351
tp4352
Rp4353
(dp4354
g12
g26
sbag1
(g6
g7
S'558500796'
p4355
tp4356
Rp4357
(dp4358
g12
g26
sbag1
(g6
g7
S'558500794'
p4359
tp4360
Rp4361
(dp4362
g12
g26
sbag1
(g6
g7
S'558500792'
p4363
tp4364
Rp4365
(dp4366
g12
g26
sbag1
(g6
g7
S'558500790'
p4367
tp4368
Rp4369
(dp4370
g12
g26
sbag1
(g6
g7
S'558500788'
p4371
tp4372
Rp4373
(dp4374
g12
g26
sbag1
(g6
g7
S'558500786'
p4375
tp4376
Rp4377
(dp4378
g12
g26
sbag1
(g6
g7
S'558500784'
p4379
tp4380
Rp4381
(dp4382
g12
g26
sbag1
(g6
g7
S'558500782'
p4383
tp4384
Rp4385
(dp4386
g12
g26
sbag1
(g6
g7
S'558500780'
p4387
tp4388
Rp4389
(dp4390
g12
g26
sbag1
(g6
g7
S'558500778'
p4391
tp4392
Rp4393
(dp4394
g12
g26
sbag1
(g6
g7
S'558500776'
p4395
tp4396
Rp4397
(dp4398
g12
g26
sbag1
(g6
g7
S'558500774'
p4399
tp4400
Rp4401
(dp4402
g12
g26
sbag1
(g6
g7
S'558500772'
p4403
tp4404
Rp4405
(dp4406
g12
g26
sbag1
(g6
g7
S'558500770'
p4407
tp4408
Rp4409
(dp4410
g12
g26
sbag1
(g6
g7
S'558500768'
p4411
tp4412
Rp4413
(dp4414
g12
g26
sbag1
(g6
g7
S'558500766'
p4415
tp4416
Rp4417
(dp4418
g12
g26
sbag1
(g6
g7
S'558500764'
p4419
tp4420
Rp4421
(dp4422
g12
g26
sbag1
(g6
g7
S'558500762'
p4423
tp4424
Rp4425
(dp4426
g12
g26
sbag1
(g6
g7
S'558500760'
p4427
tp4428
Rp4429
(dp4430
g12
g26
sbag1
(g6
g7
S'558500758'
p4431
tp4432
Rp4433
(dp4434
g12
g26
sbag1
(g6
g7
S'558500756'
p4435
tp4436
Rp4437
(dp4438
g12
g26
sbag1
(g6
g7
S'558500754'
p4439
tp4440
Rp4441
(dp4442
g12
g26
sbag1
(g6
g7
S'558500752'
p4443
tp4444
Rp4445
(dp4446
g12
g26
sbag1
(g6
g7
S'558500750'
p4447
tp4448
Rp4449
(dp4450
g12
g26
sbag1
(g6
g7
S'558500748'
p4451
tp4452
Rp4453
(dp4454
g12
g26
sbag1
(g6
g7
S'558500746'
p4455
tp4456
Rp4457
(dp4458
g12
g26
sbag1
(g6
g7
S'558500744'
p4459
tp4460
Rp4461
(dp4462
g12
g26
sbag1
(g6
g7
S'558500742'
p4463
tp4464
Rp4465
(dp4466
g12
g26
sbag1
(g6
g7
S'558500740'
p4467
tp4468
Rp4469
(dp4470
g12
g26
sbag1
(g6
g7
S'558500738'
p4471
tp4472
Rp4473
(dp4474
g12
g26
sbag1
(g6
g7
S'558500736'
p4475
tp4476
Rp4477
(dp4478
g12
g26
sbag1
(g6
g7
S'558500734'
p4479
tp4480
Rp4481
(dp4482
g12
g26
sbag1
(g6
g7
S'558500732'
p4483
tp4484
Rp4485
(dp4486
g12
g26
sbag1
(g6
g7
S'558500730'
p4487
tp4488
Rp4489
(dp4490
g12
g26
sbag1
(g6
g7
S'558500728'
p4491
tp4492
Rp4493
(dp4494
g12
g26
sbag1
(g6
g7
S'558500726'
p4495
tp4496
Rp4497
(dp4498
g12
g26
sbag1
(g6
g7
S'558500724'
p4499
tp4500
Rp4501
(dp4502
g12
g26
sbag1
(g6
g7
S'558500722'
p4503
tp4504
Rp4505
(dp4506
g12
g26
sbag1
(g6
g7
S'558500720'
p4507
tp4508
Rp4509
(dp4510
g12
g26
sbag1
(g6
g7
S'558500718'
p4511
tp4512
Rp4513
(dp4514
g12
g26
sbag1
(g6
g7
S'558500716'
p4515
tp4516
Rp4517
(dp4518
g12
g26
sbag1
(g6
g7
S'558500714'
p4519
tp4520
Rp4521
(dp4522
g12
g26
sbag1
(g6
g7
S'558500712'
p4523
tp4524
Rp4525
(dp4526
g12
g26
sbag1
(g6
g7
S'558500710'
p4527
tp4528
Rp4529
(dp4530
g12
g26
sbag1
(g6
g7
S'558500708'
p4531
tp4532
Rp4533
(dp4534
g12
g26
sbag1
(g6
g7
S'558500706'
p4535
tp4536
Rp4537
(dp4538
g12
g26
sbag1
(g6
g7
S'558500704'
p4539
tp4540
Rp4541
(dp4542
g12
g26
sbag1
(g6
g7
S'558500702'
p4543
tp4544
Rp4545
(dp4546
g12
g26
sbag1
(g6
g7
S'558500700'
p4547
tp4548
Rp4549
(dp4550
g12
g26
sbag1
(g6
g7
S'558500698'
p4551
tp4552
Rp4553
(dp4554
g12
g26
sbag1
(g6
g7
S'558500696'
p4555
tp4556
Rp4557
(dp4558
g12
g26
sbag1
(g6
g7
S'558500694'
p4559
tp4560
Rp4561
(dp4562
g12
g26
sbag1
(g6
g7
S'558500692'
p4563
tp4564
Rp4565
(dp4566
g12
g26
sbag1
(g6
g7
S'558500690'
p4567
tp4568
Rp4569
(dp4570
g12
g26
sbag1
(g6
g7
S'558500688'
p4571
tp4572
Rp4573
(dp4574
g12
g26
sbag1
(g6
g7
S'558500686'
p4575
tp4576
Rp4577
(dp4578
g12
g26
sbag1
(g6
g7
S'558500684'
p4579
tp4580
Rp4581
(dp4582
g12
g26
sbag1
(g6
g7
S'558500682'
p4583
tp4584
Rp4585
(dp4586
g12
g26
sbag1
(g6
g7
S'558500680'
p4587
tp4588
Rp4589
(dp4590
g12
g26
sbag1
(g6
g7
S'558500678'
p4591
tp4592
Rp4593
(dp4594
g12
g26
sbag1
(g6
g7
S'558500676'
p4595
tp4596
Rp4597
(dp4598
g12
g26
sbag1
(g6
g7
S'429128490'
p4599
tp4600
Rp4601
(dp4602
g12
g26
sbag1
(g6
g7
S'429128488'
p4603
tp4604
Rp4605
(dp4606
g12
g26
sbag1
(g6
g7
S'429128486'
p4607
tp4608
Rp4609
(dp4610
g12
g26
sbag1
(g6
g7
S'429128484'
p4611
tp4612
Rp4613
(dp4614
g12
g26
sbag1
(g6
g7
S'429128482'
p4615
tp4616
Rp4617
(dp4618
g12
g26
sbag1
(g6
g7
S'429128480'
p4619
tp4620
Rp4621
(dp4622
g12
g26
sbag1
(g6
g7
S'429128478'
p4623
tp4624
Rp4625
(dp4626
g12
g26
sbag1
(g6
g7
S'429128476'
p4627
tp4628
Rp4629
(dp4630
g12
g26
sbag1
(g6
g7
S'429128474'
p4631
tp4632
Rp4633
(dp4634
g12
g26
sbag1
(g6
g7
S'429128472'
p4635
tp4636
Rp4637
(dp4638
g12
g26
sbag1
(g6
g7
S'429128470'
p4639
tp4640
Rp4641
(dp4642
g12
g26
sbag1
(g6
g7
S'429128468'
p4643
tp4644
Rp4645
(dp4646
g12
g26
sbag1
(g6
g7
S'429128466'
p4647
tp4648
Rp4649
(dp4650
g12
g26
sbag1
(g6
g7
S'429128464'
p4651
tp4652
Rp4653
(dp4654
g12
g26
sbag1
(g6
g7
S'429128462'
p4655
tp4656
Rp4657
(dp4658
g12
g26
sbag1
(g6
g7
S'429128460'
p4659
tp4660
Rp4661
(dp4662
g12
g26
sbag1
(g6
g7
S'429128458'
p4663
tp4664
Rp4665
(dp4666
g12
g26
sbag1
(g6
g7
S'429128456'
p4667
tp4668
Rp4669
(dp4670
g12
g26
sbag1
(g6
g7
S'429128454'
p4671
tp4672
Rp4673
(dp4674
g12
g26
sbag1
(g6
g7
S'429128452'
p4675
tp4676
Rp4677
(dp4678
g12
g26
sbag1
(g6
g7
S'429128450'
p4679
tp4680
Rp4681
(dp4682
g12
g26
sbag1
(g6
g7
S'429128448'
p4683
tp4684
Rp4685
(dp4686
g12
g26
sbag1
(g6
g7
S'401710182'
p4687
tp4688
Rp4689
(dp4690
g12
g26
sbag1
(g6
g7
S'399932476'
p4691
tp4692
Rp4693
(dp4694
g12
g26
sbag1
(g6
g7
S'399932474'
p4695
tp4696
Rp4697
(dp4698
g12
g26
sbag1
(g6
g7
S'451311834'
p4699
tp4700
Rp4701
(dp4702
g12
g26
sbag1
(g6
g7
S'451311832'
p4703
tp4704
Rp4705
(dp4706
g12
g26
sbag1
(g6
g7
S'451311830'
p4707
tp4708
Rp4709
(dp4710
g12
g26
sbag1
(g6
g7
S'451311828'
p4711
tp4712
Rp4713
(dp4714
g12
g26
sbag1
(g6
g7
S'451311826'
p4715
tp4716
Rp4717
(dp4718
g12
g26
sbag1
(g6
g7
S'451311824'
p4719
tp4720
Rp4721
(dp4722
g12
g26
sbag1
(g6
g7
S'451311822'
p4723
tp4724
Rp4725
(dp4726
g12
g26
sbag1
(g6
g7
S'451311820'
p4727
tp4728
Rp4729
(dp4730
g12
g26
sbag1
(g6
g7
S'451311818'
p4731
tp4732
Rp4733
(dp4734
g12
g26
sbag1
(g6
g7
S'451311816'
p4735
tp4736
Rp4737
(dp4738
g12
g26
sbag1
(g6
g7
S'451311814'
p4739
tp4740
Rp4741
(dp4742
g12
g26
sbag1
(g6
g7
S'451311812'
p4743
tp4744
Rp4745
(dp4746
g12
g26
sbag1
(g6
g7
S'451311810'
p4747
tp4748
Rp4749
(dp4750
g12
g26
sbag1
(g6
g7
S'451311808'
p4751
tp4752
Rp4753
(dp4754
g12
g26
sbag1
(g6
g7
S'451311806'
p4755
tp4756
Rp4757
(dp4758
g12
g26
sbag1
(g6
g7
S'451311804'
p4759
tp4760
Rp4761
(dp4762
g12
g26
sbag1
(g6
g7
S'451311802'
p4763
tp4764
Rp4765
(dp4766
g12
g26
sbag1
(g6
g7
S'451311800'
p4767
tp4768
Rp4769
(dp4770
g12
g26
sbag1
(g6
g7
S'451311798'
p4771
tp4772
Rp4773
(dp4774
g12
g26
sbag1
(g6
g7
S'451311796'
p4775
tp4776
Rp4777
(dp4778
g12
g26
sbag1
(g6
g7
S'451311794'
p4779
tp4780
Rp4781
(dp4782
g12
g26
sbag1
(g6
g7
S'451311792'
p4783
tp4784
Rp4785
(dp4786
g12
g26
sbag1
(g6
g7
S'451311790'
p4787
tp4788
Rp4789
(dp4790
g12
g26
sbag1
(g6
g7
S'451311788'
p4791
tp4792
Rp4793
(dp4794
g12
g26
sbag1
(g6
g7
S'451311786'
p4795
tp4796
Rp4797
(dp4798
g12
g26
sbag1
(g6
g7
S'393716811'
p4799
tp4800
Rp4801
(dp4802
g12
g26
sbag1
(g6
g7
S'386373296'
p4803
tp4804
Rp4805
(dp4806
g12
g26
sbag1
(g6
g7
S'429490464'
p4807
tp4808
Rp4809
(dp4810
g12
g26
sbag1
(g6
g7
S'429490462'
p4811
tp4812
Rp4813
(dp4814
g12
g26
sbag1
(g6
g7
S'429490460'
p4815
tp4816
Rp4817
(dp4818
g12
g26
sbag1
(g6
g7
S'383388671'
p4819
tp4820
Rp4821
(dp4822
g12
g26
sbag1
(g6
g7
S'383388669'
p4823
tp4824
Rp4825
(dp4826
g12
g26
sbag1
(g6
g7
S'383388667'
p4827
tp4828
Rp4829
(dp4830
g12
g26
sbag1
(g6
g7
S'383388533'
p4831
tp4832
Rp4833
(dp4834
g12
g26
sbag1
(g6
g7
S'383388531'
p4835
tp4836
Rp4837
(dp4838
g12
g26
sbag1
(g6
g7
S'383388529'
p4839
tp4840
Rp4841
(dp4842
g12
g26
sbag1
(g6
g7
S'383388527'
p4843
tp4844
Rp4845
(dp4846
g12
g26
sbag1
(g6
g7
S'383388525'
p4847
tp4848
Rp4849
(dp4850
g12
g26
sbag1
(g6
g7
S'383388523'
p4851
tp4852
Rp4853
(dp4854
g12
g26
sbag1
(g6
g7
S'383388439'
p4855
tp4856
Rp4857
(dp4858
g12
g26
sbag1
(g6
g7
S'383388437'
p4859
tp4860
Rp4861
(dp4862
g12
g26
sbag1
(g6
g7
S'402747210'
p4863
tp4864
Rp4865
(dp4866
g12
g26
sbag1
(g6
g7
S'393006023'
p4867
tp4868
Rp4869
(dp4870
g12
g26
sbag1
(g6
g7
S'393006021'
p4871
tp4872
Rp4873
(dp4874
g12
g26
sbag1
(g6
g7
S'393005917'
p4875
tp4876
Rp4877
(dp4878
g12
g26
sbag1
(g6
g7
S'393005833'
p4879
tp4880
Rp4881
(dp4882
g12
g26
sbag1
(g6
g7
S'393005831'
p4883
tp4884
Rp4885
(dp4886
g12
g26
sbag1
(g6
g7
S'393005829'
p4887
tp4888
Rp4889
(dp4890
g12
g26
sbag1
(g6
g7
S'393005827'
p4891
tp4892
Rp4893
(dp4894
g12
g26
sbag1
(g6
g7
S'393005825'
p4895
tp4896
Rp4897
(dp4898
g12
g26
sbag1
(g6
g7
S'393005823'
p4899
tp4900
Rp4901
(dp4902
g12
g26
sbag1
(g6
g7
S'393005145'
p4903
tp4904
Rp4905
(dp4906
g12
g26
sbag1
(g6
g7
S'393005143'
p4907
tp4908
Rp4909
(dp4910
g12
g26
sbag1
(g6
g7
S'393005141'
p4911
tp4912
Rp4913
(dp4914
g12
g26
sbag1
(g6
g7
S'393005139'
p4915
tp4916
Rp4917
(dp4918
g12
g26
sbag1
(g6
g7
S'393005137'
p4919
tp4920
Rp4921
(dp4922
g12
g26
sbag1
(g6
g7
S'393005135'
p4923
tp4924
Rp4925
(dp4926
g12
g26
sbag1
(g6
g7
S'393005133'
p4927
tp4928
Rp4929
(dp4930
g12
g26
sbag1
(g6
g7
S'393005131'
p4931
tp4932
Rp4933
(dp4934
g12
g26
sbag1
(g6
g7
S'393005129'
p4935
tp4936
Rp4937
(dp4938
g12
g26
sbag1
(g6
g7
S'393005127'
p4939
tp4940
Rp4941
(dp4942
g12
g26
sbag1
(g6
g7
S'393005125'
p4943
tp4944
Rp4945
(dp4946
g12
g26
sbag1
(g6
g7
S'393005123'
p4947
tp4948
Rp4949
(dp4950
g12
g26
sbag1
(g6
g7
S'393005121'
p4951
tp4952
Rp4953
(dp4954
g12
g26
sbag1
(g6
g7
S'393005119'
p4955
tp4956
Rp4957
(dp4958
g12
g26
sbag1
(g6
g7
S'393004770'
p4959
tp4960
Rp4961
(dp4962
g12
g26
sbag1
(g6
g7
S'393004392'
p4963
tp4964
Rp4965
(dp4966
g12
g26
sbag1
(g6
g7
S'393004390'
p4967
tp4968
Rp4969
(dp4970
g12
g26
sbag1
(g6
g7
S'393004388'
p4971
tp4972
Rp4973
(dp4974
g12
g26
sbag1
(g6
g7
S'393004386'
p4975
tp4976
Rp4977
(dp4978
g12
g26
sbag1
(g6
g7
S'393004384'
p4979
tp4980
Rp4981
(dp4982
g12
g26
sbag1
(g6
g7
S'393004382'
p4983
tp4984
Rp4985
(dp4986
g12
g26
sbag1
(g6
g7
S'393004380'
p4987
tp4988
Rp4989
(dp4990
g12
g26
sbag1
(g6
g7
S'393004378'
p4991
tp4992
Rp4993
(dp4994
g12
g26
sbag1
(g6
g7
S'393004376'
p4995
tp4996
Rp4997
(dp4998
g12
g26
sbag1
(g6
g7
S'393004374'
p4999
tp5000
Rp5001
(dp5002
g12
g26
sbag1
(g6
g7
S'386687745'
p5003
tp5004
Rp5005
(dp5006
g12
g26
sbag1
(g6
g7
S'386687743'
p5007
tp5008
Rp5009
(dp5010
g12
g26
sbag1
(g6
g7
S'386687741'
p5011
tp5012
Rp5013
(dp5014
g12
g26
sbag1
(g6
g7
S'386687739'
p5015
tp5016
Rp5017
(dp5018
g12
g26
sbag1
(g6
g7
S'386687737'
p5019
tp5020
Rp5021
(dp5022
g12
g26
sbag1
(g6
g7
S'386687735'
p5023
tp5024
Rp5025
(dp5026
g12
g26
sbag1
(g6
g7
S'386687733'
p5027
tp5028
Rp5029
(dp5030
g12
g26
sbag1
(g6
g7
S'386687731'
p5031
tp5032
Rp5033
(dp5034
g12
g26
sbag1
(g6
g7
S'386687729'
p5035
tp5036
Rp5037
(dp5038
g12
g26
sbag1
(g6
g7
S'386687727'
p5039
tp5040
Rp5041
(dp5042
g12
g26
sbag1
(g6
g7
S'386687725'
p5043
tp5044
Rp5045
(dp5046
g12
g26
sbag1
(g6
g7
S'386687723'
p5047
tp5048
Rp5049
(dp5050
g12
g26
sbag1
(g6
g7
S'386687721'
p5051
tp5052
Rp5053
(dp5054
g12
g26
sbag1
(g6
g7
S'386687719'
p5055
tp5056
Rp5057
(dp5058
g12
g26
sbag1
(g6
g7
S'386687717'
p5059
tp5060
Rp5061
(dp5062
g12
g26
sbag1
(g6
g7
S'386687715'
p5063
tp5064
Rp5065
(dp5066
g12
g26
sbag1
(g6
g7
S'386687713'
p5067
tp5068
Rp5069
(dp5070
g12
g26
sbag1
(g6
g7
S'386687219'
p5071
tp5072
Rp5073
(dp5074
g12
g26
sbag1
(g6
g7
S'386687201'
p5075
tp5076
Rp5077
(dp5078
g12
g26
sbag1
(g6
g7
S'386687199'
p5079
tp5080
Rp5081
(dp5082
g12
g26
sbag1
(g6
g7
S'386687197'
p5083
tp5084
Rp5085
(dp5086
g12
g26
sbag1
(g6
g7
S'386687195'
p5087
tp5088
Rp5089
(dp5090
g12
g26
sbag1
(g6
g7
S'386687193'
p5091
tp5092
Rp5093
(dp5094
g12
g26
sbag1
(g6
g7
S'386687191'
p5095
tp5096
Rp5097
(dp5098
g12
g26
sbag1
(g6
g7
S'386687189'
p5099
tp5100
Rp5101
(dp5102
g12
g26
sbag1
(g6
g7
S'386647316'
p5103
tp5104
Rp5105
(dp5106
g12
g26
sbag1
(g6
g7
S'386647314'
p5107
tp5108
Rp5109
(dp5110
g12
g26
sbag1
(g6
g7
S'386647312'
p5111
tp5112
Rp5113
(dp5114
g12
g26
sbag1
(g6
g7
S'386647224'
p5115
tp5116
Rp5117
(dp5118
g12
g26
sbag1
(g6
g7
S'386647222'
p5119
tp5120
Rp5121
(dp5122
g12
g26
sbag1
(g6
g7
S'386647220'
p5123
tp5124
Rp5125
(dp5126
g12
g26
sbag1
(g6
g7
S'386647218'
p5127
tp5128
Rp5129
(dp5130
g12
g26
sbag1
(g6
g7
S'386647216'
p5131
tp5132
Rp5133
(dp5134
g12
g26
sbag1
(g6
g7
S'386647214'
p5135
tp5136
Rp5137
(dp5138
g12
g26
sbag1
(g6
g7
S'386647212'
p5139
tp5140
Rp5141
(dp5142
g12
g26
sbag1
(g6
g7
S'386647210'
p5143
tp5144
Rp5145
(dp5146
g12
g26
sbag1
(g6
g7
S'386647208'
p5147
tp5148
Rp5149
(dp5150
g12
g26
sbag1
(g6
g7
S'386647206'
p5151
tp5152
Rp5153
(dp5154
g12
g26
sbag1
(g6
g7
S'386647204'
p5155
tp5156
Rp5157
(dp5158
g12
g26
sbag1
(g6
g7
S'386647202'
p5159
tp5160
Rp5161
(dp5162
g12
g26
sbag1
(g6
g7
S'386647200'
p5163
tp5164
Rp5165
(dp5166
g12
g26
sbag1
(g6
g7
S'386647198'
p5167
tp5168
Rp5169
(dp5170
g12
g26
sbag1
(g6
g7
S'386646215'
p5171
tp5172
Rp5173
(dp5174
g12
g26
sbag1
(g6
g7
S'386646213'
p5175
tp5176
Rp5177
(dp5178
g12
g26
sbag1
(g6
g7
S'386646211'
p5179
tp5180
Rp5181
(dp5182
g12
g26
sbag1
(g6
g7
S'386646209'
p5183
tp5184
Rp5185
(dp5186
g12
g26
sbag1
(g6
g7
S'386646207'
p5187
tp5188
Rp5189
(dp5190
g12
g26
sbag1
(g6
g7
S'386646205'
p5191
tp5192
Rp5193
(dp5194
g12
g26
sbag1
(g6
g7
S'386646203'
p5195
tp5196
Rp5197
(dp5198
g12
g26
sbag1
(g6
g7
S'386646201'
p5199
tp5200
Rp5201
(dp5202
g12
g26
sbag1
(g6
g7
S'386646199'
p5203
tp5204
Rp5205
(dp5206
g12
g26
sbag1
(g6
g7
S'386646197'
p5207
tp5208
Rp5209
(dp5210
g12
g26
sbag1
(g6
g7
S'386646195'
p5211
tp5212
Rp5213
(dp5214
g12
g26
sbag1
(g6
g7
S'386646193'
p5215
tp5216
Rp5217
(dp5218
g12
g26
sbag1
(g6
g7
S'386646191'
p5219
tp5220
Rp5221
(dp5222
g12
g26
sbag1
(g6
g7
S'386646189'
p5223
tp5224
Rp5225
(dp5226
g12
g26
sbag1
(g6
g7
S'386366671'
p5227
tp5228
Rp5229
(dp5230
g12
g26
sbag1
(g6
g7
S'386366669'
p5231
tp5232
Rp5233
(dp5234
g12
g26
sbag1
(g6
g7
S'386366667'
p5235
tp5236
Rp5237
(dp5238
g12
g26
sbag1
(g6
g7
S'386366665'
p5239
tp5240
Rp5241
(dp5242
g12
g26
sbag1
(g6
g7
S'386366663'
p5243
tp5244
Rp5245
(dp5246
g12
g26
sbag1
(g6
g7
S'386366567'
p5247
tp5248
Rp5249
(dp5250
g12
g26
sbag1
(g6
g7
S'386366565'
p5251
tp5252
Rp5253
(dp5254
g12
g26
sbag1
(g6
g7
S'386366563'
p5255
tp5256
Rp5257
(dp5258
g12
g26
sbag1
(g6
g7
S'386365827'
p5259
tp5260
Rp5261
(dp5262
g12
g26
sbag1
(g6
g7
S'386365825'
p5263
tp5264
Rp5265
(dp5266
g12
g26
sbag1
(g6
g7
S'386365823'
p5267
tp5268
Rp5269
(dp5270
g12
g26
sbag1
(g6
g7
S'386268766'
p5271
tp5272
Rp5273
(dp5274
g12
g26
sbag1
(g6
g7
S'386268764'
p5275
tp5276
Rp5277
(dp5278
g12
g26
sbag1
(g6
g7
S'386268762'
p5279
tp5280
Rp5281
(dp5282
g12
g26
sbag1
(g6
g7
S'386268712'
p5283
tp5284
Rp5285
(dp5286
g12
g26
sbag1
(g6
g7
S'386268710'
p5287
tp5288
Rp5289
(dp5290
g12
g26
sbag1
(g6
g7
S'386268708'
p5291
tp5292
Rp5293
(dp5294
g12
g26
sbag1
(g6
g7
S'387538905'
p5295
tp5296
Rp5297
(dp5298
g12
g26
sbag1
(g6
g7
S'387538903'
p5299
tp5300
Rp5301
(dp5302
g12
g26
sbag1
(g6
g7
S'387538901'
p5303
tp5304
Rp5305
(dp5306
g12
g26
sbag1
(g6
g7
S'387538899'
p5307
tp5308
Rp5309
(dp5310
g12
g26
sbag1
(g6
g7
S'387538897'
p5311
tp5312
Rp5313
(dp5314
g12
g26
sbag1
(g6
g7
S'387538895'
p5315
tp5316
Rp5317
(dp5318
g12
g26
sbag1
(g6
g7
S'387538893'
p5319
tp5320
Rp5321
(dp5322
g12
g26
sbag1
(g6
g7
S'387538891'
p5323
tp5324
Rp5325
(dp5326
g12
g26
sbag1
(g6
g7
S'387538889'
p5327
tp5328
Rp5329
(dp5330
g12
g26
sbag1
(g6
g7
S'387538887'
p5331
tp5332
Rp5333
(dp5334
g12
g26
sbag1
(g6
g7
S'387538885'
p5335
tp5336
Rp5337
(dp5338
g12
g26
sbag1
(g6
g7
S'387538883'
p5339
tp5340
Rp5341
(dp5342
g12
g26
sbag1
(g6
g7
S'387538881'
p5343
tp5344
Rp5345
(dp5346
g12
g26
sbag1
(g6
g7
S'387538879'
p5347
tp5348
Rp5349
(dp5350
g12
g26
sbag1
(g6
g7
S'387538877'
p5351
tp5352
Rp5353
(dp5354
g12
g26
sbag1
(g6
g7
S'387538875'
p5355
tp5356
Rp5357
(dp5358
g12
g26
sbag1
(g6
g7
S'387538873'
p5359
tp5360
Rp5361
(dp5362
g12
g26
sbag1
(g6
g7
S'306993048'
p5363
tp5364
Rp5365
(dp5366
g12
g26
sbag1
(g6
g7
S'306993046'
p5367
tp5368
Rp5369
(dp5370
g12
g26
sbag1
(g6
g7
S'306993044'
p5371
tp5372
Rp5373
(dp5374
g12
g26
sbag1
(g6
g7
S'306993042'
p5375
tp5376
Rp5377
(dp5378
g12
g26
sbag1
(g6
g7
S'306993008'
p5379
tp5380
Rp5381
(dp5382
g12
g26
sbag1
(g6
g7
S'306993006'
p5383
tp5384
Rp5385
(dp5386
g12
g26
sbag1
(g6
g7
S'306993004'
p5387
tp5388
Rp5389
(dp5390
g12
g26
sbag1
(g6
g7
S'306993002'
p5391
tp5392
Rp5393
(dp5394
g12
g26
sbag1
(g6
g7
S'381279802'
p5395
tp5396
Rp5397
(dp5398
g12
g26
sbag1
(g6
g7
S'381279800'
p5399
tp5400
Rp5401
(dp5402
g12
g26
sbag1
(g6
g7
S'381279750'
p5403
tp5404
Rp5405
(dp5406
g12
g26
sbag1
(g6
g7
S'381279748'
p5407
tp5408
Rp5409
(dp5410
g12
g26
sbag1
(g6
g7
S'381279746'
p5411
tp5412
Rp5413
(dp5414
g12
g26
sbag1
(g6
g7
S'381279744'
p5415
tp5416
Rp5417
(dp5418
g12
g26
sbag1
(g6
g7
S'381279742'
p5419
tp5420
Rp5421
(dp5422
g12
g26
sbag1
(g6
g7
S'381279456'
p5423
tp5424
Rp5425
(dp5426
g12
g26
sbag1
(g6
g7
S'381279454'
p5427
tp5428
Rp5429
(dp5430
g12
g26
sbag1
(g6
g7
S'381279452'
p5431
tp5432
Rp5433
(dp5434
g12
g26
sbag1
(g6
g7
S'381279450'
p5435
tp5436
Rp5437
(dp5438
g12
g26
sbag1
(g6
g7
S'381279448'
p5439
tp5440
Rp5441
(dp5442
g12
g26
sbag1
(g6
g7
S'381279446'
p5443
tp5444
Rp5445
(dp5446
g12
g26
sbag1
(g6
g7
S'381279444'
p5447
tp5448
Rp5449
(dp5450
g12
g26
sbag1
(g6
g7
S'381279442'
p5451
tp5452
Rp5453
(dp5454
g12
g26
sbag1
(g6
g7
S'381279440'
p5455
tp5456
Rp5457
(dp5458
g12
g26
sbag1
(g6
g7
S'381279110'
p5459
tp5460
Rp5461
(dp5462
g12
g26
sbag1
(g6
g7
S'381278572'
p5463
tp5464
Rp5465
(dp5466
g12
g26
sbag1
(g6
g7
S'381278506'
p5467
tp5468
Rp5469
(dp5470
g12
g26
sbag1
(g6
g7
S'381278504'
p5471
tp5472
Rp5473
(dp5474
g12
g26
sbag1
(g6
g7
S'381278502'
p5475
tp5476
Rp5477
(dp5478
g12
g26
sbag1
(g6
g7
S'381278500'
p5479
tp5480
Rp5481
(dp5482
g12
g26
sbag1
(g6
g7
S'375586523'
p5483
tp5484
Rp5485
(dp5486
g12
g26
sbag1
(g6
g7
S'375586520'
p5487
tp5488
Rp5489
(dp5490
g12
g26
sbag1
(g6
g7
S'375586517'
p5491
tp5492
Rp5493
(dp5494
g12
g26
sbag1
(g6
g7
S'375586514'
p5495
tp5496
Rp5497
(dp5498
g12
g26
sbag1
(g6
g7
S'375585947'
p5499
tp5500
Rp5501
(dp5502
g12
g26
sbag1
(g6
g7
S'375585944'
p5503
tp5504
Rp5505
(dp5506
g12
g26
sbag1
(g6
g7
S'375585941'
p5507
tp5508
Rp5509
(dp5510
g12
g26
sbag1
(g6
g7
S'375585938'
p5511
tp5512
Rp5513
(dp5514
g12
g26
sbag1
(g6
g7
S'375585935'
p5515
tp5516
Rp5517
(dp5518
g12
g26
sbag1
(g6
g7
S'375585932'
p5519
tp5520
Rp5521
(dp5522
g12
g26
sbag1
(g6
g7
S'375585929'
p5523
tp5524
Rp5525
(dp5526
g12
g26
sbag1
(g6
g7
S'375585926'
p5527
tp5528
Rp5529
(dp5530
g12
g26
sbag1
(g6
g7
S'375585923'
p5531
tp5532
Rp5533
(dp5534
g12
g26
sbag1
(g6
g7
S'375585920'
p5535
tp5536
Rp5537
(dp5538
g12
g26
sbag1
(g6
g7
S'375585917'
p5539
tp5540
Rp5541
(dp5542
g12
g26
sbag1
(g6
g7
S'375585073'
p5543
tp5544
Rp5545
(dp5546
g12
g26
sbag1
(g6
g7
S'375585070'
p5547
tp5548
Rp5549
(dp5550
g12
g26
sbag1
(g6
g7
S'375585067'
p5551
tp5552
Rp5553
(dp5554
g12
g26
sbag1
(g6
g7
S'375585064'
p5555
tp5556
Rp5557
(dp5558
g12
g26
sbag1
(g6
g7
S'375585061'
p5559
tp5560
Rp5561
(dp5562
g12
g26
sbag1
(g6
g7
S'375585058'
p5563
tp5564
Rp5565
(dp5566
g12
g26
sbag1
(g6
g7
S'375585055'
p5567
tp5568
Rp5569
(dp5570
g12
g26
sbag1
(g6
g7
S'375585052'
p5571
tp5572
Rp5573
(dp5574
g12
g26
sbag1
(g6
g7
S'375585049'
p5575
tp5576
Rp5577
(dp5578
g12
g26
sbag1
(g6
g7
S'345809141'
p5579
tp5580
Rp5581
(dp5582
g12
g26
sbag1
(g6
g7
S'345809139'
p5583
tp5584
Rp5585
(dp5586
g12
g26
sbag1
(g6
g7
S'345809137'
p5587
tp5588
Rp5589
(dp5590
g12
g26
sbag1
(g6
g7
S'345809135'
p5591
tp5592
Rp5593
(dp5594
g12
g26
sbag1
(g6
g7
S'345809133'
p5595
tp5596
Rp5597
(dp5598
g12
g26
sbag1
(g6
g7
S'345809131'
p5599
tp5600
Rp5601
(dp5602
g12
g26
sbag1
(g6
g7
S'345809129'
p5603
tp5604
Rp5605
(dp5606
g12
g26
sbag1
(g6
g7
S'223369188'
p5607
tp5608
Rp5609
(dp5610
g12
g26
sbag1
(g6
g7
S'223369186'
p5611
tp5612
Rp5613
(dp5614
g12
g26
sbag1
(g6
g7
S'223369184'
p5615
tp5616
Rp5617
(dp5618
g12
g26
sbag1
(g6
g7
S'223368176'
p5619
tp5620
Rp5621
(dp5622
g12
g26
sbag1
(g6
g7
S'223368174'
p5623
tp5624
Rp5625
(dp5626
g12
g26
sbag1
(g6
g7
S'148374083'
p5627
tp5628
Rp5629
(dp5630
g12
g26
sbag1
(g6
g7
S'148374081'
p5631
tp5632
Rp5633
(dp5634
g12
g26
sbag1
(g6
g7
S'148374079'
p5635
tp5636
Rp5637
(dp5638
g12
g26
sbag1
(g6
g7
S'148374011'
p5639
tp5640
Rp5641
(dp5642
g12
g26
sbag1
(g6
g7
S'148374009'
p5643
tp5644
Rp5645
(dp5646
g12
g26
sbag1
(g6
g7
S'148374007'
p5647
tp5648
Rp5649
(dp5650
g12
g26
sbag1
(g6
g7
S'148374005'
p5651
tp5652
Rp5653
(dp5654
g12
g26
sbag1
(g6
g7
S'148374003'
p5655
tp5656
Rp5657
(dp5658
g12
g26
sbag1
(g6
g7
S'148374001'
p5659
tp5660
Rp5661
(dp5662
g12
g26
sbag1
(g6
g7
S'148373999'
p5663
tp5664
Rp5665
(dp5666
g12
g26
sbag1
(g6
g7
S'148373997'
p5667
tp5668
Rp5669
(dp5670
g12
g26
sbag1
(g6
g7
S'148373995'
p5671
tp5672
Rp5673
(dp5674
g12
g26
sbag1
(g6
g7
S'148373993'
p5675
tp5676
Rp5677
(dp5678
g12
g26
sbag1
(g6
g7
S'148373913'
p5679
tp5680
Rp5681
(dp5682
g12
g26
sbag1
(g6
g7
S'148373777'
p5683
tp5684
Rp5685
(dp5686
g12
g26
sbag1
(g6
g7
S'116607849'
p5687
tp5688
Rp5689
(dp5690
g12
g26
sbag1
(g6
g7
S'116607847'
p5691
tp5692
Rp5693
(dp5694
g12
g26
sbag1
(g6
g7
S'116607845'
p5695
tp5696
Rp5697
(dp5698
g12
g26
sbag1
(g6
g7
S'116607823'
p5699
tp5700
Rp5701
(dp5702
g12
g26
sbag1
(g6
g7
S'116607821'
p5703
tp5704
Rp5705
(dp5706
g12
g26
sbag1
(g6
g7
S'116607819'
p5707
tp5708
Rp5709
(dp5710
g12
g26
sbag1
(g6
g7
S'116607817'
p5711
tp5712
Rp5713
(dp5714
g12
g26
sbag1
(g6
g7
S'116607815'
p5715
tp5716
Rp5717
(dp5718
g12
g26
sbag1
(g6
g7
S'116607813'
p5719
tp5720
Rp5721
(dp5722
g12
g26
sbag1
(g6
g7
S'238686766'
p5723
tp5724
Rp5725
(dp5726
g12
g26
sbag1
(g6
g7
S'227935239'
p5727
tp5728
Rp5729
(dp5730
g12
g26
sbag1
(g6
g7
S'227935237'
p5731
tp5732
Rp5733
(dp5734
g12
g26
sbatp5735
Rp5736
(dp5737
g12
g18
sbsVQueryTranslation
p5738
g1
(g6
g7
S'"Lutjanidae"[Organism] AND COI[title]'
p5739
tp5740
Rp5741
(dp5742
g12
g5738
sbsVTranslationStack
p5743
g1
(g19
g20
(lp5744
g1
(g2
g3
(dp5745
g5
g1
(g6
g7
S'6277'
p5746
tp5747
Rp5748
(dp5749
g12
g5
sbsVField
p5750
g1
(g6
g7
S'Organism'
p5751
tp5752
Rp5753
(dp5754
g12
g5750
sbsVTerm
p5755
g1
(g6
g7
S'"Lutjanidae"[Organism]'
p5756
tp5757
Rp5758
(dp5759
g12
g5755
sbsVExplode
p5760
g1
(g6
g7
S'Y'
p5761
tp5762
Rp5763
(dp5764
g12
g5760
sbstp5765
Rp5766
(dp5767
g12
VTermSet
p5768
sbag1
(g2
g3
(dp5769
g5
g1
(g6
g7
S'2167342'
p5770
tp5771
Rp5772
(dp5773
g12
g5
sbsg5750
g1
(g6
g7
S'title'
p5774
tp5775
Rp5776
(dp5777
g12
g5750
sbsg5755
g1
(g6
g7
S'COI[title]'
p5778
tp5779
Rp5780
(dp5781
g12
g5755
sbsg5760
g1
(g6
g7
S'N'
p5782
tp5783
Rp5784
(dp5785
g12
g5760
sbstp5786
Rp5787
(dp5788
g12
g5768
sbag1
(g6
g7
S'AND'
p5789
tp5790
Rp5791
(dp5792
g12
VOP
p5793
sbatp5794
Rp5795
(dp5796
g12
g5743
sbsVRetStart
p5797
g1
(g6
g7
S'0'
p5798
tp5799
Rp5800
(dp5801
g12
g5797
sbsVTranslationSet
p5802
g1
(g19
g20
(lp5803
g1
(g2
g3
(dp5804
VTo
p5805
g1
(g6
g7
S'"Lutjanidae"[Organism]'
p5806
tp5807
Rp5808
(dp5809
g12
g5805
sbsVFrom
p5810
g1
(g6
g7
S'Lutjanidae[organism]'
p5811
tp5812
Rp5813
(dp5814
g12
g5810
sbstp5815
Rp5816
(dp5817
g12
VTranslation
p5818
sbatp5819
Rp5820
(dp5821
g12
g5802
sbstp5822
Rp5823
(dp5824
g12
VeSearchResult
p5825
sba.