(lp0
ccopy_reg
_reconstructor
p1
(cBio.Entrez.Parser
DictionaryElement
p2
c__builtin__
dict
p3
(dp4
VCount
p5
g1
(cBio.Entrez.Parser
StringElement
p6
c__builtin__
str
p7
S'24'
p8
tp9
Rp10
(dp11
S'tag'
p12
g5
sbsVRetMax
p13
g1
(g6
g7
S'24'
p14
tp15
Rp16
(dp17
g12
g13
sbsVIdList
p18
g1
(cBio.Entrez.Parser
ListElement
p19
c__builtin__
list
p20
(lp21
g1
(g6
g7
S'444292733'
p22
tp23
Rp24
(dp25
g12
VId
p26
sbag1
(g6
g7
S'526455432'
p27
tp28
Rp29
(dp30
g12
g26
sbag1
(g6
g7
S'525333343'
p31
tp32
Rp33
(dp34
g12
g26
sbag1
(g6
g7
S'525333342'
p35
tp36
Rp37
(dp38
g12
g26
sbag1
(g6
g7
S'525333341'
p39
tp40
Rp41
(dp42
g12
g26
sbag1
(g6
g7
S'525333314'
p43
tp44
Rp45
(dp46
g12
g26
sbag1
(g6
g7
S'525333313'
p47
tp48
Rp49
(dp50
g12
g26
sbag1
(g6
g7
S'525333312'
p51
tp52
Rp53
(dp54
g12
g26
sbag1
(g6
g7
S'525457522'
p55
tp56
Rp57
(dp58
g12
g26
sbag1
(g6
g7
S'507105760'
p59
tp60
Rp61
(dp62
g12
g26
sbag1
(g6
g7
S'507105759'
p63
tp64
Rp65
(dp66
g12
g26
sbag1
(g6
g7
S'507105758'
p67
tp68
Rp69
(dp70
g12
g26
sbag1
(g6
g7
S'354550576'
p71
tp72
Rp73
(dp74
g12
g26
sbag1
(g6
g7
S'354550575'
p75
tp76
Rp77
(dp78
g12
g26
sbag1
(g6
g7
S'354550574'
p79
tp80
Rp81
(dp82
g12
g26
sbag1
(g6
g7
S'354550573'
p83
tp84
Rp85
(dp86
g12
g26
sbag1
(g6
g7
S'256858042'
p87
tp88
Rp89
(dp90
g12
g26
sbag1
(g6
g7
S'126655024'
p91
tp92
Rp93
(dp94
g12
g26
sbag1
(g6
g7
S'126654971'
p95
tp96
Rp97
(dp98
g12
g26
sbag1
(g6
g7
S'110277222'
p99
tp100
Rp101
(dp102
g12
g26
sbag1
(g6
g7
S'194338382'
p103
tp104
Rp105
(dp106
g12
g26
sbag1
(g6
g7
S'194338381'
p107
tp108
Rp109
(dp110
g12
g26
sbag1
(g6
g7
S'161137765'
p111
tp112
Rp113
(dp114
g12
g26
sbag1
(g6
g7
S'161137764'
p115
tp116
Rp117
(dp118
g12
g26
sbatp119
Rp120
(dp121
g12
g18
sbsVQueryTranslation
p122
g1
(g6
g7
S'"Sillaginidae"[Organism] AND 16S[title]'
p123
tp124
Rp125
(dp126
g12
g122
sbsVTranslationStack
p127
g1
(g19
g20
(lp128
g1
(g2
g3
(dp129
g5
g1
(g6
g7
S'715'
p130
tp131
Rp132
(dp133
g12
g5
sbsVField
p134
g1
(g6
g7
S'Organism'
p135
tp136
Rp137
(dp138
g12
g134
sbsVTerm
p139
g1
(g6
g7
S'"Sillaginidae"[Organism]'
p140
tp141
Rp142
(dp143
g12
g139
sbsVExplode
p144
g1
(g6
g7
S'Y'
p145
tp146
Rp147
(dp148
g12
g144
sbstp149
Rp150
(dp151
g12
VTermSet
p152
sbag1
(g2
g3
(dp153
g5
g1
(g6
g7
S'7139828'
p154
tp155
Rp156
(dp157
g12
g5
sbsg134
g1
(g6
g7
S'title'
p158
tp159
Rp160
(dp161
g12
g134
sbsg139
g1
(g6
g7
S'16S[title]'
p162
tp163
Rp164
(dp165
g12
g139
sbsg144
g1
(g6
g7
S'N'
p166
tp167
Rp168
(dp169
g12
g144
sbstp170
Rp171
(dp172
g12
g152
sbag1
(g6
g7
S'AND'
p173
tp174
Rp175
(dp176
g12
VOP
p177
sbatp178
Rp179
(dp180
g12
g127
sbsVRetStart
p181
g1
(g6
g7
S'0'
p182
tp183
Rp184
(dp185
g12
g181
sbsVTranslationSet
p186
g1
(g19
g20
(lp187
g1
(g2
g3
(dp188
VTo
p189
g1
(g6
g7
S'"Sillaginidae"[Organism]'
p190
tp191
Rp192
(dp193
g12
g189
sbsVFrom
p194
g1
(g6
g7
S'Sillaginidae[organism]'
p195
tp196
Rp197
(dp198
g12
g194
sbstp199
Rp200
(dp201
g12
VTranslation
p202
sbatp203
Rp204
(dp205
g12
g186
sbstp206
Rp207
(dp208
g12
VeSearchResult
p209
sba.