(lp0
ccopy_reg
_reconstructor
p1
(cBio.Entrez.Parser
DictionaryElement
p2
c__builtin__
dict
p3
(dp4
VCount
p5
g1
(cBio.Entrez.Parser
StringElement
p6
c__builtin__
str
p7
S'265'
p8
tp9
Rp10
(dp11
S'tag'
p12
g5
sbsVRetMax
p13
g1
(g6
g7
S'265'
p14
tp15
Rp16
(dp17
g12
g13
sbsVIdList
p18
g1
(cBio.Entrez.Parser
ListElement
p19
c__builtin__
list
p20
(lp21
g1
(g6
g7
S'1101492548'
p22
tp23
Rp24
(dp25
g12
VId
p26
sbag1
(g6
g7
S'1101492546'
p27
tp28
Rp29
(dp30
g12
g26
sbag1
(g6
g7
S'1101492544'
p31
tp32
Rp33
(dp34
g12
g26
sbag1
(g6
g7
S'1101492542'
p35
tp36
Rp37
(dp38
g12
g26
sbag1
(g6
g7
S'1101492540'
p39
tp40
Rp41
(dp42
g12
g26
sbag1
(g6
g7
S'1101492538'
p43
tp44
Rp45
(dp46
g12
g26
sbag1
(g6
g7
S'1101492536'
p47
tp48
Rp49
(dp50
g12
g26
sbag1
(g6
g7
S'1101492534'
p51
tp52
Rp53
(dp54
g12
g26
sbag1
(g6
g7
S'1101492532'
p55
tp56
Rp57
(dp58
g12
g26
sbag1
(g6
g7
S'1101492530'
p59
tp60
Rp61
(dp62
g12
g26
sbag1
(g6
g7
S'1101492528'
p63
tp64
Rp65
(dp66
g12
g26
sbag1
(g6
g7
S'1101492526'
p67
tp68
Rp69
(dp70
g12
g26
sbag1
(g6
g7
S'1101492524'
p71
tp72
Rp73
(dp74
g12
g26
sbag1
(g6
g7
S'1101492522'
p75
tp76
Rp77
(dp78
g12
g26
sbag1
(g6
g7
S'1101492520'
p79
tp80
Rp81
(dp82
g12
g26
sbag1
(g6
g7
S'1101492518'
p83
tp84
Rp85
(dp86
g12
g26
sbag1
(g6
g7
S'1101492516'
p87
tp88
Rp89
(dp90
g12
g26
sbag1
(g6
g7
S'1101011053'
p91
tp92
Rp93
(dp94
g12
g26
sbag1
(g6
g7
S'1101011051'
p95
tp96
Rp97
(dp98
g12
g26
sbag1
(g6
g7
S'195592541'
p99
tp100
Rp101
(dp102
g12
g26
sbag1
(g6
g7
S'190608745'
p103
tp104
Rp105
(dp106
g12
g26
sbag1
(g6
g7
S'190608743'
p107
tp108
Rp109
(dp110
g12
g26
sbag1
(g6
g7
S'359682561'
p111
tp112
Rp113
(dp114
g12
g26
sbag1
(g6
g7
S'339431780'
p115
tp116
Rp117
(dp118
g12
g26
sbag1
(g6
g7
S'339431778'
p119
tp120
Rp121
(dp122
g12
g26
sbag1
(g6
g7
S'328487512'
p123
tp124
Rp125
(dp126
g12
g26
sbag1
(g6
g7
S'328487510'
p127
tp128
Rp129
(dp130
g12
g26
sbag1
(g6
g7
S'328487508'
p131
tp132
Rp133
(dp134
g12
g26
sbag1
(g6
g7
S'328487506'
p135
tp136
Rp137
(dp138
g12
g26
sbag1
(g6
g7
S'328487504'
p139
tp140
Rp141
(dp142
g12
g26
sbag1
(g6
g7
S'328487502'
p143
tp144
Rp145
(dp146
g12
g26
sbag1
(g6
g7
S'328487500'
p147
tp148
Rp149
(dp150
g12
g26
sbag1
(g6
g7
S'328487498'
p151
tp152
Rp153
(dp154
g12
g26
sbag1
(g6
g7
S'328487496'
p155
tp156
Rp157
(dp158
g12
g26
sbag1
(g6
g7
S'328487494'
p159
tp160
Rp161
(dp162
g12
g26
sbag1
(g6
g7
S'328487492'
p163
tp164
Rp165
(dp166
g12
g26
sbag1
(g6
g7
S'328487490'
p167
tp168
Rp169
(dp170
g12
g26
sbag1
(g6
g7
S'328487488'
p171
tp172
Rp173
(dp174
g12
g26
sbag1
(g6
g7
S'328487486'
p175
tp176
Rp177
(dp178
g12
g26
sbag1
(g6
g7
S'328487484'
p179
tp180
Rp181
(dp182
g12
g26
sbag1
(g6
g7
S'328487482'
p183
tp184
Rp185
(dp186
g12
g26
sbag1
(g6
g7
S'328487478'
p187
tp188
Rp189
(dp190
g12
g26
sbag1
(g6
g7
S'328487476'
p191
tp192
Rp193
(dp194
g12
g26
sbag1
(g6
g7
S'328487474'
p195
tp196
Rp197
(dp198
g12
g26
sbag1
(g6
g7
S'328487472'
p199
tp200
Rp201
(dp202
g12
g26
sbag1
(g6
g7
S'312841713'
p203
tp204
Rp205
(dp206
g12
g26
sbag1
(g6
g7
S'309774375'
p207
tp208
Rp209
(dp210
g12
g26
sbag1
(g6
g7
S'309774373'
p211
tp212
Rp213
(dp214
g12
g26
sbag1
(g6
g7
S'309774371'
p215
tp216
Rp217
(dp218
g12
g26
sbag1
(g6
g7
S'309774369'
p219
tp220
Rp221
(dp222
g12
g26
sbag1
(g6
g7
S'309774367'
p223
tp224
Rp225
(dp226
g12
g26
sbag1
(g6
g7
S'309774365'
p227
tp228
Rp229
(dp230
g12
g26
sbag1
(g6
g7
S'309774363'
p231
tp232
Rp233
(dp234
g12
g26
sbag1
(g6
g7
S'309774361'
p235
tp236
Rp237
(dp238
g12
g26
sbag1
(g6
g7
S'309774359'
p239
tp240
Rp241
(dp242
g12
g26
sbag1
(g6
g7
S'309774357'
p243
tp244
Rp245
(dp246
g12
g26
sbag1
(g6
g7
S'309774355'
p247
tp248
Rp249
(dp250
g12
g26
sbag1
(g6
g7
S'309774353'
p251
tp252
Rp253
(dp254
g12
g26
sbag1
(g6
g7
S'309774351'
p255
tp256
Rp257
(dp258
g12
g26
sbag1
(g6
g7
S'309774349'
p259
tp260
Rp261
(dp262
g12
g26
sbag1
(g6
g7
S'309774347'
p263
tp264
Rp265
(dp266
g12
g26
sbag1
(g6
g7
S'309774345'
p267
tp268
Rp269
(dp270
g12
g26
sbag1
(g6
g7
S'309774343'
p271
tp272
Rp273
(dp274
g12
g26
sbag1
(g6
g7
S'309774341'
p275
tp276
Rp277
(dp278
g12
g26
sbag1
(g6
g7
S'302138831'
p279
tp280
Rp281
(dp282
g12
g26
sbag1
(g6
g7
S'301602555'
p283
tp284
Rp285
(dp286
g12
g26
sbag1
(g6
g7
S'301602553'
p287
tp288
Rp289
(dp290
g12
g26
sbag1
(g6
g7
S'301602551'
p291
tp292
Rp293
(dp294
g12
g26
sbag1
(g6
g7
S'301602549'
p295
tp296
Rp297
(dp298
g12
g26
sbag1
(g6
g7
S'301602547'
p299
tp300
Rp301
(dp302
g12
g26
sbag1
(g6
g7
S'301602545'
p303
tp304
Rp305
(dp306
g12
g26
sbag1
(g6
g7
S'301602543'
p307
tp308
Rp309
(dp310
g12
g26
sbag1
(g6
g7
S'301602541'
p311
tp312
Rp313
(dp314
g12
g26
sbag1
(g6
g7
S'301602539'
p315
tp316
Rp317
(dp318
g12
g26
sbag1
(g6
g7
S'301602537'
p319
tp320
Rp321
(dp322
g12
g26
sbag1
(g6
g7
S'301602535'
p323
tp324
Rp325
(dp326
g12
g26
sbag1
(g6
g7
S'301602533'
p327
tp328
Rp329
(dp330
g12
g26
sbag1
(g6
g7
S'301602531'
p331
tp332
Rp333
(dp334
g12
g26
sbag1
(g6
g7
S'301602529'
p335
tp336
Rp337
(dp338
g12
g26
sbag1
(g6
g7
S'301602527'
p339
tp340
Rp341
(dp342
g12
g26
sbag1
(g6
g7
S'301602525'
p343
tp344
Rp345
(dp346
g12
g26
sbag1
(g6
g7
S'296836878'
p347
tp348
Rp349
(dp350
g12
g26
sbag1
(g6
g7
S'227935981'
p351
tp352
Rp353
(dp354
g12
g26
sbag1
(g6
g7
S'151975687'
p355
tp356
Rp357
(dp358
g12
g26
sbag1
(g6
g7
S'151975685'
p359
tp360
Rp361
(dp362
g12
g26
sbag1
(g6
g7
S'151975683'
p363
tp364
Rp365
(dp366
g12
g26
sbag1
(g6
g7
S'151975681'
p367
tp368
Rp369
(dp370
g12
g26
sbag1
(g6
g7
S'151975679'
p371
tp372
Rp373
(dp374
g12
g26
sbag1
(g6
g7
S'148374137'
p375
tp376
Rp377
(dp378
g12
g26
sbag1
(g6
g7
S'1040783915'
p379
tp380
Rp381
(dp382
g12
g26
sbag1
(g6
g7
S'1040783913'
p383
tp384
Rp385
(dp386
g12
g26
sbag1
(g6
g7
S'1040783911'
p387
tp388
Rp389
(dp390
g12
g26
sbag1
(g6
g7
S'1040783909'
p391
tp392
Rp393
(dp394
g12
g26
sbag1
(g6
g7
S'1040783907'
p395
tp396
Rp397
(dp398
g12
g26
sbag1
(g6
g7
S'1040783905'
p399
tp400
Rp401
(dp402
g12
g26
sbag1
(g6
g7
S'954001217'
p403
tp404
Rp405
(dp406
g12
g26
sbag1
(g6
g7
S'1028405570'
p407
tp408
Rp409
(dp410
g12
g26
sbag1
(g6
g7
S'1018444973'
p411
tp412
Rp413
(dp414
g12
g26
sbag1
(g6
g7
S'1018444971'
p415
tp416
Rp417
(dp418
g12
g26
sbag1
(g6
g7
S'1018444969'
p419
tp420
Rp421
(dp422
g12
g26
sbag1
(g6
g7
S'1018444967'
p423
tp424
Rp425
(dp426
g12
g26
sbag1
(g6
g7
S'1002677641'
p427
tp428
Rp429
(dp430
g12
g26
sbag1
(g6
g7
S'1002677305'
p431
tp432
Rp433
(dp434
g12
g26
sbag1
(g6
g7
S'959315817'
p435
tp436
Rp437
(dp438
g12
g26
sbag1
(g6
g7
S'959315815'
p439
tp440
Rp441
(dp442
g12
g26
sbag1
(g6
g7
S'802085137'
p443
tp444
Rp445
(dp446
g12
g26
sbag1
(g6
g7
S'802085135'
p447
tp448
Rp449
(dp450
g12
g26
sbag1
(g6
g7
S'802085133'
p451
tp452
Rp453
(dp454
g12
g26
sbag1
(g6
g7
S'802085131'
p455
tp456
Rp457
(dp458
g12
g26
sbag1
(g6
g7
S'802085129'
p459
tp460
Rp461
(dp462
g12
g26
sbag1
(g6
g7
S'802085127'
p463
tp464
Rp465
(dp466
g12
g26
sbag1
(g6
g7
S'802085125'
p467
tp468
Rp469
(dp470
g12
g26
sbag1
(g6
g7
S'802085123'
p471
tp472
Rp473
(dp474
g12
g26
sbag1
(g6
g7
S'802085121'
p475
tp476
Rp477
(dp478
g12
g26
sbag1
(g6
g7
S'802085119'
p479
tp480
Rp481
(dp482
g12
g26
sbag1
(g6
g7
S'802085117'
p483
tp484
Rp485
(dp486
g12
g26
sbag1
(g6
g7
S'802085115'
p487
tp488
Rp489
(dp490
g12
g26
sbag1
(g6
g7
S'802085113'
p491
tp492
Rp493
(dp494
g12
g26
sbag1
(g6
g7
S'802085111'
p495
tp496
Rp497
(dp498
g12
g26
sbag1
(g6
g7
S'802085109'
p499
tp500
Rp501
(dp502
g12
g26
sbag1
(g6
g7
S'926574176'
p503
tp504
Rp505
(dp506
g12
g26
sbag1
(g6
g7
S'926574174'
p507
tp508
Rp509
(dp510
g12
g26
sbag1
(g6
g7
S'926574172'
p511
tp512
Rp513
(dp514
g12
g26
sbag1
(g6
g7
S'926574170'
p515
tp516
Rp517
(dp518
g12
g26
sbag1
(g6
g7
S'724784913'
p519
tp520
Rp521
(dp522
g12
g26
sbag1
(g6
g7
S'724784911'
p523
tp524
Rp525
(dp526
g12
g26
sbag1
(g6
g7
S'724784909'
p527
tp528
Rp529
(dp530
g12
g26
sbag1
(g6
g7
S'724784907'
p531
tp532
Rp533
(dp534
g12
g26
sbag1
(g6
g7
S'724784905'
p535
tp536
Rp537
(dp538
g12
g26
sbag1
(g6
g7
S'724784903'
p539
tp540
Rp541
(dp542
g12
g26
sbag1
(g6
g7
S'724784901'
p543
tp544
Rp545
(dp546
g12
g26
sbag1
(g6
g7
S'724784899'
p547
tp548
Rp549
(dp550
g12
g26
sbag1
(g6
g7
S'724784897'
p551
tp552
Rp553
(dp554
g12
g26
sbag1
(g6
g7
S'724784895'
p555
tp556
Rp557
(dp558
g12
g26
sbag1
(g6
g7
S'724784879'
p559
tp560
Rp561
(dp562
g12
g26
sbag1
(g6
g7
S'724784877'
p563
tp564
Rp565
(dp566
g12
g26
sbag1
(g6
g7
S'724784875'
p567
tp568
Rp569
(dp570
g12
g26
sbag1
(g6
g7
S'724784859'
p571
tp572
Rp573
(dp574
g12
g26
sbag1
(g6
g7
S'724784857'
p575
tp576
Rp577
(dp578
g12
g26
sbag1
(g6
g7
S'724784855'
p579
tp580
Rp581
(dp582
g12
g26
sbag1
(g6
g7
S'724784853'
p583
tp584
Rp585
(dp586
g12
g26
sbag1
(g6
g7
S'724784851'
p587
tp588
Rp589
(dp590
g12
g26
sbag1
(g6
g7
S'724784838'
p591
tp592
Rp593
(dp594
g12
g26
sbag1
(g6
g7
S'724784836'
p595
tp596
Rp597
(dp598
g12
g26
sbag1
(g6
g7
S'724784834'
p599
tp600
Rp601
(dp602
g12
g26
sbag1
(g6
g7
S'724784832'
p603
tp604
Rp605
(dp606
g12
g26
sbag1
(g6
g7
S'724784830'
p607
tp608
Rp609
(dp610
g12
g26
sbag1
(g6
g7
S'724784815'
p611
tp612
Rp613
(dp614
g12
g26
sbag1
(g6
g7
S'724784813'
p615
tp616
Rp617
(dp618
g12
g26
sbag1
(g6
g7
S'724784811'
p619
tp620
Rp621
(dp622
g12
g26
sbag1
(g6
g7
S'724784809'
p623
tp624
Rp625
(dp626
g12
g26
sbag1
(g6
g7
S'807197839'
p627
tp628
Rp629
(dp630
g12
g26
sbag1
(g6
g7
S'628820503'
p631
tp632
Rp633
(dp634
g12
g26
sbag1
(g6
g7
S'628820501'
p635
tp636
Rp637
(dp638
g12
g26
sbag1
(g6
g7
S'592747563'
p639
tp640
Rp641
(dp642
g12
g26
sbag1
(g6
g7
S'592747561'
p643
tp644
Rp645
(dp646
g12
g26
sbag1
(g6
g7
S'573464365'
p647
tp648
Rp649
(dp650
g12
g26
sbag1
(g6
g7
S'554792319'
p651
tp652
Rp653
(dp654
g12
g26
sbag1
(g6
g7
S'554792317'
p655
tp656
Rp657
(dp658
g12
g26
sbag1
(g6
g7
S'554792315'
p659
tp660
Rp661
(dp662
g12
g26
sbag1
(g6
g7
S'554792313'
p663
tp664
Rp665
(dp666
g12
g26
sbag1
(g6
g7
S'530323441'
p667
tp668
Rp669
(dp670
g12
g26
sbag1
(g6
g7
S'530323439'
p671
tp672
Rp673
(dp674
g12
g26
sbag1
(g6
g7
S'530323437'
p675
tp676
Rp677
(dp678
g12
g26
sbag1
(g6
g7
S'530323427'
p679
tp680
Rp681
(dp682
g12
g26
sbag1
(g6
g7
S'530323425'
p683
tp684
Rp685
(dp686
g12
g26
sbag1
(g6
g7
S'530323423'
p687
tp688
Rp689
(dp690
g12
g26
sbag1
(g6
g7
S'530323421'
p691
tp692
Rp693
(dp694
g12
g26
sbag1
(g6
g7
S'530323419'
p695
tp696
Rp697
(dp698
g12
g26
sbag1
(g6
g7
S'525457577'
p699
tp700
Rp701
(dp702
g12
g26
sbag1
(g6
g7
S'363710552'
p703
tp704
Rp705
(dp706
g12
g26
sbag1
(g6
g7
S'363710550'
p707
tp708
Rp709
(dp710
g12
g26
sbag1
(g6
g7
S'363710548'
p711
tp712
Rp713
(dp714
g12
g26
sbag1
(g6
g7
S'363710546'
p715
tp716
Rp717
(dp718
g12
g26
sbag1
(g6
g7
S'363710544'
p719
tp720
Rp721
(dp722
g12
g26
sbag1
(g6
g7
S'363710542'
p723
tp724
Rp725
(dp726
g12
g26
sbag1
(g6
g7
S'363710540'
p727
tp728
Rp729
(dp730
g12
g26
sbag1
(g6
g7
S'399932616'
p731
tp732
Rp733
(dp734
g12
g26
sbag1
(g6
g7
S'399932614'
p735
tp736
Rp737
(dp738
g12
g26
sbag1
(g6
g7
S'480542092'
p739
tp740
Rp741
(dp742
g12
g26
sbag1
(g6
g7
S'410176132'
p743
tp744
Rp745
(dp746
g12
g26
sbag1
(g6
g7
S'410176130'
p747
tp748
Rp749
(dp750
g12
g26
sbag1
(g6
g7
S'410176128'
p751
tp752
Rp753
(dp754
g12
g26
sbag1
(g6
g7
S'410176126'
p755
tp756
Rp757
(dp758
g12
g26
sbag1
(g6
g7
S'410176124'
p759
tp760
Rp761
(dp762
g12
g26
sbag1
(g6
g7
S'410176122'
p763
tp764
Rp765
(dp766
g12
g26
sbag1
(g6
g7
S'410176120'
p767
tp768
Rp769
(dp770
g12
g26
sbag1
(g6
g7
S'410176118'
p771
tp772
Rp773
(dp774
g12
g26
sbag1
(g6
g7
S'410176116'
p775
tp776
Rp777
(dp778
g12
g26
sbag1
(g6
g7
S'429326796'
p779
tp780
Rp781
(dp782
g12
g26
sbag1
(g6
g7
S'429326794'
p783
tp784
Rp785
(dp786
g12
g26
sbag1
(g6
g7
S'429326792'
p787
tp788
Rp789
(dp790
g12
g26
sbag1
(g6
g7
S'429326790'
p791
tp792
Rp793
(dp794
g12
g26
sbag1
(g6
g7
S'429326788'
p795
tp796
Rp797
(dp798
g12
g26
sbag1
(g6
g7
S'429326786'
p799
tp800
Rp801
(dp802
g12
g26
sbag1
(g6
g7
S'429326784'
p803
tp804
Rp805
(dp806
g12
g26
sbag1
(g6
g7
S'429326782'
p807
tp808
Rp809
(dp810
g12
g26
sbag1
(g6
g7
S'429326780'
p811
tp812
Rp813
(dp814
g12
g26
sbag1
(g6
g7
S'429326778'
p815
tp816
Rp817
(dp818
g12
g26
sbag1
(g6
g7
S'429326776'
p819
tp820
Rp821
(dp822
g12
g26
sbag1
(g6
g7
S'429326774'
p823
tp824
Rp825
(dp826
g12
g26
sbag1
(g6
g7
S'429326772'
p827
tp828
Rp829
(dp830
g12
g26
sbag1
(g6
g7
S'429326770'
p831
tp832
Rp833
(dp834
g12
g26
sbag1
(g6
g7
S'429326768'
p835
tp836
Rp837
(dp838
g12
g26
sbag1
(g6
g7
S'429326766'
p839
tp840
Rp841
(dp842
g12
g26
sbag1
(g6
g7
S'429326764'
p843
tp844
Rp845
(dp846
g12
g26
sbag1
(g6
g7
S'429326762'
p847
tp848
Rp849
(dp850
g12
g26
sbag1
(g6
g7
S'429326760'
p851
tp852
Rp853
(dp854
g12
g26
sbag1
(g6
g7
S'429326758'
p855
tp856
Rp857
(dp858
g12
g26
sbag1
(g6
g7
S'429326756'
p859
tp860
Rp861
(dp862
g12
g26
sbag1
(g6
g7
S'429326754'
p863
tp864
Rp865
(dp866
g12
g26
sbag1
(g6
g7
S'429326752'
p867
tp868
Rp869
(dp870
g12
g26
sbag1
(g6
g7
S'429326750'
p871
tp872
Rp873
(dp874
g12
g26
sbag1
(g6
g7
S'429326748'
p875
tp876
Rp877
(dp878
g12
g26
sbag1
(g6
g7
S'429326746'
p879
tp880
Rp881
(dp882
g12
g26
sbag1
(g6
g7
S'429326744'
p883
tp884
Rp885
(dp886
g12
g26
sbag1
(g6
g7
S'429326742'
p887
tp888
Rp889
(dp890
g12
g26
sbag1
(g6
g7
S'429326740'
p891
tp892
Rp893
(dp894
g12
g26
sbag1
(g6
g7
S'429326738'
p895
tp896
Rp897
(dp898
g12
g26
sbag1
(g6
g7
S'429326736'
p899
tp900
Rp901
(dp902
g12
g26
sbag1
(g6
g7
S'429326734'
p903
tp904
Rp905
(dp906
g12
g26
sbag1
(g6
g7
S'429326732'
p907
tp908
Rp909
(dp910
g12
g26
sbag1
(g6
g7
S'429326730'
p911
tp912
Rp913
(dp914
g12
g26
sbag1
(g6
g7
S'429326728'
p915
tp916
Rp917
(dp918
g12
g26
sbag1
(g6
g7
S'429326726'
p919
tp920
Rp921
(dp922
g12
g26
sbag1
(g6
g7
S'429326724'
p923
tp924
Rp925
(dp926
g12
g26
sbag1
(g6
g7
S'429326722'
p927
tp928
Rp929
(dp930
g12
g26
sbag1
(g6
g7
S'429326720'
p931
tp932
Rp933
(dp934
g12
g26
sbag1
(g6
g7
S'429326718'
p935
tp936
Rp937
(dp938
g12
g26
sbag1
(g6
g7
S'429326716'
p939
tp940
Rp941
(dp942
g12
g26
sbag1
(g6
g7
S'429326714'
p943
tp944
Rp945
(dp946
g12
g26
sbag1
(g6
g7
S'429326712'
p947
tp948
Rp949
(dp950
g12
g26
sbag1
(g6
g7
S'429326710'
p951
tp952
Rp953
(dp954
g12
g26
sbag1
(g6
g7
S'429326708'
p955
tp956
Rp957
(dp958
g12
g26
sbag1
(g6
g7
S'429326706'
p959
tp960
Rp961
(dp962
g12
g26
sbag1
(g6
g7
S'429326704'
p963
tp964
Rp965
(dp966
g12
g26
sbag1
(g6
g7
S'429326702'
p967
tp968
Rp969
(dp970
g12
g26
sbag1
(g6
g7
S'429326700'
p971
tp972
Rp973
(dp974
g12
g26
sbag1
(g6
g7
S'429326698'
p975
tp976
Rp977
(dp978
g12
g26
sbag1
(g6
g7
S'226424324'
p979
tp980
Rp981
(dp982
g12
g26
sbag1
(g6
g7
S'226424322'
p983
tp984
Rp985
(dp986
g12
g26
sbag1
(g6
g7
S'226424320'
p987
tp988
Rp989
(dp990
g12
g26
sbag1
(g6
g7
S'385731387'
p991
tp992
Rp993
(dp994
g12
g26
sbag1
(g6
g7
S'385731385'
p995
tp996
Rp997
(dp998
g12
g26
sbag1
(g6
g7
S'385731383'
p999
tp1000
Rp1001
(dp1002
g12
g26
sbag1
(g6
g7
S'385731381'
p1003
tp1004
Rp1005
(dp1006
g12
g26
sbag1
(g6
g7
S'385731379'
p1007
tp1008
Rp1009
(dp1010
g12
g26
sbag1
(g6
g7
S'345809097'
p1011
tp1012
Rp1013
(dp1014
g12
g26
sbag1
(g6
g7
S'345809095'
p1015
tp1016
Rp1017
(dp1018
g12
g26
sbag1
(g6
g7
S'345809093'
p1019
tp1020
Rp1021
(dp1022
g12
g26
sbag1
(g6
g7
S'345809091'
p1023
tp1024
Rp1025
(dp1026
g12
g26
sbag1
(g6
g7
S'328487480'
p1027
tp1028
Rp1029
(dp1030
g12
g26
sbag1
(g6
g7
S'148374149'
p1031
tp1032
Rp1033
(dp1034
g12
g26
sbag1
(g6
g7
S'148374147'
p1035
tp1036
Rp1037
(dp1038
g12
g26
sbag1
(g6
g7
S'148374145'
p1039
tp1040
Rp1041
(dp1042
g12
g26
sbag1
(g6
g7
S'148374143'
p1043
tp1044
Rp1045
(dp1046
g12
g26
sbag1
(g6
g7
S'148374141'
p1047
tp1048
Rp1049
(dp1050
g12
g26
sbag1
(g6
g7
S'148374139'
p1051
tp1052
Rp1053
(dp1054
g12
g26
sbag1
(g6
g7
S'238686781'
p1055
tp1056
Rp1057
(dp1058
g12
g26
sbag1
(g6
g7
S'224581693'
p1059
tp1060
Rp1061
(dp1062
g12
g26
sbag1
(g6
g7
S'224581692'
p1063
tp1064
Rp1065
(dp1066
g12
g26
sbag1
(g6
g7
S'148509035'
p1067
tp1068
Rp1069
(dp1070
g12
g26
sbag1
(g6
g7
S'148509033'
p1071
tp1072
Rp1073
(dp1074
g12
g26
sbag1
(g6
g7
S'148509031'
p1075
tp1076
Rp1077
(dp1078
g12
g26
sbag1
(g6
g7
S'148509029'
p1079
tp1080
Rp1081
(dp1082
g12
g26
sbatp1083
Rp1084
(dp1085
g12
g18
sbsVQueryTranslation
p1086
g1
(g6
g7
S'"Sillaginidae"[Organism] AND COI[title]'
p1087
tp1088
Rp1089
(dp1090
g12
g1086
sbsVTranslationStack
p1091
g1
(g19
g20
(lp1092
g1
(g2
g3
(dp1093
g5
g1
(g6
g7
S'715'
p1094
tp1095
Rp1096
(dp1097
g12
g5
sbsVField
p1098
g1
(g6
g7
S'Organism'
p1099
tp1100
Rp1101
(dp1102
g12
g1098
sbsVTerm
p1103
g1
(g6
g7
S'"Sillaginidae"[Organism]'
p1104
tp1105
Rp1106
(dp1107
g12
g1103
sbsVExplode
p1108
g1
(g6
g7
S'Y'
p1109
tp1110
Rp1111
(dp1112
g12
g1108
sbstp1113
Rp1114
(dp1115
g12
VTermSet
p1116
sbag1
(g2
g3
(dp1117
g5
g1
(g6
g7
S'2167342'
p1118
tp1119
Rp1120
(dp1121
g12
g5
sbsg1098
g1
(g6
g7
S'title'
p1122
tp1123
Rp1124
(dp1125
g12
g1098
sbsg1103
g1
(g6
g7
S'COI[title]'
p1126
tp1127
Rp1128
(dp1129
g12
g1103
sbsg1108
g1
(g6
g7
S'N'
p1130
tp1131
Rp1132
(dp1133
g12
g1108
sbstp1134
Rp1135
(dp1136
g12
g1116
sbag1
(g6
g7
S'AND'
p1137
tp1138
Rp1139
(dp1140
g12
VOP
p1141
sbatp1142
Rp1143
(dp1144
g12
g1091
sbsVRetStart
p1145
g1
(g6
g7
S'0'
p1146
tp1147
Rp1148
(dp1149
g12
g1145
sbsVTranslationSet
p1150
g1
(g19
g20
(lp1151
g1
(g2
g3
(dp1152
VTo
p1153
g1
(g6
g7
S'"Sillaginidae"[Organism]'
p1154
tp1155
Rp1156
(dp1157
g12
g1153
sbsVFrom
p1158
g1
(g6
g7
S'Sillaginidae[organism]'
p1159
tp1160
Rp1161
(dp1162
g12
g1158
sbstp1163
Rp1164
(dp1165
g12
VTranslation
p1166
sbatp1167
Rp1168
(dp1169
g12
g1150
sbstp1170
Rp1171
(dp1172
g12
VeSearchResult
p1173
sba.