(lp0
ccopy_reg
_reconstructor
p1
(cBio.Entrez.Parser
DictionaryElement
p2
c__builtin__
dict
p3
(dp4
VCount
p5
g1
(cBio.Entrez.Parser
StringElement
p6
c__builtin__
str
p7
S'42'
p8
tp9
Rp10
(dp11
S'tag'
p12
g5
sbsVRetMax
p13
g1
(g6
g7
S'42'
p14
tp15
Rp16
(dp17
g12
g13
sbsVIdList
p18
g1
(cBio.Entrez.Parser
ListElement
p19
c__builtin__
list
p20
(lp21
g1
(g6
g7
S'1101497842'
p22
tp23
Rp24
(dp25
g12
VId
p26
sbag1
(g6
g7
S'1101497840'
p27
tp28
Rp29
(dp30
g12
g26
sbag1
(g6
g7
S'328484126'
p31
tp32
Rp33
(dp34
g12
g26
sbag1
(g6
g7
S'159156863'
p35
tp36
Rp37
(dp38
g12
g26
sbag1
(g6
g7
S'322402451'
p39
tp40
Rp41
(dp42
g12
g26
sbag1
(g6
g7
S'322402429'
p43
tp44
Rp45
(dp46
g12
g26
sbag1
(g6
g7
S'322402247'
p47
tp48
Rp49
(dp50
g12
g26
sbag1
(g6
g7
S'322402245'
p51
tp52
Rp53
(dp54
g12
g26
sbag1
(g6
g7
S'1041927308'
p55
tp56
Rp57
(dp58
g12
g26
sbag1
(g6
g7
S'1041927288'
p59
tp60
Rp61
(dp62
g12
g26
sbag1
(g6
g7
S'1041927250'
p63
tp64
Rp65
(dp66
g12
g26
sbag1
(g6
g7
S'959478772'
p67
tp68
Rp69
(dp70
g12
g26
sbag1
(g6
g7
S'674652738'
p71
tp72
Rp73
(dp74
g12
g26
sbag1
(g6
g7
S'674652736'
p75
tp76
Rp77
(dp78
g12
g26
sbag1
(g6
g7
S'672918320'
p79
tp80
Rp81
(dp82
g12
g26
sbag1
(g6
g7
S'668348967'
p83
tp84
Rp85
(dp86
g12
g26
sbag1
(g6
g7
S'668348965'
p87
tp88
Rp89
(dp90
g12
g26
sbag1
(g6
g7
S'668348963'
p91
tp92
Rp93
(dp94
g12
g26
sbag1
(g6
g7
S'668348961'
p95
tp96
Rp97
(dp98
g12
g26
sbag1
(g6
g7
S'668348959'
p99
tp100
Rp101
(dp102
g12
g26
sbag1
(g6
g7
S'607345501'
p103
tp104
Rp105
(dp106
g12
g26
sbag1
(g6
g7
S'651208804'
p107
tp108
Rp109
(dp110
g12
g26
sbag1
(g6
g7
S'584295214'
p111
tp112
Rp113
(dp114
g12
g26
sbag1
(g6
g7
S'429139681'
p115
tp116
Rp117
(dp118
g12
g26
sbag1
(g6
g7
S'392974751'
p119
tp120
Rp121
(dp122
g12
g26
sbag1
(g6
g7
S'392974749'
p123
tp124
Rp125
(dp126
g12
g26
sbag1
(g6
g7
S'392974747'
p127
tp128
Rp129
(dp130
g12
g26
sbag1
(g6
g7
S'392974745'
p131
tp132
Rp133
(dp134
g12
g26
sbag1
(g6
g7
S'392974743'
p135
tp136
Rp137
(dp138
g12
g26
sbag1
(g6
g7
S'392974370'
p139
tp140
Rp141
(dp142
g12
g26
sbag1
(g6
g7
S'392974368'
p143
tp144
Rp145
(dp146
g12
g26
sbag1
(g6
g7
S'392974366'
p147
tp148
Rp149
(dp150
g12
g26
sbag1
(g6
g7
S'392974364'
p151
tp152
Rp153
(dp154
g12
g26
sbag1
(g6
g7
S'392974362'
p155
tp156
Rp157
(dp158
g12
g26
sbag1
(g6
g7
S'392973942'
p159
tp160
Rp161
(dp162
g12
g26
sbag1
(g6
g7
S'392973940'
p163
tp164
Rp165
(dp166
g12
g26
sbag1
(g6
g7
S'392973938'
p167
tp168
Rp169
(dp170
g12
g26
sbag1
(g6
g7
S'392973936'
p171
tp172
Rp173
(dp174
g12
g26
sbag1
(g6
g7
S'392973934'
p175
tp176
Rp177
(dp178
g12
g26
sbag1
(g6
g7
S'392973932'
p179
tp180
Rp181
(dp182
g12
g26
sbag1
(g6
g7
S'381278498'
p183
tp184
Rp185
(dp186
g12
g26
sbag1
(g6
g7
S'148373775'
p187
tp188
Rp189
(dp190
g12
g26
sbatp191
Rp192
(dp193
g12
g18
sbsVQueryTranslation
p194
g1
(g6
g7
S'"Caproidae"[Organism] AND COI[title]'
p195
tp196
Rp197
(dp198
g12
g194
sbsVTranslationStack
p199
g1
(g19
g20
(lp200
g1
(g2
g3
(dp201
g5
g1
(g6
g7
S'151'
p202
tp203
Rp204
(dp205
g12
g5
sbsVField
p206
g1
(g6
g7
S'Organism'
p207
tp208
Rp209
(dp210
g12
g206
sbsVTerm
p211
g1
(g6
g7
S'"Caproidae"[Organism]'
p212
tp213
Rp214
(dp215
g12
g211
sbsVExplode
p216
g1
(g6
g7
S'Y'
p217
tp218
Rp219
(dp220
g12
g216
sbstp221
Rp222
(dp223
g12
VTermSet
p224
sbag1
(g2
g3
(dp225
g5
g1
(g6
g7
S'2167342'
p226
tp227
Rp228
(dp229
g12
g5
sbsg206
g1
(g6
g7
S'title'
p230
tp231
Rp232
(dp233
g12
g206
sbsg211
g1
(g6
g7
S'COI[title]'
p234
tp235
Rp236
(dp237
g12
g211
sbsg216
g1
(g6
g7
S'N'
p238
tp239
Rp240
(dp241
g12
g216
sbstp242
Rp243
(dp244
g12
g224
sbag1
(g6
g7
S'AND'
p245
tp246
Rp247
(dp248
g12
VOP
p249
sbatp250
Rp251
(dp252
g12
g199
sbsVRetStart
p253
g1
(g6
g7
S'0'
p254
tp255
Rp256
(dp257
g12
g253
sbsVTranslationSet
p258
g1
(g19
g20
(lp259
g1
(g2
g3
(dp260
VTo
p261
g1
(g6
g7
S'"Caproidae"[Organism]'
p262
tp263
Rp264
(dp265
g12
g261
sbsVFrom
p266
g1
(g6
g7
S'Caproidae[organism]'
p267
tp268
Rp269
(dp270
g12
g266
sbstp271
Rp272
(dp273
g12
VTranslation
p274
sbatp275
Rp276
(dp277
g12
g258
sbstp278
Rp279
(dp280
g12
VeSearchResult
p281
sba.