(lp0
ccopy_reg
_reconstructor
p1
(cBio.Entrez.Parser
DictionaryElement
p2
c__builtin__
dict
p3
(dp4
VCount
p5
g1
(cBio.Entrez.Parser
StringElement
p6
c__builtin__
str
p7
S'169'
p8
tp9
Rp10
(dp11
S'tag'
p12
g5
sbsVRetMax
p13
g1
(g6
g7
S'169'
p14
tp15
Rp16
(dp17
g12
g13
sbsVIdList
p18
g1
(cBio.Entrez.Parser
ListElement
p19
c__builtin__
list
p20
(lp21
g1
(g6
g7
S'1101497598'
p22
tp23
Rp24
(dp25
g12
VId
p26
sbag1
(g6
g7
S'1101497596'
p27
tp28
Rp29
(dp30
g12
g26
sbag1
(g6
g7
S'1101497594'
p31
tp32
Rp33
(dp34
g12
g26
sbag1
(g6
g7
S'1101497592'
p35
tp36
Rp37
(dp38
g12
g26
sbag1
(g6
g7
S'1101497590'
p39
tp40
Rp41
(dp42
g12
g26
sbag1
(g6
g7
S'1101497588'
p43
tp44
Rp45
(dp46
g12
g26
sbag1
(g6
g7
S'1101497586'
p47
tp48
Rp49
(dp50
g12
g26
sbag1
(g6
g7
S'1101497584'
p51
tp52
Rp53
(dp54
g12
g26
sbag1
(g6
g7
S'189165742'
p55
tp56
Rp57
(dp58
g12
g26
sbag1
(g6
g7
S'189165740'
p59
tp60
Rp61
(dp62
g12
g26
sbag1
(g6
g7
S'339716894'
p63
tp64
Rp65
(dp66
g12
g26
sbag1
(g6
g7
S'339716892'
p67
tp68
Rp69
(dp70
g12
g26
sbag1
(g6
g7
S'339716890'
p71
tp72
Rp73
(dp74
g12
g26
sbag1
(g6
g7
S'339431776'
p75
tp76
Rp77
(dp78
g12
g26
sbag1
(g6
g7
S'328487470'
p79
tp80
Rp81
(dp82
g12
g26
sbag1
(g6
g7
S'328487468'
p83
tp84
Rp85
(dp86
g12
g26
sbag1
(g6
g7
S'328487466'
p87
tp88
Rp89
(dp90
g12
g26
sbag1
(g6
g7
S'328487464'
p91
tp92
Rp93
(dp94
g12
g26
sbag1
(g6
g7
S'328487462'
p95
tp96
Rp97
(dp98
g12
g26
sbag1
(g6
g7
S'309321223'
p99
tp100
Rp101
(dp102
g12
g26
sbag1
(g6
g7
S'309321221'
p103
tp104
Rp105
(dp106
g12
g26
sbag1
(g6
g7
S'309321219'
p107
tp108
Rp109
(dp110
g12
g26
sbag1
(g6
g7
S'309321217'
p111
tp112
Rp113
(dp114
g12
g26
sbag1
(g6
g7
S'309321215'
p115
tp116
Rp117
(dp118
g12
g26
sbag1
(g6
g7
S'227936735'
p119
tp120
Rp121
(dp122
g12
g26
sbag1
(g6
g7
S'227936733'
p123
tp124
Rp125
(dp126
g12
g26
sbag1
(g6
g7
S'227936731'
p127
tp128
Rp129
(dp130
g12
g26
sbag1
(g6
g7
S'227936729'
p131
tp132
Rp133
(dp134
g12
g26
sbag1
(g6
g7
S'227936727'
p135
tp136
Rp137
(dp138
g12
g26
sbag1
(g6
g7
S'227936725'
p139
tp140
Rp141
(dp142
g12
g26
sbag1
(g6
g7
S'227936723'
p143
tp144
Rp145
(dp146
g12
g26
sbag1
(g6
g7
S'227936721'
p147
tp148
Rp149
(dp150
g12
g26
sbag1
(g6
g7
S'227936719'
p151
tp152
Rp153
(dp154
g12
g26
sbag1
(g6
g7
S'227936717'
p155
tp156
Rp157
(dp158
g12
g26
sbag1
(g6
g7
S'227936715'
p159
tp160
Rp161
(dp162
g12
g26
sbag1
(g6
g7
S'227936713'
p163
tp164
Rp165
(dp166
g12
g26
sbag1
(g6
g7
S'227936711'
p167
tp168
Rp169
(dp170
g12
g26
sbag1
(g6
g7
S'227936709'
p171
tp172
Rp173
(dp174
g12
g26
sbag1
(g6
g7
S'227936707'
p175
tp176
Rp177
(dp178
g12
g26
sbag1
(g6
g7
S'227936705'
p179
tp180
Rp181
(dp182
g12
g26
sbag1
(g6
g7
S'227936703'
p183
tp184
Rp185
(dp186
g12
g26
sbag1
(g6
g7
S'151975677'
p187
tp188
Rp189
(dp190
g12
g26
sbag1
(g6
g7
S'151975675'
p191
tp192
Rp193
(dp194
g12
g26
sbag1
(g6
g7
S'151975673'
p195
tp196
Rp197
(dp198
g12
g26
sbag1
(g6
g7
S'151975671'
p199
tp200
Rp201
(dp202
g12
g26
sbag1
(g6
g7
S'1043337174'
p203
tp204
Rp205
(dp206
g12
g26
sbag1
(g6
g7
S'1043337172'
p207
tp208
Rp209
(dp210
g12
g26
sbag1
(g6
g7
S'1043337170'
p211
tp212
Rp213
(dp214
g12
g26
sbag1
(g6
g7
S'1040783879'
p215
tp216
Rp217
(dp218
g12
g26
sbag1
(g6
g7
S'1040783877'
p219
tp220
Rp221
(dp222
g12
g26
sbag1
(g6
g7
S'1040783875'
p223
tp224
Rp225
(dp226
g12
g26
sbag1
(g6
g7
S'954001215'
p227
tp228
Rp229
(dp230
g12
g26
sbag1
(g6
g7
S'954001213'
p231
tp232
Rp233
(dp234
g12
g26
sbag1
(g6
g7
S'954001211'
p235
tp236
Rp237
(dp238
g12
g26
sbag1
(g6
g7
S'1018444965'
p239
tp240
Rp241
(dp242
g12
g26
sbag1
(g6
g7
S'1018444963'
p243
tp244
Rp245
(dp246
g12
g26
sbag1
(g6
g7
S'1018444961'
p247
tp248
Rp249
(dp250
g12
g26
sbag1
(g6
g7
S'959315935'
p251
tp252
Rp253
(dp254
g12
g26
sbag1
(g6
g7
S'959315933'
p255
tp256
Rp257
(dp258
g12
g26
sbag1
(g6
g7
S'816377109'
p259
tp260
Rp261
(dp262
g12
g26
sbag1
(g6
g7
S'816376815'
p263
tp264
Rp265
(dp266
g12
g26
sbag1
(g6
g7
S'816376791'
p267
tp268
Rp269
(dp270
g12
g26
sbag1
(g6
g7
S'816376749'
p271
tp272
Rp273
(dp274
g12
g26
sbag1
(g6
g7
S'816376705'
p275
tp276
Rp277
(dp278
g12
g26
sbag1
(g6
g7
S'816376373'
p279
tp280
Rp281
(dp282
g12
g26
sbag1
(g6
g7
S'816376267'
p283
tp284
Rp285
(dp286
g12
g26
sbag1
(g6
g7
S'816375897'
p287
tp288
Rp289
(dp290
g12
g26
sbag1
(g6
g7
S'816375791'
p291
tp292
Rp293
(dp294
g12
g26
sbag1
(g6
g7
S'816375291'
p295
tp296
Rp297
(dp298
g12
g26
sbag1
(g6
g7
S'952025490'
p299
tp300
Rp301
(dp302
g12
g26
sbag1
(g6
g7
S'952025488'
p303
tp304
Rp305
(dp306
g12
g26
sbag1
(g6
g7
S'752295367'
p307
tp308
Rp309
(dp310
g12
g26
sbag1
(g6
g7
S'752295365'
p311
tp312
Rp313
(dp314
g12
g26
sbag1
(g6
g7
S'807197902'
p315
tp316
Rp317
(dp318
g12
g26
sbag1
(g6
g7
S'628820499'
p319
tp320
Rp321
(dp322
g12
g26
sbag1
(g6
g7
S'628820497'
p323
tp324
Rp325
(dp326
g12
g26
sbag1
(g6
g7
S'592747559'
p327
tp328
Rp329
(dp330
g12
g26
sbag1
(g6
g7
S'592747557'
p331
tp332
Rp333
(dp334
g12
g26
sbag1
(g6
g7
S'592747555'
p335
tp336
Rp337
(dp338
g12
g26
sbag1
(g6
g7
S'592747553'
p339
tp340
Rp341
(dp342
g12
g26
sbag1
(g6
g7
S'592747551'
p343
tp344
Rp345
(dp346
g12
g26
sbag1
(g6
g7
S'592747549'
p347
tp348
Rp349
(dp350
g12
g26
sbag1
(g6
g7
S'628819232'
p351
tp352
Rp353
(dp354
g12
g26
sbag1
(g6
g7
S'573464363'
p355
tp356
Rp357
(dp358
g12
g26
sbag1
(g6
g7
S'573464361'
p359
tp360
Rp361
(dp362
g12
g26
sbag1
(g6
g7
S'573464359'
p363
tp364
Rp365
(dp366
g12
g26
sbag1
(g6
g7
S'573464357'
p367
tp368
Rp369
(dp370
g12
g26
sbag1
(g6
g7
S'573464355'
p371
tp372
Rp373
(dp374
g12
g26
sbag1
(g6
g7
S'573464353'
p375
tp376
Rp377
(dp378
g12
g26
sbag1
(g6
g7
S'573464351'
p379
tp380
Rp381
(dp382
g12
g26
sbag1
(g6
g7
S'573464349'
p383
tp384
Rp385
(dp386
g12
g26
sbag1
(g6
g7
S'573464347'
p387
tp388
Rp389
(dp390
g12
g26
sbag1
(g6
g7
S'573464346'
p391
tp392
Rp393
(dp394
g12
g26
sbag1
(g6
g7
S'573464345'
p395
tp396
Rp397
(dp398
g12
g26
sbag1
(g6
g7
S'573464343'
p399
tp400
Rp401
(dp402
g12
g26
sbag1
(g6
g7
S'666878012'
p403
tp404
Rp405
(dp406
g12
g26
sbag1
(g6
g7
S'666878010'
p407
tp408
Rp409
(dp410
g12
g26
sbag1
(g6
g7
S'666878008'
p411
tp412
Rp413
(dp414
g12
g26
sbag1
(g6
g7
S'662565959'
p415
tp416
Rp417
(dp418
g12
g26
sbag1
(g6
g7
S'662565957'
p419
tp420
Rp421
(dp422
g12
g26
sbag1
(g6
g7
S'557955604'
p423
tp424
Rp425
(dp426
g12
g26
sbag1
(g6
g7
S'557955602'
p427
tp428
Rp429
(dp430
g12
g26
sbag1
(g6
g7
S'557955600'
p431
tp432
Rp433
(dp434
g12
g26
sbag1
(g6
g7
S'557955598'
p435
tp436
Rp437
(dp438
g12
g26
sbag1
(g6
g7
S'531992226'
p439
tp440
Rp441
(dp442
g12
g26
sbag1
(g6
g7
S'525317085'
p443
tp444
Rp445
(dp446
g12
g26
sbag1
(g6
g7
S'525317083'
p447
tp448
Rp449
(dp450
g12
g26
sbag1
(g6
g7
S'523430538'
p451
tp452
Rp453
(dp454
g12
g26
sbag1
(g6
g7
S'523430536'
p455
tp456
Rp457
(dp458
g12
g26
sbag1
(g6
g7
S'523430534'
p459
tp460
Rp461
(dp462
g12
g26
sbag1
(g6
g7
S'523430532'
p463
tp464
Rp465
(dp466
g12
g26
sbag1
(g6
g7
S'523430530'
p467
tp468
Rp469
(dp470
g12
g26
sbag1
(g6
g7
S'523430528'
p471
tp472
Rp473
(dp474
g12
g26
sbag1
(g6
g7
S'523430526'
p475
tp476
Rp477
(dp478
g12
g26
sbag1
(g6
g7
S'523430524'
p479
tp480
Rp481
(dp482
g12
g26
sbag1
(g6
g7
S'523430522'
p483
tp484
Rp485
(dp486
g12
g26
sbag1
(g6
g7
S'523430520'
p487
tp488
Rp489
(dp490
g12
g26
sbag1
(g6
g7
S'523430518'
p491
tp492
Rp493
(dp494
g12
g26
sbag1
(g6
g7
S'523430516'
p495
tp496
Rp497
(dp498
g12
g26
sbag1
(g6
g7
S'523430514'
p499
tp500
Rp501
(dp502
g12
g26
sbag1
(g6
g7
S'523430512'
p503
tp504
Rp505
(dp506
g12
g26
sbag1
(g6
g7
S'523430510'
p507
tp508
Rp509
(dp510
g12
g26
sbag1
(g6
g7
S'523430508'
p511
tp512
Rp513
(dp514
g12
g26
sbag1
(g6
g7
S'523430506'
p515
tp516
Rp517
(dp518
g12
g26
sbag1
(g6
g7
S'523430504'
p519
tp520
Rp521
(dp522
g12
g26
sbag1
(g6
g7
S'523430502'
p523
tp524
Rp525
(dp526
g12
g26
sbag1
(g6
g7
S'523430500'
p527
tp528
Rp529
(dp530
g12
g26
sbag1
(g6
g7
S'523430498'
p531
tp532
Rp533
(dp534
g12
g26
sbag1
(g6
g7
S'523430496'
p535
tp536
Rp537
(dp538
g12
g26
sbag1
(g6
g7
S'523430494'
p539
tp540
Rp541
(dp542
g12
g26
sbag1
(g6
g7
S'523430492'
p543
tp544
Rp545
(dp546
g12
g26
sbag1
(g6
g7
S'523430490'
p547
tp548
Rp549
(dp550
g12
g26
sbag1
(g6
g7
S'523430488'
p551
tp552
Rp553
(dp554
g12
g26
sbag1
(g6
g7
S'523430486'
p555
tp556
Rp557
(dp558
g12
g26
sbag1
(g6
g7
S'523430484'
p559
tp560
Rp561
(dp562
g12
g26
sbag1
(g6
g7
S'523430482'
p563
tp564
Rp565
(dp566
g12
g26
sbag1
(g6
g7
S'584296903'
p567
tp568
Rp569
(dp570
g12
g26
sbag1
(g6
g7
S'584296901'
p571
tp572
Rp573
(dp574
g12
g26
sbag1
(g6
g7
S'584296899'
p575
tp576
Rp577
(dp578
g12
g26
sbag1
(g6
g7
S'584296897'
p579
tp580
Rp581
(dp582
g12
g26
sbag1
(g6
g7
S'584296895'
p583
tp584
Rp585
(dp586
g12
g26
sbag1
(g6
g7
S'584296893'
p587
tp588
Rp589
(dp590
g12
g26
sbag1
(g6
g7
S'584296891'
p591
tp592
Rp593
(dp594
g12
g26
sbag1
(g6
g7
S'557849691'
p595
tp596
Rp597
(dp598
g12
g26
sbag1
(g6
g7
S'563425666'
p599
tp600
Rp601
(dp602
g12
g26
sbag1
(g6
g7
S'363710538'
p603
tp604
Rp605
(dp606
g12
g26
sbag1
(g6
g7
S'381279974'
p607
tp608
Rp609
(dp610
g12
g26
sbag1
(g6
g7
S'381279972'
p611
tp612
Rp613
(dp614
g12
g26
sbag1
(g6
g7
S'381279970'
p615
tp616
Rp617
(dp618
g12
g26
sbag1
(g6
g7
S'381279968'
p619
tp620
Rp621
(dp622
g12
g26
sbag1
(g6
g7
S'375586754'
p623
tp624
Rp625
(dp626
g12
g26
sbag1
(g6
g7
S'375586751'
p627
tp628
Rp629
(dp630
g12
g26
sbag1
(g6
g7
S'375586748'
p631
tp632
Rp633
(dp634
g12
g26
sbag1
(g6
g7
S'375586745'
p635
tp636
Rp637
(dp638
g12
g26
sbag1
(g6
g7
S'375586742'
p639
tp640
Rp641
(dp642
g12
g26
sbag1
(g6
g7
S'375586739'
p643
tp644
Rp645
(dp646
g12
g26
sbag1
(g6
g7
S'223369154'
p647
tp648
Rp649
(dp650
g12
g26
sbag1
(g6
g7
S'223369152'
p651
tp652
Rp653
(dp654
g12
g26
sbag1
(g6
g7
S'223369150'
p655
tp656
Rp657
(dp658
g12
g26
sbag1
(g6
g7
S'223369148'
p659
tp660
Rp661
(dp662
g12
g26
sbag1
(g6
g7
S'223369146'
p663
tp664
Rp665
(dp666
g12
g26
sbag1
(g6
g7
S'223369144'
p667
tp668
Rp669
(dp670
g12
g26
sbag1
(g6
g7
S'223369142'
p671
tp672
Rp673
(dp674
g12
g26
sbag1
(g6
g7
S'223369140'
p675
tp676
Rp677
(dp678
g12
g26
sbag1
(g6
g7
S'223369138'
p679
tp680
Rp681
(dp682
g12
g26
sbag1
(g6
g7
S'223369136'
p683
tp684
Rp685
(dp686
g12
g26
sbag1
(g6
g7
S'223369134'
p687
tp688
Rp689
(dp690
g12
g26
sbag1
(g6
g7
S'148374135'
p691
tp692
Rp693
(dp694
g12
g26
sbag1
(g6
g7
S'238686780'
p695
tp696
Rp697
(dp698
g12
g26
sbatp699
Rp700
(dp701
g12
g18
sbsVQueryTranslation
p702
g1
(g6
g7
S'"Siganidae"[Organism] AND COI[title]'
p703
tp704
Rp705
(dp706
g12
g702
sbsVTranslationStack
p707
g1
(g19
g20
(lp708
g1
(g2
g3
(dp709
g5
g1
(g6
g7
S'1847'
p710
tp711
Rp712
(dp713
g12
g5
sbsVField
p714
g1
(g6
g7
S'Organism'
p715
tp716
Rp717
(dp718
g12
g714
sbsVTerm
p719
g1
(g6
g7
S'"Siganidae"[Organism]'
p720
tp721
Rp722
(dp723
g12
g719
sbsVExplode
p724
g1
(g6
g7
S'Y'
p725
tp726
Rp727
(dp728
g12
g724
sbstp729
Rp730
(dp731
g12
VTermSet
p732
sbag1
(g2
g3
(dp733
g5
g1
(g6
g7
S'2167342'
p734
tp735
Rp736
(dp737
g12
g5
sbsg714
g1
(g6
g7
S'title'
p738
tp739
Rp740
(dp741
g12
g714
sbsg719
g1
(g6
g7
S'COI[title]'
p742
tp743
Rp744
(dp745
g12
g719
sbsg724
g1
(g6
g7
S'N'
p746
tp747
Rp748
(dp749
g12
g724
sbstp750
Rp751
(dp752
g12
g732
sbag1
(g6
g7
S'AND'
p753
tp754
Rp755
(dp756
g12
VOP
p757
sbatp758
Rp759
(dp760
g12
g707
sbsVRetStart
p761
g1
(g6
g7
S'0'
p762
tp763
Rp764
(dp765
g12
g761
sbsVTranslationSet
p766
g1
(g19
g20
(lp767
g1
(g2
g3
(dp768
VTo
p769
g1
(g6
g7
S'"Siganidae"[Organism]'
p770
tp771
Rp772
(dp773
g12
g769
sbsVFrom
p774
g1
(g6
g7
S'Siganidae[organism]'
p775
tp776
Rp777
(dp778
g12
g774
sbstp779
Rp780
(dp781
g12
VTranslation
p782
sbatp783
Rp784
(dp785
g12
g766
sbstp786
Rp787
(dp788
g12
VeSearchResult
p789
sba.