(lp0
ccopy_reg
_reconstructor
p1
(cBio.Entrez.Parser
DictionaryElement
p2
c__builtin__
dict
p3
(dp4
VCount
p5
g1
(cBio.Entrez.Parser
StringElement
p6
c__builtin__
str
p7
S'105'
p8
tp9
Rp10
(dp11
S'tag'
p12
g5
sbsVRetMax
p13
g1
(g6
g7
S'105'
p14
tp15
Rp16
(dp17
g12
g13
sbsVIdList
p18
g1
(cBio.Entrez.Parser
ListElement
p19
c__builtin__
list
p20
(lp21
g1
(g6
g7
S'204308441'
p22
tp23
Rp24
(dp25
g12
VId
p26
sbag1
(g6
g7
S'984406493'
p27
tp28
Rp29
(dp30
g12
g26
sbag1
(g6
g7
S'984406491'
p31
tp32
Rp33
(dp34
g12
g26
sbag1
(g6
g7
S'984406489'
p35
tp36
Rp37
(dp38
g12
g26
sbag1
(g6
g7
S'984406487'
p39
tp40
Rp41
(dp42
g12
g26
sbag1
(g6
g7
S'984406485'
p43
tp44
Rp45
(dp46
g12
g26
sbag1
(g6
g7
S'984406483'
p47
tp48
Rp49
(dp50
g12
g26
sbag1
(g6
g7
S'984406481'
p51
tp52
Rp53
(dp54
g12
g26
sbag1
(g6
g7
S'984406479'
p55
tp56
Rp57
(dp58
g12
g26
sbag1
(g6
g7
S'984406477'
p59
tp60
Rp61
(dp62
g12
g26
sbag1
(g6
g7
S'984406475'
p63
tp64
Rp65
(dp66
g12
g26
sbag1
(g6
g7
S'984406473'
p67
tp68
Rp69
(dp70
g12
g26
sbag1
(g6
g7
S'984406471'
p71
tp72
Rp73
(dp74
g12
g26
sbag1
(g6
g7
S'984406469'
p75
tp76
Rp77
(dp78
g12
g26
sbag1
(g6
g7
S'984406467'
p79
tp80
Rp81
(dp82
g12
g26
sbag1
(g6
g7
S'984406465'
p83
tp84
Rp85
(dp86
g12
g26
sbag1
(g6
g7
S'984406463'
p87
tp88
Rp89
(dp90
g12
g26
sbag1
(g6
g7
S'984406461'
p91
tp92
Rp93
(dp94
g12
g26
sbag1
(g6
g7
S'984406459'
p95
tp96
Rp97
(dp98
g12
g26
sbag1
(g6
g7
S'984406457'
p99
tp100
Rp101
(dp102
g12
g26
sbag1
(g6
g7
S'984406455'
p103
tp104
Rp105
(dp106
g12
g26
sbag1
(g6
g7
S'984406453'
p107
tp108
Rp109
(dp110
g12
g26
sbag1
(g6
g7
S'984406451'
p111
tp112
Rp113
(dp114
g12
g26
sbag1
(g6
g7
S'984406449'
p115
tp116
Rp117
(dp118
g12
g26
sbag1
(g6
g7
S'984406447'
p119
tp120
Rp121
(dp122
g12
g26
sbag1
(g6
g7
S'984406445'
p123
tp124
Rp125
(dp126
g12
g26
sbag1
(g6
g7
S'984406443'
p127
tp128
Rp129
(dp130
g12
g26
sbag1
(g6
g7
S'984406441'
p131
tp132
Rp133
(dp134
g12
g26
sbag1
(g6
g7
S'984406439'
p135
tp136
Rp137
(dp138
g12
g26
sbag1
(g6
g7
S'984406437'
p139
tp140
Rp141
(dp142
g12
g26
sbag1
(g6
g7
S'984406435'
p143
tp144
Rp145
(dp146
g12
g26
sbag1
(g6
g7
S'984406433'
p147
tp148
Rp149
(dp150
g12
g26
sbag1
(g6
g7
S'984406431'
p151
tp152
Rp153
(dp154
g12
g26
sbag1
(g6
g7
S'984406429'
p155
tp156
Rp157
(dp158
g12
g26
sbag1
(g6
g7
S'984406427'
p159
tp160
Rp161
(dp162
g12
g26
sbag1
(g6
g7
S'984406425'
p163
tp164
Rp165
(dp166
g12
g26
sbag1
(g6
g7
S'984406423'
p167
tp168
Rp169
(dp170
g12
g26
sbag1
(g6
g7
S'984406421'
p171
tp172
Rp173
(dp174
g12
g26
sbag1
(g6
g7
S'984406419'
p175
tp176
Rp177
(dp178
g12
g26
sbag1
(g6
g7
S'984406417'
p179
tp180
Rp181
(dp182
g12
g26
sbag1
(g6
g7
S'984406415'
p183
tp184
Rp185
(dp186
g12
g26
sbag1
(g6
g7
S'984406413'
p187
tp188
Rp189
(dp190
g12
g26
sbag1
(g6
g7
S'984406411'
p191
tp192
Rp193
(dp194
g12
g26
sbag1
(g6
g7
S'984406409'
p195
tp196
Rp197
(dp198
g12
g26
sbag1
(g6
g7
S'984406407'
p199
tp200
Rp201
(dp202
g12
g26
sbag1
(g6
g7
S'984406405'
p203
tp204
Rp205
(dp206
g12
g26
sbag1
(g6
g7
S'984406403'
p207
tp208
Rp209
(dp210
g12
g26
sbag1
(g6
g7
S'984406401'
p211
tp212
Rp213
(dp214
g12
g26
sbag1
(g6
g7
S'984406399'
p215
tp216
Rp217
(dp218
g12
g26
sbag1
(g6
g7
S'984406397'
p219
tp220
Rp221
(dp222
g12
g26
sbag1
(g6
g7
S'984406395'
p223
tp224
Rp225
(dp226
g12
g26
sbag1
(g6
g7
S'984406393'
p227
tp228
Rp229
(dp230
g12
g26
sbag1
(g6
g7
S'984406391'
p231
tp232
Rp233
(dp234
g12
g26
sbag1
(g6
g7
S'984406389'
p235
tp236
Rp237
(dp238
g12
g26
sbag1
(g6
g7
S'984406387'
p239
tp240
Rp241
(dp242
g12
g26
sbag1
(g6
g7
S'984406385'
p243
tp244
Rp245
(dp246
g12
g26
sbag1
(g6
g7
S'984406383'
p247
tp248
Rp249
(dp250
g12
g26
sbag1
(g6
g7
S'984406381'
p251
tp252
Rp253
(dp254
g12
g26
sbag1
(g6
g7
S'984406379'
p255
tp256
Rp257
(dp258
g12
g26
sbag1
(g6
g7
S'984406377'
p259
tp260
Rp261
(dp262
g12
g26
sbag1
(g6
g7
S'984406375'
p263
tp264
Rp265
(dp266
g12
g26
sbag1
(g6
g7
S'984406373'
p267
tp268
Rp269
(dp270
g12
g26
sbag1
(g6
g7
S'984406371'
p271
tp272
Rp273
(dp274
g12
g26
sbag1
(g6
g7
S'984406369'
p275
tp276
Rp277
(dp278
g12
g26
sbag1
(g6
g7
S'984406367'
p279
tp280
Rp281
(dp282
g12
g26
sbag1
(g6
g7
S'984406365'
p283
tp284
Rp285
(dp286
g12
g26
sbag1
(g6
g7
S'984406363'
p287
tp288
Rp289
(dp290
g12
g26
sbag1
(g6
g7
S'984406361'
p291
tp292
Rp293
(dp294
g12
g26
sbag1
(g6
g7
S'984406359'
p295
tp296
Rp297
(dp298
g12
g26
sbag1
(g6
g7
S'984406357'
p299
tp300
Rp301
(dp302
g12
g26
sbag1
(g6
g7
S'984406355'
p303
tp304
Rp305
(dp306
g12
g26
sbag1
(g6
g7
S'984406353'
p307
tp308
Rp309
(dp310
g12
g26
sbag1
(g6
g7
S'984406351'
p311
tp312
Rp313
(dp314
g12
g26
sbag1
(g6
g7
S'984406349'
p315
tp316
Rp317
(dp318
g12
g26
sbag1
(g6
g7
S'984406347'
p319
tp320
Rp321
(dp322
g12
g26
sbag1
(g6
g7
S'984406345'
p323
tp324
Rp325
(dp326
g12
g26
sbag1
(g6
g7
S'984406343'
p327
tp328
Rp329
(dp330
g12
g26
sbag1
(g6
g7
S'984406341'
p331
tp332
Rp333
(dp334
g12
g26
sbag1
(g6
g7
S'984406339'
p335
tp336
Rp337
(dp338
g12
g26
sbag1
(g6
g7
S'984406337'
p339
tp340
Rp341
(dp342
g12
g26
sbag1
(g6
g7
S'984406335'
p343
tp344
Rp345
(dp346
g12
g26
sbag1
(g6
g7
S'984406333'
p347
tp348
Rp349
(dp350
g12
g26
sbag1
(g6
g7
S'984406331'
p351
tp352
Rp353
(dp354
g12
g26
sbag1
(g6
g7
S'984406329'
p355
tp356
Rp357
(dp358
g12
g26
sbag1
(g6
g7
S'984406327'
p359
tp360
Rp361
(dp362
g12
g26
sbag1
(g6
g7
S'984406325'
p363
tp364
Rp365
(dp366
g12
g26
sbag1
(g6
g7
S'984406323'
p367
tp368
Rp369
(dp370
g12
g26
sbag1
(g6
g7
S'984406321'
p371
tp372
Rp373
(dp374
g12
g26
sbag1
(g6
g7
S'984406319'
p375
tp376
Rp377
(dp378
g12
g26
sbag1
(g6
g7
S'984406317'
p379
tp380
Rp381
(dp382
g12
g26
sbag1
(g6
g7
S'984406315'
p383
tp384
Rp385
(dp386
g12
g26
sbag1
(g6
g7
S'984406313'
p387
tp388
Rp389
(dp390
g12
g26
sbag1
(g6
g7
S'984406311'
p391
tp392
Rp393
(dp394
g12
g26
sbag1
(g6
g7
S'984406309'
p395
tp396
Rp397
(dp398
g12
g26
sbag1
(g6
g7
S'984406307'
p399
tp400
Rp401
(dp402
g12
g26
sbag1
(g6
g7
S'984406305'
p403
tp404
Rp405
(dp406
g12
g26
sbag1
(g6
g7
S'984406303'
p407
tp408
Rp409
(dp410
g12
g26
sbag1
(g6
g7
S'984406301'
p411
tp412
Rp413
(dp414
g12
g26
sbag1
(g6
g7
S'984406299'
p415
tp416
Rp417
(dp418
g12
g26
sbag1
(g6
g7
S'984406297'
p419
tp420
Rp421
(dp422
g12
g26
sbag1
(g6
g7
S'984406295'
p423
tp424
Rp425
(dp426
g12
g26
sbag1
(g6
g7
S'984406293'
p427
tp428
Rp429
(dp430
g12
g26
sbag1
(g6
g7
S'984406291'
p431
tp432
Rp433
(dp434
g12
g26
sbag1
(g6
g7
S'984406289'
p435
tp436
Rp437
(dp438
g12
g26
sbag1
(g6
g7
S'984406287'
p439
tp440
Rp441
(dp442
g12
g26
sbatp443
Rp444
(dp445
g12
g18
sbsVQueryTranslation
p446
g1
(g6
g7
S'"Siganidae"[Organism] AND Rhodopsin[title]'
p447
tp448
Rp449
(dp450
g12
g446
sbsVTranslationStack
p451
g1
(g19
g20
(lp452
g1
(g2
g3
(dp453
g5
g1
(g6
g7
S'1847'
p454
tp455
Rp456
(dp457
g12
g5
sbsVField
p458
g1
(g6
g7
S'Organism'
p459
tp460
Rp461
(dp462
g12
g458
sbsVTerm
p463
g1
(g6
g7
S'"Siganidae"[Organism]'
p464
tp465
Rp466
(dp467
g12
g463
sbsVExplode
p468
g1
(g6
g7
S'Y'
p469
tp470
Rp471
(dp472
g12
g468
sbstp473
Rp474
(dp475
g12
VTermSet
p476
sbag1
(g2
g3
(dp477
g5
g1
(g6
g7
S'27703'
p478
tp479
Rp480
(dp481
g12
g5
sbsg458
g1
(g6
g7
S'title'
p482
tp483
Rp484
(dp485
g12
g458
sbsg463
g1
(g6
g7
S'Rhodopsin[title]'
p486
tp487
Rp488
(dp489
g12
g463
sbsg468
g1
(g6
g7
S'N'
p490
tp491
Rp492
(dp493
g12
g468
sbstp494
Rp495
(dp496
g12
g476
sbag1
(g6
g7
S'AND'
p497
tp498
Rp499
(dp500
g12
VOP
p501
sbatp502
Rp503
(dp504
g12
g451
sbsVRetStart
p505
g1
(g6
g7
S'0'
p506
tp507
Rp508
(dp509
g12
g505
sbsVTranslationSet
p510
g1
(g19
g20
(lp511
g1
(g2
g3
(dp512
VTo
p513
g1
(g6
g7
S'"Siganidae"[Organism]'
p514
tp515
Rp516
(dp517
g12
g513
sbsVFrom
p518
g1
(g6
g7
S'Siganidae[organism]'
p519
tp520
Rp521
(dp522
g12
g518
sbstp523
Rp524
(dp525
g12
VTranslation
p526
sbatp527
Rp528
(dp529
g12
g510
sbstp530
Rp531
(dp532
g12
VeSearchResult
p533
sba.