(lp0
ccopy_reg
_reconstructor
p1
(cBio.Entrez.Parser
DictionaryElement
p2
c__builtin__
dict
p3
(dp4
VCount
p5
g1
(cBio.Entrez.Parser
StringElement
p6
c__builtin__
str
p7
S'132'
p8
tp9
Rp10
(dp11
S'tag'
p12
g5
sbsVRetMax
p13
g1
(g6
g7
S'132'
p14
tp15
Rp16
(dp17
g12
g13
sbsVIdList
p18
g1
(cBio.Entrez.Parser
ListElement
p19
c__builtin__
list
p20
(lp21
g1
(g6
g7
S'37779250'
p22
tp23
Rp24
(dp25
g12
VId
p26
sbag1
(g6
g7
S'37779248'
p27
tp28
Rp29
(dp30
g12
g26
sbag1
(g6
g7
S'37779246'
p31
tp32
Rp33
(dp34
g12
g26
sbag1
(g6
g7
S'37779244'
p35
tp36
Rp37
(dp38
g12
g26
sbag1
(g6
g7
S'37779242'
p39
tp40
Rp41
(dp42
g12
g26
sbag1
(g6
g7
S'37779240'
p43
tp44
Rp45
(dp46
g12
g26
sbag1
(g6
g7
S'37779238'
p47
tp48
Rp49
(dp50
g12
g26
sbag1
(g6
g7
S'37779236'
p51
tp52
Rp53
(dp54
g12
g26
sbag1
(g6
g7
S'37779234'
p55
tp56
Rp57
(dp58
g12
g26
sbag1
(g6
g7
S'37779232'
p59
tp60
Rp61
(dp62
g12
g26
sbag1
(g6
g7
S'37779230'
p63
tp64
Rp65
(dp66
g12
g26
sbag1
(g6
g7
S'37779228'
p67
tp68
Rp69
(dp70
g12
g26
sbag1
(g6
g7
S'37779226'
p71
tp72
Rp73
(dp74
g12
g26
sbag1
(g6
g7
S'37779224'
p75
tp76
Rp77
(dp78
g12
g26
sbag1
(g6
g7
S'37779222'
p79
tp80
Rp81
(dp82
g12
g26
sbag1
(g6
g7
S'30026067'
p83
tp84
Rp85
(dp86
g12
g26
sbag1
(g6
g7
S'30026065'
p87
tp88
Rp89
(dp90
g12
g26
sbag1
(g6
g7
S'30026063'
p91
tp92
Rp93
(dp94
g12
g26
sbag1
(g6
g7
S'30026061'
p95
tp96
Rp97
(dp98
g12
g26
sbag1
(g6
g7
S'30026059'
p99
tp100
Rp101
(dp102
g12
g26
sbag1
(g6
g7
S'30026057'
p103
tp104
Rp105
(dp106
g12
g26
sbag1
(g6
g7
S'30026055'
p107
tp108
Rp109
(dp110
g12
g26
sbag1
(g6
g7
S'30026053'
p111
tp112
Rp113
(dp114
g12
g26
sbag1
(g6
g7
S'30026051'
p115
tp116
Rp117
(dp118
g12
g26
sbag1
(g6
g7
S'30026049'
p119
tp120
Rp121
(dp122
g12
g26
sbag1
(g6
g7
S'30026047'
p123
tp124
Rp125
(dp126
g12
g26
sbag1
(g6
g7
S'30026045'
p127
tp128
Rp129
(dp130
g12
g26
sbag1
(g6
g7
S'30026043'
p131
tp132
Rp133
(dp134
g12
g26
sbag1
(g6
g7
S'30026041'
p135
tp136
Rp137
(dp138
g12
g26
sbag1
(g6
g7
S'30026039'
p139
tp140
Rp141
(dp142
g12
g26
sbag1
(g6
g7
S'30026037'
p143
tp144
Rp145
(dp146
g12
g26
sbag1
(g6
g7
S'146148619'
p147
tp148
Rp149
(dp150
g12
g26
sbag1
(g6
g7
S'146148617'
p151
tp152
Rp153
(dp154
g12
g26
sbag1
(g6
g7
S'146148615'
p155
tp156
Rp157
(dp158
g12
g26
sbag1
(g6
g7
S'146148613'
p159
tp160
Rp161
(dp162
g12
g26
sbag1
(g6
g7
S'146148611'
p163
tp164
Rp165
(dp166
g12
g26
sbag1
(g6
g7
S'146148609'
p167
tp168
Rp169
(dp170
g12
g26
sbag1
(g6
g7
S'146148607'
p171
tp172
Rp173
(dp174
g12
g26
sbag1
(g6
g7
S'146148605'
p175
tp176
Rp177
(dp178
g12
g26
sbag1
(g6
g7
S'146148603'
p179
tp180
Rp181
(dp182
g12
g26
sbag1
(g6
g7
S'146148601'
p183
tp184
Rp185
(dp186
g12
g26
sbag1
(g6
g7
S'146148599'
p187
tp188
Rp189
(dp190
g12
g26
sbag1
(g6
g7
S'146148597'
p191
tp192
Rp193
(dp194
g12
g26
sbag1
(g6
g7
S'146148595'
p195
tp196
Rp197
(dp198
g12
g26
sbag1
(g6
g7
S'146148593'
p199
tp200
Rp201
(dp202
g12
g26
sbag1
(g6
g7
S'146148591'
p203
tp204
Rp205
(dp206
g12
g26
sbag1
(g6
g7
S'146148589'
p207
tp208
Rp209
(dp210
g12
g26
sbag1
(g6
g7
S'146148587'
p211
tp212
Rp213
(dp214
g12
g26
sbag1
(g6
g7
S'146148585'
p215
tp216
Rp217
(dp218
g12
g26
sbag1
(g6
g7
S'146148583'
p219
tp220
Rp221
(dp222
g12
g26
sbag1
(g6
g7
S'146148581'
p223
tp224
Rp225
(dp226
g12
g26
sbag1
(g6
g7
S'146148579'
p227
tp228
Rp229
(dp230
g12
g26
sbag1
(g6
g7
S'1012161261'
p231
tp232
Rp233
(dp234
g12
g26
sbag1
(g6
g7
S'1012161259'
p235
tp236
Rp237
(dp238
g12
g26
sbag1
(g6
g7
S'1012161257'
p239
tp240
Rp241
(dp242
g12
g26
sbag1
(g6
g7
S'926473943'
p243
tp244
Rp245
(dp246
g12
g26
sbag1
(g6
g7
S'926473941'
p247
tp248
Rp249
(dp250
g12
g26
sbag1
(g6
g7
S'926473939'
p251
tp252
Rp253
(dp254
g12
g26
sbag1
(g6
g7
S'673457993'
p255
tp256
Rp257
(dp258
g12
g26
sbag1
(g6
g7
S'82618580'
p259
tp260
Rp261
(dp262
g12
g26
sbag1
(g6
g7
S'324035558'
p263
tp264
Rp265
(dp266
g12
g26
sbag1
(g6
g7
S'324035556'
p267
tp268
Rp269
(dp270
g12
g26
sbag1
(g6
g7
S'324035554'
p271
tp272
Rp273
(dp274
g12
g26
sbag1
(g6
g7
S'324035552'
p275
tp276
Rp277
(dp278
g12
g26
sbag1
(g6
g7
S'324035550'
p279
tp280
Rp281
(dp282
g12
g26
sbag1
(g6
g7
S'324035548'
p283
tp284
Rp285
(dp286
g12
g26
sbag1
(g6
g7
S'324035546'
p287
tp288
Rp289
(dp290
g12
g26
sbag1
(g6
g7
S'324035544'
p291
tp292
Rp293
(dp294
g12
g26
sbag1
(g6
g7
S'324035542'
p295
tp296
Rp297
(dp298
g12
g26
sbag1
(g6
g7
S'324035540'
p299
tp300
Rp301
(dp302
g12
g26
sbag1
(g6
g7
S'324035538'
p303
tp304
Rp305
(dp306
g12
g26
sbag1
(g6
g7
S'324035536'
p307
tp308
Rp309
(dp310
g12
g26
sbag1
(g6
g7
S'324035534'
p311
tp312
Rp313
(dp314
g12
g26
sbag1
(g6
g7
S'324035532'
p315
tp316
Rp317
(dp318
g12
g26
sbag1
(g6
g7
S'324035530'
p319
tp320
Rp321
(dp322
g12
g26
sbag1
(g6
g7
S'324035528'
p323
tp324
Rp325
(dp326
g12
g26
sbag1
(g6
g7
S'324035526'
p327
tp328
Rp329
(dp330
g12
g26
sbag1
(g6
g7
S'324035524'
p331
tp332
Rp333
(dp334
g12
g26
sbag1
(g6
g7
S'324035522'
p335
tp336
Rp337
(dp338
g12
g26
sbag1
(g6
g7
S'324035520'
p339
tp340
Rp341
(dp342
g12
g26
sbag1
(g6
g7
S'324035518'
p343
tp344
Rp345
(dp346
g12
g26
sbag1
(g6
g7
S'324035516'
p347
tp348
Rp349
(dp350
g12
g26
sbag1
(g6
g7
S'324035514'
p351
tp352
Rp353
(dp354
g12
g26
sbag1
(g6
g7
S'324035512'
p355
tp356
Rp357
(dp358
g12
g26
sbag1
(g6
g7
S'324035510'
p359
tp360
Rp361
(dp362
g12
g26
sbag1
(g6
g7
S'324035508'
p363
tp364
Rp365
(dp366
g12
g26
sbag1
(g6
g7
S'324035506'
p367
tp368
Rp369
(dp370
g12
g26
sbag1
(g6
g7
S'324035504'
p371
tp372
Rp373
(dp374
g12
g26
sbag1
(g6
g7
S'324035502'
p375
tp376
Rp377
(dp378
g12
g26
sbag1
(g6
g7
S'324035500'
p379
tp380
Rp381
(dp382
g12
g26
sbag1
(g6
g7
S'324035498'
p383
tp384
Rp385
(dp386
g12
g26
sbag1
(g6
g7
S'324035496'
p387
tp388
Rp389
(dp390
g12
g26
sbag1
(g6
g7
S'324035494'
p391
tp392
Rp393
(dp394
g12
g26
sbag1
(g6
g7
S'324035492'
p395
tp396
Rp397
(dp398
g12
g26
sbag1
(g6
g7
S'324035490'
p399
tp400
Rp401
(dp402
g12
g26
sbag1
(g6
g7
S'324035488'
p403
tp404
Rp405
(dp406
g12
g26
sbag1
(g6
g7
S'324035486'
p407
tp408
Rp409
(dp410
g12
g26
sbag1
(g6
g7
S'324035484'
p411
tp412
Rp413
(dp414
g12
g26
sbag1
(g6
g7
S'324035482'
p415
tp416
Rp417
(dp418
g12
g26
sbag1
(g6
g7
S'324035480'
p419
tp420
Rp421
(dp422
g12
g26
sbag1
(g6
g7
S'324035478'
p423
tp424
Rp425
(dp426
g12
g26
sbag1
(g6
g7
S'324035476'
p427
tp428
Rp429
(dp430
g12
g26
sbag1
(g6
g7
S'324035474'
p431
tp432
Rp433
(dp434
g12
g26
sbag1
(g6
g7
S'324035472'
p435
tp436
Rp437
(dp438
g12
g26
sbag1
(g6
g7
S'324035470'
p439
tp440
Rp441
(dp442
g12
g26
sbag1
(g6
g7
S'324035468'
p443
tp444
Rp445
(dp446
g12
g26
sbag1
(g6
g7
S'324035466'
p447
tp448
Rp449
(dp450
g12
g26
sbag1
(g6
g7
S'324035464'
p451
tp452
Rp453
(dp454
g12
g26
sbag1
(g6
g7
S'324035462'
p455
tp456
Rp457
(dp458
g12
g26
sbag1
(g6
g7
S'324035460'
p459
tp460
Rp461
(dp462
g12
g26
sbag1
(g6
g7
S'324035458'
p463
tp464
Rp465
(dp466
g12
g26
sbag1
(g6
g7
S'324035456'
p467
tp468
Rp469
(dp470
g12
g26
sbag1
(g6
g7
S'324035454'
p471
tp472
Rp473
(dp474
g12
g26
sbag1
(g6
g7
S'324035452'
p475
tp476
Rp477
(dp478
g12
g26
sbag1
(g6
g7
S'324035450'
p479
tp480
Rp481
(dp482
g12
g26
sbag1
(g6
g7
S'324035448'
p483
tp484
Rp485
(dp486
g12
g26
sbag1
(g6
g7
S'324035446'
p487
tp488
Rp489
(dp490
g12
g26
sbag1
(g6
g7
S'324035444'
p491
tp492
Rp493
(dp494
g12
g26
sbag1
(g6
g7
S'324035442'
p495
tp496
Rp497
(dp498
g12
g26
sbag1
(g6
g7
S'324035440'
p499
tp500
Rp501
(dp502
g12
g26
sbag1
(g6
g7
S'324035438'
p503
tp504
Rp505
(dp506
g12
g26
sbag1
(g6
g7
S'324035436'
p507
tp508
Rp509
(dp510
g12
g26
sbag1
(g6
g7
S'324035434'
p511
tp512
Rp513
(dp514
g12
g26
sbag1
(g6
g7
S'324035432'
p515
tp516
Rp517
(dp518
g12
g26
sbag1
(g6
g7
S'324035430'
p519
tp520
Rp521
(dp522
g12
g26
sbag1
(g6
g7
S'324035428'
p523
tp524
Rp525
(dp526
g12
g26
sbag1
(g6
g7
S'324035426'
p527
tp528
Rp529
(dp530
g12
g26
sbag1
(g6
g7
S'324035424'
p531
tp532
Rp533
(dp534
g12
g26
sbag1
(g6
g7
S'324035422'
p535
tp536
Rp537
(dp538
g12
g26
sbag1
(g6
g7
S'324035420'
p539
tp540
Rp541
(dp542
g12
g26
sbag1
(g6
g7
S'324035418'
p543
tp544
Rp545
(dp546
g12
g26
sbag1
(g6
g7
S'324035416'
p547
tp548
Rp549
(dp550
g12
g26
sbatp551
Rp552
(dp553
g12
g18
sbsVQueryTranslation
p554
g1
(g6
g7
S'"Siganidae"[Organism] AND CytB[title]'
p555
tp556
Rp557
(dp558
g12
g554
sbsVTranslationStack
p559
g1
(g19
g20
(lp560
g1
(g2
g3
(dp561
g5
g1
(g6
g7
S'1847'
p562
tp563
Rp564
(dp565
g12
g5
sbsVField
p566
g1
(g6
g7
S'Organism'
p567
tp568
Rp569
(dp570
g12
g566
sbsVTerm
p571
g1
(g6
g7
S'"Siganidae"[Organism]'
p572
tp573
Rp574
(dp575
g12
g571
sbsVExplode
p576
g1
(g6
g7
S'Y'
p577
tp578
Rp579
(dp580
g12
g576
sbstp581
Rp582
(dp583
g12
VTermSet
p584
sbag1
(g2
g3
(dp585
g5
g1
(g6
g7
S'320203'
p586
tp587
Rp588
(dp589
g12
g5
sbsg566
g1
(g6
g7
S'title'
p590
tp591
Rp592
(dp593
g12
g566
sbsg571
g1
(g6
g7
S'CytB[title]'
p594
tp595
Rp596
(dp597
g12
g571
sbsg576
g1
(g6
g7
S'N'
p598
tp599
Rp600
(dp601
g12
g576
sbstp602
Rp603
(dp604
g12
g584
sbag1
(g6
g7
S'AND'
p605
tp606
Rp607
(dp608
g12
VOP
p609
sbatp610
Rp611
(dp612
g12
g559
sbsVRetStart
p613
g1
(g6
g7
S'0'
p614
tp615
Rp616
(dp617
g12
g613
sbsVTranslationSet
p618
g1
(g19
g20
(lp619
g1
(g2
g3
(dp620
VTo
p621
g1
(g6
g7
S'"Siganidae"[Organism]'
p622
tp623
Rp624
(dp625
g12
g621
sbsVFrom
p626
g1
(g6
g7
S'Siganidae[organism]'
p627
tp628
Rp629
(dp630
g12
g626
sbstp631
Rp632
(dp633
g12
VTranslation
p634
sbatp635
Rp636
(dp637
g12
g618
sbstp638
Rp639
(dp640
g12
VeSearchResult
p641
sba.