(lp0
ccopy_reg
_reconstructor
p1
(cBio.Entrez.Parser
DictionaryElement
p2
c__builtin__
dict
p3
(dp4
VCount
p5
g1
(cBio.Entrez.Parser
StringElement
p6
c__builtin__
str
p7
S'50'
p8
tp9
Rp10
(dp11
S'tag'
p12
g5
sbsVRetMax
p13
g1
(g6
g7
S'50'
p14
tp15
Rp16
(dp17
g12
g13
sbsVIdList
p18
g1
(cBio.Entrez.Parser
ListElement
p19
c__builtin__
list
p20
(lp21
g1
(g6
g7
S'1012160666'
p22
tp23
Rp24
(dp25
g12
VId
p26
sbag1
(g6
g7
S'1012160665'
p27
tp28
Rp29
(dp30
g12
g26
sbag1
(g6
g7
S'1012160664'
p31
tp32
Rp33
(dp34
g12
g26
sbag1
(g6
g7
S'940520849'
p35
tp36
Rp37
(dp38
g12
g26
sbag1
(g6
g7
S'109158990'
p39
tp40
Rp41
(dp42
g12
g26
sbag1
(g6
g7
S'109158989'
p43
tp44
Rp45
(dp46
g12
g26
sbag1
(g6
g7
S'109158988'
p47
tp48
Rp49
(dp50
g12
g26
sbag1
(g6
g7
S'109158650'
p51
tp52
Rp53
(dp54
g12
g26
sbag1
(g6
g7
S'109158649'
p55
tp56
Rp57
(dp58
g12
g26
sbag1
(g6
g7
S'109158648'
p59
tp60
Rp61
(dp62
g12
g26
sbag1
(g6
g7
S'56462587'
p63
tp64
Rp65
(dp66
g12
g26
sbag1
(g6
g7
S'146148574'
p67
tp68
Rp69
(dp70
g12
g26
sbag1
(g6
g7
S'146148573'
p71
tp72
Rp73
(dp74
g12
g26
sbag1
(g6
g7
S'146148572'
p75
tp76
Rp77
(dp78
g12
g26
sbag1
(g6
g7
S'146148571'
p79
tp80
Rp81
(dp82
g12
g26
sbag1
(g6
g7
S'146148570'
p83
tp84
Rp85
(dp86
g12
g26
sbag1
(g6
g7
S'146148569'
p87
tp88
Rp89
(dp90
g12
g26
sbag1
(g6
g7
S'146148568'
p91
tp92
Rp93
(dp94
g12
g26
sbag1
(g6
g7
S'146148567'
p95
tp96
Rp97
(dp98
g12
g26
sbag1
(g6
g7
S'146148566'
p99
tp100
Rp101
(dp102
g12
g26
sbag1
(g6
g7
S'117551169'
p103
tp104
Rp105
(dp106
g12
g26
sbag1
(g6
g7
S'117551168'
p107
tp108
Rp109
(dp110
g12
g26
sbag1
(g6
g7
S'117551167'
p111
tp112
Rp113
(dp114
g12
g26
sbag1
(g6
g7
S'117551166'
p115
tp116
Rp117
(dp118
g12
g26
sbag1
(g6
g7
S'117551165'
p119
tp120
Rp121
(dp122
g12
g26
sbag1
(g6
g7
S'117551164'
p123
tp124
Rp125
(dp126
g12
g26
sbag1
(g6
g7
S'117551163'
p127
tp128
Rp129
(dp130
g12
g26
sbag1
(g6
g7
S'117551162'
p131
tp132
Rp133
(dp134
g12
g26
sbag1
(g6
g7
S'117551161'
p135
tp136
Rp137
(dp138
g12
g26
sbag1
(g6
g7
S'117551160'
p139
tp140
Rp141
(dp142
g12
g26
sbag1
(g6
g7
S'117551159'
p143
tp144
Rp145
(dp146
g12
g26
sbag1
(g6
g7
S'117551158'
p147
tp148
Rp149
(dp150
g12
g26
sbag1
(g6
g7
S'117551157'
p151
tp152
Rp153
(dp154
g12
g26
sbag1
(g6
g7
S'117551156'
p155
tp156
Rp157
(dp158
g12
g26
sbag1
(g6
g7
S'117551155'
p159
tp160
Rp161
(dp162
g12
g26
sbag1
(g6
g7
S'117551154'
p163
tp164
Rp165
(dp166
g12
g26
sbag1
(g6
g7
S'117551153'
p167
tp168
Rp169
(dp170
g12
g26
sbag1
(g6
g7
S'117551152'
p171
tp172
Rp173
(dp174
g12
g26
sbag1
(g6
g7
S'117551151'
p175
tp176
Rp177
(dp178
g12
g26
sbag1
(g6
g7
S'117551150'
p179
tp180
Rp181
(dp182
g12
g26
sbag1
(g6
g7
S'117551149'
p183
tp184
Rp185
(dp186
g12
g26
sbag1
(g6
g7
S'117551148'
p187
tp188
Rp189
(dp190
g12
g26
sbag1
(g6
g7
S'117551147'
p191
tp192
Rp193
(dp194
g12
g26
sbag1
(g6
g7
S'117551146'
p195
tp196
Rp197
(dp198
g12
g26
sbag1
(g6
g7
S'117551145'
p199
tp200
Rp201
(dp202
g12
g26
sbag1
(g6
g7
S'21655001'
p203
tp204
Rp205
(dp206
g12
g26
sbag1
(g6
g7
S'21655000'
p207
tp208
Rp209
(dp210
g12
g26
sbag1
(g6
g7
S'21654999'
p211
tp212
Rp213
(dp214
g12
g26
sbag1
(g6
g7
S'21654998'
p215
tp216
Rp217
(dp218
g12
g26
sbag1
(g6
g7
S'4494797'
p219
tp220
Rp221
(dp222
g12
g26
sbatp223
Rp224
(dp225
g12
g18
sbsVQueryTranslation
p226
g1
(g6
g7
S'"Siganidae"[Organism] AND 16S[title]'
p227
tp228
Rp229
(dp230
g12
g226
sbsVTranslationStack
p231
g1
(g19
g20
(lp232
g1
(g2
g3
(dp233
g5
g1
(g6
g7
S'1847'
p234
tp235
Rp236
(dp237
g12
g5
sbsVField
p238
g1
(g6
g7
S'Organism'
p239
tp240
Rp241
(dp242
g12
g238
sbsVTerm
p243
g1
(g6
g7
S'"Siganidae"[Organism]'
p244
tp245
Rp246
(dp247
g12
g243
sbsVExplode
p248
g1
(g6
g7
S'Y'
p249
tp250
Rp251
(dp252
g12
g248
sbstp253
Rp254
(dp255
g12
VTermSet
p256
sbag1
(g2
g3
(dp257
g5
g1
(g6
g7
S'7139828'
p258
tp259
Rp260
(dp261
g12
g5
sbsg238
g1
(g6
g7
S'title'
p262
tp263
Rp264
(dp265
g12
g238
sbsg243
g1
(g6
g7
S'16S[title]'
p266
tp267
Rp268
(dp269
g12
g243
sbsg248
g1
(g6
g7
S'N'
p270
tp271
Rp272
(dp273
g12
g248
sbstp274
Rp275
(dp276
g12
g256
sbag1
(g6
g7
S'AND'
p277
tp278
Rp279
(dp280
g12
VOP
p281
sbatp282
Rp283
(dp284
g12
g231
sbsVRetStart
p285
g1
(g6
g7
S'0'
p286
tp287
Rp288
(dp289
g12
g285
sbsVTranslationSet
p290
g1
(g19
g20
(lp291
g1
(g2
g3
(dp292
VTo
p293
g1
(g6
g7
S'"Siganidae"[Organism]'
p294
tp295
Rp296
(dp297
g12
g293
sbsVFrom
p298
g1
(g6
g7
S'Siganidae[organism]'
p299
tp300
Rp301
(dp302
g12
g298
sbstp303
Rp304
(dp305
g12
VTranslation
p306
sbatp307
Rp308
(dp309
g12
g290
sbstp310
Rp311
(dp312
g12
VeSearchResult
p313
sba.