(lp0
ccopy_reg
_reconstructor
p1
(cBio.Entrez.Parser
DictionaryElement
p2
c__builtin__
dict
p3
(dp4
VCount
p5
g1
(cBio.Entrez.Parser
StringElement
p6
c__builtin__
str
p7
S'52'
p8
tp9
Rp10
(dp11
S'tag'
p12
g5
sbsVRetMax
p13
g1
(g6
g7
S'52'
p14
tp15
Rp16
(dp17
g12
g13
sbsVIdList
p18
g1
(cBio.Entrez.Parser
ListElement
p19
c__builtin__
list
p20
(lp21
g1
(g6
g7
S'1101497582'
p22
tp23
Rp24
(dp25
g12
VId
p26
sbag1
(g6
g7
S'1101497580'
p27
tp28
Rp29
(dp30
g12
g26
sbag1
(g6
g7
S'1101497578'
p31
tp32
Rp33
(dp34
g12
g26
sbag1
(g6
g7
S'1045564967'
p35
tp36
Rp37
(dp38
g12
g26
sbag1
(g6
g7
S'339716888'
p39
tp40
Rp41
(dp42
g12
g26
sbag1
(g6
g7
S'339716886'
p43
tp44
Rp45
(dp46
g12
g26
sbag1
(g6
g7
S'339716884'
p47
tp48
Rp49
(dp50
g12
g26
sbag1
(g6
g7
S'339716882'
p51
tp52
Rp53
(dp54
g12
g26
sbag1
(g6
g7
S'339716880'
p55
tp56
Rp57
(dp58
g12
g26
sbag1
(g6
g7
S'70723010'
p59
tp60
Rp61
(dp62
g12
g26
sbag1
(g6
g7
S'151975599'
p63
tp64
Rp65
(dp66
g12
g26
sbag1
(g6
g7
S'151975597'
p67
tp68
Rp69
(dp70
g12
g26
sbag1
(g6
g7
S'151975595'
p71
tp72
Rp73
(dp74
g12
g26
sbag1
(g6
g7
S'151975593'
p75
tp76
Rp77
(dp78
g12
g26
sbag1
(g6
g7
S'1040783815'
p79
tp80
Rp81
(dp82
g12
g26
sbag1
(g6
g7
S'1040783813'
p83
tp84
Rp85
(dp86
g12
g26
sbag1
(g6
g7
S'1018444885'
p87
tp88
Rp89
(dp90
g12
g26
sbag1
(g6
g7
S'1018444883'
p91
tp92
Rp93
(dp94
g12
g26
sbag1
(g6
g7
S'1018444881'
p95
tp96
Rp97
(dp98
g12
g26
sbag1
(g6
g7
S'1018444879'
p99
tp100
Rp101
(dp102
g12
g26
sbag1
(g6
g7
S'959315809'
p103
tp104
Rp105
(dp106
g12
g26
sbag1
(g6
g7
S'755322508'
p107
tp108
Rp109
(dp110
g12
g26
sbag1
(g6
g7
S'755322506'
p111
tp112
Rp113
(dp114
g12
g26
sbag1
(g6
g7
S'657306624'
p115
tp116
Rp117
(dp118
g12
g26
sbag1
(g6
g7
S'670609344'
p119
tp120
Rp121
(dp122
g12
g26
sbag1
(g6
g7
S'807197837'
p123
tp124
Rp125
(dp126
g12
g26
sbag1
(g6
g7
S'806777038'
p127
tp128
Rp129
(dp130
g12
g26
sbag1
(g6
g7
S'806777036'
p131
tp132
Rp133
(dp134
g12
g26
sbag1
(g6
g7
S'745167937'
p135
tp136
Rp137
(dp138
g12
g26
sbag1
(g6
g7
S'628819224'
p139
tp140
Rp141
(dp142
g12
g26
sbag1
(g6
g7
S'573464336'
p143
tp144
Rp145
(dp146
g12
g26
sbag1
(g6
g7
S'573464334'
p147
tp148
Rp149
(dp150
g12
g26
sbag1
(g6
g7
S'573464333'
p151
tp152
Rp153
(dp154
g12
g26
sbag1
(g6
g7
S'443909458'
p155
tp156
Rp157
(dp158
g12
g26
sbag1
(g6
g7
S'584296771'
p159
tp160
Rp161
(dp162
g12
g26
sbag1
(g6
g7
S'584296769'
p163
tp164
Rp165
(dp166
g12
g26
sbag1
(g6
g7
S'530323417'
p167
tp168
Rp169
(dp170
g12
g26
sbag1
(g6
g7
S'223369098'
p171
tp172
Rp173
(dp174
g12
g26
sbag1
(g6
g7
S'223369096'
p175
tp176
Rp177
(dp178
g12
g26
sbag1
(g6
g7
S'223369094'
p179
tp180
Rp181
(dp182
g12
g26
sbag1
(g6
g7
S'223369092'
p183
tp184
Rp185
(dp186
g12
g26
sbag1
(g6
g7
S'223369090'
p187
tp188
Rp189
(dp190
g12
g26
sbag1
(g6
g7
S'70723018'
p191
tp192
Rp193
(dp194
g12
g26
sbag1
(g6
g7
S'70723016'
p195
tp196
Rp197
(dp198
g12
g26
sbag1
(g6
g7
S'70723014'
p199
tp200
Rp201
(dp202
g12
g26
sbag1
(g6
g7
S'70723012'
p203
tp204
Rp205
(dp206
g12
g26
sbag1
(g6
g7
S'70723008'
p207
tp208
Rp209
(dp210
g12
g26
sbag1
(g6
g7
S'227935113'
p211
tp212
Rp213
(dp214
g12
g26
sbag1
(g6
g7
S'148509013'
p215
tp216
Rp217
(dp218
g12
g26
sbag1
(g6
g7
S'148509011'
p219
tp220
Rp221
(dp222
g12
g26
sbag1
(g6
g7
S'148509009'
p223
tp224
Rp225
(dp226
g12
g26
sbag1
(g6
g7
S'148509007'
p227
tp228
Rp229
(dp230
g12
g26
sbatp231
Rp232
(dp233
g12
g18
sbsVQueryTranslation
p234
g1
(g6
g7
S'"Scatophagidae"[Organism] AND COI[title]'
p235
tp236
Rp237
(dp238
g12
g234
sbsVTranslationStack
p239
g1
(g19
g20
(lp240
g1
(g2
g3
(dp241
g5
g1
(g6
g7
S'341'
p242
tp243
Rp244
(dp245
g12
g5
sbsVField
p246
g1
(g6
g7
S'Organism'
p247
tp248
Rp249
(dp250
g12
g246
sbsVTerm
p251
g1
(g6
g7
S'"Scatophagidae"[Organism]'
p252
tp253
Rp254
(dp255
g12
g251
sbsVExplode
p256
g1
(g6
g7
S'Y'
p257
tp258
Rp259
(dp260
g12
g256
sbstp261
Rp262
(dp263
g12
VTermSet
p264
sbag1
(g2
g3
(dp265
g5
g1
(g6
g7
S'2167342'
p266
tp267
Rp268
(dp269
g12
g5
sbsg246
g1
(g6
g7
S'title'
p270
tp271
Rp272
(dp273
g12
g246
sbsg251
g1
(g6
g7
S'COI[title]'
p274
tp275
Rp276
(dp277
g12
g251
sbsg256
g1
(g6
g7
S'N'
p278
tp279
Rp280
(dp281
g12
g256
sbstp282
Rp283
(dp284
g12
g264
sbag1
(g6
g7
S'AND'
p285
tp286
Rp287
(dp288
g12
VOP
p289
sbatp290
Rp291
(dp292
g12
g239
sbsVRetStart
p293
g1
(g6
g7
S'0'
p294
tp295
Rp296
(dp297
g12
g293
sbsVTranslationSet
p298
g1
(g19
g20
(lp299
g1
(g2
g3
(dp300
VTo
p301
g1
(g6
g7
S'"Scatophagidae"[Organism]'
p302
tp303
Rp304
(dp305
g12
g301
sbsVFrom
p306
g1
(g6
g7
S'Scatophagidae[organism]'
p307
tp308
Rp309
(dp310
g12
g306
sbstp311
Rp312
(dp313
g12
VTranslation
p314
sbatp315
Rp316
(dp317
g12
g298
sbstp318
Rp319
(dp320
g12
VeSearchResult
p321
sba.