(lp0
ccopy_reg
_reconstructor
p1
(cBio.Entrez.Parser
DictionaryElement
p2
c__builtin__
dict
p3
(dp4
VCount
p5
g1
(cBio.Entrez.Parser
StringElement
p6
c__builtin__
str
p7
S'11'
p8
tp9
Rp10
(dp11
S'tag'
p12
g5
sbsVRetMax
p13
g1
(g6
g7
S'11'
p14
tp15
Rp16
(dp17
g12
g13
sbsVIdList
p18
g1
(cBio.Entrez.Parser
ListElement
p19
c__builtin__
list
p20
(lp21
g1
(g6
g7
S'525333311'
p22
tp23
Rp24
(dp25
g12
VId
p26
sbag1
(g6
g7
S'109158981'
p27
tp28
Rp29
(dp30
g12
g26
sbag1
(g6
g7
S'109158980'
p31
tp32
Rp33
(dp34
g12
g26
sbag1
(g6
g7
S'109158644'
p35
tp36
Rp37
(dp38
g12
g26
sbag1
(g6
g7
S'109158643'
p39
tp40
Rp41
(dp42
g12
g26
sbag1
(g6
g7
S'156778568'
p43
tp44
Rp45
(dp46
g12
g26
sbag1
(g6
g7
S'156778567'
p47
tp48
Rp49
(dp50
g12
g26
sbag1
(g6
g7
S'46559919'
p51
tp52
Rp53
(dp54
g12
g26
sbag1
(g6
g7
S'46559918'
p55
tp56
Rp57
(dp58
g12
g26
sbag1
(g6
g7
S'4494796'
p59
tp60
Rp61
(dp62
g12
g26
sbag1
(g6
g7
S'4494795'
p63
tp64
Rp65
(dp66
g12
g26
sbatp67
Rp68
(dp69
g12
g18
sbsVQueryTranslation
p70
g1
(g6
g7
S'"Scatophagidae"[Organism] AND 16S[title]'
p71
tp72
Rp73
(dp74
g12
g70
sbsVTranslationStack
p75
g1
(g19
g20
(lp76
g1
(g2
g3
(dp77
g5
g1
(g6
g7
S'341'
p78
tp79
Rp80
(dp81
g12
g5
sbsVField
p82
g1
(g6
g7
S'Organism'
p83
tp84
Rp85
(dp86
g12
g82
sbsVTerm
p87
g1
(g6
g7
S'"Scatophagidae"[Organism]'
p88
tp89
Rp90
(dp91
g12
g87
sbsVExplode
p92
g1
(g6
g7
S'Y'
p93
tp94
Rp95
(dp96
g12
g92
sbstp97
Rp98
(dp99
g12
VTermSet
p100
sbag1
(g2
g3
(dp101
g5
g1
(g6
g7
S'7139828'
p102
tp103
Rp104
(dp105
g12
g5
sbsg82
g1
(g6
g7
S'title'
p106
tp107
Rp108
(dp109
g12
g82
sbsg87
g1
(g6
g7
S'16S[title]'
p110
tp111
Rp112
(dp113
g12
g87
sbsg92
g1
(g6
g7
S'N'
p114
tp115
Rp116
(dp117
g12
g92
sbstp118
Rp119
(dp120
g12
g100
sbag1
(g6
g7
S'AND'
p121
tp122
Rp123
(dp124
g12
VOP
p125
sbatp126
Rp127
(dp128
g12
g75
sbsVRetStart
p129
g1
(g6
g7
S'0'
p130
tp131
Rp132
(dp133
g12
g129
sbsVTranslationSet
p134
g1
(g19
g20
(lp135
g1
(g2
g3
(dp136
VTo
p137
g1
(g6
g7
S'"Scatophagidae"[Organism]'
p138
tp139
Rp140
(dp141
g12
g137
sbsVFrom
p142
g1
(g6
g7
S'Scatophagidae[organism]'
p143
tp144
Rp145
(dp146
g12
g142
sbstp147
Rp148
(dp149
g12
VTranslation
p150
sbatp151
Rp152
(dp153
g12
g134
sbstp154
Rp155
(dp156
g12
VeSearchResult
p157
sba.